
headless_icx_-O3:     file format elf64-x86-64


Disassembly of section .init:

0000000000401000 <_init>:
  401000:	48 83 ec 08          	sub    $0x8,%rsp
  401004:	48 8b 05 bd ff 00 00 	mov    0xffbd(%rip),%rax        # 410fc8 <__gmon_start__@Base>
  40100b:	48 85 c0             	test   %rax,%rax
  40100e:	74 02                	je     401012 <_init+0x12>
  401010:	ff d0                	call   *%rax
  401012:	48 83 c4 08          	add    $0x8,%rsp
  401016:	c3                   	ret

Disassembly of section .plt:

0000000000401020 <getenv@plt-0x10>:
  401020:	ff 35 ca ff 00 00    	push   0xffca(%rip)        # 410ff0 <_GLOBAL_OFFSET_TABLE_+0x8>
  401026:	ff 25 cc ff 00 00    	jmp    *0xffcc(%rip)        # 410ff8 <_GLOBAL_OFFSET_TABLE_+0x10>
  40102c:	0f 1f 40 00          	nopl   0x0(%rax)

0000000000401030 <getenv@plt>:
  401030:	ff 25 ca ff 00 00    	jmp    *0xffca(%rip)        # 411000 <getenv@GLIBC_2.2.5>
  401036:	68 00 00 00 00       	push   $0x0
  40103b:	e9 e0 ff ff ff       	jmp    401020 <_init+0x20>

0000000000401040 <free@plt>:
  401040:	ff 25 c2 ff 00 00    	jmp    *0xffc2(%rip)        # 411008 <free@GLIBC_2.2.5>
  401046:	68 01 00 00 00       	push   $0x1
  40104b:	e9 d0 ff ff ff       	jmp    401020 <_init+0x20>

0000000000401050 <strtod@plt>:
  401050:	ff 25 ba ff 00 00    	jmp    *0xffba(%rip)        # 411010 <strtod@GLIBC_2.2.5>
  401056:	68 02 00 00 00       	push   $0x2
  40105b:	e9 c0 ff ff ff       	jmp    401020 <_init+0x20>

0000000000401060 <clock_gettime@plt>:
  401060:	ff 25 b2 ff 00 00    	jmp    *0xffb2(%rip)        # 411018 <clock_gettime@GLIBC_2.17>
  401066:	68 03 00 00 00       	push   $0x3
  40106b:	e9 b0 ff ff ff       	jmp    401020 <_init+0x20>

0000000000401070 <setenv@plt>:
  401070:	ff 25 aa ff 00 00    	jmp    *0xffaa(%rip)        # 411020 <setenv@GLIBC_2.2.5>
  401076:	68 04 00 00 00       	push   $0x4
  40107b:	e9 a0 ff ff ff       	jmp    401020 <_init+0x20>

0000000000401080 <__stack_chk_fail@plt>:
  401080:	ff 25 a2 ff 00 00    	jmp    *0xffa2(%rip)        # 411028 <__stack_chk_fail@GLIBC_2.4>
  401086:	68 05 00 00 00       	push   $0x5
  40108b:	e9 90 ff ff ff       	jmp    401020 <_init+0x20>

0000000000401090 <strchr@plt>:
  401090:	ff 25 9a ff 00 00    	jmp    *0xff9a(%rip)        # 411030 <strchr@GLIBC_2.2.5>
  401096:	68 06 00 00 00       	push   $0x6
  40109b:	e9 80 ff ff ff       	jmp    401020 <_init+0x20>

00000000004010a0 <printf@plt>:
  4010a0:	ff 25 92 ff 00 00    	jmp    *0xff92(%rip)        # 411038 <printf@GLIBC_2.2.5>
  4010a6:	68 07 00 00 00       	push   $0x7
  4010ab:	e9 70 ff ff ff       	jmp    401020 <_init+0x20>

00000000004010b0 <fprintf@plt>:
  4010b0:	ff 25 8a ff 00 00    	jmp    *0xff8a(%rip)        # 411040 <fprintf@GLIBC_2.2.5>
  4010b6:	68 08 00 00 00       	push   $0x8
  4010bb:	e9 60 ff ff ff       	jmp    401020 <_init+0x20>

00000000004010c0 <strtol@plt>:
  4010c0:	ff 25 82 ff 00 00    	jmp    *0xff82(%rip)        # 411048 <strtol@GLIBC_2.2.5>
  4010c6:	68 09 00 00 00       	push   $0x9
  4010cb:	e9 50 ff ff ff       	jmp    401020 <_init+0x20>

00000000004010d0 <malloc@plt>:
  4010d0:	ff 25 7a ff 00 00    	jmp    *0xff7a(%rip)        # 411050 <malloc@GLIBC_2.2.5>
  4010d6:	68 0a 00 00 00       	push   $0xa
  4010db:	e9 40 ff ff ff       	jmp    401020 <_init+0x20>

00000000004010e0 <catopen@plt>:
  4010e0:	ff 25 72 ff 00 00    	jmp    *0xff72(%rip)        # 411058 <catopen@GLIBC_2.2.5>
  4010e6:	68 0b 00 00 00       	push   $0xb
  4010eb:	e9 30 ff ff ff       	jmp    401020 <_init+0x20>

00000000004010f0 <__vsnprintf_chk@plt>:
  4010f0:	ff 25 6a ff 00 00    	jmp    *0xff6a(%rip)        # 411060 <__vsnprintf_chk@GLIBC_2.3.4>
  4010f6:	68 0c 00 00 00       	push   $0xc
  4010fb:	e9 20 ff ff ff       	jmp    401020 <_init+0x20>

0000000000401100 <__strncpy_chk@plt>:
  401100:	ff 25 62 ff 00 00    	jmp    *0xff62(%rip)        # 411068 <__strncpy_chk@GLIBC_2.3.4>
  401106:	68 0d 00 00 00       	push   $0xd
  40110b:	e9 10 ff ff ff       	jmp    401020 <_init+0x20>

0000000000401110 <__printf_chk@plt>:
  401110:	ff 25 5a ff 00 00    	jmp    *0xff5a(%rip)        # 411070 <__printf_chk@GLIBC_2.3.4>
  401116:	68 0e 00 00 00       	push   $0xe
  40111b:	e9 00 ff ff ff       	jmp    401020 <_init+0x20>

0000000000401120 <catgets@plt>:
  401120:	ff 25 52 ff 00 00    	jmp    *0xff52(%rip)        # 411078 <catgets@GLIBC_2.2.5>
  401126:	68 0f 00 00 00       	push   $0xf
  40112b:	e9 f0 fe ff ff       	jmp    401020 <_init+0x20>

0000000000401130 <exit@plt>:
  401130:	ff 25 4a ff 00 00    	jmp    *0xff4a(%rip)        # 411080 <exit@GLIBC_2.2.5>
  401136:	68 10 00 00 00       	push   $0x10
  40113b:	e9 e0 fe ff ff       	jmp    401020 <_init+0x20>

0000000000401140 <fwrite@plt>:
  401140:	ff 25 42 ff 00 00    	jmp    *0xff42(%rip)        # 411088 <fwrite@GLIBC_2.2.5>
  401146:	68 11 00 00 00       	push   $0x11
  40114b:	e9 d0 fe ff ff       	jmp    401020 <_init+0x20>

0000000000401150 <__fprintf_chk@plt>:
  401150:	ff 25 3a ff 00 00    	jmp    *0xff3a(%rip)        # 411090 <__fprintf_chk@GLIBC_2.3.4>
  401156:	68 12 00 00 00       	push   $0x12
  40115b:	e9 c0 fe ff ff       	jmp    401020 <_init+0x20>

Disassembly of section .plt.got:

0000000000401160 <__cxa_finalize@plt>:
  401160:	ff 25 72 fe 00 00    	jmp    *0xfe72(%rip)        # 410fd8 <__cxa_finalize@GLIBC_2.2.5>
  401166:	66 90                	xchg   %ax,%ax

Disassembly of section .text:

0000000000401180 <_GLOBAL__sub_I_fast_mem_ops.c>:
  401180:	f3 0f 1e fa          	endbr64
  401184:	55                   	push   %rbp
  401185:	48 89 e5             	mov    %rsp,%rbp
  401188:	41 56                	push   %r14
  40118a:	53                   	push   %rbx
  40118b:	48 83 ec 20          	sub    $0x20,%rsp
  40118f:	83 3d e6 06 01 00 00 	cmpl   $0x0,0x106e6(%rip)        # 41187c <_ZL18__libirc_cache_tbl+0xc>
  401196:	0f 84 05 01 00 00    	je     4012a1 <_GLOBAL__sub_I_fast_mem_ops.c+0x121>
  40119c:	83 3d cd 06 01 00 00 	cmpl   $0x0,0x106cd(%rip)        # 411870 <_ZL18__libirc_cache_tbl>
  4011a3:	0f 84 0a 01 00 00    	je     4012b3 <_GLOBAL__sub_I_fast_mem_ops.c+0x133>
  4011a9:	83 3d c4 06 01 00 00 	cmpl   $0x0,0x106c4(%rip)        # 411874 <_ZL18__libirc_cache_tbl+0x4>
  4011b0:	0f 84 21 02 00 00    	je     4013d7 <_GLOBAL__sub_I_fast_mem_ops.c+0x257>
  4011b6:	53                   	push   %rbx
  4011b7:	b8 01 00 00 00       	mov    $0x1,%eax
  4011bc:	0f a2                	cpuid
  4011be:	89 5d d0             	mov    %ebx,-0x30(%rbp)
  4011c1:	89 55 e0             	mov    %edx,-0x20(%rbp)
  4011c4:	89 45 ec             	mov    %eax,-0x14(%rbp)
  4011c7:	5b                   	pop    %rbx
  4011c8:	8b 45 e0             	mov    -0x20(%rbp),%eax
  4011cb:	89 c1                	mov    %eax,%ecx
  4011cd:	c1 e9 17             	shr    $0x17,%ecx
  4011d0:	83 e1 01             	and    $0x1,%ecx
  4011d3:	a9 00 00 00 04       	test   $0x4000000,%eax
  4011d8:	41 be 02 00 00 00    	mov    $0x2,%r14d
  4011de:	44 0f 44 f1          	cmove  %ecx,%r14d
  4011e2:	8b 05 98 06 01 00    	mov    0x10698(%rip),%eax        # 411880 <_ZL18__libirc_cache_tbl+0x10>
  4011e8:	85 c0                	test   %eax,%eax
  4011ea:	0f 84 f8 01 00 00    	je     4013e8 <_GLOBAL__sub_I_fast_mem_ops.c+0x268>
  4011f0:	8b 0d a2 06 01 00    	mov    0x106a2(%rip),%ecx        # 411898 <_ZL18__libirc_cache_tbl+0x28>
  4011f6:	0f af 0d 97 06 01 00 	imul   0x10697(%rip),%ecx        # 411894 <_ZL18__libirc_cache_tbl+0x24>
  4011fd:	8b 15 8d 06 01 00    	mov    0x1068d(%rip),%edx        # 411890 <_ZL18__libirc_cache_tbl+0x20>
  401203:	8b 35 7f 06 01 00    	mov    0x1067f(%rip),%esi        # 411888 <_ZL18__libirc_cache_tbl+0x18>
  401209:	0f af 35 74 06 01 00 	imul   0x10674(%rip),%esi        # 411884 <_ZL18__libirc_cache_tbl+0x14>
  401210:	39 d0                	cmp    %edx,%eax
  401212:	0f 47 d0             	cmova  %eax,%edx
  401215:	0f 42 f1             	cmovb  %ecx,%esi
  401218:	8b 0d 8a 06 01 00    	mov    0x1068a(%rip),%ecx        # 4118a8 <_ZL18__libirc_cache_tbl+0x38>
  40121e:	0f af 0d 7f 06 01 00 	imul   0x1067f(%rip),%ecx        # 4118a4 <_ZL18__libirc_cache_tbl+0x34>
  401225:	8b 3d 75 06 01 00    	mov    0x10675(%rip),%edi        # 4118a0 <_ZL18__libirc_cache_tbl+0x30>
  40122b:	39 fa                	cmp    %edi,%edx
  40122d:	0f 43 ce             	cmovae %esi,%ecx
  401230:	0f 46 d7             	cmovbe %edi,%edx
  401233:	48 89 d6             	mov    %rdx,%rsi
  401236:	48 c1 e6 0a          	shl    $0xa,%rsi
  40123a:	48 89 35 6f fe 00 00 	mov    %rsi,0xfe6f(%rip)        # 4110b0 <__libirc_largest_cache_size>
  401241:	48 c1 e2 09          	shl    $0x9,%rdx
  401245:	48 89 15 6c fe 00 00 	mov    %rdx,0xfe6c(%rip)        # 4110b8 <__libirc_largest_cache_size_half>
  40124c:	c1 e0 0a             	shl    $0xa,%eax
  40124f:	48 89 05 6a fe 00 00 	mov    %rax,0xfe6a(%rip)        # 4110c0 <__libirc_data_cache_size>
  401256:	48 89 c2             	mov    %rax,%rdx
  401259:	48 d1 ea             	shr    $1,%rdx
  40125c:	48 89 15 65 fe 00 00 	mov    %rdx,0xfe65(%rip)        # 4110c8 <__libirc_data_cache_size_half>
  401263:	48 89 c2             	mov    %rax,%rdx
  401266:	48 c1 ea 02          	shr    $0x2,%rdx
  40126a:	48 89 15 5f fe 00 00 	mov    %rdx,0xfe5f(%rip)        # 4110d0 <__libirc_largest_cache_size_quoter>
  401271:	48 89 0d 40 06 01 00 	mov    %rcx,0x10640(%rip)        # 4118b8 <__libirc_largest_cachelinesize>
  401278:	48 c7 05 55 fe 00 00 	movq   $0x2000,0xfe55(%rip)        # 4110d8 <__libirc_copy_loop_threshold>
  40127f:	00 20 00 00 
  401283:	48 01 c0             	add    %rax,%rax
  401286:	48 8d 04 40          	lea    (%rax,%rax,2),%rax
  40128a:	48 89 05 4f fe 00 00 	mov    %rax,0xfe4f(%rip)        # 4110e0 <__libirc_rep_move_threshold>
  401291:	48 c7 05 4c fe 00 00 	movq   $0x800,0xfe4c(%rip)        # 4110e8 <__libirc_set_loop_threshold>
  401298:	00 08 00 00 
  40129c:	e9 5d 01 00 00       	jmp    4013fe <_GLOBAL__sub_I_fast_mem_ops.c+0x27e>
  4012a1:	e8 9a b1 00 00       	call   40c440 <_ZL23__libirc_init_cache_tblv>
  4012a6:	83 3d c3 05 01 00 00 	cmpl   $0x0,0x105c3(%rip)        # 411870 <_ZL18__libirc_cache_tbl>
  4012ad:	0f 85 f6 fe ff ff    	jne    4011a9 <_GLOBAL__sub_I_fast_mem_ops.c+0x29>
  4012b3:	c7 45 ec 00 00 00 00 	movl   $0x0,-0x14(%rbp)
  4012ba:	48 8d 75 d0          	lea    -0x30(%rbp),%rsi
  4012be:	48 89 75 e0          	mov    %rsi,-0x20(%rbp)
  4012c2:	50                   	push   %rax
  4012c3:	53                   	push   %rbx
  4012c4:	51                   	push   %rcx
  4012c5:	52                   	push   %rdx
  4012c6:	4c 8b 45 e0          	mov    -0x20(%rbp),%r8
  4012ca:	8b 45 ec             	mov    -0x14(%rbp),%eax
  4012cd:	0f a2                	cpuid
  4012cf:	41 89 00             	mov    %eax,(%r8)
  4012d2:	41 89 58 04          	mov    %ebx,0x4(%r8)
  4012d6:	41 89 48 08          	mov    %ecx,0x8(%r8)
  4012da:	41 89 50 0c          	mov    %edx,0xc(%r8)
  4012de:	5a                   	pop    %rdx
  4012df:	59                   	pop    %rcx
  4012e0:	5b                   	pop    %rbx
  4012e1:	58                   	pop    %rax
  4012e2:	45 31 f6             	xor    %r14d,%r14d
  4012e5:	81 7d d4 41 75 74 68 	cmpl   $0x68747541,-0x2c(%rbp)
  4012ec:	0f 85 0c 01 00 00    	jne    4013fe <_GLOBAL__sub_I_fast_mem_ops.c+0x27e>
  4012f2:	81 7d dc 65 6e 74 69 	cmpl   $0x69746e65,-0x24(%rbp)
  4012f9:	0f 85 ff 00 00 00    	jne    4013fe <_GLOBAL__sub_I_fast_mem_ops.c+0x27e>
  4012ff:	81 7d d8 63 41 4d 44 	cmpl   $0x444d4163,-0x28(%rbp)
  401306:	0f 85 f2 00 00 00    	jne    4013fe <_GLOBAL__sub_I_fast_mem_ops.c+0x27e>
  40130c:	c7 45 ec 01 00 00 00 	movl   $0x1,-0x14(%rbp)
  401313:	48 89 75 e0          	mov    %rsi,-0x20(%rbp)
  401317:	50                   	push   %rax
  401318:	53                   	push   %rbx
  401319:	51                   	push   %rcx
  40131a:	52                   	push   %rdx
  40131b:	4c 8b 45 e0          	mov    -0x20(%rbp),%r8
  40131f:	8b 45 ec             	mov    -0x14(%rbp),%eax
  401322:	0f a2                	cpuid
  401324:	41 89 00             	mov    %eax,(%r8)
  401327:	41 89 58 04          	mov    %ebx,0x4(%r8)
  40132b:	41 89 48 08          	mov    %ecx,0x8(%r8)
  40132f:	41 89 50 0c          	mov    %edx,0xc(%r8)
  401333:	5a                   	pop    %rdx
  401334:	59                   	pop    %rcx
  401335:	5b                   	pop    %rbx
  401336:	58                   	pop    %rax
  401337:	44 8b 75 dc          	mov    -0x24(%rbp),%r14d
  40133b:	41 c1 ee 17          	shr    $0x17,%r14d
  40133f:	41 83 e6 01          	and    $0x1,%r14d
  401343:	c7 45 ec 00 00 00 80 	movl   $0x80000000,-0x14(%rbp)
  40134a:	48 89 75 e0          	mov    %rsi,-0x20(%rbp)
  40134e:	50                   	push   %rax
  40134f:	53                   	push   %rbx
  401350:	51                   	push   %rcx
  401351:	52                   	push   %rdx
  401352:	4c 8b 45 e0          	mov    -0x20(%rbp),%r8
  401356:	8b 45 ec             	mov    -0x14(%rbp),%eax
  401359:	0f a2                	cpuid
  40135b:	41 89 00             	mov    %eax,(%r8)
  40135e:	41 89 58 04          	mov    %ebx,0x4(%r8)
  401362:	41 89 48 08          	mov    %ecx,0x8(%r8)
  401366:	41 89 50 0c          	mov    %edx,0xc(%r8)
  40136a:	5a                   	pop    %rdx
  40136b:	59                   	pop    %rcx
  40136c:	5b                   	pop    %rbx
  40136d:	58                   	pop    %rax
  40136e:	81 7d d0 06 00 00 80 	cmpl   $0x80000006,-0x30(%rbp)
  401375:	0f 82 83 00 00 00    	jb     4013fe <_GLOBAL__sub_I_fast_mem_ops.c+0x27e>
  40137b:	c7 45 ec 06 00 00 80 	movl   $0x80000006,-0x14(%rbp)
  401382:	48 89 75 e0          	mov    %rsi,-0x20(%rbp)
  401386:	50                   	push   %rax
  401387:	53                   	push   %rbx
  401388:	51                   	push   %rcx
  401389:	52                   	push   %rdx
  40138a:	4c 8b 45 e0          	mov    -0x20(%rbp),%r8
  40138e:	8b 45 ec             	mov    -0x14(%rbp),%eax
  401391:	0f a2                	cpuid
  401393:	41 89 00             	mov    %eax,(%r8)
  401396:	41 89 58 04          	mov    %ebx,0x4(%r8)
  40139a:	41 89 48 08          	mov    %ecx,0x8(%r8)
  40139e:	41 89 50 0c          	mov    %edx,0xc(%r8)
  4013a2:	5a                   	pop    %rdx
  4013a3:	59                   	pop    %rcx
  4013a4:	5b                   	pop    %rbx
  4013a5:	58                   	pop    %rax
  4013a6:	8b 45 d8             	mov    -0x28(%rbp),%eax
  4013a9:	48 c1 e8 06          	shr    $0x6,%rax
  4013ad:	25 00 fc ff 03       	and    $0x3fffc00,%eax
  4013b2:	48 89 05 f7 fc 00 00 	mov    %rax,0xfcf7(%rip)        # 4110b0 <__libirc_largest_cache_size>
  4013b9:	48 d1 e8             	shr    $1,%rax
  4013bc:	48 89 05 f5 fc 00 00 	mov    %rax,0xfcf5(%rip)        # 4110b8 <__libirc_largest_cache_size_half>
  4013c3:	48 8b 05 f6 fc 00 00 	mov    0xfcf6(%rip),%rax        # 4110c0 <__libirc_data_cache_size>
  4013ca:	48 c1 e8 02          	shr    $0x2,%rax
  4013ce:	48 89 05 fb fc 00 00 	mov    %rax,0xfcfb(%rip)        # 4110d0 <__libirc_largest_cache_size_quoter>
  4013d5:	eb 27                	jmp    4013fe <_GLOBAL__sub_I_fast_mem_ops.c+0x27e>
  4013d7:	45 31 f6             	xor    %r14d,%r14d
  4013da:	8b 05 a0 04 01 00    	mov    0x104a0(%rip),%eax        # 411880 <_ZL18__libirc_cache_tbl+0x10>
  4013e0:	85 c0                	test   %eax,%eax
  4013e2:	0f 85 08 fe ff ff    	jne    4011f0 <_GLOBAL__sub_I_fast_mem_ops.c+0x70>
  4013e8:	48 8d 3d d3 c1 00 00 	lea    0xc1d3(%rip),%rdi        # 40d5c2 <_IO_stdin_used+0x5c2>
  4013ef:	e8 3c fc ff ff       	call   401030 <getenv@plt>
  4013f4:	48 85 c0             	test   %rax,%rax
  4013f7:	74 05                	je     4013fe <_GLOBAL__sub_I_fast_mem_ops.c+0x27e>
  4013f9:	80 38 00             	cmpb   $0x0,(%rax)
  4013fc:	75 17                	jne    401415 <_GLOBAL__sub_I_fast_mem_ops.c+0x295>
  4013fe:	44 89 35 ab 04 01 00 	mov    %r14d,0x104ab(%rip)        # 4118b0 <__libirc_mem_ops_method>
  401405:	44 89 35 b4 04 01 00 	mov    %r14d,0x104b4(%rip)        # 4118c0 <_ZL12__libirc_tmp>
  40140c:	48 83 c4 20          	add    $0x20,%rsp
  401410:	5b                   	pop    %rbx
  401411:	41 5e                	pop    %r14
  401413:	5d                   	pop    %rbp
  401414:	c3                   	ret
  401415:	bf 01 00 00 00       	mov    $0x1,%edi
  40141a:	31 f6                	xor    %esi,%esi
  40141c:	31 d2                	xor    %edx,%edx
  40141e:	31 c0                	xor    %eax,%eax
  401420:	e8 4b b9 00 00       	call   40cd70 <__libirc_print>
  401425:	bf 01 00 00 00       	mov    $0x1,%edi
  40142a:	be 3d 00 00 00       	mov    $0x3d,%esi
  40142f:	31 d2                	xor    %edx,%edx
  401431:	31 c0                	xor    %eax,%eax
  401433:	e8 38 b9 00 00       	call   40cd70 <__libirc_print>
  401438:	bf 01 00 00 00       	mov    $0x1,%edi
  40143d:	31 f6                	xor    %esi,%esi
  40143f:	31 d2                	xor    %edx,%edx
  401441:	31 c0                	xor    %eax,%eax
  401443:	e8 28 b9 00 00       	call   40cd70 <__libirc_print>
  401448:	bf 01 00 00 00       	mov    $0x1,%edi
  40144d:	e8 de fc ff ff       	call   401130 <exit@plt>
  401452:	66 2e 0f 1f 84 00 00 	cs nopw 0x0(%rax,%rax,1)
  401459:	00 00 00 
  40145c:	0f 1f 40 00          	nopl   0x0(%rax)

0000000000401460 <_start>:
  401460:	31 ed                	xor    %ebp,%ebp
  401462:	49 89 d1             	mov    %rdx,%r9
  401465:	5e                   	pop    %rsi
  401466:	48 89 e2             	mov    %rsp,%rdx
  401469:	48 83 e4 f0          	and    $0xfffffffffffffff0,%rsp
  40146d:	50                   	push   %rax
  40146e:	54                   	push   %rsp
  40146f:	45 31 c0             	xor    %r8d,%r8d
  401472:	31 c9                	xor    %ecx,%ecx
  401474:	48 c7 c7 50 15 40 00 	mov    $0x401550,%rdi
  40147b:	ff 15 2f fb 00 00    	call   *0xfb2f(%rip)        # 410fb0 <__libc_start_main@GLIBC_2.34>
  401481:	f4                   	hlt
  401482:	66 2e 0f 1f 84 00 00 	cs nopw 0x0(%rax,%rax,1)
  401489:	00 00 00 
  40148c:	0f 1f 40 00          	nopl   0x0(%rax)

0000000000401490 <deregister_tm_clones>:
  401490:	48 8d 3d 59 fc 00 00 	lea    0xfc59(%rip),%rdi        # 4110f0 <__TMC_END__>
  401497:	48 8d 05 52 fc 00 00 	lea    0xfc52(%rip),%rax        # 4110f0 <__TMC_END__>
  40149e:	48 39 f8             	cmp    %rdi,%rax
  4014a1:	74 15                	je     4014b8 <deregister_tm_clones+0x28>
  4014a3:	48 8b 05 0e fb 00 00 	mov    0xfb0e(%rip),%rax        # 410fb8 <_ITM_deregisterTMCloneTable@Base>
  4014aa:	48 85 c0             	test   %rax,%rax
  4014ad:	74 09                	je     4014b8 <deregister_tm_clones+0x28>
  4014af:	ff e0                	jmp    *%rax
  4014b1:	0f 1f 80 00 00 00 00 	nopl   0x0(%rax)
  4014b8:	c3                   	ret
  4014b9:	0f 1f 80 00 00 00 00 	nopl   0x0(%rax)

00000000004014c0 <register_tm_clones>:
  4014c0:	48 8d 3d 29 fc 00 00 	lea    0xfc29(%rip),%rdi        # 4110f0 <__TMC_END__>
  4014c7:	48 8d 35 22 fc 00 00 	lea    0xfc22(%rip),%rsi        # 4110f0 <__TMC_END__>
  4014ce:	48 29 fe             	sub    %rdi,%rsi
  4014d1:	48 89 f0             	mov    %rsi,%rax
  4014d4:	48 c1 ee 3f          	shr    $0x3f,%rsi
  4014d8:	48 c1 f8 03          	sar    $0x3,%rax
  4014dc:	48 01 c6             	add    %rax,%rsi
  4014df:	48 d1 fe             	sar    $1,%rsi
  4014e2:	74 14                	je     4014f8 <register_tm_clones+0x38>
  4014e4:	48 8b 05 e5 fa 00 00 	mov    0xfae5(%rip),%rax        # 410fd0 <_ITM_registerTMCloneTable@Base>
  4014eb:	48 85 c0             	test   %rax,%rax
  4014ee:	74 08                	je     4014f8 <register_tm_clones+0x38>
  4014f0:	ff e0                	jmp    *%rax
  4014f2:	66 0f 1f 44 00 00    	nopw   0x0(%rax,%rax,1)
  4014f8:	c3                   	ret
  4014f9:	0f 1f 80 00 00 00 00 	nopl   0x0(%rax)

0000000000401500 <__do_global_dtors_aux>:
  401500:	f3 0f 1e fa          	endbr64
  401504:	80 3d fd fb 00 00 00 	cmpb   $0x0,0xfbfd(%rip)        # 411108 <completed.0>
  40150b:	75 2b                	jne    401538 <__do_global_dtors_aux+0x38>
  40150d:	55                   	push   %rbp
  40150e:	48 83 3d c2 fa 00 00 	cmpq   $0x0,0xfac2(%rip)        # 410fd8 <__cxa_finalize@GLIBC_2.2.5>
  401515:	00 
  401516:	48 89 e5             	mov    %rsp,%rbp
  401519:	74 0c                	je     401527 <__do_global_dtors_aux+0x27>
  40151b:	48 8b 3d 7e fb 00 00 	mov    0xfb7e(%rip),%rdi        # 4110a0 <__dso_handle>
  401522:	e8 39 fc ff ff       	call   401160 <__cxa_finalize@plt>
  401527:	e8 64 ff ff ff       	call   401490 <deregister_tm_clones>
  40152c:	c6 05 d5 fb 00 00 01 	movb   $0x1,0xfbd5(%rip)        # 411108 <completed.0>
  401533:	5d                   	pop    %rbp
  401534:	c3                   	ret
  401535:	0f 1f 00             	nopl   (%rax)
  401538:	c3                   	ret
  401539:	0f 1f 80 00 00 00 00 	nopl   0x0(%rax)

0000000000401540 <frame_dummy>:
  401540:	f3 0f 1e fa          	endbr64
  401544:	e9 77 ff ff ff       	jmp    4014c0 <register_tm_clones>
  401549:	0f 1f 80 00 00 00 00 	nopl   0x0(%rax)

0000000000401550 <main>:
  401550:	55                   	push   %rbp
  401551:	41 57                	push   %r15
  401553:	41 56                	push   %r14
  401555:	41 55                	push   %r13
  401557:	41 54                	push   %r12
  401559:	53                   	push   %rbx
  40155a:	48 83 ec 28          	sub    $0x28,%rsp
  40155e:	c5 f8 ae 5c 24 0c    	vstmxcsr 0xc(%rsp)
  401564:	48 89 f3             	mov    %rsi,%rbx
  401567:	81 4c 24 0c 40 80 00 	orl    $0x8040,0xc(%rsp)
  40156e:	00 
  40156f:	c5 f8 ae 54 24 0c    	vldmxcsr 0xc(%rsp)
  401575:	83 ff 07             	cmp    $0x7,%edi
  401578:	0f 87 fe 01 00 00    	ja     40177c <main+0x22c>
  40157e:	b8 86 00 00 00       	mov    $0x86,%eax
  401583:	0f a3 f8             	bt     %edi,%eax
  401586:	0f 83 f0 01 00 00    	jae    40177c <main+0x22c>
  40158c:	8d 47 ff             	lea    -0x1(%rdi),%eax
  40158f:	83 f8 01             	cmp    $0x1,%eax
  401592:	0f 87 c5 07 00 00    	ja     401d5d <main+0x80d>
  401598:	41 be 80 00 00 00    	mov    $0x80,%r14d
  40159e:	83 ff 01             	cmp    $0x1,%edi
  4015a1:	74 13                	je     4015b6 <main+0x66>
  4015a3:	48 8b 7b 08          	mov    0x8(%rbx),%rdi
  4015a7:	ba 0a 00 00 00       	mov    $0xa,%edx
  4015ac:	31 f6                	xor    %esi,%esi
  4015ae:	e8 0d fb ff ff       	call   4010c0 <strtol@plt>
  4015b3:	49 89 c6             	mov    %rax,%r14
  4015b6:	c5 fb 10 05 6a ba 00 	vmovsd 0xba6a(%rip),%xmm0        # 40d028 <_IO_stdin_used+0x28>
  4015bd:	00 
  4015be:	c5 fb 10 1d 6a ba 00 	vmovsd 0xba6a(%rip),%xmm3        # 40d030 <_IO_stdin_used+0x30>
  4015c5:	00 
  4015c6:	c5 fb 10 25 6a ba 00 	vmovsd 0xba6a(%rip),%xmm4        # 40d038 <_IO_stdin_used+0x38>
  4015cd:	00 
  4015ce:	48 8b 3d 2b fb 00 00 	mov    0xfb2b(%rip),%rdi        # 411100 <stderr@GLIBC_2.2.5>
  4015d5:	be 78 d1 40 00       	mov    $0x40d178,%esi
  4015da:	b0 05                	mov    $0x5,%al
  4015dc:	44 89 35 2d fb 00 00 	mov    %r14d,0xfb2d(%rip)        # 411110 <N>
  4015e3:	c7 05 27 fb 00 00 cd 	movl   $0x3dcccccd,0xfb27(%rip)        # 411114 <dt>
  4015ea:	cc cc 3d 
  4015ed:	c7 05 21 fb 00 00 00 	movl   $0x0,0xfb21(%rip)        # 411118 <diff>
  4015f4:	00 00 00 
  4015f7:	c7 05 1b fb 00 00 00 	movl   $0x0,0xfb1b(%rip)        # 41111c <visc>
  4015fe:	00 00 00 
  401601:	c7 05 15 fb 00 00 00 	movl   $0x40a00000,0xfb15(%rip)        # 411120 <force>
  401608:	00 a0 40 
  40160b:	c7 05 0f fb 00 00 00 	movl   $0x42c80000,0xfb0f(%rip)        # 411124 <source>
  401612:	00 c8 42 
  401615:	c5 f0 57 c9          	vxorps %xmm1,%xmm1,%xmm1
  401619:	c5 e8 57 d2          	vxorps %xmm2,%xmm2,%xmm2
  40161d:	44 89 f2             	mov    %r14d,%edx
  401620:	e8 8b fa ff ff       	call   4010b0 <fprintf@plt>
  401625:	41 83 c6 02          	add    $0x2,%r14d
  401629:	4c 89 74 24 10       	mov    %r14,0x10(%rsp)
  40162e:	45 0f af f6          	imul   %r14d,%r14d
  401632:	4c 89 74 24 20       	mov    %r14,0x20(%rsp)
  401637:	4e 8d 34 b5 00 00 00 	lea    0x0(,%r14,4),%r14
  40163e:	00 
  40163f:	4c 89 f7             	mov    %r14,%rdi
  401642:	e8 89 fa ff ff       	call   4010d0 <malloc@plt>
  401647:	4c 89 f7             	mov    %r14,%rdi
  40164a:	48 89 c3             	mov    %rax,%rbx
  40164d:	48 89 05 d4 fa 00 00 	mov    %rax,0xfad4(%rip)        # 411128 <u>
  401654:	e8 77 fa ff ff       	call   4010d0 <malloc@plt>
  401659:	4c 89 f7             	mov    %r14,%rdi
  40165c:	49 89 c7             	mov    %rax,%r15
  40165f:	48 89 05 ca fa 00 00 	mov    %rax,0xfaca(%rip)        # 411130 <v>
  401666:	e8 65 fa ff ff       	call   4010d0 <malloc@plt>
  40166b:	4c 89 f7             	mov    %r14,%rdi
  40166e:	49 89 c4             	mov    %rax,%r12
  401671:	48 89 05 c0 fa 00 00 	mov    %rax,0xfac0(%rip)        # 411138 <u_prev>
  401678:	e8 53 fa ff ff       	call   4010d0 <malloc@plt>
  40167d:	4c 89 f7             	mov    %r14,%rdi
  401680:	49 89 c5             	mov    %rax,%r13
  401683:	48 89 05 b6 fa 00 00 	mov    %rax,0xfab6(%rip)        # 411140 <v_prev>
  40168a:	e8 41 fa ff ff       	call   4010d0 <malloc@plt>
  40168f:	4c 89 f7             	mov    %r14,%rdi
  401692:	48 89 c5             	mov    %rax,%rbp
  401695:	48 89 05 ac fa 00 00 	mov    %rax,0xfaac(%rip)        # 411148 <dens>
  40169c:	e8 2f fa ff ff       	call   4010d0 <malloc@plt>
  4016a1:	48 89 05 a8 fa 00 00 	mov    %rax,0xfaa8(%rip)        # 411150 <dens_prev>
  4016a8:	48 85 db             	test   %rbx,%rbx
  4016ab:	0f 84 a6 00 00 00    	je     401757 <main+0x207>
  4016b1:	4d 85 ff             	test   %r15,%r15
  4016b4:	0f 84 9d 00 00 00    	je     401757 <main+0x207>
  4016ba:	4d 85 e4             	test   %r12,%r12
  4016bd:	0f 84 94 00 00 00    	je     401757 <main+0x207>
  4016c3:	4d 85 ed             	test   %r13,%r13
  4016c6:	0f 84 8b 00 00 00    	je     401757 <main+0x207>
  4016cc:	48 85 ed             	test   %rbp,%rbp
  4016cf:	0f 84 82 00 00 00    	je     401757 <main+0x207>
  4016d5:	48 85 c0             	test   %rax,%rax
  4016d8:	74 7d                	je     401757 <main+0x207>
  4016da:	83 7c 24 10 00       	cmpl   $0x0,0x10(%rsp)
  4016df:	0f 84 02 02 00 00    	je     4018e7 <main+0x397>
  4016e5:	48 8b 4c 24 20       	mov    0x20(%rsp),%rcx
  4016ea:	83 f9 01             	cmp    $0x1,%ecx
  4016ed:	83 d1 00             	adc    $0x0,%ecx
  4016f0:	4c 63 f1             	movslq %ecx,%r14
  4016f3:	41 83 fe 0c          	cmp    $0xc,%r14d
  4016f7:	0f 86 5c 01 00 00    	jbe    401859 <main+0x309>
  4016fd:	49 c1 e6 02          	shl    $0x2,%r14
  401701:	48 89 c7             	mov    %rax,%rdi
  401704:	31 f6                	xor    %esi,%esi
  401706:	4c 89 f2             	mov    %r14,%rdx
  401709:	e8 62 58 00 00       	call   406f70 <_intel_fast_memset>
  40170e:	48 89 ef             	mov    %rbp,%rdi
  401711:	31 f6                	xor    %esi,%esi
  401713:	4c 89 f2             	mov    %r14,%rdx
  401716:	e8 55 58 00 00       	call   406f70 <_intel_fast_memset>
  40171b:	4c 89 ef             	mov    %r13,%rdi
  40171e:	31 f6                	xor    %esi,%esi
  401720:	4c 89 f2             	mov    %r14,%rdx
  401723:	e8 48 58 00 00       	call   406f70 <_intel_fast_memset>
  401728:	4c 89 e7             	mov    %r12,%rdi
  40172b:	31 f6                	xor    %esi,%esi
  40172d:	4c 89 f2             	mov    %r14,%rdx
  401730:	e8 3b 58 00 00       	call   406f70 <_intel_fast_memset>
  401735:	4c 89 ff             	mov    %r15,%rdi
  401738:	31 f6                	xor    %esi,%esi
  40173a:	4c 89 f2             	mov    %r14,%rdx
  40173d:	e8 2e 58 00 00       	call   406f70 <_intel_fast_memset>
  401742:	48 89 df             	mov    %rbx,%rdi
  401745:	31 f6                	xor    %esi,%esi
  401747:	4c 89 f2             	mov    %r14,%rdx
  40174a:	e8 21 58 00 00       	call   406f70 <_intel_fast_memset>
  40174f:	45 31 ed             	xor    %r13d,%r13d
  401752:	e9 b1 01 00 00       	jmp    401908 <main+0x3b8>
  401757:	48 8b 0d a2 f9 00 00 	mov    0xf9a2(%rip),%rcx        # 411100 <stderr@GLIBC_2.2.5>
  40175e:	bf ba d1 40 00       	mov    $0x40d1ba,%edi
  401763:	be 15 00 00 00       	mov    $0x15,%esi
  401768:	ba 01 00 00 00       	mov    $0x1,%edx
  40176d:	e8 ce f9 ff ff       	call   401140 <fwrite@plt>
  401772:	bf 01 00 00 00       	mov    $0x1,%edi
  401777:	e8 b4 f9 ff ff       	call   401130 <exit@plt>
  40177c:	48 8b 3d 7d f9 00 00 	mov    0xf97d(%rip),%rdi        # 411100 <stderr@GLIBC_2.2.5>
  401783:	48 8b 13             	mov    (%rbx),%rdx
  401786:	be 58 d0 40 00       	mov    $0x40d058,%esi
  40178b:	31 c0                	xor    %eax,%eax
  40178d:	e8 1e f9 ff ff       	call   4010b0 <fprintf@plt>
  401792:	48 8b 0d 67 f9 00 00 	mov    0xf967(%rip),%rcx        # 411100 <stderr@GLIBC_2.2.5>
  401799:	bf 80 d0 40 00       	mov    $0x40d080,%edi
  40179e:	be 07 00 00 00       	mov    $0x7,%esi
  4017a3:	ba 01 00 00 00       	mov    $0x1,%edx
  4017a8:	e8 93 f9 ff ff       	call   401140 <fwrite@plt>
  4017ad:	48 8b 0d 4c f9 00 00 	mov    0xf94c(%rip),%rcx        # 411100 <stderr@GLIBC_2.2.5>
  4017b4:	bf 88 d0 40 00       	mov    $0x40d088,%edi
  4017b9:	be 1b 00 00 00       	mov    $0x1b,%esi
  4017be:	ba 01 00 00 00       	mov    $0x1,%edx
  4017c3:	e8 78 f9 ff ff       	call   401140 <fwrite@plt>
  4017c8:	48 8b 0d 31 f9 00 00 	mov    0xf931(%rip),%rcx        # 411100 <stderr@GLIBC_2.2.5>
  4017cf:	bf a4 d0 40 00       	mov    $0x40d0a4,%edi
  4017d4:	be 15 00 00 00       	mov    $0x15,%esi
  4017d9:	ba 01 00 00 00       	mov    $0x1,%edx
  4017de:	e8 5d f9 ff ff       	call   401140 <fwrite@plt>
  4017e3:	48 8b 0d 16 f9 00 00 	mov    0xf916(%rip),%rcx        # 411100 <stderr@GLIBC_2.2.5>
  4017ea:	bf ba d0 40 00       	mov    $0x40d0ba,%edi
  4017ef:	be 29 00 00 00       	mov    $0x29,%esi
  4017f4:	ba 01 00 00 00       	mov    $0x1,%edx
  4017f9:	e8 42 f9 ff ff       	call   401140 <fwrite@plt>
  4017fe:	48 8b 0d fb f8 00 00 	mov    0xf8fb(%rip),%rcx        # 411100 <stderr@GLIBC_2.2.5>
  401805:	bf e4 d0 40 00       	mov    $0x40d0e4,%edi
  40180a:	be 22 00 00 00       	mov    $0x22,%esi
  40180f:	ba 01 00 00 00       	mov    $0x1,%edx
  401814:	e8 27 f9 ff ff       	call   401140 <fwrite@plt>
  401819:	48 8b 0d e0 f8 00 00 	mov    0xf8e0(%rip),%rcx        # 411100 <stderr@GLIBC_2.2.5>
  401820:	bf 07 d1 40 00       	mov    $0x40d107,%edi
  401825:	be 3b 00 00 00       	mov    $0x3b,%esi
  40182a:	ba 01 00 00 00       	mov    $0x1,%edx
  40182f:	e8 0c f9 ff ff       	call   401140 <fwrite@plt>
  401834:	48 8b 0d c5 f8 00 00 	mov    0xf8c5(%rip),%rcx        # 411100 <stderr@GLIBC_2.2.5>
  40183b:	bf 43 d1 40 00       	mov    $0x40d143,%edi
  401840:	be 34 00 00 00       	mov    $0x34,%esi
  401845:	ba 01 00 00 00       	mov    $0x1,%edx
  40184a:	e8 f1 f8 ff ff       	call   401140 <fwrite@plt>
  40184f:	bf 01 00 00 00       	mov    $0x1,%edi
  401854:	e8 d7 f8 ff ff       	call   401130 <exit@plt>
  401859:	4c 89 f1             	mov    %r14,%rcx
  40185c:	48 83 e1 fc          	and    $0xfffffffffffffffc,%rcx
  401860:	75 04                	jne    401866 <main+0x316>
  401862:	31 c9                	xor    %ecx,%ecx
  401864:	eb 4a                	jmp    4018b0 <main+0x360>
  401866:	31 d2                	xor    %edx,%edx
  401868:	c5 f8 57 c0          	vxorps %xmm0,%xmm0,%xmm0
  40186c:	0f 1f 40 00          	nopl   0x0(%rax)
  401870:	c5 f8 11 04 90       	vmovups %xmm0,(%rax,%rdx,4)
  401875:	c5 f8 11 44 95 00    	vmovups %xmm0,0x0(%rbp,%rdx,4)
  40187b:	c4 c1 78 11 44 95 00 	vmovups %xmm0,0x0(%r13,%rdx,4)
  401882:	c4 c1 78 11 04 94    	vmovups %xmm0,(%r12,%rdx,4)
  401888:	c4 c1 78 11 04 97    	vmovups %xmm0,(%r15,%rdx,4)
  40188e:	c5 f8 11 04 93       	vmovups %xmm0,(%rbx,%rdx,4)
  401893:	48 83 c2 04          	add    $0x4,%rdx
  401897:	48 39 ca             	cmp    %rcx,%rdx
  40189a:	7c d4                	jl     401870 <main+0x320>
  40189c:	4c 39 f1             	cmp    %r14,%rcx
  40189f:	74 46                	je     4018e7 <main+0x397>
  4018a1:	66 66 66 66 66 66 2e 	data16 data16 data16 data16 data16 cs nopw 0x0(%rax,%rax,1)
  4018a8:	0f 1f 84 00 00 00 00 
  4018af:	00 
  4018b0:	c7 04 88 00 00 00 00 	movl   $0x0,(%rax,%rcx,4)
  4018b7:	c7 44 8d 00 00 00 00 	movl   $0x0,0x0(%rbp,%rcx,4)
  4018be:	00 
  4018bf:	41 c7 44 8d 00 00 00 	movl   $0x0,0x0(%r13,%rcx,4)
  4018c6:	00 00 
  4018c8:	41 c7 04 8c 00 00 00 	movl   $0x0,(%r12,%rcx,4)
  4018cf:	00 
  4018d0:	41 c7 04 8f 00 00 00 	movl   $0x0,(%r15,%rcx,4)
  4018d7:	00 
  4018d8:	c7 04 8b 00 00 00 00 	movl   $0x0,(%rbx,%rcx,4)
  4018df:	48 ff c1             	inc    %rcx
  4018e2:	49 39 ce             	cmp    %rcx,%r14
  4018e5:	75 c9                	jne    4018b0 <main+0x360>
  4018e7:	45 31 ed             	xor    %r13d,%r13d
  4018ea:	eb 1c                	jmp    401908 <main+0x3b8>
  4018ec:	0f 1f 40 00          	nopl   0x0(%rax)
  4018f0:	ff c0                	inc    %eax
  4018f2:	41 ff c5             	inc    %r13d
  4018f5:	89 05 ad f7 00 00    	mov    %eax,0xf7ad(%rip)        # 4110a8 <one_step.times>
  4018fb:	41 81 fd 00 08 00 00 	cmp    $0x800,%r13d
  401902:	0f 84 49 04 00 00    	je     401d51 <main+0x801>
  401908:	e8 13 56 00 00       	call   406f20 <wtime>
  40190d:	8b 2d fd f7 00 00    	mov    0xf7fd(%rip),%ebp        # 411110 <N>
  401913:	48 8b 1d 36 f8 00 00 	mov    0xf836(%rip),%rbx        # 411150 <dens_prev>
  40191a:	4c 8b 35 17 f8 00 00 	mov    0xf817(%rip),%r14        # 411138 <u_prev>
  401921:	4c 8b 3d 18 f8 00 00 	mov    0xf818(%rip),%r15        # 411140 <v_prev>
  401928:	c5 fb 11 05 28 f8 00 	vmovsd %xmm0,0xf828(%rip)        # 411158 <one_step.start_t>
  40192f:	00 
  401930:	89 e8                	mov    %ebp,%eax
  401932:	83 c0 02             	add    $0x2,%eax
  401935:	0f 84 65 01 00 00    	je     401aa0 <main+0x550>
  40193b:	0f af c0             	imul   %eax,%eax
  40193e:	83 f8 01             	cmp    $0x1,%eax
  401941:	83 d0 00             	adc    $0x0,%eax
  401944:	4c 63 e0             	movslq %eax,%r12
  401947:	41 83 fc 0c          	cmp    $0xc,%r12d
  40194b:	0f 86 5f 01 00 00    	jbe    401ab0 <main+0x560>
  401951:	4c 89 e0             	mov    %r12,%rax
  401954:	48 c1 e8 02          	shr    $0x2,%rax
  401958:	b9 0c 00 00 00       	mov    $0xc,%ecx
  40195d:	c5 d0 57 ed          	vxorps %xmm5,%xmm5,%xmm5
  401961:	66 66 66 66 66 66 2e 	data16 data16 data16 data16 data16 cs nopw 0x0(%rax,%rax,1)
  401968:	0f 1f 84 00 00 00 00 
  40196f:	00 
  401970:	c4 c1 7a 10 44 0e f4 	vmovss -0xc(%r14,%rcx,1),%xmm0
  401977:	c4 c1 7a 10 4c 0e f8 	vmovss -0x8(%r14,%rcx,1),%xmm1
  40197e:	c4 c1 7a 10 54 0f f4 	vmovss -0xc(%r15,%rcx,1),%xmm2
  401985:	c4 c1 7a 10 5c 0f f8 	vmovss -0x8(%r15,%rcx,1),%xmm3
  40198c:	c4 c1 7a 10 24 0f    	vmovss (%r15,%rcx,1),%xmm4
  401992:	c5 fa 59 c0          	vmulss %xmm0,%xmm0,%xmm0
  401996:	c4 e2 69 a9 d0       	vfmadd213ss %xmm0,%xmm2,%xmm2
  40199b:	c5 f2 59 c1          	vmulss %xmm1,%xmm1,%xmm0
  40199f:	c4 c1 7a 10 4c 0e fc 	vmovss -0x4(%r14,%rcx,1),%xmm1
  4019a6:	c4 e2 61 b9 c3       	vfmadd231ss %xmm3,%xmm3,%xmm0
  4019ab:	c4 c1 7a 10 5c 0f fc 	vmovss -0x4(%r15,%rcx,1),%xmm3
  4019b2:	c5 f2 59 c9          	vmulss %xmm1,%xmm1,%xmm1
  4019b6:	c4 e2 61 a9 d9       	vfmadd213ss %xmm1,%xmm3,%xmm3
  4019bb:	c4 c1 7a 10 0c 0e    	vmovss (%r14,%rcx,1),%xmm1
  4019c1:	c5 f2 59 c9          	vmulss %xmm1,%xmm1,%xmm1
  4019c5:	c4 e2 59 a9 e1       	vfmadd213ss %xmm1,%xmm4,%xmm4
  4019ca:	c5 fa 10 4c 0b f4    	vmovss -0xc(%rbx,%rcx,1),%xmm1
  4019d0:	c4 e3 71 21 ca 10    	vinsertps $0x10,%xmm2,%xmm1,%xmm1
  4019d6:	c5 fa 10 54 0b f8    	vmovss -0x8(%rbx,%rcx,1),%xmm2
  4019dc:	c5 f0 5f cd          	vmaxps %xmm5,%xmm1,%xmm1
  4019e0:	c4 e3 69 21 c0 10    	vinsertps $0x10,%xmm0,%xmm2,%xmm0
  4019e6:	c5 fa 10 54 0b fc    	vmovss -0x4(%rbx,%rcx,1),%xmm2
  4019ec:	c4 e3 69 21 d3 10    	vinsertps $0x10,%xmm3,%xmm2,%xmm2
  4019f2:	c5 fa 10 1c 0b       	vmovss (%rbx,%rcx,1),%xmm3
  4019f7:	48 83 c1 10          	add    $0x10,%rcx
  4019fb:	48 ff c8             	dec    %rax
  4019fe:	c5 e8 5f c0          	vmaxps %xmm0,%xmm2,%xmm0
  401a02:	c5 f8 5f c1          	vmaxps %xmm1,%xmm0,%xmm0
  401a06:	c4 e3 61 21 dc 10    	vinsertps $0x10,%xmm4,%xmm3,%xmm3
  401a0c:	c5 e0 5f e8          	vmaxps %xmm0,%xmm3,%xmm5
  401a10:	0f 85 5a ff ff ff    	jne    401970 <main+0x420>
  401a16:	4c 89 e0             	mov    %r12,%rax
  401a19:	48 83 e0 fc          	and    $0xfffffffffffffffc,%rax
  401a1d:	4c 39 e0             	cmp    %r12,%rax
  401a20:	73 3a                	jae    401a5c <main+0x50c>
  401a22:	66 66 66 66 66 2e 0f 	data16 data16 data16 data16 cs nopw 0x0(%rax,%rax,1)
  401a29:	1f 84 00 00 00 00 00 
  401a30:	c4 c1 7a 10 04 86    	vmovss (%r14,%rax,4),%xmm0
  401a36:	c4 c1 7a 10 0c 87    	vmovss (%r15,%rax,4),%xmm1
  401a3c:	c5 fa 59 c0          	vmulss %xmm0,%xmm0,%xmm0
  401a40:	c4 e2 71 a9 c8       	vfmadd213ss %xmm0,%xmm1,%xmm1
  401a45:	c5 fa 10 04 83       	vmovss (%rbx,%rax,4),%xmm0
  401a4a:	48 ff c0             	inc    %rax
  401a4d:	c4 e3 79 21 c1 10    	vinsertps $0x10,%xmm1,%xmm0,%xmm0
  401a53:	c5 f8 5f ed          	vmaxps %xmm5,%xmm0,%xmm5
  401a57:	49 39 c4             	cmp    %rax,%r12
  401a5a:	75 d4                	jne    401a30 <main+0x4e0>
  401a5c:	49 c1 e4 02          	shl    $0x2,%r12
  401a60:	c5 f8 11 6c 24 10    	vmovups %xmm5,0x10(%rsp)
  401a66:	48 89 df             	mov    %rbx,%rdi
  401a69:	31 f6                	xor    %esi,%esi
  401a6b:	4c 89 e2             	mov    %r12,%rdx
  401a6e:	e8 fd 54 00 00       	call   406f70 <_intel_fast_memset>
  401a73:	4c 89 ff             	mov    %r15,%rdi
  401a76:	31 f6                	xor    %esi,%esi
  401a78:	4c 89 e2             	mov    %r12,%rdx
  401a7b:	e8 f0 54 00 00       	call   406f70 <_intel_fast_memset>
  401a80:	4c 89 f7             	mov    %r14,%rdi
  401a83:	31 f6                	xor    %esi,%esi
  401a85:	4c 89 e2             	mov    %r12,%rdx
  401a88:	e8 e3 54 00 00       	call   406f70 <_intel_fast_memset>
  401a8d:	c5 f8 10 54 24 10    	vmovups 0x10(%rsp),%xmm2
  401a93:	eb 6e                	jmp    401b03 <main+0x5b3>
  401a95:	66 66 2e 0f 1f 84 00 	data16 cs nopw 0x0(%rax,%rax,1)
  401a9c:	00 00 00 00 
  401aa0:	c5 e8 57 d2          	vxorps %xmm2,%xmm2,%xmm2
  401aa4:	eb 6b                	jmp    401b11 <main+0x5c1>
  401aa6:	66 2e 0f 1f 84 00 00 	cs nopw 0x0(%rax,%rax,1)
  401aad:	00 00 00 
  401ab0:	c5 e8 57 d2          	vxorps %xmm2,%xmm2,%xmm2
  401ab4:	31 c0                	xor    %eax,%eax
  401ab6:	66 2e 0f 1f 84 00 00 	cs nopw 0x0(%rax,%rax,1)
  401abd:	00 00 00 
  401ac0:	c4 c1 7a 10 04 86    	vmovss (%r14,%rax,4),%xmm0
  401ac6:	c4 c1 7a 10 0c 87    	vmovss (%r15,%rax,4),%xmm1
  401acc:	c5 fa 59 c0          	vmulss %xmm0,%xmm0,%xmm0
  401ad0:	c4 e2 71 a9 c8       	vfmadd213ss %xmm0,%xmm1,%xmm1
  401ad5:	c5 fa 10 04 83       	vmovss (%rbx,%rax,4),%xmm0
  401ada:	c7 04 83 00 00 00 00 	movl   $0x0,(%rbx,%rax,4)
  401ae1:	41 c7 04 87 00 00 00 	movl   $0x0,(%r15,%rax,4)
  401ae8:	00 
  401ae9:	41 c7 04 86 00 00 00 	movl   $0x0,(%r14,%rax,4)
  401af0:	00 
  401af1:	48 ff c0             	inc    %rax
  401af4:	c4 e3 79 21 c1 10    	vinsertps $0x10,%xmm1,%xmm0,%xmm0
  401afa:	c5 f8 5f d2          	vmaxps %xmm2,%xmm0,%xmm2
  401afe:	49 39 c4             	cmp    %rax,%r12
  401b01:	75 bd                	jne    401ac0 <main+0x570>
  401b03:	c5 fa 16 c2          	vmovshdup %xmm2,%xmm0
  401b07:	c5 f8 2e 05 f5 b4 00 	vucomiss 0xb4f5(%rip),%xmm0        # 40d004 <_IO_stdin_used+0x4>
  401b0e:	00 
  401b0f:	73 2e                	jae    401b3f <main+0x5ef>
  401b11:	c5 fa 10 05 ef b4 00 	vmovss 0xb4ef(%rip),%xmm0        # 40d008 <_IO_stdin_used+0x8>
  401b18:	00 
  401b19:	89 e8                	mov    %ebp,%eax
  401b1b:	c1 e8 1f             	shr    $0x1f,%eax
  401b1e:	8d 4d 03             	lea    0x3(%rbp),%ecx
  401b21:	c5 fa 59 05 f7 f5 00 	vmulss 0xf5f7(%rip),%xmm0,%xmm0        # 411120 <force>
  401b28:	00 
  401b29:	01 e8                	add    %ebp,%eax
  401b2b:	d1 f8                	sar    $1,%eax
  401b2d:	0f af c8             	imul   %eax,%ecx
  401b30:	48 63 c1             	movslq %ecx,%rax
  401b33:	c4 c1 7a 11 04 86    	vmovss %xmm0,(%r14,%rax,4)
  401b39:	c4 c1 7a 11 04 87    	vmovss %xmm0,(%r15,%rax,4)
  401b3f:	c5 f8 2e 15 c5 b4 00 	vucomiss 0xb4c5(%rip),%xmm2        # 40d00c <_IO_stdin_used+0xc>
  401b46:	00 
  401b47:	73 27                	jae    401b70 <main+0x620>
  401b49:	c5 fa 10 05 b7 b4 00 	vmovss 0xb4b7(%rip),%xmm0        # 40d008 <_IO_stdin_used+0x8>
  401b50:	00 
  401b51:	89 e8                	mov    %ebp,%eax
  401b53:	c1 e8 1f             	shr    $0x1f,%eax
  401b56:	c5 fa 59 05 c6 f5 00 	vmulss 0xf5c6(%rip),%xmm0,%xmm0        # 411124 <source>
  401b5d:	00 
  401b5e:	01 e8                	add    %ebp,%eax
  401b60:	83 c5 03             	add    $0x3,%ebp
  401b63:	d1 f8                	sar    $1,%eax
  401b65:	0f af e8             	imul   %eax,%ebp
  401b68:	48 63 c5             	movslq %ebp,%rax
  401b6b:	c5 fa 11 04 83       	vmovss %xmm0,(%rbx,%rax,4)
  401b70:	e8 ab 53 00 00       	call   406f20 <wtime>
  401b75:	c5 fb 5c 05 db f5 00 	vsubsd 0xf5db(%rip),%xmm0,%xmm0        # 411158 <one_step.start_t>
  401b7c:	00 
  401b7d:	c5 fb 10 0d bb b4 00 	vmovsd 0xb4bb(%rip),%xmm1        # 40d040 <_IO_stdin_used+0x40>
  401b84:	00 
  401b85:	8b 05 85 f5 00 00    	mov    0xf585(%rip),%eax        # 411110 <N>
  401b8b:	0f af c0             	imul   %eax,%eax
  401b8e:	c5 fb 59 c1          	vmulsd %xmm1,%xmm0,%xmm0
  401b92:	c5 cb 2a c8          	vcvtsi2sd %eax,%xmm6,%xmm1
  401b96:	c5 fb 5e c1          	vdivsd %xmm1,%xmm0,%xmm0
  401b9a:	c5 fb 58 05 c6 f5 00 	vaddsd 0xf5c6(%rip),%xmm0,%xmm0        # 411168 <one_step.react_ns_p_cell>
  401ba1:	00 
  401ba2:	c5 fb 11 05 be f5 00 	vmovsd %xmm0,0xf5be(%rip)        # 411168 <one_step.react_ns_p_cell>
  401ba9:	00 
  401baa:	e8 71 53 00 00       	call   406f20 <wtime>
  401baf:	c5 fb 11 05 a1 f5 00 	vmovsd %xmm0,0xf5a1(%rip)        # 411158 <one_step.start_t>
  401bb6:	00 
  401bb7:	c5 fa 10 05 5d f5 00 	vmovss 0xf55d(%rip),%xmm0        # 41111c <visc>
  401bbe:	00 
  401bbf:	c5 fa 10 0d 4d f5 00 	vmovss 0xf54d(%rip),%xmm1        # 411114 <dt>
  401bc6:	00 
  401bc7:	8b 3d 43 f5 00 00    	mov    0xf543(%rip),%edi        # 411110 <N>
  401bcd:	48 8b 35 54 f5 00 00 	mov    0xf554(%rip),%rsi        # 411128 <u>
  401bd4:	48 8b 15 55 f5 00 00 	mov    0xf555(%rip),%rdx        # 411130 <v>
  401bdb:	48 8b 0d 56 f5 00 00 	mov    0xf556(%rip),%rcx        # 411138 <u_prev>
  401be2:	4c 8b 05 57 f5 00 00 	mov    0xf557(%rip),%r8        # 411140 <v_prev>
  401be9:	e8 a2 13 00 00       	call   402f90 <vel_step>
  401bee:	e8 2d 53 00 00       	call   406f20 <wtime>
  401bf3:	c5 fb 5c 05 5d f5 00 	vsubsd 0xf55d(%rip),%xmm0,%xmm0        # 411158 <one_step.start_t>
  401bfa:	00 
  401bfb:	8b 05 0f f5 00 00    	mov    0xf50f(%rip),%eax        # 411110 <N>
  401c01:	c5 fb 59 05 37 b4 00 	vmulsd 0xb437(%rip),%xmm0,%xmm0        # 40d040 <_IO_stdin_used+0x40>
  401c08:	00 
  401c09:	0f af c0             	imul   %eax,%eax
  401c0c:	c5 cb 2a c8          	vcvtsi2sd %eax,%xmm6,%xmm1
  401c10:	c5 fb 5e c1          	vdivsd %xmm1,%xmm0,%xmm0
  401c14:	c5 fb 58 05 54 f5 00 	vaddsd 0xf554(%rip),%xmm0,%xmm0        # 411170 <one_step.vel_ns_p_cell>
  401c1b:	00 
  401c1c:	c5 fb 11 05 4c f5 00 	vmovsd %xmm0,0xf54c(%rip)        # 411170 <one_step.vel_ns_p_cell>
  401c23:	00 
  401c24:	e8 f7 52 00 00       	call   406f20 <wtime>
  401c29:	c5 fb 11 05 27 f5 00 	vmovsd %xmm0,0xf527(%rip)        # 411158 <one_step.start_t>
  401c30:	00 
  401c31:	c5 fa 10 05 df f4 00 	vmovss 0xf4df(%rip),%xmm0        # 411118 <diff>
  401c38:	00 
  401c39:	c5 fa 10 0d d3 f4 00 	vmovss 0xf4d3(%rip),%xmm1        # 411114 <dt>
  401c40:	00 
  401c41:	8b 3d c9 f4 00 00    	mov    0xf4c9(%rip),%edi        # 411110 <N>
  401c47:	48 8b 35 fa f4 00 00 	mov    0xf4fa(%rip),%rsi        # 411148 <dens>
  401c4e:	48 8b 15 fb f4 00 00 	mov    0xf4fb(%rip),%rdx        # 411150 <dens_prev>
  401c55:	48 8b 0d cc f4 00 00 	mov    0xf4cc(%rip),%rcx        # 411128 <u>
  401c5c:	4c 8b 05 cd f4 00 00 	mov    0xf4cd(%rip),%r8        # 411130 <v>
  401c63:	e8 f8 01 00 00       	call   401e60 <dens_step>
  401c68:	e8 b3 52 00 00       	call   406f20 <wtime>
  401c6d:	c5 fb 5c 05 e3 f4 00 	vsubsd 0xf4e3(%rip),%xmm0,%xmm0        # 411158 <one_step.start_t>
  401c74:	00 
  401c75:	8b 05 95 f4 00 00    	mov    0xf495(%rip),%eax        # 411110 <N>
  401c7b:	c5 fb 59 05 bd b3 00 	vmulsd 0xb3bd(%rip),%xmm0,%xmm0        # 40d040 <_IO_stdin_used+0x40>
  401c82:	00 
  401c83:	0f af c0             	imul   %eax,%eax
  401c86:	c5 cb 2a c8          	vcvtsi2sd %eax,%xmm6,%xmm1
  401c8a:	c5 fb 5e c1          	vdivsd %xmm1,%xmm0,%xmm0
  401c8e:	c5 fb 58 05 e2 f4 00 	vaddsd 0xf4e2(%rip),%xmm0,%xmm0        # 411178 <one_step.dens_ns_p_cell>
  401c95:	00 
  401c96:	c5 fb 11 05 da f4 00 	vmovsd %xmm0,0xf4da(%rip)        # 411178 <one_step.dens_ns_p_cell>
  401c9d:	00 
  401c9e:	e8 7d 52 00 00       	call   406f20 <wtime>
  401ca3:	c5 fb 5c 05 b5 f4 00 	vsubsd 0xf4b5(%rip),%xmm0,%xmm0        # 411160 <one_step.one_second>
  401caa:	00 
  401cab:	c5 fb 10 25 95 b3 00 	vmovsd 0xb395(%rip),%xmm4        # 40d048 <_IO_stdin_used+0x48>
  401cb2:	00 
  401cb3:	8b 05 ef f3 00 00    	mov    0xf3ef(%rip),%eax        # 4110a8 <one_step.times>
  401cb9:	c5 f9 2e c4          	vucomisd %xmm4,%xmm0
  401cbd:	0f 86 2d fc ff ff    	jbe    4018f0 <main+0x3a0>
  401cc3:	c5 cb 2a c0          	vcvtsi2sd %eax,%xmm6,%xmm0
  401cc7:	c5 fb 10 0d 99 f4 00 	vmovsd 0xf499(%rip),%xmm1        # 411168 <one_step.react_ns_p_cell>
  401cce:	00 
  401ccf:	c5 fb 10 15 99 f4 00 	vmovsd 0xf499(%rip),%xmm2        # 411170 <one_step.vel_ns_p_cell>
  401cd6:	00 
  401cd7:	c5 fb 10 1d 99 f4 00 	vmovsd 0xf499(%rip),%xmm3        # 411178 <one_step.dens_ns_p_cell>
  401cde:	00 
  401cdf:	bf d0 d1 40 00       	mov    $0x40d1d0,%edi
  401ce4:	b0 04                	mov    $0x4,%al
  401ce6:	c5 db 5e e0          	vdivsd %xmm0,%xmm4,%xmm4
  401cea:	c5 e3 58 c2          	vaddsd %xmm2,%xmm3,%xmm0
  401cee:	c5 db 59 e9          	vmulsd %xmm1,%xmm4,%xmm5
  401cf2:	c5 f3 59 cc          	vmulsd %xmm4,%xmm1,%xmm1
  401cf6:	c5 eb 59 d4          	vmulsd %xmm4,%xmm2,%xmm2
  401cfa:	c5 e3 59 dc          	vmulsd %xmm4,%xmm3,%xmm3
  401cfe:	c4 e2 d9 a9 c5       	vfmadd213sd %xmm5,%xmm4,%xmm0
  401d03:	e8 98 f3 ff ff       	call   4010a0 <printf@plt>
  401d08:	e8 13 52 00 00       	call   406f20 <wtime>
  401d0d:	c5 fb 11 05 4b f4 00 	vmovsd %xmm0,0xf44b(%rip)        # 411160 <one_step.one_second>
  401d14:	00 
  401d15:	48 c7 05 48 f4 00 00 	movq   $0x0,0xf448(%rip)        # 411168 <one_step.react_ns_p_cell>
  401d1c:	00 00 00 00 
  401d20:	48 c7 05 45 f4 00 00 	movq   $0x0,0xf445(%rip)        # 411170 <one_step.vel_ns_p_cell>
  401d27:	00 00 00 00 
  401d2b:	48 c7 05 42 f4 00 00 	movq   $0x0,0xf442(%rip)        # 411178 <one_step.dens_ns_p_cell>
  401d32:	00 00 00 00 
  401d36:	b8 01 00 00 00       	mov    $0x1,%eax
  401d3b:	41 ff c5             	inc    %r13d
  401d3e:	89 05 64 f3 00 00    	mov    %eax,0xf364(%rip)        # 4110a8 <one_step.times>
  401d44:	41 81 fd 00 08 00 00 	cmp    $0x800,%r13d
  401d4b:	0f 85 b7 fb ff ff    	jne    401908 <main+0x3b8>
  401d51:	e8 9a 00 00 00       	call   401df0 <free_data>
  401d56:	31 ff                	xor    %edi,%edi
  401d58:	e8 d3 f3 ff ff       	call   401130 <exit@plt>
  401d5d:	48 8b 7b 08          	mov    0x8(%rbx),%rdi
  401d61:	ba 0a 00 00 00       	mov    $0xa,%edx
  401d66:	31 f6                	xor    %esi,%esi
  401d68:	e8 53 f3 ff ff       	call   4010c0 <strtol@plt>
  401d6d:	49 89 c6             	mov    %rax,%r14
  401d70:	44 89 35 99 f3 00 00 	mov    %r14d,0xf399(%rip)        # 411110 <N>
  401d77:	31 f6                	xor    %esi,%esi
  401d79:	48 8b 7b 10          	mov    0x10(%rbx),%rdi
  401d7d:	e8 ce f2 ff ff       	call   401050 <strtod@plt>
  401d82:	c5 fb 5a c0          	vcvtsd2ss %xmm0,%xmm0,%xmm0
  401d86:	31 f6                	xor    %esi,%esi
  401d88:	c5 fa 11 05 84 f3 00 	vmovss %xmm0,0xf384(%rip)        # 411114 <dt>
  401d8f:	00 
  401d90:	48 8b 7b 18          	mov    0x18(%rbx),%rdi
  401d94:	e8 b7 f2 ff ff       	call   401050 <strtod@plt>
  401d99:	c5 fb 5a c0          	vcvtsd2ss %xmm0,%xmm0,%xmm0
  401d9d:	31 f6                	xor    %esi,%esi
  401d9f:	c5 fa 11 05 71 f3 00 	vmovss %xmm0,0xf371(%rip)        # 411118 <diff>
  401da6:	00 
  401da7:	48 8b 7b 20          	mov    0x20(%rbx),%rdi
  401dab:	e8 a0 f2 ff ff       	call   401050 <strtod@plt>
  401db0:	c5 fb 5a c0          	vcvtsd2ss %xmm0,%xmm0,%xmm0
  401db4:	31 f6                	xor    %esi,%esi
  401db6:	c5 fa 11 05 5e f3 00 	vmovss %xmm0,0xf35e(%rip)        # 41111c <visc>
  401dbd:	00 
  401dbe:	48 8b 7b 28          	mov    0x28(%rbx),%rdi
  401dc2:	e8 89 f2 ff ff       	call   401050 <strtod@plt>
  401dc7:	c5 fb 5a c0          	vcvtsd2ss %xmm0,%xmm0,%xmm0
  401dcb:	31 f6                	xor    %esi,%esi
  401dcd:	c5 fa 11 05 4b f3 00 	vmovss %xmm0,0xf34b(%rip)        # 411120 <force>
  401dd4:	00 
  401dd5:	48 8b 7b 30          	mov    0x30(%rbx),%rdi
  401dd9:	e8 72 f2 ff ff       	call   401050 <strtod@plt>
  401dde:	c5 fb 5a c0          	vcvtsd2ss %xmm0,%xmm0,%xmm0
  401de2:	c5 fa 11 05 3a f3 00 	vmovss %xmm0,0xf33a(%rip)        # 411124 <source>
  401de9:	00 
  401dea:	e9 36 f8 ff ff       	jmp    401625 <main+0xd5>
  401def:	90                   	nop

0000000000401df0 <free_data>:
  401df0:	50                   	push   %rax
  401df1:	48 8b 3d 30 f3 00 00 	mov    0xf330(%rip),%rdi        # 411128 <u>
  401df8:	48 85 ff             	test   %rdi,%rdi
  401dfb:	74 05                	je     401e02 <free_data+0x12>
  401dfd:	e8 3e f2 ff ff       	call   401040 <free@plt>
  401e02:	48 8b 3d 27 f3 00 00 	mov    0xf327(%rip),%rdi        # 411130 <v>
  401e09:	48 85 ff             	test   %rdi,%rdi
  401e0c:	74 05                	je     401e13 <free_data+0x23>
  401e0e:	e8 2d f2 ff ff       	call   401040 <free@plt>
  401e13:	48 8b 3d 1e f3 00 00 	mov    0xf31e(%rip),%rdi        # 411138 <u_prev>
  401e1a:	48 85 ff             	test   %rdi,%rdi
  401e1d:	74 05                	je     401e24 <free_data+0x34>
  401e1f:	e8 1c f2 ff ff       	call   401040 <free@plt>
  401e24:	48 8b 3d 15 f3 00 00 	mov    0xf315(%rip),%rdi        # 411140 <v_prev>
  401e2b:	48 85 ff             	test   %rdi,%rdi
  401e2e:	74 05                	je     401e35 <free_data+0x45>
  401e30:	e8 0b f2 ff ff       	call   401040 <free@plt>
  401e35:	48 8b 3d 0c f3 00 00 	mov    0xf30c(%rip),%rdi        # 411148 <dens>
  401e3c:	48 85 ff             	test   %rdi,%rdi
  401e3f:	74 05                	je     401e46 <free_data+0x56>
  401e41:	e8 fa f1 ff ff       	call   401040 <free@plt>
  401e46:	48 8b 3d 03 f3 00 00 	mov    0xf303(%rip),%rdi        # 411150 <dens_prev>
  401e4d:	48 85 ff             	test   %rdi,%rdi
  401e50:	74 06                	je     401e58 <free_data+0x68>
  401e52:	58                   	pop    %rax
  401e53:	e9 e8 f1 ff ff       	jmp    401040 <free@plt>
  401e58:	58                   	pop    %rax
  401e59:	c3                   	ret
  401e5a:	66 0f 1f 44 00 00    	nopw   0x0(%rax,%rax,1)

0000000000401e60 <dens_step>:
  401e60:	41 57                	push   %r15
  401e62:	41 56                	push   %r14
  401e64:	41 55                	push   %r13
  401e66:	41 54                	push   %r12
  401e68:	53                   	push   %rbx
  401e69:	48 83 ec 10          	sub    $0x10,%rsp
  401e6d:	41 89 fd             	mov    %edi,%r13d
  401e70:	41 8d 45 02          	lea    0x2(%r13),%eax
  401e74:	4c 89 c3             	mov    %r8,%rbx
  401e77:	49 89 ce             	mov    %rcx,%r14
  401e7a:	49 89 d7             	mov    %rdx,%r15
  401e7d:	49 89 f4             	mov    %rsi,%r12
  401e80:	0f af c0             	imul   %eax,%eax
  401e83:	85 c0                	test   %eax,%eax
  401e85:	0f 84 9f 00 00 00    	je     401f2a <dens_step+0xca>
  401e8b:	89 c0                	mov    %eax,%eax
  401e8d:	49 8d 4c 87 fc       	lea    -0x4(%r15,%rax,4),%rcx
  401e92:	4c 39 e1             	cmp    %r12,%rcx
  401e95:	72 35                	jb     401ecc <dens_step+0x6c>
  401e97:	49 8d 4c 84 fc       	lea    -0x4(%r12,%rax,4),%rcx
  401e9c:	4c 39 f9             	cmp    %r15,%rcx
  401e9f:	72 2b                	jb     401ecc <dens_step+0x6c>
  401ea1:	31 c9                	xor    %ecx,%ecx
  401ea3:	66 66 66 66 2e 0f 1f 	data16 data16 data16 cs nopw 0x0(%rax,%rax,1)
  401eaa:	84 00 00 00 00 00 
  401eb0:	c4 c1 7a 10 14 8f    	vmovss (%r15,%rcx,4),%xmm2
  401eb6:	c4 c2 71 a9 14 8c    	vfmadd213ss (%r12,%rcx,4),%xmm1,%xmm2
  401ebc:	c4 c1 7a 11 14 8c    	vmovss %xmm2,(%r12,%rcx,4)
  401ec2:	48 ff c1             	inc    %rcx
  401ec5:	48 39 c8             	cmp    %rcx,%rax
  401ec8:	75 e6                	jne    401eb0 <dens_step+0x50>
  401eca:	eb 5e                	jmp    401f2a <dens_step+0xca>
  401ecc:	b9 f8 ff ff ff       	mov    $0xfffffff8,%ecx
  401ed1:	48 21 c1             	and    %rax,%rcx
  401ed4:	74 2c                	je     401f02 <dens_step+0xa2>
  401ed6:	c4 e2 7d 18 d9       	vbroadcastss %xmm1,%ymm3
  401edb:	31 d2                	xor    %edx,%edx
  401edd:	0f 1f 00             	nopl   (%rax)
  401ee0:	c4 c1 7c 10 14 97    	vmovups (%r15,%rdx,4),%ymm2
  401ee6:	c4 c2 65 a8 14 94    	vfmadd213ps (%r12,%rdx,4),%ymm3,%ymm2
  401eec:	c4 c1 7c 11 14 94    	vmovups %ymm2,(%r12,%rdx,4)
  401ef2:	48 83 c2 08          	add    $0x8,%rdx
  401ef6:	48 39 ca             	cmp    %rcx,%rdx
  401ef9:	72 e5                	jb     401ee0 <dens_step+0x80>
  401efb:	48 39 c1             	cmp    %rax,%rcx
  401efe:	75 10                	jne    401f10 <dens_step+0xb0>
  401f00:	eb 28                	jmp    401f2a <dens_step+0xca>
  401f02:	31 c9                	xor    %ecx,%ecx
  401f04:	66 66 66 2e 0f 1f 84 	data16 data16 cs nopw 0x0(%rax,%rax,1)
  401f0b:	00 00 00 00 00 
  401f10:	c4 c1 7a 10 14 8f    	vmovss (%r15,%rcx,4),%xmm2
  401f16:	c4 c2 71 a9 14 8c    	vfmadd213ss (%r12,%rcx,4),%xmm1,%xmm2
  401f1c:	c4 c1 7a 11 14 8c    	vmovss %xmm2,(%r12,%rcx,4)
  401f22:	48 ff c1             	inc    %rcx
  401f25:	48 39 c8             	cmp    %rcx,%rax
  401f28:	75 e6                	jne    401f10 <dens_step+0xb0>
  401f2a:	44 89 ef             	mov    %r13d,%edi
  401f2d:	31 f6                	xor    %esi,%esi
  401f2f:	4c 89 fa             	mov    %r15,%rdx
  401f32:	4c 89 e1             	mov    %r12,%rcx
  401f35:	c5 f8 11 0c 24       	vmovups %xmm1,(%rsp)
  401f3a:	c5 f8 77             	vzeroupper
  401f3d:	e8 2e 00 00 00       	call   401f70 <diffuse>
  401f42:	c5 f8 10 04 24       	vmovups (%rsp),%xmm0
  401f47:	44 89 ef             	mov    %r13d,%edi
  401f4a:	31 f6                	xor    %esi,%esi
  401f4c:	4c 89 e2             	mov    %r12,%rdx
  401f4f:	4c 89 f9             	mov    %r15,%rcx
  401f52:	4d 89 f0             	mov    %r14,%r8
  401f55:	49 89 d9             	mov    %rbx,%r9
  401f58:	48 83 c4 10          	add    $0x10,%rsp
  401f5c:	5b                   	pop    %rbx
  401f5d:	41 5c                	pop    %r12
  401f5f:	41 5d                	pop    %r13
  401f61:	41 5e                	pop    %r14
  401f63:	41 5f                	pop    %r15
  401f65:	e9 d6 08 00 00       	jmp    402840 <advect>
  401f6a:	66 0f 1f 44 00 00    	nopw   0x0(%rax,%rax,1)

0000000000401f70 <diffuse>:
  401f70:	55                   	push   %rbp
  401f71:	41 57                	push   %r15
  401f73:	41 56                	push   %r14
  401f75:	41 55                	push   %r13
  401f77:	41 54                	push   %r12
  401f79:	53                   	push   %rbx
  401f7a:	48 81 ec 88 00 00 00 	sub    $0x88,%rsp
  401f81:	48 89 d3             	mov    %rdx,%rbx
  401f84:	89 74 24 3c          	mov    %esi,0x3c(%rsp)
  401f88:	85 ff                	test   %edi,%edi
  401f8a:	0f 84 70 08 00 00    	je     402800 <diffuse+0x890>
  401f90:	89 f8                	mov    %edi,%eax
  401f92:	c4 e1 ea 2a d0       	vcvtsi2ss %rax,%xmm2,%xmm2
  401f97:	c5 fa 59 c1          	vmulss %xmm1,%xmm0,%xmm0
  401f9b:	c5 fa 10 1d 69 b0 00 	vmovss 0xb069(%rip),%xmm3        # 40d00c <_IO_stdin_used+0xc>
  401fa2:	00 
  401fa3:	c5 fa 10 0d 65 b0 00 	vmovss 0xb065(%rip),%xmm1        # 40d010 <_IO_stdin_used+0x10>
  401faa:	00 
  401fab:	48 89 44 24 68       	mov    %rax,0x68(%rsp)
  401fb0:	8d 47 02             	lea    0x2(%rdi),%eax
  401fb3:	49 89 ce             	mov    %rcx,%r14
  401fb6:	b9 02 00 00 00       	mov    $0x2,%ecx
  401fbb:	48 89 7c 24 78       	mov    %rdi,0x78(%rsp)
  401fc0:	89 04 24             	mov    %eax,(%rsp)
  401fc3:	8d 47 01             	lea    0x1(%rdi),%eax
  401fc6:	83 f8 03             	cmp    $0x3,%eax
  401fc9:	89 44 24 34          	mov    %eax,0x34(%rsp)
  401fcd:	c5 ea 59 d2          	vmulss %xmm2,%xmm2,%xmm2
  401fd1:	0f 43 c8             	cmovae %eax,%ecx
  401fd4:	4c 8d 69 ff          	lea    -0x1(%rcx),%r13
  401fd8:	48 8d 41 fe          	lea    -0x2(%rcx),%rax
  401fdc:	ff c9                	dec    %ecx
  401fde:	48 89 44 24 10       	mov    %rax,0x10(%rsp)
  401fe3:	89 c8                	mov    %ecx,%eax
  401fe5:	83 e0 fe             	and    $0xfffffffe,%eax
  401fe8:	45 89 ec             	mov    %r13d,%r12d
  401feb:	41 83 e4 07          	and    $0x7,%r12d
  401fef:	4c 89 6c 24 50       	mov    %r13,0x50(%rsp)
  401ff4:	48 89 4c 24 70       	mov    %rcx,0x70(%rsp)
  401ff9:	c5 ea 59 d0          	vmulss %xmm0,%xmm2,%xmm2
  401ffd:	89 44 24 40          	mov    %eax,0x40(%rsp)
  402001:	4c 89 e8             	mov    %r13,%rax
  402004:	8d 44 3f 04          	lea    0x4(%rdi,%rdi,1),%eax
  402008:	49 83 e5 f8          	and    $0xfffffffffffffff8,%r13
  40200c:	48 89 44 24 48       	mov    %rax,0x48(%rsp)
  402011:	8d 04 3f             	lea    (%rdi,%rdi,1),%eax
  402014:	c4 e2 69 a9 cb       	vfmadd213ss %xmm3,%xmm2,%xmm1
  402019:	48 89 44 24 60       	mov    %rax,0x60(%rsp)
  40201e:	8d 04 7f             	lea    (%rdi,%rdi,2),%eax
  402021:	c5 fa 11 54 24 38    	vmovss %xmm2,0x38(%rsp)
  402027:	48 89 44 24 58       	mov    %rax,0x58(%rsp)
  40202c:	8d 44 7f 06          	lea    0x6(%rdi,%rdi,2),%eax
  402030:	c5 e2 5e d9          	vdivss %xmm1,%xmm3,%xmm3
  402034:	89 44 24 2c          	mov    %eax,0x2c(%rsp)
  402038:	31 c0                	xor    %eax,%eax
  40203a:	c5 fa 11 5c 24 30    	vmovss %xmm3,0x30(%rsp)
  402040:	eb 3e                	jmp    402080 <diffuse+0x110>
  402042:	66 66 66 66 66 2e 0f 	data16 data16 data16 data16 cs nopw 0x0(%rax,%rax,1)
  402049:	1f 84 00 00 00 00 00 
  402050:	8b 74 24 3c          	mov    0x3c(%rsp),%esi
  402054:	48 8b 7c 24 78       	mov    0x78(%rsp),%rdi
  402059:	48 89 da             	mov    %rbx,%rdx
  40205c:	e8 7f 41 00 00       	call   4061e0 <set_bnd>
  402061:	c5 fa 10 5c 24 30    	vmovss 0x30(%rsp),%xmm3
  402067:	c5 fa 10 54 24 38    	vmovss 0x38(%rsp),%xmm2
  40206d:	48 8b 84 24 80 00 00 	mov    0x80(%rsp),%rax
  402074:	00 
  402075:	ff c0                	inc    %eax
  402077:	83 f8 14             	cmp    $0x14,%eax
  40207a:	0f 84 a5 07 00 00    	je     402825 <diffuse+0x8b5>
  402080:	83 7c 24 34 03       	cmpl   $0x3,0x34(%rsp)
  402085:	41 bb 01 00 00 00    	mov    $0x1,%r11d
  40208b:	48 89 84 24 80 00 00 	mov    %rax,0x80(%rsp)
  402092:	00 
  402093:	0f 83 77 02 00 00    	jae    402310 <diffuse+0x3a0>
  402099:	f6 44 24 70 01       	testb  $0x1,0x70(%rsp)
  40209e:	74 b0                	je     402050 <diffuse+0xe0>
  4020a0:	8b 04 24             	mov    (%rsp),%eax
  4020a3:	41 8d 4b 01          	lea    0x1(%r11),%ecx
  4020a7:	44 89 da             	mov    %r11d,%edx
  4020aa:	41 ff cb             	dec    %r11d
  4020ad:	be 01 00 00 00       	mov    $0x1,%esi
  4020b2:	0f af d0             	imul   %eax,%edx
  4020b5:	44 0f af d8          	imul   %eax,%r11d
  4020b9:	0f af c8             	imul   %eax,%ecx
  4020bc:	48 83 7c 24 10 07    	cmpq   $0x7,0x10(%rsp)
  4020c2:	0f 82 d7 01 00 00    	jb     40229f <diffuse+0x32f>
  4020c8:	89 d7                	mov    %edx,%edi
  4020ca:	41 89 c8             	mov    %ecx,%r8d
  4020cd:	4c 89 5c 24 08       	mov    %r11,0x8(%rsp)
  4020d2:	45 89 d9             	mov    %r11d,%r9d
  4020d5:	31 f6                	xor    %esi,%esi
  4020d7:	66 0f 1f 84 00 00 00 	nopw   0x0(%rax,%rax,1)
  4020de:	00 00 
  4020e0:	44 8d 1c 37          	lea    (%rdi,%rsi,1),%r11d
  4020e4:	45 8d 7c 31 01       	lea    0x1(%r9,%rsi,1),%r15d
  4020e9:	8d 44 37 02          	lea    0x2(%rdi,%rsi,1),%eax
  4020ed:	44 8d 54 37 01       	lea    0x1(%rdi,%rsi,1),%r10d
  4020f2:	41 8d 6c 30 05       	lea    0x5(%r8,%rsi,1),%ebp
  4020f7:	c4 a1 7a 10 04 9b    	vmovss (%rbx,%r11,4),%xmm0
  4020fd:	45 8d 5c 30 01       	lea    0x1(%r8,%rsi,1),%r11d
  402102:	c4 a1 7a 10 0c bb    	vmovss (%rbx,%r15,4),%xmm1
  402108:	c5 fa 58 04 83       	vaddss (%rbx,%rax,4),%xmm0,%xmm0
  40210d:	44 8d 7c 37 03       	lea    0x3(%rdi,%rsi,1),%r15d
  402112:	c4 a1 72 58 0c 9b    	vaddss (%rbx,%r11,4),%xmm1,%xmm1
  402118:	45 8d 5c 31 02       	lea    0x2(%r9,%rsi,1),%r11d
  40211d:	c5 f2 58 c0          	vaddss %xmm0,%xmm1,%xmm0
  402121:	c4 82 69 a9 04 96    	vfmadd213ss (%r14,%r10,4),%xmm2,%xmm0
  402127:	c5 fa 59 c3          	vmulss %xmm3,%xmm0,%xmm0
  40212b:	c4 a1 7a 11 04 93    	vmovss %xmm0,(%rbx,%r10,4)
  402131:	45 8d 54 30 02       	lea    0x2(%r8,%rsi,1),%r10d
  402136:	c4 a1 7a 10 0c 9b    	vmovss (%rbx,%r11,4),%xmm1
  40213c:	c4 a1 7a 58 04 bb    	vaddss (%rbx,%r15,4),%xmm0,%xmm0
  402142:	45 8d 5c 31 04       	lea    0x4(%r9,%rsi,1),%r11d
  402147:	c4 a1 72 58 0c 93    	vaddss (%rbx,%r10,4),%xmm1,%xmm1
  40214d:	44 8d 54 37 04       	lea    0x4(%rdi,%rsi,1),%r10d
  402152:	c5 f2 58 c0          	vaddss %xmm0,%xmm1,%xmm0
  402156:	c4 c2 69 a9 04 86    	vfmadd213ss (%r14,%rax,4),%xmm2,%xmm0
  40215c:	c5 fa 59 c3          	vmulss %xmm3,%xmm0,%xmm0
  402160:	c5 fa 11 04 83       	vmovss %xmm0,(%rbx,%rax,4)
  402165:	41 8d 44 31 03       	lea    0x3(%r9,%rsi,1),%eax
  40216a:	c4 a1 7a 58 04 93    	vaddss (%rbx,%r10,4),%xmm0,%xmm0
  402170:	c5 fa 10 0c 83       	vmovss (%rbx,%rax,4),%xmm1
  402175:	41 8d 44 30 03       	lea    0x3(%r8,%rsi,1),%eax
  40217a:	c5 f2 58 0c 83       	vaddss (%rbx,%rax,4),%xmm1,%xmm1
  40217f:	8d 44 37 05          	lea    0x5(%rdi,%rsi,1),%eax
  402183:	c5 f2 58 c0          	vaddss %xmm0,%xmm1,%xmm0
  402187:	c4 82 69 a9 04 be    	vfmadd213ss (%r14,%r15,4),%xmm2,%xmm0
  40218d:	c5 fa 59 c3          	vmulss %xmm3,%xmm0,%xmm0
  402191:	c4 a1 7a 11 04 bb    	vmovss %xmm0,(%rbx,%r15,4)
  402197:	45 8d 7c 30 04       	lea    0x4(%r8,%rsi,1),%r15d
  40219c:	c4 a1 7a 10 0c 9b    	vmovss (%rbx,%r11,4),%xmm1
  4021a2:	c5 fa 58 04 83       	vaddss (%rbx,%rax,4),%xmm0,%xmm0
  4021a7:	44 8d 5c 37 06       	lea    0x6(%rdi,%rsi,1),%r11d
  4021ac:	c4 a1 72 58 0c bb    	vaddss (%rbx,%r15,4),%xmm1,%xmm1
  4021b2:	45 8d 7c 31 05       	lea    0x5(%r9,%rsi,1),%r15d
  4021b7:	c5 f2 58 c0          	vaddss %xmm0,%xmm1,%xmm0
  4021bb:	c4 82 69 a9 04 96    	vfmadd213ss (%r14,%r10,4),%xmm2,%xmm0
  4021c1:	c5 fa 59 c3          	vmulss %xmm3,%xmm0,%xmm0
  4021c5:	c4 a1 7a 11 04 93    	vmovss %xmm0,(%rbx,%r10,4)
  4021cb:	45 8d 54 31 06       	lea    0x6(%r9,%rsi,1),%r10d
  4021d0:	c4 a1 7a 10 0c bb    	vmovss (%rbx,%r15,4),%xmm1
  4021d6:	c4 a1 7a 58 04 9b    	vaddss (%rbx,%r11,4),%xmm0,%xmm0
  4021dc:	45 8d 7c 31 07       	lea    0x7(%r9,%rsi,1),%r15d
  4021e1:	c5 f2 58 0c ab       	vaddss (%rbx,%rbp,4),%xmm1,%xmm1
  4021e6:	c5 f2 58 c0          	vaddss %xmm0,%xmm1,%xmm0
  4021ea:	c4 c2 69 a9 04 86    	vfmadd213ss (%r14,%rax,4),%xmm2,%xmm0
  4021f0:	c5 fa 59 c3          	vmulss %xmm3,%xmm0,%xmm0
  4021f4:	c5 fa 11 04 83       	vmovss %xmm0,(%rbx,%rax,4)
  4021f9:	8d 44 37 07          	lea    0x7(%rdi,%rsi,1),%eax
  4021fd:	c4 a1 7a 10 0c 93    	vmovss (%rbx,%r10,4),%xmm1
  402203:	45 8d 54 30 06       	lea    0x6(%r8,%rsi,1),%r10d
  402208:	c5 fa 58 04 83       	vaddss (%rbx,%rax,4),%xmm0,%xmm0
  40220d:	c4 a1 72 58 0c 93    	vaddss (%rbx,%r10,4),%xmm1,%xmm1
  402213:	44 8d 54 37 08       	lea    0x8(%rdi,%rsi,1),%r10d
  402218:	c5 f2 58 c0          	vaddss %xmm0,%xmm1,%xmm0
  40221c:	c4 82 69 a9 04 9e    	vfmadd213ss (%r14,%r11,4),%xmm2,%xmm0
  402222:	c5 fa 59 c3          	vmulss %xmm3,%xmm0,%xmm0
  402226:	c4 a1 7a 11 04 9b    	vmovss %xmm0,(%rbx,%r11,4)
  40222c:	45 8d 5c 30 07       	lea    0x7(%r8,%rsi,1),%r11d
  402231:	c4 a1 7a 10 0c bb    	vmovss (%rbx,%r15,4),%xmm1
  402237:	c4 a1 7a 58 04 93    	vaddss (%rbx,%r10,4),%xmm0,%xmm0
  40223d:	44 8d 7c 37 09       	lea    0x9(%rdi,%rsi,1),%r15d
  402242:	c4 a1 72 58 0c 9b    	vaddss (%rbx,%r11,4),%xmm1,%xmm1
  402248:	45 8d 5c 31 08       	lea    0x8(%r9,%rsi,1),%r11d
  40224d:	c5 f2 58 c0          	vaddss %xmm0,%xmm1,%xmm0
  402251:	c4 c2 69 a9 04 86    	vfmadd213ss (%r14,%rax,4),%xmm2,%xmm0
  402257:	c5 fa 59 c3          	vmulss %xmm3,%xmm0,%xmm0
  40225b:	c5 fa 11 04 83       	vmovss %xmm0,(%rbx,%rax,4)
  402260:	41 8d 44 30 08       	lea    0x8(%r8,%rsi,1),%eax
  402265:	48 83 c6 08          	add    $0x8,%rsi
  402269:	c4 a1 7a 10 0c 9b    	vmovss (%rbx,%r11,4),%xmm1
  40226f:	c4 a1 7a 58 04 bb    	vaddss (%rbx,%r15,4),%xmm0,%xmm0
  402275:	c5 f2 58 0c 83       	vaddss (%rbx,%rax,4),%xmm1,%xmm1
  40227a:	c5 f2 58 c0          	vaddss %xmm0,%xmm1,%xmm0
  40227e:	c4 82 69 a9 04 96    	vfmadd213ss (%r14,%r10,4),%xmm2,%xmm0
  402284:	c5 fa 59 c3          	vmulss %xmm3,%xmm0,%xmm0
  402288:	c4 a1 7a 11 04 93    	vmovss %xmm0,(%rbx,%r10,4)
  40228e:	49 39 f5             	cmp    %rsi,%r13
  402291:	0f 85 49 fe ff ff    	jne    4020e0 <diffuse+0x170>
  402297:	4c 8b 5c 24 08       	mov    0x8(%rsp),%r11
  40229c:	48 ff c6             	inc    %rsi
  40229f:	f6 44 24 50 07       	testb  $0x7,0x50(%rsp)
  4022a4:	0f 84 a6 fd ff ff    	je     402050 <diffuse+0xe0>
  4022aa:	8d 3c 32             	lea    (%rdx,%rsi,1),%edi
  4022ad:	8d 54 32 ff          	lea    -0x1(%rdx,%rsi,1),%edx
  4022b1:	01 f1                	add    %esi,%ecx
  4022b3:	41 01 f3             	add    %esi,%r11d
  4022b6:	31 c0                	xor    %eax,%eax
  4022b8:	0f 1f 84 00 00 00 00 	nopl   0x0(%rax,%rax,1)
  4022bf:	00 
  4022c0:	44 8d 04 02          	lea    (%rdx,%rax,1),%r8d
  4022c4:	44 8d 4c 07 01       	lea    0x1(%rdi,%rax,1),%r9d
  4022c9:	8d 34 07             	lea    (%rdi,%rax,1),%esi
  4022cc:	c4 a1 7a 10 04 83    	vmovss (%rbx,%r8,4),%xmm0
  4022d2:	45 8d 04 03          	lea    (%r11,%rax,1),%r8d
  4022d6:	c4 a1 7a 10 0c 83    	vmovss (%rbx,%r8,4),%xmm1
  4022dc:	44 8d 04 01          	lea    (%rcx,%rax,1),%r8d
  4022e0:	c4 a1 7a 58 04 8b    	vaddss (%rbx,%r9,4),%xmm0,%xmm0
  4022e6:	48 ff c0             	inc    %rax
  4022e9:	c4 a1 72 58 0c 83    	vaddss (%rbx,%r8,4),%xmm1,%xmm1
  4022ef:	c5 f2 58 c0          	vaddss %xmm0,%xmm1,%xmm0
  4022f3:	c4 c2 69 a9 04 b6    	vfmadd213ss (%r14,%rsi,4),%xmm2,%xmm0
  4022f9:	c5 fa 59 c3          	vmulss %xmm3,%xmm0,%xmm0
  4022fd:	c5 fa 11 04 b3       	vmovss %xmm0,(%rbx,%rsi,4)
  402302:	49 39 c4             	cmp    %rax,%r12
  402305:	75 b9                	jne    4022c0 <diffuse+0x350>
  402307:	e9 44 fd ff ff       	jmp    402050 <diffuse+0xe0>
  40230c:	0f 1f 40 00          	nopl   0x0(%rax)
  402310:	8b 04 24             	mov    (%rsp),%eax
  402313:	48 8b 7c 24 58       	mov    0x58(%rsp),%rdi
  402318:	4c 8b 4c 24 60       	mov    0x60(%rsp),%r9
  40231d:	4c 8b 54 24 68       	mov    0x68(%rsp),%r10
  402322:	31 c9                	xor    %ecx,%ecx
  402324:	41 bb 01 00 00 00    	mov    $0x1,%r11d
  40232a:	31 f6                	xor    %esi,%esi
  40232c:	89 44 24 04          	mov    %eax,0x4(%rsp)
  402330:	8b 44 24 2c          	mov    0x2c(%rsp),%eax
  402334:	48 89 44 24 20       	mov    %rax,0x20(%rsp)
  402339:	48 8b 44 24 48       	mov    0x48(%rsp),%rax
  40233e:	48 89 44 24 18       	mov    %rax,0x18(%rsp)
  402343:	eb 52                	jmp    402397 <diffuse+0x427>
  402345:	66 66 2e 0f 1f 84 00 	data16 cs nopw 0x0(%rax,%rax,1)
  40234c:	00 00 00 00 
  402350:	48 8b 44 24 48       	mov    0x48(%rsp),%rax
  402355:	48 8b 54 24 18       	mov    0x18(%rsp),%rdx
  40235a:	4c 8b 5c 24 08       	mov    0x8(%rsp),%r11
  40235f:	8b 74 24 44          	mov    0x44(%rsp),%esi
  402363:	01 c2                	add    %eax,%edx
  402365:	01 44 24 04          	add    %eax,0x4(%rsp)
  402369:	41 83 c3 02          	add    $0x2,%r11d
  40236d:	83 c6 02             	add    $0x2,%esi
  402370:	49 01 c2             	add    %rax,%r10
  402373:	49 01 c1             	add    %rax,%r9
  402376:	48 01 c1             	add    %rax,%rcx
  402379:	48 01 c7             	add    %rax,%rdi
  40237c:	48 89 54 24 18       	mov    %rdx,0x18(%rsp)
  402381:	48 8b 54 24 20       	mov    0x20(%rsp),%rdx
  402386:	01 c2                	add    %eax,%edx
  402388:	48 89 54 24 20       	mov    %rdx,0x20(%rsp)
  40238d:	3b 74 24 40          	cmp    0x40(%rsp),%esi
  402391:	0f 84 02 fd ff ff    	je     402099 <diffuse+0x129>
  402397:	48 83 7c 24 10 07    	cmpq   $0x7,0x10(%rsp)
  40239d:	bd 01 00 00 00       	mov    $0x1,%ebp
  4023a2:	89 74 24 44          	mov    %esi,0x44(%rsp)
  4023a6:	4c 89 5c 24 08       	mov    %r11,0x8(%rsp)
  4023ab:	0f 82 b9 01 00 00    	jb     40256a <diffuse+0x5fa>
  4023b1:	31 ed                	xor    %ebp,%ebp
  4023b3:	66 66 66 66 2e 0f 1f 	data16 data16 data16 cs nopw 0x0(%rax,%rax,1)
  4023ba:	84 00 00 00 00 00 
  4023c0:	41 8d 54 2a 02       	lea    0x2(%r10,%rbp,1),%edx
  4023c5:	44 8d 44 29 01       	lea    0x1(%rcx,%rbp,1),%r8d
  4023ca:	41 8d 44 2a 04       	lea    0x4(%r10,%rbp,1),%eax
  4023cf:	41 8d 74 2a 03       	lea    0x3(%r10,%rbp,1),%esi
  4023d4:	45 8d 5c 29 09       	lea    0x9(%r9,%rbp,1),%r11d
  4023d9:	c5 fa 10 04 93       	vmovss (%rbx,%rdx,4),%xmm0
  4023de:	41 8d 54 29 05       	lea    0x5(%r9,%rbp,1),%edx
  4023e3:	c4 a1 7a 10 0c 83    	vmovss (%rbx,%r8,4),%xmm1
  4023e9:	45 8d 44 2a 05       	lea    0x5(%r10,%rbp,1),%r8d
  4023ee:	c5 fa 58 04 83       	vaddss (%rbx,%rax,4),%xmm0,%xmm0
  4023f3:	c5 f2 58 0c 93       	vaddss (%rbx,%rdx,4),%xmm1,%xmm1
  4023f8:	8d 54 29 02          	lea    0x2(%rcx,%rbp,1),%edx
  4023fc:	c5 f2 58 c0          	vaddss %xmm0,%xmm1,%xmm0
  402400:	c4 c2 69 a9 04 b6    	vfmadd213ss (%r14,%rsi,4),%xmm2,%xmm0
  402406:	c5 fa 59 c3          	vmulss %xmm3,%xmm0,%xmm0
  40240a:	c5 fa 11 04 b3       	vmovss %xmm0,(%rbx,%rsi,4)
  40240f:	41 8d 74 2a 06       	lea    0x6(%r10,%rbp,1),%esi
  402414:	c5 fa 10 0c 93       	vmovss (%rbx,%rdx,4),%xmm1
  402419:	41 8d 54 29 06       	lea    0x6(%r9,%rbp,1),%edx
  40241e:	c4 a1 7a 58 04 83    	vaddss (%rbx,%r8,4),%xmm0,%xmm0
  402424:	c5 f2 58 0c 93       	vaddss (%rbx,%rdx,4),%xmm1,%xmm1
  402429:	8d 54 29 04          	lea    0x4(%rcx,%rbp,1),%edx
  40242d:	c5 f2 58 c0          	vaddss %xmm0,%xmm1,%xmm0
  402431:	c4 c2 69 a9 04 86    	vfmadd213ss (%r14,%rax,4),%xmm2,%xmm0
  402437:	c5 fa 59 c3          	vmulss %xmm3,%xmm0,%xmm0
  40243b:	c5 fa 11 04 83       	vmovss %xmm0,(%rbx,%rax,4)
  402440:	8d 44 29 03          	lea    0x3(%rcx,%rbp,1),%eax
  402444:	c5 fa 58 04 b3       	vaddss (%rbx,%rsi,4),%xmm0,%xmm0
  402449:	c5 fa 10 0c 83       	vmovss (%rbx,%rax,4),%xmm1
  40244e:	41 8d 44 29 07       	lea    0x7(%r9,%rbp,1),%eax
  402453:	c5 f2 58 0c 83       	vaddss (%rbx,%rax,4),%xmm1,%xmm1
  402458:	41 8d 44 2a 07       	lea    0x7(%r10,%rbp,1),%eax
  40245d:	c5 f2 58 c0          	vaddss %xmm0,%xmm1,%xmm0
  402461:	c4 82 69 a9 04 86    	vfmadd213ss (%r14,%r8,4),%xmm2,%xmm0
  402467:	c5 fa 59 c3          	vmulss %xmm3,%xmm0,%xmm0
  40246b:	c4 a1 7a 11 04 83    	vmovss %xmm0,(%rbx,%r8,4)
  402471:	45 8d 44 29 08       	lea    0x8(%r9,%rbp,1),%r8d
  402476:	c5 fa 10 0c 93       	vmovss (%rbx,%rdx,4),%xmm1
  40247b:	c5 fa 58 04 83       	vaddss (%rbx,%rax,4),%xmm0,%xmm0
  402480:	41 8d 54 2a 08       	lea    0x8(%r10,%rbp,1),%edx
  402485:	c4 a1 72 58 0c 83    	vaddss (%rbx,%r8,4),%xmm1,%xmm1
  40248b:	44 8d 44 29 05       	lea    0x5(%rcx,%rbp,1),%r8d
  402490:	c5 f2 58 c0          	vaddss %xmm0,%xmm1,%xmm0
  402494:	c4 c2 69 a9 04 b6    	vfmadd213ss (%r14,%rsi,4),%xmm2,%xmm0
  40249a:	c5 fa 59 c3          	vmulss %xmm3,%xmm0,%xmm0
  40249e:	c5 fa 11 04 b3       	vmovss %xmm0,(%rbx,%rsi,4)
  4024a3:	8d 74 29 06          	lea    0x6(%rcx,%rbp,1),%esi
  4024a7:	c4 a1 7a 10 0c 83    	vmovss (%rbx,%r8,4),%xmm1
  4024ad:	c5 fa 58 04 93       	vaddss (%rbx,%rdx,4),%xmm0,%xmm0
  4024b2:	44 8d 44 29 07       	lea    0x7(%rcx,%rbp,1),%r8d
  4024b7:	c4 a1 72 58 0c 9b    	vaddss (%rbx,%r11,4),%xmm1,%xmm1
  4024bd:	c5 f2 58 c0          	vaddss %xmm0,%xmm1,%xmm0
  4024c1:	c4 c2 69 a9 04 86    	vfmadd213ss (%r14,%rax,4),%xmm2,%xmm0
  4024c7:	c5 fa 59 c3          	vmulss %xmm3,%xmm0,%xmm0
  4024cb:	c5 fa 11 04 83       	vmovss %xmm0,(%rbx,%rax,4)
  4024d0:	41 8d 44 2a 09       	lea    0x9(%r10,%rbp,1),%eax
  4024d5:	c5 fa 10 0c b3       	vmovss (%rbx,%rsi,4),%xmm1
  4024da:	41 8d 74 29 0a       	lea    0xa(%r9,%rbp,1),%esi
  4024df:	c5 fa 58 04 83       	vaddss (%rbx,%rax,4),%xmm0,%xmm0
  4024e4:	c5 f2 58 0c b3       	vaddss (%rbx,%rsi,4),%xmm1,%xmm1
  4024e9:	41 8d 74 2a 0a       	lea    0xa(%r10,%rbp,1),%esi
  4024ee:	c5 f2 58 c0          	vaddss %xmm0,%xmm1,%xmm0
  4024f2:	c4 c2 69 a9 04 96    	vfmadd213ss (%r14,%rdx,4),%xmm2,%xmm0
  4024f8:	c5 fa 59 c3          	vmulss %xmm3,%xmm0,%xmm0
  4024fc:	c5 fa 11 04 93       	vmovss %xmm0,(%rbx,%rdx,4)
  402501:	41 8d 54 29 0b       	lea    0xb(%r9,%rbp,1),%edx
  402506:	c4 a1 7a 10 0c 83    	vmovss (%rbx,%r8,4),%xmm1
  40250c:	c5 fa 58 04 b3       	vaddss (%rbx,%rsi,4),%xmm0,%xmm0
  402511:	45 8d 44 2a 0b       	lea    0xb(%r10,%rbp,1),%r8d
  402516:	c5 f2 58 0c 93       	vaddss (%rbx,%rdx,4),%xmm1,%xmm1
  40251b:	8d 54 29 08          	lea    0x8(%rcx,%rbp,1),%edx
  40251f:	c5 f2 58 c0          	vaddss %xmm0,%xmm1,%xmm0
  402523:	c4 c2 69 a9 04 86    	vfmadd213ss (%r14,%rax,4),%xmm2,%xmm0
  402529:	c5 fa 59 c3          	vmulss %xmm3,%xmm0,%xmm0
  40252d:	c5 fa 11 04 83       	vmovss %xmm0,(%rbx,%rax,4)
  402532:	41 8d 44 29 0c       	lea    0xc(%r9,%rbp,1),%eax
  402537:	48 83 c5 08          	add    $0x8,%rbp
  40253b:	c5 fa 10 0c 93       	vmovss (%rbx,%rdx,4),%xmm1
  402540:	c4 a1 7a 58 04 83    	vaddss (%rbx,%r8,4),%xmm0,%xmm0
  402546:	c5 f2 58 0c 83       	vaddss (%rbx,%rax,4),%xmm1,%xmm1
  40254b:	c5 f2 58 c0          	vaddss %xmm0,%xmm1,%xmm0
  40254f:	c4 c2 69 a9 04 b6    	vfmadd213ss (%r14,%rsi,4),%xmm2,%xmm0
  402555:	c5 fa 59 c3          	vmulss %xmm3,%xmm0,%xmm0
  402559:	c5 fa 11 04 b3       	vmovss %xmm0,(%rbx,%rsi,4)
  40255e:	49 39 ed             	cmp    %rbp,%r13
  402561:	0f 85 59 fe ff ff    	jne    4023c0 <diffuse+0x450>
  402567:	48 ff c5             	inc    %rbp
  40256a:	4d 85 e4             	test   %r12,%r12
  40256d:	74 5c                	je     4025cb <diffuse+0x65b>
  40256f:	48 8b 44 24 18       	mov    0x18(%rsp),%rax
  402574:	45 8d 3c 2a          	lea    (%r10,%rbp,1),%r15d
  402578:	31 f6                	xor    %esi,%esi
  40257a:	01 e8                	add    %ebp,%eax
  40257c:	01 cd                	add    %ecx,%ebp
  40257e:	66 90                	xchg   %ax,%ax
  402580:	45 8d 44 37 01       	lea    0x1(%r15,%rsi,1),%r8d
  402585:	45 8d 5c 37 03       	lea    0x3(%r15,%rsi,1),%r11d
  40258a:	41 8d 54 37 02       	lea    0x2(%r15,%rsi,1),%edx
  40258f:	c4 a1 7a 10 04 83    	vmovss (%rbx,%r8,4),%xmm0
  402595:	44 8d 44 35 00       	lea    0x0(%rbp,%rsi,1),%r8d
  40259a:	c4 a1 7a 10 0c 83    	vmovss (%rbx,%r8,4),%xmm1
  4025a0:	44 8d 04 30          	lea    (%rax,%rsi,1),%r8d
  4025a4:	c4 a1 7a 58 04 9b    	vaddss (%rbx,%r11,4),%xmm0,%xmm0
  4025aa:	48 ff c6             	inc    %rsi
  4025ad:	c4 a1 72 58 0c 83    	vaddss (%rbx,%r8,4),%xmm1,%xmm1
  4025b3:	c5 f2 58 c0          	vaddss %xmm0,%xmm1,%xmm0
  4025b7:	c4 c2 69 a9 04 96    	vfmadd213ss (%r14,%rdx,4),%xmm2,%xmm0
  4025bd:	c5 fa 59 c3          	vmulss %xmm3,%xmm0,%xmm0
  4025c1:	c5 fa 11 04 93       	vmovss %xmm0,(%rbx,%rdx,4)
  4025c6:	49 39 f4             	cmp    %rsi,%r12
  4025c9:	75 b5                	jne    402580 <diffuse+0x610>
  4025cb:	48 83 7c 24 10 07    	cmpq   $0x7,0x10(%rsp)
  4025d1:	bd 01 00 00 00       	mov    $0x1,%ebp
  4025d6:	0f 82 ad 01 00 00    	jb     402789 <diffuse+0x819>
  4025dc:	31 ed                	xor    %ebp,%ebp
  4025de:	66 90                	xchg   %ax,%ax
  4025e0:	41 8d 54 29 04       	lea    0x4(%r9,%rbp,1),%edx
  4025e5:	45 8d 44 2a 03       	lea    0x3(%r10,%rbp,1),%r8d
  4025ea:	41 8d 44 29 06       	lea    0x6(%r9,%rbp,1),%eax
  4025ef:	41 8d 74 29 05       	lea    0x5(%r9,%rbp,1),%esi
  4025f4:	44 8d 5c 2f 0b       	lea    0xb(%rdi,%rbp,1),%r11d
  4025f9:	c5 fa 10 04 93       	vmovss (%rbx,%rdx,4),%xmm0
  4025fe:	8d 54 2f 07          	lea    0x7(%rdi,%rbp,1),%edx
  402602:	c4 a1 7a 10 0c 83    	vmovss (%rbx,%r8,4),%xmm1
  402608:	45 8d 44 29 07       	lea    0x7(%r9,%rbp,1),%r8d
  40260d:	c5 fa 58 04 83       	vaddss (%rbx,%rax,4),%xmm0,%xmm0
  402612:	c5 f2 58 0c 93       	vaddss (%rbx,%rdx,4),%xmm1,%xmm1
  402617:	41 8d 54 2a 04       	lea    0x4(%r10,%rbp,1),%edx
  40261c:	c5 f2 58 c0          	vaddss %xmm0,%xmm1,%xmm0
  402620:	c4 c2 69 a9 04 b6    	vfmadd213ss (%r14,%rsi,4),%xmm2,%xmm0
  402626:	c5 fa 59 c3          	vmulss %xmm3,%xmm0,%xmm0
  40262a:	c5 fa 11 04 b3       	vmovss %xmm0,(%rbx,%rsi,4)
  40262f:	41 8d 74 29 08       	lea    0x8(%r9,%rbp,1),%esi
  402634:	c5 fa 10 0c 93       	vmovss (%rbx,%rdx,4),%xmm1
  402639:	8d 54 2f 08          	lea    0x8(%rdi,%rbp,1),%edx
  40263d:	c4 a1 7a 58 04 83    	vaddss (%rbx,%r8,4),%xmm0,%xmm0
  402643:	c5 f2 58 0c 93       	vaddss (%rbx,%rdx,4),%xmm1,%xmm1
  402648:	41 8d 54 2a 06       	lea    0x6(%r10,%rbp,1),%edx
  40264d:	c5 f2 58 c0          	vaddss %xmm0,%xmm1,%xmm0
  402651:	c4 c2 69 a9 04 86    	vfmadd213ss (%r14,%rax,4),%xmm2,%xmm0
  402657:	c5 fa 59 c3          	vmulss %xmm3,%xmm0,%xmm0
  40265b:	c5 fa 11 04 83       	vmovss %xmm0,(%rbx,%rax,4)
  402660:	41 8d 44 2a 05       	lea    0x5(%r10,%rbp,1),%eax
  402665:	c5 fa 58 04 b3       	vaddss (%rbx,%rsi,4),%xmm0,%xmm0
  40266a:	c5 fa 10 0c 83       	vmovss (%rbx,%rax,4),%xmm1
  40266f:	8d 44 2f 09          	lea    0x9(%rdi,%rbp,1),%eax
  402673:	c5 f2 58 0c 83       	vaddss (%rbx,%rax,4),%xmm1,%xmm1
  402678:	41 8d 44 29 09       	lea    0x9(%r9,%rbp,1),%eax
  40267d:	c5 f2 58 c0          	vaddss %xmm0,%xmm1,%xmm0
  402681:	c4 82 69 a9 04 86    	vfmadd213ss (%r14,%r8,4),%xmm2,%xmm0
  402687:	c5 fa 59 c3          	vmulss %xmm3,%xmm0,%xmm0
  40268b:	c4 a1 7a 11 04 83    	vmovss %xmm0,(%rbx,%r8,4)
  402691:	44 8d 44 2f 0a       	lea    0xa(%rdi,%rbp,1),%r8d
  402696:	c5 fa 10 0c 93       	vmovss (%rbx,%rdx,4),%xmm1
  40269b:	c5 fa 58 04 83       	vaddss (%rbx,%rax,4),%xmm0,%xmm0
  4026a0:	41 8d 54 29 0a       	lea    0xa(%r9,%rbp,1),%edx
  4026a5:	c4 a1 72 58 0c 83    	vaddss (%rbx,%r8,4),%xmm1,%xmm1
  4026ab:	45 8d 44 2a 07       	lea    0x7(%r10,%rbp,1),%r8d
  4026b0:	c5 f2 58 c0          	vaddss %xmm0,%xmm1,%xmm0
  4026b4:	c4 c2 69 a9 04 b6    	vfmadd213ss (%r14,%rsi,4),%xmm2,%xmm0
  4026ba:	c5 fa 59 c3          	vmulss %xmm3,%xmm0,%xmm0
  4026be:	c5 fa 11 04 b3       	vmovss %xmm0,(%rbx,%rsi,4)
  4026c3:	41 8d 74 2a 08       	lea    0x8(%r10,%rbp,1),%esi
  4026c8:	c4 a1 7a 10 0c 83    	vmovss (%rbx,%r8,4),%xmm1
  4026ce:	c5 fa 58 04 93       	vaddss (%rbx,%rdx,4),%xmm0,%xmm0
  4026d3:	45 8d 44 2a 09       	lea    0x9(%r10,%rbp,1),%r8d
  4026d8:	c4 a1 72 58 0c 9b    	vaddss (%rbx,%r11,4),%xmm1,%xmm1
  4026de:	c5 f2 58 c0          	vaddss %xmm0,%xmm1,%xmm0
  4026e2:	c4 c2 69 a9 04 86    	vfmadd213ss (%r14,%rax,4),%xmm2,%xmm0
  4026e8:	c5 fa 59 c3          	vmulss %xmm3,%xmm0,%xmm0
  4026ec:	c5 fa 11 04 83       	vmovss %xmm0,(%rbx,%rax,4)
  4026f1:	41 8d 44 29 0b       	lea    0xb(%r9,%rbp,1),%eax
  4026f6:	c5 fa 10 0c b3       	vmovss (%rbx,%rsi,4),%xmm1
  4026fb:	8d 74 2f 0c          	lea    0xc(%rdi,%rbp,1),%esi
  4026ff:	c5 fa 58 04 83       	vaddss (%rbx,%rax,4),%xmm0,%xmm0
  402704:	c5 f2 58 0c b3       	vaddss (%rbx,%rsi,4),%xmm1,%xmm1
  402709:	41 8d 74 29 0c       	lea    0xc(%r9,%rbp,1),%esi
  40270e:	c5 f2 58 c0          	vaddss %xmm0,%xmm1,%xmm0
  402712:	c4 c2 69 a9 04 96    	vfmadd213ss (%r14,%rdx,4),%xmm2,%xmm0
  402718:	c5 fa 59 c3          	vmulss %xmm3,%xmm0,%xmm0
  40271c:	c5 fa 11 04 93       	vmovss %xmm0,(%rbx,%rdx,4)
  402721:	8d 54 2f 0d          	lea    0xd(%rdi,%rbp,1),%edx
  402725:	c4 a1 7a 10 0c 83    	vmovss (%rbx,%r8,4),%xmm1
  40272b:	c5 fa 58 04 b3       	vaddss (%rbx,%rsi,4),%xmm0,%xmm0
  402730:	45 8d 44 29 0d       	lea    0xd(%r9,%rbp,1),%r8d
  402735:	c5 f2 58 0c 93       	vaddss (%rbx,%rdx,4),%xmm1,%xmm1
  40273a:	41 8d 54 2a 0a       	lea    0xa(%r10,%rbp,1),%edx
  40273f:	c5 f2 58 c0          	vaddss %xmm0,%xmm1,%xmm0
  402743:	c4 c2 69 a9 04 86    	vfmadd213ss (%r14,%rax,4),%xmm2,%xmm0
  402749:	c5 fa 59 c3          	vmulss %xmm3,%xmm0,%xmm0
  40274d:	c5 fa 11 04 83       	vmovss %xmm0,(%rbx,%rax,4)
  402752:	8d 44 2f 0e          	lea    0xe(%rdi,%rbp,1),%eax
  402756:	48 83 c5 08          	add    $0x8,%rbp
  40275a:	c5 fa 10 0c 93       	vmovss (%rbx,%rdx,4),%xmm1
  40275f:	c4 a1 7a 58 04 83    	vaddss (%rbx,%r8,4),%xmm0,%xmm0
  402765:	c5 f2 58 0c 83       	vaddss (%rbx,%rax,4),%xmm1,%xmm1
  40276a:	c5 f2 58 c0          	vaddss %xmm0,%xmm1,%xmm0
  40276e:	c4 c2 69 a9 04 b6    	vfmadd213ss (%r14,%rsi,4),%xmm2,%xmm0
  402774:	c5 fa 59 c3          	vmulss %xmm3,%xmm0,%xmm0
  402778:	c5 fa 11 04 b3       	vmovss %xmm0,(%rbx,%rsi,4)
  40277d:	49 39 ed             	cmp    %rbp,%r13
  402780:	0f 85 5a fe ff ff    	jne    4025e0 <diffuse+0x670>
  402786:	48 ff c5             	inc    %rbp
  402789:	f6 44 24 50 07       	testb  $0x7,0x50(%rsp)
  40278e:	0f 84 bc fb ff ff    	je     402350 <diffuse+0x3e0>
  402794:	48 8b 44 24 20       	mov    0x20(%rsp),%rax
  402799:	45 8d 3c 29          	lea    (%r9,%rbp,1),%r15d
  40279d:	31 f6                	xor    %esi,%esi
  40279f:	01 e8                	add    %ebp,%eax
  4027a1:	03 6c 24 04          	add    0x4(%rsp),%ebp
  4027a5:	66 66 2e 0f 1f 84 00 	data16 cs nopw 0x0(%rax,%rax,1)
  4027ac:	00 00 00 00 
  4027b0:	45 8d 44 37 03       	lea    0x3(%r15,%rsi,1),%r8d
  4027b5:	45 8d 5c 37 05       	lea    0x5(%r15,%rsi,1),%r11d
  4027ba:	41 8d 54 37 04       	lea    0x4(%r15,%rsi,1),%edx
  4027bf:	c4 a1 7a 10 04 83    	vmovss (%rbx,%r8,4),%xmm0
  4027c5:	44 8d 44 35 00       	lea    0x0(%rbp,%rsi,1),%r8d
  4027ca:	c4 a1 7a 10 0c 83    	vmovss (%rbx,%r8,4),%xmm1
  4027d0:	44 8d 04 30          	lea    (%rax,%rsi,1),%r8d
  4027d4:	c4 a1 7a 58 04 9b    	vaddss (%rbx,%r11,4),%xmm0,%xmm0
  4027da:	48 ff c6             	inc    %rsi
  4027dd:	c4 a1 72 58 0c 83    	vaddss (%rbx,%r8,4),%xmm1,%xmm1
  4027e3:	c5 f2 58 c0          	vaddss %xmm0,%xmm1,%xmm0
  4027e7:	c4 c2 69 a9 04 96    	vfmadd213ss (%r14,%rdx,4),%xmm2,%xmm0
  4027ed:	c5 fa 59 c3          	vmulss %xmm3,%xmm0,%xmm0
  4027f1:	c5 fa 11 04 93       	vmovss %xmm0,(%rbx,%rdx,4)
  4027f6:	49 39 f4             	cmp    %rsi,%r12
  4027f9:	75 b5                	jne    4027b0 <diffuse+0x840>
  4027fb:	e9 50 fb ff ff       	jmp    402350 <diffuse+0x3e0>
  402800:	c5 fa 10 43 08       	vmovss 0x8(%rbx),%xmm0
  402805:	c5 fa 10 0d 07 a8 00 	vmovss 0xa807(%rip),%xmm1        # 40d014 <_IO_stdin_used+0x14>
  40280c:	00 
  40280d:	c5 fa 58 43 04       	vaddss 0x4(%rbx),%xmm0,%xmm0
  402812:	c4 e2 71 a9 43 0c    	vfmadd213ss 0xc(%rbx),%xmm1,%xmm0
  402818:	c5 fa 59 c1          	vmulss %xmm1,%xmm0,%xmm0
  40281c:	c4 e2 79 18 c0       	vbroadcastss %xmm0,%xmm0
  402821:	c5 f8 11 03          	vmovups %xmm0,(%rbx)
  402825:	48 81 c4 88 00 00 00 	add    $0x88,%rsp
  40282c:	5b                   	pop    %rbx
  40282d:	41 5c                	pop    %r12
  40282f:	41 5d                	pop    %r13
  402831:	41 5e                	pop    %r14
  402833:	41 5f                	pop    %r15
  402835:	5d                   	pop    %rbp
  402836:	c3                   	ret
  402837:	66 0f 1f 84 00 00 00 	nopw   0x0(%rax,%rax,1)
  40283e:	00 00 

0000000000402840 <advect>:
  402840:	55                   	push   %rbp
  402841:	41 57                	push   %r15
  402843:	41 56                	push   %r14
  402845:	41 55                	push   %r13
  402847:	41 54                	push   %r12
  402849:	53                   	push   %rbx
  40284a:	89 74 24 90          	mov    %esi,-0x70(%rsp)
  40284e:	48 89 7c 24 98       	mov    %rdi,-0x68(%rsp)
  402853:	85 ff                	test   %edi,%edi
  402855:	0f 84 13 07 00 00    	je     402f6e <advect+0x72e>
  40285b:	48 8b 7c 24 98       	mov    -0x68(%rsp),%rdi
  402860:	41 ba 02 00 00 00    	mov    $0x2,%r10d
  402866:	c5 fa 10 15 a6 a7 00 	vmovss 0xa7a6(%rip),%xmm2        # 40d014 <_IO_stdin_used+0x14>
  40286d:	00 
  40286e:	c5 fa 10 1d 96 a7 00 	vmovss 0xa796(%rip),%xmm3        # 40d00c <_IO_stdin_used+0xc>
  402875:	00 
  402876:	8d 77 01             	lea    0x1(%rdi),%esi
  402879:	89 f8                	mov    %edi,%eax
  40287b:	c4 e1 f2 2a c8       	vcvtsi2ss %rax,%xmm1,%xmm1
  402880:	44 8d 74 bf 0b       	lea    0xb(%rdi,%rdi,4),%r14d
  402885:	44 8d 6c 3f 05       	lea    0x5(%rdi,%rdi,1),%r13d
  40288a:	8d 47 02             	lea    0x2(%rdi),%eax
  40288d:	83 fe 03             	cmp    $0x3,%esi
  402890:	44 0f 43 d6          	cmovae %esi,%r10d
  402894:	49 8d 72 fe          	lea    -0x2(%r10),%rsi
  402898:	c5 f2 59 c0          	vmulss %xmm0,%xmm1,%xmm0
  40289c:	4c 89 54 24 d0       	mov    %r10,-0x30(%rsp)
  4028a1:	c5 f2 58 0d 6b a7 00 	vaddss 0xa76b(%rip),%xmm1,%xmm1        # 40d014 <_IO_stdin_used+0x14>
  4028a8:	00 
  4028a9:	49 8d 5a ff          	lea    -0x1(%r10),%rbx
  4028ad:	44 8d 14 fd 00 00 00 	lea    0x0(,%rdi,8),%r10d
  4028b4:	00 
  4028b5:	48 89 74 24 c8       	mov    %rsi,-0x38(%rsp)
  4028ba:	8d 34 fd 11 00 00 00 	lea    0x11(,%rdi,8),%esi
  4028c1:	41 89 db             	mov    %ebx,%r11d
  4028c4:	48 83 e3 f8          	and    $0xfffffffffffffff8,%rbx
  4028c8:	41 83 e3 07          	and    $0x7,%r11d
  4028cc:	41 29 fa             	sub    %edi,%r10d
  4028cf:	48 89 74 24 e8       	mov    %rsi,-0x18(%rsp)
  4028d4:	8d 34 7f             	lea    (%rdi,%rdi,2),%esi
  4028d7:	48 89 5c 24 f0       	mov    %rbx,-0x10(%rsp)
  4028dc:	8d 1c fd 10 00 00 00 	lea    0x10(,%rdi,8),%ebx
  4028e3:	41 83 c2 0f          	add    $0xf,%r10d
  4028e7:	8d 74 36 0d          	lea    0xd(%rsi,%rsi,1),%esi
  4028eb:	89 5c 24 94          	mov    %ebx,-0x6c(%rsp)
  4028ef:	48 89 74 24 e0       	mov    %rsi,-0x20(%rsp)
  4028f4:	8d 34 bd 09 00 00 00 	lea    0x9(,%rdi,4),%esi
  4028fb:	48 89 74 24 b0       	mov    %rsi,-0x50(%rsp)
  402900:	4c 89 54 24 f8       	mov    %r10,-0x8(%rsp)
  402905:	44 8d 54 7f 07       	lea    0x7(%rdi,%rdi,2),%r10d
  40290a:	4c 89 5c 24 c0       	mov    %r11,-0x40(%rsp)
  40290f:	49 f7 db             	neg    %r11
  402912:	83 c7 03             	add    $0x3,%edi
  402915:	be 01 00 00 00       	mov    $0x1,%esi
  40291a:	4c 89 5c 24 b8       	mov    %r11,-0x48(%rsp)
  40291f:	45 31 db             	xor    %r11d,%r11d
  402922:	4c 89 5c 24 88       	mov    %r11,-0x78(%rsp)
  402927:	4c 89 6c 24 a8       	mov    %r13,-0x58(%rsp)
  40292c:	48 89 7c 24 a0       	mov    %rdi,-0x60(%rsp)
  402931:	4c 89 54 24 d8       	mov    %r10,-0x28(%rsp)
  402936:	eb 2e                	jmp    402966 <advect+0x126>
  402938:	0f 1f 84 00 00 00 00 	nopl   0x0(%rax,%rax,1)
  40293f:	00 
  402940:	48 8b 7c 24 88       	mov    -0x78(%rsp),%rdi
  402945:	8b 74 24 84          	mov    -0x7c(%rsp),%esi
  402949:	ff c7                	inc    %edi
  40294b:	ff c6                	inc    %esi
  40294d:	48 89 7c 24 88       	mov    %rdi,-0x78(%rsp)
  402952:	4c 8b 6c 24 a8       	mov    -0x58(%rsp),%r13
  402957:	48 8b 7c 24 a0       	mov    -0x60(%rsp),%rdi
  40295c:	3b 74 24 d0          	cmp    -0x30(%rsp),%esi
  402960:	0f 84 08 06 00 00    	je     402f6e <advect+0x72e>
  402966:	89 74 24 84          	mov    %esi,-0x7c(%rsp)
  40296a:	41 89 f3             	mov    %esi,%r11d
  40296d:	c4 c1 aa 2a e3       	vcvtsi2ss %r11,%xmm10,%xmm4
  402972:	41 bb 01 00 00 00    	mov    $0x1,%r11d
  402978:	48 83 7c 24 c8 07    	cmpq   $0x7,-0x38(%rsp)
  40297e:	0f 82 1f 05 00 00    	jb     402ea3 <advect+0x663>
  402984:	4d 89 f2             	mov    %r14,%r10
  402987:	4c 8b 74 24 b0       	mov    -0x50(%rsp),%r14
  40298c:	4c 8b 64 24 88       	mov    -0x78(%rsp),%r12
  402991:	45 31 db             	xor    %r11d,%r11d
  402994:	66 66 66 2e 0f 1f 84 	data16 data16 cs nopw 0x0(%rax,%rax,1)
  40299b:	00 00 00 00 00 
  4029a0:	42 8d 2c 27          	lea    (%rdi,%r12,1),%ebp
  4029a4:	41 8d 73 01          	lea    0x1(%r11),%esi
  4029a8:	89 c3                	mov    %eax,%ebx
  4029aa:	c4 c1 7a 10 2c a8    	vmovss (%r8,%rbp,4),%xmm5
  4029b0:	c4 e1 aa 2a f6       	vcvtsi2ss %rsi,%xmm10,%xmm6
  4029b5:	c4 c2 79 bd 34 a9    	vfnmadd231ss (%r9,%rbp,4),%xmm0,%xmm6
  4029bb:	c4 e2 59 9d e8       	vfnmadd132ss %xmm0,%xmm4,%xmm5
  4029c0:	c5 f2 5d fd          	vminss %xmm5,%xmm1,%xmm7
  4029c4:	c5 d2 c2 ea 01       	vcmpltss %xmm2,%xmm5,%xmm5
  4029c9:	c4 e3 41 4a ea 50    	vblendvps %xmm5,%xmm2,%xmm7,%xmm5
  4029cf:	c5 f2 5d fe          	vminss %xmm6,%xmm1,%xmm7
  4029d3:	c5 ca c2 f2 01       	vcmpltss %xmm2,%xmm6,%xmm6
  4029d8:	c4 e3 41 4a f2 60    	vblendvps %xmm6,%xmm2,%xmm7,%xmm6
  4029de:	c5 fa 2c f5          	vcvttss2si %xmm5,%esi
  4029e2:	c4 e3 51 0a fd 0b    	vroundss $0xb,%xmm5,%xmm5,%xmm7
  4029e8:	c5 fa 2c fe          	vcvttss2si %xmm6,%edi
  4029ec:	c4 63 49 0a c6 0b    	vroundss $0xb,%xmm6,%xmm6,%xmm8
  4029f2:	0f af df             	imul   %edi,%ebx
  4029f5:	ff c7                	inc    %edi
  4029f7:	c5 d2 5c ef          	vsubss %xmm7,%xmm5,%xmm5
  4029fb:	0f af f8             	imul   %eax,%edi
  4029fe:	c4 c1 4a 5c f0       	vsubss %xmm8,%xmm6,%xmm6
  402a03:	44 8d 3c 37          	lea    (%rdi,%rsi,1),%r15d
  402a07:	c5 62 5c ce          	vsubss %xmm6,%xmm3,%xmm9
  402a0b:	8d 7c 37 01          	lea    0x1(%rdi,%rsi,1),%edi
  402a0f:	c4 21 4a 59 04 b9    	vmulss (%rcx,%r15,4),%xmm6,%xmm8
  402a15:	44 8d 3c 33          	lea    (%rbx,%rsi,1),%r15d
  402a19:	8d 74 33 01          	lea    0x1(%rbx,%rsi,1),%esi
  402a1d:	89 c3                	mov    %eax,%ebx
  402a1f:	c4 22 31 b9 04 b9    	vfmadd231ss (%rcx,%r15,4),%xmm9,%xmm8
  402a25:	47 8d 7c 25 00       	lea    0x0(%r13,%r12,1),%r15d
  402a2a:	c4 e2 39 9b 34 b9    	vfmsub132ss (%rcx,%rdi,4),%xmm8,%xmm6
  402a30:	c4 e2 31 b9 34 b1    	vfmadd231ss (%rcx,%rsi,4),%xmm9,%xmm6
  402a36:	41 8d 73 02          	lea    0x2(%r11),%esi
  402a3a:	c4 c2 51 a9 f0       	vfmadd213ss %xmm8,%xmm5,%xmm6
  402a3f:	c5 fa 11 34 aa       	vmovss %xmm6,(%rdx,%rbp,4)
  402a44:	c4 e1 aa 2a f6       	vcvtsi2ss %rsi,%xmm10,%xmm6
  402a49:	43 8d 2c 26          	lea    (%r14,%r12,1),%ebp
  402a4d:	c4 81 7a 10 2c b8    	vmovss (%r8,%r15,4),%xmm5
  402a53:	c4 82 79 bd 34 b9    	vfnmadd231ss (%r9,%r15,4),%xmm0,%xmm6
  402a59:	c4 e2 59 9d e8       	vfnmadd132ss %xmm0,%xmm4,%xmm5
  402a5e:	c5 f2 5d fd          	vminss %xmm5,%xmm1,%xmm7
  402a62:	c5 d2 c2 ea 01       	vcmpltss %xmm2,%xmm5,%xmm5
  402a67:	c4 e3 41 4a ea 50    	vblendvps %xmm5,%xmm2,%xmm7,%xmm5
  402a6d:	c5 f2 5d fe          	vminss %xmm6,%xmm1,%xmm7
  402a71:	c5 ca c2 f2 01       	vcmpltss %xmm2,%xmm6,%xmm6
  402a76:	c4 e3 41 4a f2 60    	vblendvps %xmm6,%xmm2,%xmm7,%xmm6
  402a7c:	c5 fa 2c f5          	vcvttss2si %xmm5,%esi
  402a80:	c4 63 51 0a c5 0b    	vroundss $0xb,%xmm5,%xmm5,%xmm8
  402a86:	c5 fa 2c fe          	vcvttss2si %xmm6,%edi
  402a8a:	c4 e3 49 0a fe 0b    	vroundss $0xb,%xmm6,%xmm6,%xmm7
  402a90:	0f af df             	imul   %edi,%ebx
  402a93:	ff c7                	inc    %edi
  402a95:	c4 c1 52 5c e8       	vsubss %xmm8,%xmm5,%xmm5
  402a9a:	0f af f8             	imul   %eax,%edi
  402a9d:	c5 ca 5c f7          	vsubss %xmm7,%xmm6,%xmm6
  402aa1:	44 8d 2c 37          	lea    (%rdi,%rsi,1),%r13d
  402aa5:	c5 e2 5c fe          	vsubss %xmm6,%xmm3,%xmm7
  402aa9:	c4 21 4a 59 0c a9    	vmulss (%rcx,%r13,4),%xmm6,%xmm9
  402aaf:	44 8d 2c 33          	lea    (%rbx,%rsi,1),%r13d
  402ab3:	8d 5c 33 01          	lea    0x1(%rbx,%rsi,1),%ebx
  402ab7:	8d 74 37 01          	lea    0x1(%rdi,%rsi,1),%esi
  402abb:	48 8b 7c 24 d8       	mov    -0x28(%rsp),%rdi
  402ac0:	c4 22 41 b9 0c a9    	vfmadd231ss (%rcx,%r13,4),%xmm7,%xmm9
  402ac6:	c4 e2 31 9b 34 b1    	vfmsub132ss (%rcx,%rsi,4),%xmm9,%xmm6
  402acc:	41 8d 73 03          	lea    0x3(%r11),%esi
  402ad0:	c4 e2 41 b9 34 99    	vfmadd231ss (%rcx,%rbx,4),%xmm7,%xmm6
  402ad6:	89 c3                	mov    %eax,%ebx
  402ad8:	c4 c2 51 a9 f1       	vfmadd213ss %xmm9,%xmm5,%xmm6
  402add:	c4 a1 7a 11 34 ba    	vmovss %xmm6,(%rdx,%r15,4)
  402ae3:	46 8d 3c 27          	lea    (%rdi,%r12,1),%r15d
  402ae7:	c4 e1 aa 2a f6       	vcvtsi2ss %rsi,%xmm10,%xmm6
  402aec:	c4 82 79 bd 34 b9    	vfnmadd231ss (%r9,%r15,4),%xmm0,%xmm6
  402af2:	c4 81 7a 10 2c b8    	vmovss (%r8,%r15,4),%xmm5
  402af8:	c4 e2 59 9d e8       	vfnmadd132ss %xmm0,%xmm4,%xmm5
  402afd:	c5 72 5d c6          	vminss %xmm6,%xmm1,%xmm8
  402b01:	c5 ca c2 f2 01       	vcmpltss %xmm2,%xmm6,%xmm6
  402b06:	c4 e3 39 4a f2 60    	vblendvps %xmm6,%xmm2,%xmm8,%xmm6
  402b0c:	c5 f2 5d fd          	vminss %xmm5,%xmm1,%xmm7
  402b10:	c5 d2 c2 ea 01       	vcmpltss %xmm2,%xmm5,%xmm5
  402b15:	c5 fa 2c f6          	vcvttss2si %xmm6,%esi
  402b19:	c4 e3 41 4a ea 50    	vblendvps %xmm5,%xmm2,%xmm7,%xmm5
  402b1f:	c4 e3 49 0a fe 0b    	vroundss $0xb,%xmm6,%xmm6,%xmm7
  402b25:	c5 fa 2c fd          	vcvttss2si %xmm5,%edi
  402b29:	c4 63 51 0a cd 0b    	vroundss $0xb,%xmm5,%xmm5,%xmm9
  402b2f:	0f af de             	imul   %esi,%ebx
  402b32:	ff c6                	inc    %esi
  402b34:	0f af f0             	imul   %eax,%esi
  402b37:	c5 ca 5c f7          	vsubss %xmm7,%xmm6,%xmm6
  402b3b:	c4 c1 52 5c e9       	vsubss %xmm9,%xmm5,%xmm5
  402b40:	44 8d 2c 3e          	lea    (%rsi,%rdi,1),%r13d
  402b44:	c5 e2 5c fe          	vsubss %xmm6,%xmm3,%xmm7
  402b48:	8d 74 3e 01          	lea    0x1(%rsi,%rdi,1),%esi
  402b4c:	c4 21 4a 59 04 a9    	vmulss (%rcx,%r13,4),%xmm6,%xmm8
  402b52:	44 8d 2c 3b          	lea    (%rbx,%rdi,1),%r13d
  402b56:	8d 5c 3b 01          	lea    0x1(%rbx,%rdi,1),%ebx
  402b5a:	c4 22 41 b9 04 a9    	vfmadd231ss (%rcx,%r13,4),%xmm7,%xmm8
  402b60:	c4 e2 39 9b 34 b1    	vfmsub132ss (%rcx,%rsi,4),%xmm8,%xmm6
  402b66:	41 8d 73 04          	lea    0x4(%r11),%esi
  402b6a:	c4 e2 41 b9 34 99    	vfmadd231ss (%rcx,%rbx,4),%xmm7,%xmm6
  402b70:	89 c3                	mov    %eax,%ebx
  402b72:	c4 c2 51 a9 f0       	vfmadd213ss %xmm8,%xmm5,%xmm6
  402b77:	c4 a1 7a 11 34 ba    	vmovss %xmm6,(%rdx,%r15,4)
  402b7d:	c4 e1 fa 2a f6       	vcvtsi2ss %rsi,%xmm0,%xmm6
  402b82:	c4 c1 7a 10 2c a8    	vmovss (%r8,%rbp,4),%xmm5
  402b88:	c4 c2 79 bd 34 a9    	vfnmadd231ss (%r9,%rbp,4),%xmm0,%xmm6
  402b8e:	c4 e2 59 9d e8       	vfnmadd132ss %xmm0,%xmm4,%xmm5
  402b93:	c5 f2 5d fd          	vminss %xmm5,%xmm1,%xmm7
  402b97:	c5 d2 c2 ea 01       	vcmpltss %xmm2,%xmm5,%xmm5
  402b9c:	c4 e3 41 4a ea 50    	vblendvps %xmm5,%xmm2,%xmm7,%xmm5
  402ba2:	c5 f2 5d fe          	vminss %xmm6,%xmm1,%xmm7
  402ba6:	c5 ca c2 f2 01       	vcmpltss %xmm2,%xmm6,%xmm6
  402bab:	c4 e3 41 4a f2 60    	vblendvps %xmm6,%xmm2,%xmm7,%xmm6
  402bb1:	c5 fa 2c f5          	vcvttss2si %xmm5,%esi
  402bb5:	c4 e3 51 0a fd 0b    	vroundss $0xb,%xmm5,%xmm5,%xmm7
  402bbb:	c5 fa 2c fe          	vcvttss2si %xmm6,%edi
  402bbf:	c4 63 49 0a c6 0b    	vroundss $0xb,%xmm6,%xmm6,%xmm8
  402bc5:	0f af df             	imul   %edi,%ebx
  402bc8:	ff c7                	inc    %edi
  402bca:	c5 d2 5c ef          	vsubss %xmm7,%xmm5,%xmm5
  402bce:	0f af f8             	imul   %eax,%edi
  402bd1:	c4 c1 4a 5c f0       	vsubss %xmm8,%xmm6,%xmm6
  402bd6:	44 8d 3c 37          	lea    (%rdi,%rsi,1),%r15d
  402bda:	c5 62 5c ce          	vsubss %xmm6,%xmm3,%xmm9
  402bde:	8d 7c 37 01          	lea    0x1(%rdi,%rsi,1),%edi
  402be2:	c4 21 4a 59 04 b9    	vmulss (%rcx,%r15,4),%xmm6,%xmm8
  402be8:	44 8d 3c 33          	lea    (%rbx,%rsi,1),%r15d
  402bec:	8d 74 33 01          	lea    0x1(%rbx,%rsi,1),%esi
  402bf0:	89 c3                	mov    %eax,%ebx
  402bf2:	c4 22 31 b9 04 b9    	vfmadd231ss (%rcx,%r15,4),%xmm9,%xmm8
  402bf8:	47 8d 3c 22          	lea    (%r10,%r12,1),%r15d
  402bfc:	c4 e2 39 9b 34 b9    	vfmsub132ss (%rcx,%rdi,4),%xmm8,%xmm6
  402c02:	c4 e2 31 b9 34 b1    	vfmadd231ss (%rcx,%rsi,4),%xmm9,%xmm6
  402c08:	41 8d 73 05          	lea    0x5(%r11),%esi
  402c0c:	c4 c2 51 a9 f0       	vfmadd213ss %xmm8,%xmm5,%xmm6
  402c11:	c5 fa 11 34 aa       	vmovss %xmm6,(%rdx,%rbp,4)
  402c16:	c4 e1 fa 2a f6       	vcvtsi2ss %rsi,%xmm0,%xmm6
  402c1b:	c4 81 7a 10 2c b8    	vmovss (%r8,%r15,4),%xmm5
  402c21:	c4 82 79 bd 34 b9    	vfnmadd231ss (%r9,%r15,4),%xmm0,%xmm6
  402c27:	c4 e2 59 9d e8       	vfnmadd132ss %xmm0,%xmm4,%xmm5
  402c2c:	c5 f2 5d fd          	vminss %xmm5,%xmm1,%xmm7
  402c30:	c5 d2 c2 ea 01       	vcmpltss %xmm2,%xmm5,%xmm5
  402c35:	c4 e3 41 4a ea 50    	vblendvps %xmm5,%xmm2,%xmm7,%xmm5
  402c3b:	c5 f2 5d fe          	vminss %xmm6,%xmm1,%xmm7
  402c3f:	c5 ca c2 f2 01       	vcmpltss %xmm2,%xmm6,%xmm6
  402c44:	c4 e3 41 4a f2 60    	vblendvps %xmm6,%xmm2,%xmm7,%xmm6
  402c4a:	c5 fa 2c f5          	vcvttss2si %xmm5,%esi
  402c4e:	c4 63 51 0a c5 0b    	vroundss $0xb,%xmm5,%xmm5,%xmm8
  402c54:	c5 fa 2c fe          	vcvttss2si %xmm6,%edi
  402c58:	c4 e3 49 0a fe 0b    	vroundss $0xb,%xmm6,%xmm6,%xmm7
  402c5e:	0f af df             	imul   %edi,%ebx
  402c61:	ff c7                	inc    %edi
  402c63:	c4 c1 52 5c e8       	vsubss %xmm8,%xmm5,%xmm5
  402c68:	0f af f8             	imul   %eax,%edi
  402c6b:	c5 ca 5c f7          	vsubss %xmm7,%xmm6,%xmm6
  402c6f:	44 8d 2c 37          	lea    (%rdi,%rsi,1),%r13d
  402c73:	c5 e2 5c fe          	vsubss %xmm6,%xmm3,%xmm7
  402c77:	c4 21 4a 59 0c a9    	vmulss (%rcx,%r13,4),%xmm6,%xmm9
  402c7d:	44 8d 2c 33          	lea    (%rbx,%rsi,1),%r13d
  402c81:	8d 5c 33 01          	lea    0x1(%rbx,%rsi,1),%ebx
  402c85:	8d 74 37 01          	lea    0x1(%rdi,%rsi,1),%esi
  402c89:	48 8b 7c 24 e0       	mov    -0x20(%rsp),%rdi
  402c8e:	c4 22 41 b9 0c a9    	vfmadd231ss (%rcx,%r13,4),%xmm7,%xmm9
  402c94:	42 8d 2c 27          	lea    (%rdi,%r12,1),%ebp
  402c98:	c4 e2 31 9b 34 b1    	vfmsub132ss (%rcx,%rsi,4),%xmm9,%xmm6
  402c9e:	41 8d 73 06          	lea    0x6(%r11),%esi
  402ca2:	c4 e2 41 b9 34 99    	vfmadd231ss (%rcx,%rbx,4),%xmm7,%xmm6
  402ca8:	89 c3                	mov    %eax,%ebx
  402caa:	c4 c2 51 a9 f1       	vfmadd213ss %xmm9,%xmm5,%xmm6
  402caf:	c4 e1 fa 2a ee       	vcvtsi2ss %rsi,%xmm0,%xmm5
  402cb4:	c4 a1 7a 11 34 ba    	vmovss %xmm6,(%rdx,%r15,4)
  402cba:	c4 c2 79 bd 2c a9    	vfnmadd231ss (%r9,%rbp,4),%xmm0,%xmm5
  402cc0:	c4 c1 7a 10 34 a8    	vmovss (%r8,%rbp,4),%xmm6
  402cc6:	c4 e2 59 9d f0       	vfnmadd132ss %xmm0,%xmm4,%xmm6
  402ccb:	c5 72 5d c5          	vminss %xmm5,%xmm1,%xmm8
  402ccf:	c5 d2 c2 ea 01       	vcmpltss %xmm2,%xmm5,%xmm5
  402cd4:	c4 e3 39 4a ea 50    	vblendvps %xmm5,%xmm2,%xmm8,%xmm5
  402cda:	c5 f2 5d fe          	vminss %xmm6,%xmm1,%xmm7
  402cde:	c5 ca c2 f2 01       	vcmpltss %xmm2,%xmm6,%xmm6
  402ce3:	c5 fa 2c f5          	vcvttss2si %xmm5,%esi
  402ce7:	c4 e3 41 4a f2 60    	vblendvps %xmm6,%xmm2,%xmm7,%xmm6
  402ced:	c4 e3 51 0a fd 0b    	vroundss $0xb,%xmm5,%xmm5,%xmm7
  402cf3:	c5 fa 2c fe          	vcvttss2si %xmm6,%edi
  402cf7:	c4 63 49 0a ce 0b    	vroundss $0xb,%xmm6,%xmm6,%xmm9
  402cfd:	0f af de             	imul   %esi,%ebx
  402d00:	ff c6                	inc    %esi
  402d02:	0f af f0             	imul   %eax,%esi
  402d05:	c5 d2 5c ef          	vsubss %xmm7,%xmm5,%xmm5
  402d09:	c4 c1 4a 5c f1       	vsubss %xmm9,%xmm6,%xmm6
  402d0e:	44 8d 3c 3e          	lea    (%rsi,%rdi,1),%r15d
  402d12:	c5 e2 5c fd          	vsubss %xmm5,%xmm3,%xmm7
  402d16:	8d 74 3e 01          	lea    0x1(%rsi,%rdi,1),%esi
  402d1a:	c4 21 52 59 04 b9    	vmulss (%rcx,%r15,4),%xmm5,%xmm8
  402d20:	44 8d 3c 3b          	lea    (%rbx,%rdi,1),%r15d
  402d24:	8d 5c 3b 01          	lea    0x1(%rbx,%rdi,1),%ebx
  402d28:	48 8b 7c 24 f8       	mov    -0x8(%rsp),%rdi
  402d2d:	c4 22 41 b9 04 b9    	vfmadd231ss (%rcx,%r15,4),%xmm7,%xmm8
  402d33:	46 8d 3c 27          	lea    (%rdi,%r12,1),%r15d
  402d37:	c4 e2 39 9b 2c b1    	vfmsub132ss (%rcx,%rsi,4),%xmm8,%xmm5
  402d3d:	41 8d 73 07          	lea    0x7(%r11),%esi
  402d41:	49 83 c3 08          	add    $0x8,%r11
  402d45:	c4 e2 41 b9 2c 99    	vfmadd231ss (%rcx,%rbx,4),%xmm7,%xmm5
  402d4b:	89 c3                	mov    %eax,%ebx
  402d4d:	c4 c2 49 a9 e8       	vfmadd213ss %xmm8,%xmm6,%xmm5
  402d52:	c4 e1 fa 2a f6       	vcvtsi2ss %rsi,%xmm0,%xmm6
  402d57:	c5 fa 11 2c aa       	vmovss %xmm5,(%rdx,%rbp,4)
  402d5c:	c4 81 7a 10 2c b8    	vmovss (%r8,%r15,4),%xmm5
  402d62:	c4 82 79 bd 34 b9    	vfnmadd231ss (%r9,%r15,4),%xmm0,%xmm6
  402d68:	c4 e2 59 9d e8       	vfnmadd132ss %xmm0,%xmm4,%xmm5
  402d6d:	c5 f2 5d fd          	vminss %xmm5,%xmm1,%xmm7
  402d71:	c5 d2 c2 ea 01       	vcmpltss %xmm2,%xmm5,%xmm5
  402d76:	c4 e3 41 4a ea 50    	vblendvps %xmm5,%xmm2,%xmm7,%xmm5
  402d7c:	c5 f2 5d fe          	vminss %xmm6,%xmm1,%xmm7
  402d80:	c5 ca c2 f2 01       	vcmpltss %xmm2,%xmm6,%xmm6
  402d85:	c4 e3 41 4a f2 60    	vblendvps %xmm6,%xmm2,%xmm7,%xmm6
  402d8b:	c5 fa 2c f5          	vcvttss2si %xmm5,%esi
  402d8f:	c4 e3 51 0a fd 0b    	vroundss $0xb,%xmm5,%xmm5,%xmm7
  402d95:	c5 fa 2c fe          	vcvttss2si %xmm6,%edi
  402d99:	c4 63 49 0a c6 0b    	vroundss $0xb,%xmm6,%xmm6,%xmm8
  402d9f:	0f af df             	imul   %edi,%ebx
  402da2:	ff c7                	inc    %edi
  402da4:	c5 d2 5c ef          	vsubss %xmm7,%xmm5,%xmm5
  402da8:	0f af f8             	imul   %eax,%edi
  402dab:	c4 c1 4a 5c f0       	vsubss %xmm8,%xmm6,%xmm6
  402db0:	44 8d 2c 37          	lea    (%rdi,%rsi,1),%r13d
  402db4:	c5 62 5c c6          	vsubss %xmm6,%xmm3,%xmm8
  402db8:	c4 21 4a 59 0c a9    	vmulss (%rcx,%r13,4),%xmm6,%xmm9
  402dbe:	44 8d 2c 33          	lea    (%rbx,%rsi,1),%r13d
  402dc2:	8d 5c 33 01          	lea    0x1(%rbx,%rsi,1),%ebx
  402dc6:	8d 74 37 01          	lea    0x1(%rdi,%rsi,1),%esi
  402dca:	c4 22 39 b9 0c a9    	vfmadd231ss (%rcx,%r13,4),%xmm8,%xmm9
  402dd0:	4c 8b 6c 24 a8       	mov    -0x58(%rsp),%r13
  402dd5:	c4 e2 31 9b 34 b1    	vfmsub132ss (%rcx,%rsi,4),%xmm9,%xmm6
  402ddb:	48 8b 74 24 e8       	mov    -0x18(%rsp),%rsi
  402de0:	c4 e2 39 b9 34 99    	vfmadd231ss (%rcx,%rbx,4),%xmm8,%xmm6
  402de6:	89 c3                	mov    %eax,%ebx
  402de8:	42 8d 2c 26          	lea    (%rsi,%r12,1),%ebp
  402dec:	44 89 de             	mov    %r11d,%esi
  402def:	44 03 64 24 94       	add    -0x6c(%rsp),%r12d
  402df4:	c4 c2 51 a9 f1       	vfmadd213ss %xmm9,%xmm5,%xmm6
  402df9:	c4 a1 7a 11 34 ba    	vmovss %xmm6,(%rdx,%r15,4)
  402dff:	c4 e1 fa 2a f6       	vcvtsi2ss %rsi,%xmm0,%xmm6
  402e04:	c4 c2 79 bd 34 a9    	vfnmadd231ss (%r9,%rbp,4),%xmm0,%xmm6
  402e0a:	c4 c1 7a 10 2c a8    	vmovss (%r8,%rbp,4),%xmm5
  402e10:	c4 e2 59 9d e8       	vfnmadd132ss %xmm0,%xmm4,%xmm5
  402e15:	c5 72 5d c6          	vminss %xmm6,%xmm1,%xmm8
  402e19:	c5 ca c2 f2 01       	vcmpltss %xmm2,%xmm6,%xmm6
  402e1e:	c4 e3 39 4a f2 60    	vblendvps %xmm6,%xmm2,%xmm8,%xmm6
  402e24:	c5 f2 5d fd          	vminss %xmm5,%xmm1,%xmm7
  402e28:	c5 d2 c2 ea 01       	vcmpltss %xmm2,%xmm5,%xmm5
  402e2d:	c5 fa 2c f6          	vcvttss2si %xmm6,%esi
  402e31:	c4 e3 41 4a ea 50    	vblendvps %xmm5,%xmm2,%xmm7,%xmm5
  402e37:	c4 e3 49 0a fe 0b    	vroundss $0xb,%xmm6,%xmm6,%xmm7
  402e3d:	c5 fa 2c fd          	vcvttss2si %xmm5,%edi
  402e41:	0f af de             	imul   %esi,%ebx
  402e44:	ff c6                	inc    %esi
  402e46:	0f af f0             	imul   %eax,%esi
  402e49:	c5 ca 5c f7          	vsubss %xmm7,%xmm6,%xmm6
  402e4d:	44 8d 3c 3e          	lea    (%rsi,%rdi,1),%r15d
  402e51:	c5 e2 5c fe          	vsubss %xmm6,%xmm3,%xmm7
  402e55:	8d 74 3e 01          	lea    0x1(%rsi,%rdi,1),%esi
  402e59:	c4 21 4a 59 04 b9    	vmulss (%rcx,%r15,4),%xmm6,%xmm8
  402e5f:	44 8d 3c 3b          	lea    (%rbx,%rdi,1),%r15d
  402e63:	8d 5c 3b 01          	lea    0x1(%rbx,%rdi,1),%ebx
  402e67:	48 8b 7c 24 a0       	mov    -0x60(%rsp),%rdi
  402e6c:	c4 22 41 b9 04 b9    	vfmadd231ss (%rcx,%r15,4),%xmm7,%xmm8
  402e72:	c4 e2 39 9b 34 b1    	vfmsub132ss (%rcx,%rsi,4),%xmm8,%xmm6
  402e78:	c4 e2 41 b9 34 99    	vfmadd231ss (%rcx,%rbx,4),%xmm7,%xmm6
  402e7e:	c4 e3 51 0a fd 0b    	vroundss $0xb,%xmm5,%xmm5,%xmm7
  402e84:	c5 d2 5c ef          	vsubss %xmm7,%xmm5,%xmm5
  402e88:	c4 c2 51 a9 f0       	vfmadd213ss %xmm8,%xmm5,%xmm6
  402e8d:	c5 fa 11 34 aa       	vmovss %xmm6,(%rdx,%rbp,4)
  402e92:	4c 3b 5c 24 f0       	cmp    -0x10(%rsp),%r11
  402e97:	0f 85 03 fb ff ff    	jne    4029a0 <advect+0x160>
  402e9d:	49 ff c3             	inc    %r11
  402ea0:	4d 89 d6             	mov    %r10,%r14
  402ea3:	48 83 7c 24 c0 00    	cmpq   $0x0,-0x40(%rsp)
  402ea9:	0f 84 91 fa ff ff    	je     402940 <advect+0x100>
  402eaf:	41 89 c4             	mov    %eax,%r12d
  402eb2:	45 0f af e3          	imul   %r11d,%r12d
  402eb6:	44 03 64 24 84       	add    -0x7c(%rsp),%r12d
  402ebb:	48 8b 6c 24 b8       	mov    -0x48(%rsp),%rbp
  402ec0:	45 89 e7             	mov    %r12d,%r15d
  402ec3:	45 89 dd             	mov    %r11d,%r13d
  402ec6:	c4 c1 aa 2a f5       	vcvtsi2ss %r13,%xmm10,%xmm6
  402ecb:	c4 82 79 bd 34 b9    	vfnmadd231ss (%r9,%r15,4),%xmm0,%xmm6
  402ed1:	c4 81 7a 10 2c b8    	vmovss (%r8,%r15,4),%xmm5
  402ed7:	89 c6                	mov    %eax,%esi
  402ed9:	41 ff c3             	inc    %r11d
  402edc:	41 01 c4             	add    %eax,%r12d
  402edf:	c4 e2 59 9d e8       	vfnmadd132ss %xmm0,%xmm4,%xmm5
  402ee4:	c5 72 5d c6          	vminss %xmm6,%xmm1,%xmm8
  402ee8:	c5 ca c2 f2 01       	vcmpltss %xmm2,%xmm6,%xmm6
  402eed:	c4 e3 39 4a f2 60    	vblendvps %xmm6,%xmm2,%xmm8,%xmm6
  402ef3:	c5 f2 5d fd          	vminss %xmm5,%xmm1,%xmm7
  402ef7:	c5 d2 c2 ea 01       	vcmpltss %xmm2,%xmm5,%xmm5
  402efc:	c5 7a 2c ee          	vcvttss2si %xmm6,%r13d
  402f00:	c4 e3 41 4a ea 50    	vblendvps %xmm5,%xmm2,%xmm7,%xmm5
  402f06:	c4 e3 49 0a fe 0b    	vroundss $0xb,%xmm6,%xmm6,%xmm7
  402f0c:	c5 fa 2c dd          	vcvttss2si %xmm5,%ebx
  402f10:	41 0f af f5          	imul   %r13d,%esi
  402f14:	41 ff c5             	inc    %r13d
  402f17:	44 0f af e8          	imul   %eax,%r13d
  402f1b:	c5 ca 5c f7          	vsubss %xmm7,%xmm6,%xmm6
  402f1f:	48 ff c5             	inc    %rbp
  402f22:	41 8d 7c 1d 00       	lea    0x0(%r13,%rbx,1),%edi
  402f27:	c5 e2 5c fe          	vsubss %xmm6,%xmm3,%xmm7
  402f2b:	c5 4a 59 04 b9       	vmulss (%rcx,%rdi,4),%xmm6,%xmm8
  402f30:	8d 3c 1e             	lea    (%rsi,%rbx,1),%edi
  402f33:	8d 74 1e 01          	lea    0x1(%rsi,%rbx,1),%esi
  402f37:	c4 62 41 b9 04 b9    	vfmadd231ss (%rcx,%rdi,4),%xmm7,%xmm8
  402f3d:	41 8d 7c 1d 01       	lea    0x1(%r13,%rbx,1),%edi
  402f42:	c4 e2 39 9b 34 b9    	vfmsub132ss (%rcx,%rdi,4),%xmm8,%xmm6
  402f48:	c4 e2 41 b9 34 b1    	vfmadd231ss (%rcx,%rsi,4),%xmm7,%xmm6
  402f4e:	c4 e3 51 0a fd 0b    	vroundss $0xb,%xmm5,%xmm5,%xmm7
  402f54:	c5 d2 5c ef          	vsubss %xmm7,%xmm5,%xmm5
  402f58:	c4 c2 51 a9 f0       	vfmadd213ss %xmm8,%xmm5,%xmm6
  402f5d:	c4 a1 7a 11 34 ba    	vmovss %xmm6,(%rdx,%r15,4)
  402f63:	0f 85 57 ff ff ff    	jne    402ec0 <advect+0x680>
  402f69:	e9 d2 f9 ff ff       	jmp    402940 <advect+0x100>
  402f6e:	8b 74 24 90          	mov    -0x70(%rsp),%esi
  402f72:	48 8b 7c 24 98       	mov    -0x68(%rsp),%rdi
  402f77:	5b                   	pop    %rbx
  402f78:	41 5c                	pop    %r12
  402f7a:	41 5d                	pop    %r13
  402f7c:	41 5e                	pop    %r14
  402f7e:	41 5f                	pop    %r15
  402f80:	5d                   	pop    %rbp
  402f81:	e9 5a 32 00 00       	jmp    4061e0 <set_bnd>
  402f86:	66 2e 0f 1f 84 00 00 	cs nopw 0x0(%rax,%rax,1)
  402f8d:	00 00 00 

0000000000402f90 <vel_step>:
  402f90:	41 57                	push   %r15
  402f92:	41 56                	push   %r14
  402f94:	41 55                	push   %r13
  402f96:	41 54                	push   %r12
  402f98:	53                   	push   %rbx
  402f99:	48 83 ec 20          	sub    $0x20,%rsp
  402f9d:	41 89 fd             	mov    %edi,%r13d
  402fa0:	41 8d 45 02          	lea    0x2(%r13),%eax
  402fa4:	4c 89 c3             	mov    %r8,%rbx
  402fa7:	49 89 ce             	mov    %rcx,%r14
  402faa:	49 89 d7             	mov    %rdx,%r15
  402fad:	49 89 f4             	mov    %rsi,%r12
  402fb0:	0f af c0             	imul   %eax,%eax
  402fb3:	85 c0                	test   %eax,%eax
  402fb5:	0f 84 2e 01 00 00    	je     4030e9 <vel_step+0x159>
  402fbb:	89 c0                	mov    %eax,%eax
  402fbd:	49 8d 54 86 fc       	lea    -0x4(%r14,%rax,4),%rdx
  402fc2:	48 8d 48 ff          	lea    -0x1(%rax),%rcx
  402fc6:	4c 39 e2             	cmp    %r12,%rdx
  402fc9:	72 31                	jb     402ffc <vel_step+0x6c>
  402fcb:	49 8d 54 84 fc       	lea    -0x4(%r12,%rax,4),%rdx
  402fd0:	4c 39 f2             	cmp    %r14,%rdx
  402fd3:	72 27                	jb     402ffc <vel_step+0x6c>
  402fd5:	31 d2                	xor    %edx,%edx
  402fd7:	66 0f 1f 84 00 00 00 	nopw   0x0(%rax,%rax,1)
  402fde:	00 00 
  402fe0:	c4 c1 7a 10 14 96    	vmovss (%r14,%rdx,4),%xmm2
  402fe6:	c4 c2 71 a9 14 94    	vfmadd213ss (%r12,%rdx,4),%xmm1,%xmm2
  402fec:	c4 c1 7a 11 14 94    	vmovss %xmm2,(%r12,%rdx,4)
  402ff2:	48 ff c2             	inc    %rdx
  402ff5:	48 39 d0             	cmp    %rdx,%rax
  402ff8:	75 e6                	jne    402fe0 <vel_step+0x50>
  402ffa:	eb 5e                	jmp    40305a <vel_step+0xca>
  402ffc:	ba f8 ff ff ff       	mov    $0xfffffff8,%edx
  403001:	48 21 c2             	and    %rax,%rdx
  403004:	74 2c                	je     403032 <vel_step+0xa2>
  403006:	c4 e2 7d 18 d9       	vbroadcastss %xmm1,%ymm3
  40300b:	31 f6                	xor    %esi,%esi
  40300d:	0f 1f 00             	nopl   (%rax)
  403010:	c4 c1 7c 10 14 b6    	vmovups (%r14,%rsi,4),%ymm2
  403016:	c4 c2 65 a8 14 b4    	vfmadd213ps (%r12,%rsi,4),%ymm3,%ymm2
  40301c:	c4 c1 7c 11 14 b4    	vmovups %ymm2,(%r12,%rsi,4)
  403022:	48 83 c6 08          	add    $0x8,%rsi
  403026:	48 39 d6             	cmp    %rdx,%rsi
  403029:	72 e5                	jb     403010 <vel_step+0x80>
  40302b:	48 39 c2             	cmp    %rax,%rdx
  40302e:	75 10                	jne    403040 <vel_step+0xb0>
  403030:	eb 28                	jmp    40305a <vel_step+0xca>
  403032:	31 d2                	xor    %edx,%edx
  403034:	66 66 66 2e 0f 1f 84 	data16 data16 cs nopw 0x0(%rax,%rax,1)
  40303b:	00 00 00 00 00 
  403040:	c4 c1 7a 10 14 96    	vmovss (%r14,%rdx,4),%xmm2
  403046:	c4 c2 71 a9 14 94    	vfmadd213ss (%r12,%rdx,4),%xmm1,%xmm2
  40304c:	c4 c1 7a 11 14 94    	vmovss %xmm2,(%r12,%rdx,4)
  403052:	48 ff c2             	inc    %rdx
  403055:	48 39 d0             	cmp    %rdx,%rax
  403058:	75 e6                	jne    403040 <vel_step+0xb0>
  40305a:	48 8d 14 8b          	lea    (%rbx,%rcx,4),%rdx
  40305e:	4c 39 fa             	cmp    %r15,%rdx
  403061:	72 28                	jb     40308b <vel_step+0xfb>
  403063:	49 8d 0c 8f          	lea    (%r15,%rcx,4),%rcx
  403067:	48 39 d9             	cmp    %rbx,%rcx
  40306a:	72 1f                	jb     40308b <vel_step+0xfb>
  40306c:	31 c9                	xor    %ecx,%ecx
  40306e:	66 90                	xchg   %ax,%ax
  403070:	c5 fa 10 14 8b       	vmovss (%rbx,%rcx,4),%xmm2
  403075:	c4 c2 71 a9 14 8f    	vfmadd213ss (%r15,%rcx,4),%xmm1,%xmm2
  40307b:	c4 c1 7a 11 14 8f    	vmovss %xmm2,(%r15,%rcx,4)
  403081:	48 ff c1             	inc    %rcx
  403084:	48 39 c8             	cmp    %rcx,%rax
  403087:	75 e7                	jne    403070 <vel_step+0xe0>
  403089:	eb 5e                	jmp    4030e9 <vel_step+0x159>
  40308b:	b9 f8 ff ff ff       	mov    $0xfffffff8,%ecx
  403090:	48 21 c1             	and    %rax,%rcx
  403093:	74 2c                	je     4030c1 <vel_step+0x131>
  403095:	c4 e2 7d 18 d9       	vbroadcastss %xmm1,%ymm3
  40309a:	31 d2                	xor    %edx,%edx
  40309c:	0f 1f 40 00          	nopl   0x0(%rax)
  4030a0:	c5 fc 10 14 93       	vmovups (%rbx,%rdx,4),%ymm2
  4030a5:	c4 c2 65 a8 14 97    	vfmadd213ps (%r15,%rdx,4),%ymm3,%ymm2
  4030ab:	c4 c1 7c 11 14 97    	vmovups %ymm2,(%r15,%rdx,4)
  4030b1:	48 83 c2 08          	add    $0x8,%rdx
  4030b5:	48 39 ca             	cmp    %rcx,%rdx
  4030b8:	72 e6                	jb     4030a0 <vel_step+0x110>
  4030ba:	48 39 c1             	cmp    %rax,%rcx
  4030bd:	75 11                	jne    4030d0 <vel_step+0x140>
  4030bf:	eb 28                	jmp    4030e9 <vel_step+0x159>
  4030c1:	31 c9                	xor    %ecx,%ecx
  4030c3:	66 66 66 66 2e 0f 1f 	data16 data16 data16 cs nopw 0x0(%rax,%rax,1)
  4030ca:	84 00 00 00 00 00 
  4030d0:	c5 fa 10 14 8b       	vmovss (%rbx,%rcx,4),%xmm2
  4030d5:	c4 c2 71 a9 14 8f    	vfmadd213ss (%r15,%rcx,4),%xmm1,%xmm2
  4030db:	c4 c1 7a 11 14 8f    	vmovss %xmm2,(%r15,%rcx,4)
  4030e1:	48 ff c1             	inc    %rcx
  4030e4:	48 39 c8             	cmp    %rcx,%rax
  4030e7:	75 e7                	jne    4030d0 <vel_step+0x140>
  4030e9:	be 01 00 00 00       	mov    $0x1,%esi
  4030ee:	c5 f8 11 4c 24 10    	vmovups %xmm1,0x10(%rsp)
  4030f4:	44 89 ef             	mov    %r13d,%edi
  4030f7:	4c 89 f2             	mov    %r14,%rdx
  4030fa:	4c 89 e1             	mov    %r12,%rcx
  4030fd:	c5 fa 11 44 24 0c    	vmovss %xmm0,0xc(%rsp)
  403103:	c5 f8 77             	vzeroupper
  403106:	e8 65 ee ff ff       	call   401f70 <diffuse>
  40310b:	c5 fa 10 44 24 0c    	vmovss 0xc(%rsp),%xmm0
  403111:	c5 f8 10 4c 24 10    	vmovups 0x10(%rsp),%xmm1
  403117:	be 02 00 00 00       	mov    $0x2,%esi
  40311c:	44 89 ef             	mov    %r13d,%edi
  40311f:	48 89 da             	mov    %rbx,%rdx
  403122:	4c 89 f9             	mov    %r15,%rcx
  403125:	e8 46 ee ff ff       	call   401f70 <diffuse>
  40312a:	44 89 ef             	mov    %r13d,%edi
  40312d:	4c 89 f6             	mov    %r14,%rsi
  403130:	48 89 da             	mov    %rbx,%rdx
  403133:	4c 89 e1             	mov    %r12,%rcx
  403136:	4d 89 f8             	mov    %r15,%r8
  403139:	e8 62 00 00 00       	call   4031a0 <project>
  40313e:	c5 f8 10 44 24 10    	vmovups 0x10(%rsp),%xmm0
  403144:	be 01 00 00 00       	mov    $0x1,%esi
  403149:	44 89 ef             	mov    %r13d,%edi
  40314c:	4c 89 e2             	mov    %r12,%rdx
  40314f:	4c 89 f1             	mov    %r14,%rcx
  403152:	4d 89 f0             	mov    %r14,%r8
  403155:	49 89 d9             	mov    %rbx,%r9
  403158:	e8 e3 f6 ff ff       	call   402840 <advect>
  40315d:	c5 f8 10 44 24 10    	vmovups 0x10(%rsp),%xmm0
  403163:	be 02 00 00 00       	mov    $0x2,%esi
  403168:	44 89 ef             	mov    %r13d,%edi
  40316b:	4c 89 fa             	mov    %r15,%rdx
  40316e:	48 89 d9             	mov    %rbx,%rcx
  403171:	4d 89 f0             	mov    %r14,%r8
  403174:	49 89 d9             	mov    %rbx,%r9
  403177:	e8 c4 f6 ff ff       	call   402840 <advect>
  40317c:	44 89 ef             	mov    %r13d,%edi
  40317f:	4c 89 e6             	mov    %r12,%rsi
  403182:	4c 89 fa             	mov    %r15,%rdx
  403185:	4c 89 f1             	mov    %r14,%rcx
  403188:	49 89 d8             	mov    %rbx,%r8
  40318b:	48 83 c4 20          	add    $0x20,%rsp
  40318f:	5b                   	pop    %rbx
  403190:	41 5c                	pop    %r12
  403192:	41 5d                	pop    %r13
  403194:	41 5e                	pop    %r14
  403196:	41 5f                	pop    %r15
  403198:	eb 06                	jmp    4031a0 <project>
  40319a:	66 0f 1f 44 00 00    	nopw   0x0(%rax,%rax,1)

00000000004031a0 <project>:
  4031a0:	55                   	push   %rbp
  4031a1:	41 57                	push   %r15
  4031a3:	41 56                	push   %r14
  4031a5:	41 55                	push   %r13
  4031a7:	41 54                	push   %r12
  4031a9:	53                   	push   %rbx
  4031aa:	48 81 ec b8 00 00 00 	sub    $0xb8,%rsp
  4031b1:	49 89 d7             	mov    %rdx,%r15
  4031b4:	89 fd                	mov    %edi,%ebp
  4031b6:	31 c0                	xor    %eax,%eax
  4031b8:	89 fa                	mov    %edi,%edx
  4031ba:	48 89 44 24 28       	mov    %rax,0x28(%rsp)
  4031bf:	49 89 f5             	mov    %rsi,%r13
  4031c2:	4c 89 7c 24 e0       	mov    %r15,-0x20(%rsp)
  4031c7:	48 89 d0             	mov    %rdx,%rax
  4031ca:	48 89 54 24 f8       	mov    %rdx,-0x8(%rsp)
  4031cf:	48 89 6c 24 80       	mov    %rbp,-0x80(%rsp)
  4031d4:	48 89 74 24 d0       	mov    %rsi,-0x30(%rsp)
  4031d9:	85 ff                	test   %edi,%edi
  4031db:	0f 84 26 08 00 00    	je     403a07 <project+0x867>
  4031e1:	8d 45 02             	lea    0x2(%rbp),%eax
  4031e4:	41 b9 02 00 00 00    	mov    $0x2,%r9d
  4031ea:	c4 e1 fa 2a c2       	vcvtsi2ss %rdx,%xmm0,%xmm0
  4031ef:	c7 04 24 01 00 00 00 	movl   $0x1,(%rsp)
  4031f6:	48 89 44 24 c0       	mov    %rax,-0x40(%rsp)
  4031fb:	8d 45 01             	lea    0x1(%rbp),%eax
  4031fe:	83 f8 03             	cmp    $0x3,%eax
  403201:	48 89 44 24 10       	mov    %rax,0x10(%rsp)
  403206:	44 0f 43 c8          	cmovae %eax,%r9d
  40320a:	4d 8d 51 ff          	lea    -0x1(%r9),%r10
  40320e:	49 8d 71 fe          	lea    -0x2(%r9),%rsi
  403212:	41 ff c9             	dec    %r9d
  403215:	48 89 74 24 f0       	mov    %rsi,-0x10(%rsp)
  40321a:	4c 89 4c 24 20       	mov    %r9,0x20(%rsp)
  40321f:	4c 89 54 24 30       	mov    %r10,0x30(%rsp)
  403224:	83 f8 03             	cmp    $0x3,%eax
  403227:	0f 83 74 28 00 00    	jae    405aa1 <project+0x2901>
  40322d:	f6 44 24 20 01       	testb  $0x1,0x20(%rsp)
  403232:	4c 8b 5c 24 c0       	mov    -0x40(%rsp),%r11
  403237:	0f 84 75 03 00 00    	je     4035b2 <project+0x412>
  40323d:	4c 8b 5c 24 30       	mov    0x30(%rsp),%r11
  403242:	41 be 01 00 00 00    	mov    $0x1,%r14d
  403248:	48 89 ef             	mov    %rbp,%rdi
  40324b:	44 89 d8             	mov    %r11d,%eax
  40324e:	83 e0 07             	and    $0x7,%eax
  403251:	48 83 7c 24 f0 07    	cmpq   $0x7,-0x10(%rsp)
  403257:	0f 82 af 02 00 00    	jb     40350c <project+0x36c>
  40325d:	c5 fa 10 0d a7 9d 00 	vmovss 0x9da7(%rip),%xmm1        # 40d00c <_IO_stdin_used+0xc>
  403264:	00 
  403265:	8d 54 ff 12          	lea    0x12(%rdi,%rdi,8),%edx
  403269:	8d 34 fd 10 00 00 00 	lea    0x10(,%rdi,8),%esi
  403270:	49 83 e3 f8          	and    $0xfffffffffffffff8,%r11
  403274:	8d 2c 7f             	lea    (%rdi,%rdi,2),%ebp
  403277:	49 f7 db             	neg    %r11
  40327a:	48 89 54 24 90       	mov    %rdx,-0x70(%rsp)
  40327f:	8d 14 fd 00 00 00 00 	lea    0x0(,%rdi,8),%edx
  403286:	89 74 24 a0          	mov    %esi,-0x60(%rsp)
  40328a:	8d 34 3f             	lea    (%rdi,%rdi,1),%esi
  40328d:	48 89 74 24 98       	mov    %rsi,-0x68(%rsp)
  403292:	8d 34 76             	lea    (%rsi,%rsi,2),%esi
  403295:	48 89 54 24 a8       	mov    %rdx,-0x58(%rsp)
  40329a:	29 fa                	sub    %edi,%edx
  40329c:	48 89 54 24 88       	mov    %rdx,-0x78(%rsp)
  4032a1:	8b 14 24             	mov    (%rsp),%edx
  4032a4:	48 89 74 24 b8       	mov    %rsi,-0x48(%rsp)
  4032a9:	8d 34 bf             	lea    (%rdi,%rdi,4),%esi
  4032ac:	48 89 74 24 c8       	mov    %rsi,-0x38(%rsp)
  4032b1:	8d 34 bd 00 00 00 00 	lea    0x0(,%rdi,4),%esi
  4032b8:	c5 f2 5e c8          	vdivss %xmm0,%xmm1,%xmm1
  4032bc:	48 89 74 24 d8       	mov    %rsi,-0x28(%rsp)
  4032c1:	41 89 d1             	mov    %edx,%r9d
  4032c4:	c5 f2 59 0d 4c 9d 00 	vmulss 0x9d4c(%rip),%xmm1,%xmm1        # 40d018 <_IO_stdin_used+0x18>
  4032cb:	00 
  4032cc:	0f 1f 40 00          	nopl   0x0(%rax)
  4032d0:	4c 8b 64 24 98       	mov    -0x68(%rsp),%r12
  4032d5:	42 8d 54 0f 03       	lea    0x3(%rdi,%r9,1),%edx
  4032da:	42 8d 74 0f 01       	lea    0x1(%rdi,%r9,1),%esi
  4032df:	46 8d 54 0f 02       	lea    0x2(%rdi,%r9,1),%r10d
  4032e4:	48 8b 5c 24 d8       	mov    -0x28(%rsp),%rbx
  4032e9:	c4 c1 7a 10 54 95 00 	vmovss 0x0(%r13,%rdx,4),%xmm2
  4032f0:	c4 c1 7a 10 5c b5 00 	vmovss 0x0(%r13,%rsi,4),%xmm3
  4032f7:	44 89 ce             	mov    %r9d,%esi
  4032fa:	c4 c1 62 58 1c b7    	vaddss (%r15,%rsi,4),%xmm3,%xmm3
  403300:	43 8d 54 0c 04       	lea    0x4(%r12,%r9,1),%edx
  403305:	43 8d 74 0c 05       	lea    0x5(%r12,%r9,1),%esi
  40330a:	c4 c1 6a 58 14 97    	vaddss (%r15,%rdx,4),%xmm2,%xmm2
  403310:	c5 ea 5c d3          	vsubss %xmm3,%xmm2,%xmm2
  403314:	c5 ea 59 d1          	vmulss %xmm1,%xmm2,%xmm2
  403318:	c4 81 7a 11 14 90    	vmovss %xmm2,(%r8,%r10,4)
  40331e:	42 c7 04 91 00 00 00 	movl   $0x0,(%rcx,%r10,4)
  403325:	00 
  403326:	c4 c1 7a 10 54 b5 00 	vmovss 0x0(%r13,%rsi,4),%xmm2
  40332d:	43 8d 74 0c 03       	lea    0x3(%r12,%r9,1),%esi
  403332:	4d 89 dc             	mov    %r11,%r12
  403335:	46 8d 5c 0d 05       	lea    0x5(%rbp,%r9,1),%r11d
  40333a:	c4 c1 7a 10 5c b5 00 	vmovss 0x0(%r13,%rsi,4),%xmm3
  403341:	42 8d 74 0d 06       	lea    0x6(%rbp,%r9,1),%esi
  403346:	c4 81 62 58 1c 97    	vaddss (%r15,%r10,4),%xmm3,%xmm3
  40334c:	46 8d 54 0d 07       	lea    0x7(%rbp,%r9,1),%r10d
  403351:	c4 c1 6a 58 14 b7    	vaddss (%r15,%rsi,4),%xmm2,%xmm2
  403357:	c5 ea 5c d3          	vsubss %xmm3,%xmm2,%xmm2
  40335b:	c5 ea 59 d1          	vmulss %xmm1,%xmm2,%xmm2
  40335f:	c4 c1 7a 11 14 90    	vmovss %xmm2,(%r8,%rdx,4)
  403365:	c7 04 91 00 00 00 00 	movl   $0x0,(%rcx,%rdx,4)
  40336c:	c4 81 7a 10 5c 9d 00 	vmovss 0x0(%r13,%r11,4),%xmm3
  403373:	46 8d 5c 0b 08       	lea    0x8(%rbx,%r9,1),%r11d
  403378:	c4 81 7a 10 54 95 00 	vmovss 0x0(%r13,%r10,4),%xmm2
  40337f:	c4 c1 62 58 1c 97    	vaddss (%r15,%rdx,4),%xmm3,%xmm3
  403385:	42 8d 54 0b 09       	lea    0x9(%rbx,%r9,1),%edx
  40338a:	c4 81 6a 58 14 9f    	vaddss (%r15,%r11,4),%xmm2,%xmm2
  403390:	c5 ea 5c d3          	vsubss %xmm3,%xmm2,%xmm2
  403394:	c5 ea 59 d1          	vmulss %xmm1,%xmm2,%xmm2
  403398:	c4 c1 7a 11 14 b0    	vmovss %xmm2,(%r8,%rsi,4)
  40339e:	c7 04 b1 00 00 00 00 	movl   $0x0,(%rcx,%rsi,4)
  4033a5:	c4 c1 7a 10 54 95 00 	vmovss 0x0(%r13,%rdx,4),%xmm2
  4033ac:	42 8d 54 0b 07       	lea    0x7(%rbx,%r9,1),%edx
  4033b1:	48 8b 5c 24 c8       	mov    -0x38(%rsp),%rbx
  4033b6:	c4 c1 7a 10 5c 95 00 	vmovss 0x0(%r13,%rdx,4),%xmm3
  4033bd:	c4 c1 62 58 1c b7    	vaddss (%r15,%rsi,4),%xmm3,%xmm3
  4033c3:	46 8d 54 0b 0a       	lea    0xa(%rbx,%r9,1),%r10d
  4033c8:	42 8d 54 0b 0b       	lea    0xb(%rbx,%r9,1),%edx
  4033cd:	c4 81 6a 58 14 97    	vaddss (%r15,%r10,4),%xmm2,%xmm2
  4033d3:	c5 ea 5c d3          	vsubss %xmm3,%xmm2,%xmm2
  4033d7:	c5 ea 59 d1          	vmulss %xmm1,%xmm2,%xmm2
  4033db:	c4 81 7a 11 14 98    	vmovss %xmm2,(%r8,%r11,4)
  4033e1:	42 c7 04 99 00 00 00 	movl   $0x0,(%rcx,%r11,4)
  4033e8:	00 
  4033e9:	c4 c1 7a 10 54 95 00 	vmovss 0x0(%r13,%rdx,4),%xmm2
  4033f0:	42 8d 54 0b 09       	lea    0x9(%rbx,%r9,1),%edx
  4033f5:	48 8b 5c 24 b8       	mov    -0x48(%rsp),%rbx
  4033fa:	c4 c1 7a 10 5c 95 00 	vmovss 0x0(%r13,%rdx,4),%xmm3
  403401:	c4 81 62 58 1c 9f    	vaddss (%r15,%r11,4),%xmm3,%xmm3
  403407:	42 8d 74 0b 0c       	lea    0xc(%rbx,%r9,1),%esi
  40340c:	46 8d 5c 0b 0b       	lea    0xb(%rbx,%r9,1),%r11d
  403411:	42 8d 54 0b 0d       	lea    0xd(%rbx,%r9,1),%edx
  403416:	48 8b 5c 24 a8       	mov    -0x58(%rsp),%rbx
  40341b:	c4 c1 6a 58 14 b7    	vaddss (%r15,%rsi,4),%xmm2,%xmm2
  403421:	c5 ea 5c d3          	vsubss %xmm3,%xmm2,%xmm2
  403425:	c5 ea 59 d1          	vmulss %xmm1,%xmm2,%xmm2
  403429:	c4 81 7a 11 14 90    	vmovss %xmm2,(%r8,%r10,4)
  40342f:	42 c7 04 91 00 00 00 	movl   $0x0,(%rcx,%r10,4)
  403436:	00 
  403437:	c4 81 7a 10 5c 9d 00 	vmovss 0x0(%r13,%r11,4),%xmm3
  40343e:	4d 89 e3             	mov    %r12,%r11
  403441:	4c 8b 64 24 88       	mov    -0x78(%rsp),%r12
  403446:	c4 c1 7a 10 54 95 00 	vmovss 0x0(%r13,%rdx,4),%xmm2
  40344d:	c4 81 62 58 1c 97    	vaddss (%r15,%r10,4),%xmm3,%xmm3
  403453:	43 8d 54 0c 0e       	lea    0xe(%r12,%r9,1),%edx
  403458:	47 8d 54 0c 0f       	lea    0xf(%r12,%r9,1),%r10d
  40345d:	c4 c1 6a 58 14 97    	vaddss (%r15,%rdx,4),%xmm2,%xmm2
  403463:	c5 ea 5c d3          	vsubss %xmm3,%xmm2,%xmm2
  403467:	c5 ea 59 d1          	vmulss %xmm1,%xmm2,%xmm2
  40346b:	c4 c1 7a 11 14 b0    	vmovss %xmm2,(%r8,%rsi,4)
  403471:	c7 04 b1 00 00 00 00 	movl   $0x0,(%rcx,%rsi,4)
  403478:	c4 81 7a 10 54 95 00 	vmovss 0x0(%r13,%r10,4),%xmm2
  40347f:	47 8d 54 0c 0d       	lea    0xd(%r12,%r9,1),%r10d
  403484:	c4 81 7a 10 5c 95 00 	vmovss 0x0(%r13,%r10,4),%xmm3
  40348b:	46 8d 54 0b 10       	lea    0x10(%rbx,%r9,1),%r10d
  403490:	c4 c1 62 58 1c b7    	vaddss (%r15,%rsi,4),%xmm3,%xmm3
  403496:	42 8d 74 0b 11       	lea    0x11(%rbx,%r9,1),%esi
  40349b:	c4 81 6a 58 14 97    	vaddss (%r15,%r10,4),%xmm2,%xmm2
  4034a1:	c5 ea 5c d3          	vsubss %xmm3,%xmm2,%xmm2
  4034a5:	c5 ea 59 d1          	vmulss %xmm1,%xmm2,%xmm2
  4034a9:	c4 c1 7a 11 14 90    	vmovss %xmm2,(%r8,%rdx,4)
  4034af:	c7 04 91 00 00 00 00 	movl   $0x0,(%rcx,%rdx,4)
  4034b6:	c4 c1 7a 10 54 b5 00 	vmovss 0x0(%r13,%rsi,4),%xmm2
  4034bd:	42 8d 74 0b 0f       	lea    0xf(%rbx,%r9,1),%esi
  4034c2:	48 8b 5c 24 90       	mov    -0x70(%rsp),%rbx
  4034c7:	c4 c1 7a 10 5c b5 00 	vmovss 0x0(%r13,%rsi,4),%xmm3
  4034ce:	c4 c1 62 58 1c 97    	vaddss (%r15,%rdx,4),%xmm3,%xmm3
  4034d4:	4b 8d 54 33 08       	lea    0x8(%r11,%r14,1),%rdx
  4034d9:	49 83 c6 08          	add    $0x8,%r14
  4034dd:	42 8d 34 0b          	lea    (%rbx,%r9,1),%esi
  4034e1:	44 03 4c 24 a0       	add    -0x60(%rsp),%r9d
  4034e6:	c4 c1 6a 58 14 b7    	vaddss (%r15,%rsi,4),%xmm2,%xmm2
  4034ec:	c5 ea 5c d3          	vsubss %xmm3,%xmm2,%xmm2
  4034f0:	c5 ea 59 d1          	vmulss %xmm1,%xmm2,%xmm2
  4034f4:	c4 81 7a 11 14 90    	vmovss %xmm2,(%r8,%r10,4)
  4034fa:	42 c7 04 91 00 00 00 	movl   $0x0,(%rcx,%r10,4)
  403501:	00 
  403502:	48 83 fa 01          	cmp    $0x1,%rdx
  403506:	0f 85 c4 fd ff ff    	jne    4032d0 <project+0x130>
  40350c:	4c 8b 5c 24 c0       	mov    -0x40(%rsp),%r11
  403511:	48 89 fd             	mov    %rdi,%rbp
  403514:	48 85 c0             	test   %rax,%rax
  403517:	0f 84 95 00 00 00    	je     4035b2 <project+0x412>
  40351d:	c5 fa 10 0d e7 9a 00 	vmovss 0x9ae7(%rip),%xmm1        # 40d00c <_IO_stdin_used+0xc>
  403524:	00 
  403525:	8b 14 24             	mov    (%rsp),%edx
  403528:	45 8d 4e 01          	lea    0x1(%r14),%r9d
  40352c:	45 8d 56 ff          	lea    -0x1(%r14),%r10d
  403530:	45 0f af f3          	imul   %r11d,%r14d
  403534:	48 f7 d8             	neg    %rax
  403537:	45 0f af cb          	imul   %r11d,%r9d
  40353b:	45 0f af d3          	imul   %r11d,%r10d
  40353f:	41 01 d1             	add    %edx,%r9d
  403542:	41 01 d2             	add    %edx,%r10d
  403545:	41 01 d6             	add    %edx,%r14d
  403548:	c5 f2 5e c0          	vdivss %xmm0,%xmm1,%xmm0
  40354c:	c5 fa 10 0d c4 9a 00 	vmovss 0x9ac4(%rip),%xmm1        # 40d018 <_IO_stdin_used+0x18>
  403553:	00 
  403554:	66 66 66 2e 0f 1f 84 	data16 data16 cs nopw 0x0(%rax,%rax,1)
  40355b:	00 00 00 00 00 
  403560:	41 8d 56 01          	lea    0x1(%r14),%edx
  403564:	44 89 d6             	mov    %r10d,%esi
  403567:	45 01 da             	add    %r11d,%r10d
  40356a:	c4 c1 7a 10 54 95 00 	vmovss 0x0(%r13,%rdx,4),%xmm2
  403571:	41 8d 56 ff          	lea    -0x1(%r14),%edx
  403575:	c4 c1 7a 10 5c 95 00 	vmovss 0x0(%r13,%rdx,4),%xmm3
  40357c:	44 89 ca             	mov    %r9d,%edx
  40357f:	c4 c1 6a 58 14 97    	vaddss (%r15,%rdx,4),%xmm2,%xmm2
  403585:	44 89 f2             	mov    %r14d,%edx
  403588:	45 01 d9             	add    %r11d,%r9d
  40358b:	45 01 de             	add    %r11d,%r14d
  40358e:	48 ff c0             	inc    %rax
  403591:	c4 c1 62 58 1c b7    	vaddss (%r15,%rsi,4),%xmm3,%xmm3
  403597:	c5 ea 5c d3          	vsubss %xmm3,%xmm2,%xmm2
  40359b:	c5 ea 59 d1          	vmulss %xmm1,%xmm2,%xmm2
  40359f:	c5 ea 59 d0          	vmulss %xmm0,%xmm2,%xmm2
  4035a3:	c4 c1 7a 11 14 90    	vmovss %xmm2,(%r8,%rdx,4)
  4035a9:	c7 04 91 00 00 00 00 	movl   $0x0,(%rcx,%rdx,4)
  4035b0:	75 ae                	jne    403560 <project+0x3c0>
  4035b2:	4c 8b 64 24 10       	mov    0x10(%rsp),%r12
  4035b7:	44 89 d8             	mov    %r11d,%eax
  4035ba:	0f af c5             	imul   %ebp,%eax
  4035bd:	45 89 df             	mov    %r11d,%r15d
  4035c0:	41 ba 01 00 00 00    	mov    $0x1,%r10d
  4035c6:	4c 89 de             	mov    %r11,%rsi
  4035c9:	48 89 44 24 d8       	mov    %rax,-0x28(%rsp)
  4035ce:	45 0f af fc          	imul   %r12d,%r15d
  4035d2:	44 89 e0             	mov    %r12d,%eax
  4035d5:	48 8d 68 ff          	lea    -0x1(%rax),%rbp
  4035d9:	48 89 44 24 18       	mov    %rax,0x18(%rsp)
  4035de:	48 83 c0 fe          	add    $0xfffffffffffffffe,%rax
  4035e2:	48 89 6c 24 90       	mov    %rbp,-0x70(%rsp)
  4035e7:	83 e5 07             	and    $0x7,%ebp
  4035ea:	48 83 f8 07          	cmp    $0x7,%rax
  4035ee:	0f 82 6a 03 00 00    	jb     40395e <project+0x7be>
  4035f4:	48 8b 44 24 80       	mov    -0x80(%rsp),%rax
  4035f9:	48 89 6c 24 b0       	mov    %rbp,-0x50(%rsp)
  4035fe:	48 83 64 24 90 f8    	andq   $0xfffffffffffffff8,-0x70(%rsp)
  403604:	4c 89 7c 24 e8       	mov    %r15,-0x18(%rsp)
  403609:	44 89 fb             	mov    %r15d,%ebx
  40360c:	44 8b 7c 24 d8       	mov    -0x28(%rsp),%r15d
  403611:	48 8b 6c 24 f8       	mov    -0x8(%rsp),%rbp
  403616:	45 31 f6             	xor    %r14d,%r14d
  403619:	45 31 d2             	xor    %r10d,%r10d
  40361c:	8d 14 c0             	lea    (%rax,%rax,8),%edx
  40361f:	44 8d 2c c5 00 00 00 	lea    0x0(,%rax,8),%r13d
  403626:	00 
  403627:	8d 34 c5 10 00 00 00 	lea    0x10(,%rax,8),%esi
  40362e:	44 8d 0c 85 00 00 00 	lea    0x0(,%rax,4),%r9d
  403635:	00 
  403636:	44 8d 1c 40          	lea    (%rax,%rax,2),%r11d
  40363a:	48 89 54 24 a8       	mov    %rdx,-0x58(%rsp)
  40363f:	8d 14 00             	lea    (%rax,%rax,1),%edx
  403642:	4c 89 6c 24 a0       	mov    %r13,-0x60(%rsp)
  403647:	41 29 c5             	sub    %eax,%r13d
  40364a:	89 74 24 88          	mov    %esi,-0x78(%rsp)
  40364e:	48 89 54 24 98       	mov    %rdx,-0x68(%rsp)
  403653:	8d 14 52             	lea    (%rdx,%rdx,2),%edx
  403656:	48 89 54 24 b8       	mov    %rdx,-0x48(%rsp)
  40365b:	8d 14 80             	lea    (%rax,%rax,4),%edx
  40365e:	48 89 54 24 c8       	mov    %rdx,-0x38(%rsp)
  403663:	66 66 66 66 2e 0f 1f 	data16 data16 data16 cs nopw 0x0(%rax,%rax,1)
  40366a:	84 00 00 00 00 00 
  403670:	48 8b 44 24 80       	mov    -0x80(%rsp),%rax
  403675:	42 8d 74 30 03       	lea    0x3(%rax,%r14,1),%esi
  40367a:	42 8d 54 30 02       	lea    0x2(%rax,%r14,1),%edx
  40367f:	48 8b 44 24 98       	mov    -0x68(%rsp),%rax
  403684:	c4 c1 7a 10 04 b0    	vmovss (%r8,%rsi,4),%xmm0
  40368a:	42 8d 74 15 03       	lea    0x3(%rbp,%r10,1),%esi
  40368f:	46 8d 64 30 02       	lea    0x2(%rax,%r14,1),%r12d
  403694:	42 8d 7c 30 03       	lea    0x3(%rax,%r14,1),%edi
  403699:	c4 c1 7a 11 04 90    	vmovss %xmm0,(%r8,%rdx,4)
  40369f:	43 8d 54 17 01       	lea    0x1(%r15,%r10,1),%edx
  4036a4:	c4 81 7a 10 04 a0    	vmovss (%r8,%r12,4),%xmm0
  4036aa:	47 8d 64 33 04       	lea    0x4(%r11,%r14,1),%r12d
  4036af:	c4 c1 7a 11 04 b8    	vmovss %xmm0,(%r8,%rdi,4)
  4036b5:	42 8d 7c 30 05       	lea    0x5(%rax,%r14,1),%edi
  4036ba:	c4 c1 7a 10 04 b0    	vmovss (%r8,%rsi,4),%xmm0
  4036c0:	42 8d 74 30 04       	lea    0x4(%rax,%r14,1),%esi
  4036c5:	43 8d 44 33 05       	lea    0x5(%r11,%r14,1),%eax
  4036ca:	c4 81 7a 11 44 90 04 	vmovss %xmm0,0x4(%r8,%r10,4)
  4036d1:	c4 c1 7a 10 04 90    	vmovss (%r8,%rdx,4),%xmm0
  4036d7:	42 8d 54 13 01       	lea    0x1(%rbx,%r10,1),%edx
  4036dc:	c4 c1 7a 11 04 90    	vmovss %xmm0,(%r8,%rdx,4)
  4036e2:	42 8d 54 15 04       	lea    0x4(%rbp,%r10,1),%edx
  4036e7:	c4 c1 7a 10 04 b8    	vmovss (%r8,%rdi,4),%xmm0
  4036ed:	43 8d 7c 31 07       	lea    0x7(%r9,%r14,1),%edi
  4036f2:	c4 c1 7a 11 04 b0    	vmovss %xmm0,(%r8,%rsi,4)
  4036f8:	43 8d 74 33 07       	lea    0x7(%r11,%r14,1),%esi
  4036fd:	c4 81 7a 10 04 a0    	vmovss (%r8,%r12,4),%xmm0
  403703:	4c 8b 64 24 c8       	mov    -0x38(%rsp),%r12
  403708:	c4 c1 7a 11 04 80    	vmovss %xmm0,(%r8,%rax,4)
  40370e:	43 8d 44 17 02       	lea    0x2(%r15,%r10,1),%eax
  403713:	c4 c1 7a 10 04 90    	vmovss (%r8,%rdx,4),%xmm0
  403719:	43 8d 54 33 06       	lea    0x6(%r11,%r14,1),%edx
  40371e:	c4 81 7a 11 44 90 08 	vmovss %xmm0,0x8(%r8,%r10,4)
  403725:	c4 c1 7a 10 04 80    	vmovss (%r8,%rax,4),%xmm0
  40372b:	42 8d 44 13 02       	lea    0x2(%rbx,%r10,1),%eax
  403730:	c4 c1 7a 11 04 80    	vmovss %xmm0,(%r8,%rax,4)
  403736:	43 8d 44 31 06       	lea    0x6(%r9,%r14,1),%eax
  40373b:	c4 c1 7a 10 04 b0    	vmovss (%r8,%rsi,4),%xmm0
  403741:	42 8d 74 15 05       	lea    0x5(%rbp,%r10,1),%esi
  403746:	c4 c1 7a 11 04 90    	vmovss %xmm0,(%r8,%rdx,4)
  40374c:	43 8d 54 31 08       	lea    0x8(%r9,%r14,1),%edx
  403751:	c4 c1 7a 10 04 80    	vmovss (%r8,%rax,4),%xmm0
  403757:	43 8d 44 17 03       	lea    0x3(%r15,%r10,1),%eax
  40375c:	c4 c1 7a 11 04 b8    	vmovss %xmm0,(%r8,%rdi,4)
  403762:	43 8d 7c 34 08       	lea    0x8(%r12,%r14,1),%edi
  403767:	c4 c1 7a 10 04 b0    	vmovss (%r8,%rsi,4),%xmm0
  40376d:	43 8d 74 31 09       	lea    0x9(%r9,%r14,1),%esi
  403772:	c4 81 7a 11 44 90 0c 	vmovss %xmm0,0xc(%r8,%r10,4)
  403779:	c4 c1 7a 10 04 80    	vmovss (%r8,%rax,4),%xmm0
  40377f:	42 8d 44 13 03       	lea    0x3(%rbx,%r10,1),%eax
  403784:	c4 c1 7a 11 04 80    	vmovss %xmm0,(%r8,%rax,4)
  40378a:	43 8d 44 34 09       	lea    0x9(%r12,%r14,1),%eax
  40378f:	c4 c1 7a 10 04 b0    	vmovss (%r8,%rsi,4),%xmm0
  403795:	42 8d 74 15 06       	lea    0x6(%rbp,%r10,1),%esi
  40379a:	c4 c1 7a 11 04 90    	vmovss %xmm0,(%r8,%rdx,4)
  4037a0:	43 8d 54 34 0a       	lea    0xa(%r12,%r14,1),%edx
  4037a5:	c4 c1 7a 10 04 b8    	vmovss (%r8,%rdi,4),%xmm0
  4037ab:	48 8b 7c 24 b8       	mov    -0x48(%rsp),%rdi
  4037b0:	c4 c1 7a 11 04 80    	vmovss %xmm0,(%r8,%rax,4)
  4037b6:	43 8d 44 17 04       	lea    0x4(%r15,%r10,1),%eax
  4037bb:	c4 c1 7a 10 04 b0    	vmovss (%r8,%rsi,4),%xmm0
  4037c1:	42 8d 74 37 0a       	lea    0xa(%rdi,%r14,1),%esi
  4037c6:	c4 81 7a 11 44 90 10 	vmovss %xmm0,0x10(%r8,%r10,4)
  4037cd:	c4 c1 7a 10 04 80    	vmovss (%r8,%rax,4),%xmm0
  4037d3:	42 8d 44 13 04       	lea    0x4(%rbx,%r10,1),%eax
  4037d8:	c4 c1 7a 11 04 80    	vmovss %xmm0,(%r8,%rax,4)
  4037de:	43 8d 44 34 0b       	lea    0xb(%r12,%r14,1),%eax
  4037e3:	c4 c1 7a 10 04 80    	vmovss (%r8,%rax,4),%xmm0
  4037e9:	42 8d 44 37 0b       	lea    0xb(%rdi,%r14,1),%eax
  4037ee:	c4 c1 7a 11 04 90    	vmovss %xmm0,(%r8,%rdx,4)
  4037f4:	42 8d 54 15 07       	lea    0x7(%rbp,%r10,1),%edx
  4037f9:	c4 c1 7a 10 04 b0    	vmovss (%r8,%rsi,4),%xmm0
  4037ff:	42 8d 74 37 0d       	lea    0xd(%rdi,%r14,1),%esi
  403804:	c4 c1 7a 11 04 80    	vmovss %xmm0,(%r8,%rax,4)
  40380a:	43 8d 44 17 05       	lea    0x5(%r15,%r10,1),%eax
  40380f:	c4 c1 7a 10 04 90    	vmovss (%r8,%rdx,4),%xmm0
  403815:	42 8d 54 37 0c       	lea    0xc(%rdi,%r14,1),%edx
  40381a:	c4 81 7a 11 44 90 14 	vmovss %xmm0,0x14(%r8,%r10,4)
  403821:	c4 c1 7a 10 04 80    	vmovss (%r8,%rax,4),%xmm0
  403827:	42 8d 44 13 05       	lea    0x5(%rbx,%r10,1),%eax
  40382c:	c4 c1 7a 11 04 80    	vmovss %xmm0,(%r8,%rax,4)
  403832:	43 8d 44 35 0c       	lea    0xc(%r13,%r14,1),%eax
  403837:	c4 c1 7a 10 04 b0    	vmovss (%r8,%rsi,4),%xmm0
  40383d:	43 8d 74 35 0d       	lea    0xd(%r13,%r14,1),%esi
  403842:	c4 c1 7a 11 04 90    	vmovss %xmm0,(%r8,%rdx,4)
  403848:	43 8d 54 35 0f       	lea    0xf(%r13,%r14,1),%edx
  40384d:	c4 c1 7a 10 04 80    	vmovss (%r8,%rax,4),%xmm0
  403853:	42 8d 44 15 08       	lea    0x8(%rbp,%r10,1),%eax
  403858:	c4 c1 7a 11 04 b0    	vmovss %xmm0,(%r8,%rsi,4)
  40385e:	48 8b 74 24 a0       	mov    -0x60(%rsp),%rsi
  403863:	c4 c1 7a 10 04 80    	vmovss (%r8,%rax,4),%xmm0
  403869:	43 8d 44 17 06       	lea    0x6(%r15,%r10,1),%eax
  40386e:	c4 81 7a 11 44 90 18 	vmovss %xmm0,0x18(%r8,%r10,4)
  403875:	c4 c1 7a 10 04 80    	vmovss (%r8,%rax,4),%xmm0
  40387b:	42 8d 44 13 06       	lea    0x6(%rbx,%r10,1),%eax
  403880:	c4 c1 7a 11 04 80    	vmovss %xmm0,(%r8,%rax,4)
  403886:	43 8d 44 35 0e       	lea    0xe(%r13,%r14,1),%eax
  40388b:	c4 c1 7a 10 04 90    	vmovss (%r8,%rdx,4),%xmm0
  403891:	42 8d 54 36 0e       	lea    0xe(%rsi,%r14,1),%edx
  403896:	c4 c1 7a 11 04 80    	vmovss %xmm0,(%r8,%rax,4)
  40389c:	42 8d 44 36 0f       	lea    0xf(%rsi,%r14,1),%eax
  4038a1:	c4 c1 7a 10 04 90    	vmovss (%r8,%rdx,4),%xmm0
  4038a7:	42 8d 54 15 09       	lea    0x9(%rbp,%r10,1),%edx
  4038ac:	c4 c1 7a 11 04 80    	vmovss %xmm0,(%r8,%rax,4)
  4038b2:	43 8d 44 17 07       	lea    0x7(%r15,%r10,1),%eax
  4038b7:	c4 c1 7a 10 04 90    	vmovss (%r8,%rdx,4),%xmm0
  4038bd:	42 8d 54 36 10       	lea    0x10(%rsi,%r14,1),%edx
  4038c2:	c4 81 7a 11 44 90 1c 	vmovss %xmm0,0x1c(%r8,%r10,4)
  4038c9:	c4 c1 7a 10 04 80    	vmovss (%r8,%rax,4),%xmm0
  4038cf:	42 8d 44 13 07       	lea    0x7(%rbx,%r10,1),%eax
  4038d4:	c4 c1 7a 11 04 80    	vmovss %xmm0,(%r8,%rax,4)
  4038da:	42 8d 44 36 11       	lea    0x11(%rsi,%r14,1),%eax
  4038df:	48 8b 74 24 a8       	mov    -0x58(%rsp),%rsi
  4038e4:	c4 c1 7a 10 04 80    	vmovss (%r8,%rax,4),%xmm0
  4038ea:	42 8d 44 36 10       	lea    0x10(%rsi,%r14,1),%eax
  4038ef:	c4 c1 7a 11 04 90    	vmovss %xmm0,(%r8,%rdx,4)
  4038f5:	42 8d 54 36 11       	lea    0x11(%rsi,%r14,1),%edx
  4038fa:	44 03 74 24 88       	add    -0x78(%rsp),%r14d
  4038ff:	c4 c1 7a 10 04 80    	vmovss (%r8,%rax,4),%xmm0
  403905:	42 8d 44 15 0a       	lea    0xa(%rbp,%r10,1),%eax
  40390a:	c4 c1 7a 11 04 90    	vmovss %xmm0,(%r8,%rdx,4)
  403910:	c4 c1 7a 10 04 80    	vmovss (%r8,%rax,4),%xmm0
  403916:	43 8d 44 17 08       	lea    0x8(%r15,%r10,1),%eax
  40391b:	c4 81 7a 11 44 90 20 	vmovss %xmm0,0x20(%r8,%r10,4)
  403922:	c4 c1 7a 10 04 80    	vmovss (%r8,%rax,4),%xmm0
  403928:	42 8d 44 13 08       	lea    0x8(%rbx,%r10,1),%eax
  40392d:	49 83 c2 08          	add    $0x8,%r10
  403931:	c4 c1 7a 11 04 80    	vmovss %xmm0,(%r8,%rax,4)
  403937:	4c 39 54 24 90       	cmp    %r10,-0x70(%rsp)
  40393c:	0f 85 2e fd ff ff    	jne    403670 <project+0x4d0>
  403942:	4c 8b 64 24 10       	mov    0x10(%rsp),%r12
  403947:	48 8b 74 24 c0       	mov    -0x40(%rsp),%rsi
  40394c:	4c 8b 6c 24 d0       	mov    -0x30(%rsp),%r13
  403951:	4c 8b 7c 24 e8       	mov    -0x18(%rsp),%r15
  403956:	48 8b 6c 24 b0       	mov    -0x50(%rsp),%rbp
  40395b:	49 ff c2             	inc    %r10
  40395e:	48 85 ed             	test   %rbp,%rbp
  403961:	0f 84 7e 00 00 00    	je     4039e5 <project+0x845>
  403967:	48 8b 54 24 d8       	mov    -0x28(%rsp),%rdx
  40396c:	48 8b 5c 24 80       	mov    -0x80(%rsp),%rbx
  403971:	4b 8d 04 90          	lea    (%r8,%r10,4),%rax
  403975:	43 8d 3c 17          	lea    (%r15,%r10,1),%edi
  403979:	45 31 f6             	xor    %r14d,%r14d
  40397c:	46 8d 0c 12          	lea    (%rdx,%r10,1),%r9d
  403980:	46 8d 5c 13 02       	lea    0x2(%rbx,%r10,1),%r11d
  403985:	44 0f af d6          	imul   %esi,%r10d
  403989:	44 01 d3             	add    %r10d,%ebx
  40398c:	0f 1f 40 00          	nopl   0x0(%rax)
  403990:	41 8d 52 01          	lea    0x1(%r10),%edx
  403994:	c4 c1 7a 10 04 90    	vmovss (%r8,%rdx,4),%xmm0
  40399a:	44 89 d2             	mov    %r10d,%edx
  40399d:	41 01 f2             	add    %esi,%r10d
  4039a0:	c4 c1 7a 11 04 90    	vmovss %xmm0,(%r8,%rdx,4)
  4039a6:	89 da                	mov    %ebx,%edx
  4039a8:	c4 c1 7a 10 04 90    	vmovss (%r8,%rdx,4),%xmm0
  4039ae:	8d 53 01             	lea    0x1(%rbx),%edx
  4039b1:	01 f3                	add    %esi,%ebx
  4039b3:	c4 c1 7a 11 04 90    	vmovss %xmm0,(%r8,%rdx,4)
  4039b9:	43 8d 14 33          	lea    (%r11,%r14,1),%edx
  4039bd:	c4 c1 7a 10 04 90    	vmovss (%r8,%rdx,4),%xmm0
  4039c3:	43 8d 14 31          	lea    (%r9,%r14,1),%edx
  4039c7:	c4 a1 7a 11 04 b0    	vmovss %xmm0,(%rax,%r14,4)
  4039cd:	c4 c1 7a 10 04 90    	vmovss (%r8,%rdx,4),%xmm0
  4039d3:	42 8d 14 37          	lea    (%rdi,%r14,1),%edx
  4039d7:	49 ff c6             	inc    %r14
  4039da:	c4 c1 7a 11 04 90    	vmovss %xmm0,(%r8,%rdx,4)
  4039e0:	4c 39 f5             	cmp    %r14,%rbp
  4039e3:	75 ab                	jne    403990 <project+0x7f0>
  4039e5:	4c 8b 54 24 80       	mov    -0x80(%rsp),%r10
  4039ea:	4c 8b 5c 24 18       	mov    0x18(%rsp),%r11
  4039ef:	48 8b 7c 24 d8       	mov    -0x28(%rsp),%rdi
  4039f4:	43 8d 04 17          	lea    (%r15,%r10,1),%eax
  4039f8:	48 89 44 24 90       	mov    %rax,-0x70(%rsp)
  4039fd:	4c 89 f8             	mov    %r15,%rax
  403a00:	4c 8b 7c 24 f8       	mov    -0x8(%rsp),%r15
  403a05:	eb 28                	jmp    403a2f <project+0x88f>
  403a07:	b8 02 00 00 00       	mov    $0x2,%eax
  403a0c:	41 bb 01 00 00 00    	mov    $0x1,%r11d
  403a12:	49 89 ea             	mov    %rbp,%r10
  403a15:	41 bc 01 00 00 00    	mov    $0x1,%r12d
  403a1b:	be 02 00 00 00       	mov    $0x2,%esi
  403a20:	31 ff                	xor    %edi,%edi
  403a22:	49 89 d7             	mov    %rdx,%r15
  403a25:	48 89 44 24 90       	mov    %rax,-0x70(%rsp)
  403a2a:	b8 02 00 00 00       	mov    $0x2,%eax
  403a2f:	49 89 f1             	mov    %rsi,%r9
  403a32:	45 89 ce             	mov    %r9d,%r14d
  403a35:	c4 81 7a 10 04 b0    	vmovss (%r8,%r14,4),%xmm0
  403a3b:	4c 89 4c 24 c0       	mov    %r9,-0x40(%rsp)
  403a40:	8d 50 01             	lea    0x1(%rax),%edx
  403a43:	41 89 f9             	mov    %edi,%r9d
  403a46:	41 8d 1c 34          	lea    (%r12,%rsi,1),%ebx
  403a4a:	42 8d 2c 20          	lea    (%rax,%r12,1),%ebp
  403a4e:	42 8d 34 27          	lea    (%rdi,%r12,1),%esi
  403a52:	4c 89 74 24 48       	mov    %r14,0x48(%rsp)
  403a57:	4c 89 64 24 10       	mov    %r12,0x10(%rsp)
  403a5c:	4c 89 5c 24 18       	mov    %r11,0x18(%rsp)
  403a61:	c4 c1 7a 58 48 04    	vaddss 0x4(%r8),%xmm0,%xmm1
  403a67:	c5 fa 10 05 a5 95 00 	vmovss 0x95a5(%rip),%xmm0        # 40d014 <_IO_stdin_used+0x14>
  403a6e:	00 
  403a6f:	48 89 5c 24 50       	mov    %rbx,0x50(%rsp)
  403a74:	c5 f2 59 c8          	vmulss %xmm0,%xmm1,%xmm1
  403a78:	c4 c1 7a 11 08       	vmovss %xmm1,(%r8)
  403a7d:	c4 81 7a 10 0c 88    	vmovss (%r8,%r9,4),%xmm1
  403a83:	c4 c1 72 58 0c 90    	vaddss (%r8,%rdx,4),%xmm1,%xmm1
  403a89:	89 c2                	mov    %eax,%edx
  403a8b:	48 8b 44 24 90       	mov    -0x70(%rsp),%rax
  403a90:	c5 f2 59 c8          	vmulss %xmm0,%xmm1,%xmm1
  403a94:	c4 c1 7a 11 0c 90    	vmovss %xmm1,(%r8,%rdx,4)
  403a9a:	c4 c1 7a 10 0c 98    	vmovss (%r8,%rbx,4),%xmm1
  403aa0:	c4 81 72 58 0c b8    	vaddss (%r8,%r15,4),%xmm1,%xmm1
  403aa6:	c5 f2 59 c8          	vmulss %xmm0,%xmm1,%xmm1
  403aaa:	c4 81 7a 11 0c 98    	vmovss %xmm1,(%r8,%r11,4)
  403ab0:	c4 c1 7a 10 0c b0    	vmovss (%r8,%rsi,4),%xmm1
  403ab6:	c4 c1 72 58 0c 80    	vaddss (%r8,%rax,4),%xmm1,%xmm1
  403abc:	4c 89 f0             	mov    %r14,%rax
  403abf:	41 be 02 00 00 00    	mov    $0x2,%r14d
  403ac5:	c5 f2 59 c8          	vmulss %xmm0,%xmm1,%xmm1
  403ac9:	c4 c1 7a 11 0c a8    	vmovss %xmm1,(%r8,%rbp,4)
  403acf:	45 85 d2             	test   %r10d,%r10d
  403ad2:	0f 84 e6 03 00 00    	je     403ebe <project+0xd1e>
  403ad8:	48 8b 74 24 c0       	mov    -0x40(%rsp),%rsi
  403add:	bf 01 00 00 00       	mov    $0x1,%edi
  403ae2:	89 f0                	mov    %esi,%eax
  403ae4:	41 0f af c2          	imul   %r10d,%eax
  403ae8:	89 f2                	mov    %esi,%edx
  403aea:	41 0f af d4          	imul   %r12d,%edx
  403aee:	41 83 fc 03          	cmp    $0x3,%r12d
  403af2:	48 89 44 24 28       	mov    %rax,0x28(%rsp)
  403af7:	b8 02 00 00 00       	mov    $0x2,%eax
  403afc:	48 89 54 24 d8       	mov    %rdx,-0x28(%rsp)
  403b01:	41 0f 43 c4          	cmovae %r12d,%eax
  403b05:	48 8d 68 ff          	lea    -0x1(%rax),%rbp
  403b09:	48 83 c0 fe          	add    $0xfffffffffffffffe,%rax
  403b0d:	48 89 6c 24 90       	mov    %rbp,-0x70(%rsp)
  403b12:	83 e5 07             	and    $0x7,%ebp
  403b15:	48 83 f8 07          	cmp    $0x7,%rax
  403b19:	0f 82 10 03 00 00    	jb     403e2f <project+0xc8f>
  403b1f:	41 89 d2             	mov    %edx,%r10d
  403b22:	48 8b 54 24 80       	mov    -0x80(%rsp),%rdx
  403b27:	48 83 64 24 90 f8    	andq   $0xfffffffffffffff8,-0x70(%rsp)
  403b2d:	8b 5c 24 28          	mov    0x28(%rsp),%ebx
  403b31:	48 89 6c 24 e8       	mov    %rbp,-0x18(%rsp)
  403b36:	45 31 db             	xor    %r11d,%r11d
  403b39:	31 ff                	xor    %edi,%edi
  403b3b:	8d 04 d2             	lea    (%rdx,%rdx,8),%eax
  403b3e:	8d 2c d5 00 00 00 00 	lea    0x0(,%rdx,8),%ebp
  403b45:	8d 34 d5 10 00 00 00 	lea    0x10(,%rdx,8),%esi
  403b4c:	44 8d 0c 52          	lea    (%rdx,%rdx,2),%r9d
  403b50:	48 89 44 24 a8       	mov    %rax,-0x58(%rsp)
  403b55:	8d 04 12             	lea    (%rdx,%rdx,1),%eax
  403b58:	48 89 6c 24 a0       	mov    %rbp,-0x60(%rsp)
  403b5d:	29 d5                	sub    %edx,%ebp
  403b5f:	89 74 24 88          	mov    %esi,-0x78(%rsp)
  403b63:	48 89 44 24 98       	mov    %rax,-0x68(%rsp)
  403b68:	8d 04 40             	lea    (%rax,%rax,2),%eax
  403b6b:	48 89 44 24 b8       	mov    %rax,-0x48(%rsp)
  403b70:	8d 04 92             	lea    (%rdx,%rdx,4),%eax
  403b73:	48 89 44 24 c8       	mov    %rax,-0x38(%rsp)
  403b78:	8d 04 95 00 00 00 00 	lea    0x0(,%rdx,4),%eax
  403b7f:	90                   	nop
  403b80:	48 8b 74 24 80       	mov    -0x80(%rsp),%rsi
  403b85:	4c 8b 6c 24 98       	mov    -0x68(%rsp),%r13
  403b8a:	42 8d 54 1e 02       	lea    0x2(%rsi,%r11,1),%edx
  403b8f:	42 8d 74 1e 03       	lea    0x3(%rsi,%r11,1),%esi
  403b94:	47 8d 74 1d 02       	lea    0x2(%r13,%r11,1),%r14d
  403b99:	47 8d 64 1d 03       	lea    0x3(%r13,%r11,1),%r12d
  403b9e:	c5 fa 10 0c b1       	vmovss (%rcx,%rsi,4),%xmm1
  403ba3:	41 8d 74 3f 03       	lea    0x3(%r15,%rdi,1),%esi
  403ba8:	c5 fa 11 0c 91       	vmovss %xmm1,(%rcx,%rdx,4)
  403bad:	8d 54 3b 01          	lea    0x1(%rbx,%rdi,1),%edx
  403bb1:	c4 a1 7a 10 0c b1    	vmovss (%rcx,%r14,4),%xmm1
  403bb7:	47 8d 74 1d 05       	lea    0x5(%r13,%r11,1),%r14d
  403bbc:	c4 a1 7a 11 0c a1    	vmovss %xmm1,(%rcx,%r12,4)
  403bc2:	47 8d 64 19 04       	lea    0x4(%r9,%r11,1),%r12d
  403bc7:	c5 fa 10 0c b1       	vmovss (%rcx,%rsi,4),%xmm1
  403bcc:	43 8d 74 1d 04       	lea    0x4(%r13,%r11,1),%esi
  403bd1:	47 8d 6c 19 05       	lea    0x5(%r9,%r11,1),%r13d
  403bd6:	c5 fa 11 4c b9 04    	vmovss %xmm1,0x4(%rcx,%rdi,4)
  403bdc:	c5 fa 10 0c 91       	vmovss (%rcx,%rdx,4),%xmm1
  403be1:	41 8d 54 3a 01       	lea    0x1(%r10,%rdi,1),%edx
  403be6:	c5 fa 11 0c 91       	vmovss %xmm1,(%rcx,%rdx,4)
  403beb:	41 8d 54 3f 04       	lea    0x4(%r15,%rdi,1),%edx
  403bf0:	c4 a1 7a 10 0c b1    	vmovss (%rcx,%r14,4),%xmm1
  403bf6:	47 8d 74 19 07       	lea    0x7(%r9,%r11,1),%r14d
  403bfb:	c5 fa 11 0c b1       	vmovss %xmm1,(%rcx,%rsi,4)
  403c00:	43 8d 74 19 06       	lea    0x6(%r9,%r11,1),%esi
  403c05:	c4 a1 7a 10 0c a1    	vmovss (%rcx,%r12,4),%xmm1
  403c0b:	46 8d 64 18 07       	lea    0x7(%rax,%r11,1),%r12d
  403c10:	c4 a1 7a 11 0c a9    	vmovss %xmm1,(%rcx,%r13,4)
  403c16:	4c 8b 6c 24 c8       	mov    -0x38(%rsp),%r13
  403c1b:	c5 fa 10 0c 91       	vmovss (%rcx,%rdx,4),%xmm1
  403c20:	8d 54 3b 02          	lea    0x2(%rbx,%rdi,1),%edx
  403c24:	c5 fa 11 4c b9 08    	vmovss %xmm1,0x8(%rcx,%rdi,4)
  403c2a:	c5 fa 10 0c 91       	vmovss (%rcx,%rdx,4),%xmm1
  403c2f:	41 8d 54 3a 02       	lea    0x2(%r10,%rdi,1),%edx
  403c34:	c5 fa 11 0c 91       	vmovss %xmm1,(%rcx,%rdx,4)
  403c39:	42 8d 54 18 06       	lea    0x6(%rax,%r11,1),%edx
  403c3e:	c4 a1 7a 10 0c b1    	vmovss (%rcx,%r14,4),%xmm1
  403c44:	45 8d 74 3f 05       	lea    0x5(%r15,%rdi,1),%r14d
  403c49:	c5 fa 11 0c b1       	vmovss %xmm1,(%rcx,%rsi,4)
  403c4e:	42 8d 74 18 08       	lea    0x8(%rax,%r11,1),%esi
  403c53:	c5 fa 10 0c 91       	vmovss (%rcx,%rdx,4),%xmm1
  403c58:	8d 54 3b 03          	lea    0x3(%rbx,%rdi,1),%edx
  403c5c:	c4 a1 7a 11 0c a1    	vmovss %xmm1,(%rcx,%r12,4)
  403c62:	47 8d 64 1d 08       	lea    0x8(%r13,%r11,1),%r12d
  403c67:	c4 a1 7a 10 0c b1    	vmovss (%rcx,%r14,4),%xmm1
  403c6d:	46 8d 74 18 09       	lea    0x9(%rax,%r11,1),%r14d
  403c72:	c5 fa 11 4c b9 0c    	vmovss %xmm1,0xc(%rcx,%rdi,4)
  403c78:	c5 fa 10 0c 91       	vmovss (%rcx,%rdx,4),%xmm1
  403c7d:	41 8d 54 3a 03       	lea    0x3(%r10,%rdi,1),%edx
  403c82:	c5 fa 11 0c 91       	vmovss %xmm1,(%rcx,%rdx,4)
  403c87:	43 8d 54 1d 09       	lea    0x9(%r13,%r11,1),%edx
  403c8c:	c4 a1 7a 10 0c b1    	vmovss (%rcx,%r14,4),%xmm1
  403c92:	45 8d 74 3f 06       	lea    0x6(%r15,%rdi,1),%r14d
  403c97:	c5 fa 11 0c b1       	vmovss %xmm1,(%rcx,%rsi,4)
  403c9c:	43 8d 74 1d 0a       	lea    0xa(%r13,%r11,1),%esi
  403ca1:	c4 a1 7a 10 0c a1    	vmovss (%rcx,%r12,4),%xmm1
  403ca7:	4c 8b 64 24 b8       	mov    -0x48(%rsp),%r12
  403cac:	c5 fa 11 0c 91       	vmovss %xmm1,(%rcx,%rdx,4)
  403cb1:	8d 54 3b 04          	lea    0x4(%rbx,%rdi,1),%edx
  403cb5:	c4 a1 7a 10 0c b1    	vmovss (%rcx,%r14,4),%xmm1
  403cbb:	47 8d 74 1c 0a       	lea    0xa(%r12,%r11,1),%r14d
  403cc0:	c5 fa 11 4c b9 10    	vmovss %xmm1,0x10(%rcx,%rdi,4)
  403cc6:	c5 fa 10 0c 91       	vmovss (%rcx,%rdx,4),%xmm1
  403ccb:	41 8d 54 3a 04       	lea    0x4(%r10,%rdi,1),%edx
  403cd0:	c5 fa 11 0c 91       	vmovss %xmm1,(%rcx,%rdx,4)
  403cd5:	43 8d 54 1d 0b       	lea    0xb(%r13,%r11,1),%edx
  403cda:	c5 fa 10 0c 91       	vmovss (%rcx,%rdx,4),%xmm1
  403cdf:	43 8d 54 1c 0b       	lea    0xb(%r12,%r11,1),%edx
  403ce4:	c5 fa 11 0c b1       	vmovss %xmm1,(%rcx,%rsi,4)
  403ce9:	41 8d 74 3f 07       	lea    0x7(%r15,%rdi,1),%esi
  403cee:	c4 a1 7a 10 0c b1    	vmovss (%rcx,%r14,4),%xmm1
  403cf4:	47 8d 74 1c 0d       	lea    0xd(%r12,%r11,1),%r14d
  403cf9:	c5 fa 11 0c 91       	vmovss %xmm1,(%rcx,%rdx,4)
  403cfe:	8d 54 3b 05          	lea    0x5(%rbx,%rdi,1),%edx
  403d02:	c5 fa 10 0c b1       	vmovss (%rcx,%rsi,4),%xmm1
  403d07:	43 8d 74 1c 0c       	lea    0xc(%r12,%r11,1),%esi
  403d0c:	c5 fa 11 4c b9 14    	vmovss %xmm1,0x14(%rcx,%rdi,4)
  403d12:	c5 fa 10 0c 91       	vmovss (%rcx,%rdx,4),%xmm1
  403d17:	41 8d 54 3a 05       	lea    0x5(%r10,%rdi,1),%edx
  403d1c:	c5 fa 11 0c 91       	vmovss %xmm1,(%rcx,%rdx,4)
  403d21:	42 8d 54 1d 0c       	lea    0xc(%rbp,%r11,1),%edx
  403d26:	c4 a1 7a 10 0c b1    	vmovss (%rcx,%r14,4),%xmm1
  403d2c:	46 8d 74 1d 0d       	lea    0xd(%rbp,%r11,1),%r14d
  403d31:	c5 fa 11 0c b1       	vmovss %xmm1,(%rcx,%rsi,4)
  403d36:	42 8d 74 1d 0f       	lea    0xf(%rbp,%r11,1),%esi
  403d3b:	c5 fa 10 0c 91       	vmovss (%rcx,%rdx,4),%xmm1
  403d40:	41 8d 54 3f 08       	lea    0x8(%r15,%rdi,1),%edx
  403d45:	c4 a1 7a 11 0c b1    	vmovss %xmm1,(%rcx,%r14,4)
  403d4b:	4c 8b 74 24 a0       	mov    -0x60(%rsp),%r14
  403d50:	c5 fa 10 0c 91       	vmovss (%rcx,%rdx,4),%xmm1
  403d55:	8d 54 3b 06          	lea    0x6(%rbx,%rdi,1),%edx
  403d59:	c5 fa 11 4c b9 18    	vmovss %xmm1,0x18(%rcx,%rdi,4)
  403d5f:	c5 fa 10 0c 91       	vmovss (%rcx,%rdx,4),%xmm1
  403d64:	41 8d 54 3a 06       	lea    0x6(%r10,%rdi,1),%edx
  403d69:	c5 fa 11 0c 91       	vmovss %xmm1,(%rcx,%rdx,4)
  403d6e:	42 8d 54 1d 0e       	lea    0xe(%rbp,%r11,1),%edx
  403d73:	c5 fa 10 0c b1       	vmovss (%rcx,%rsi,4),%xmm1
  403d78:	43 8d 74 1e 0e       	lea    0xe(%r14,%r11,1),%esi
  403d7d:	c5 fa 11 0c 91       	vmovss %xmm1,(%rcx,%rdx,4)
  403d82:	43 8d 54 1e 0f       	lea    0xf(%r14,%r11,1),%edx
  403d87:	c5 fa 10 0c b1       	vmovss (%rcx,%rsi,4),%xmm1
  403d8c:	41 8d 74 3f 09       	lea    0x9(%r15,%rdi,1),%esi
  403d91:	c5 fa 11 0c 91       	vmovss %xmm1,(%rcx,%rdx,4)
  403d96:	8d 54 3b 07          	lea    0x7(%rbx,%rdi,1),%edx
  403d9a:	c5 fa 10 0c b1       	vmovss (%rcx,%rsi,4),%xmm1
  403d9f:	43 8d 74 1e 10       	lea    0x10(%r14,%r11,1),%esi
  403da4:	c5 fa 11 4c b9 1c    	vmovss %xmm1,0x1c(%rcx,%rdi,4)
  403daa:	c5 fa 10 0c 91       	vmovss (%rcx,%rdx,4),%xmm1
  403daf:	41 8d 54 3a 07       	lea    0x7(%r10,%rdi,1),%edx
  403db4:	c5 fa 11 0c 91       	vmovss %xmm1,(%rcx,%rdx,4)
  403db9:	43 8d 54 1e 11       	lea    0x11(%r14,%r11,1),%edx
  403dbe:	4c 8b 74 24 a8       	mov    -0x58(%rsp),%r14
  403dc3:	c5 fa 10 0c 91       	vmovss (%rcx,%rdx,4),%xmm1
  403dc8:	43 8d 54 1e 10       	lea    0x10(%r14,%r11,1),%edx
  403dcd:	c5 fa 11 0c b1       	vmovss %xmm1,(%rcx,%rsi,4)
  403dd2:	43 8d 74 1e 11       	lea    0x11(%r14,%r11,1),%esi
  403dd7:	44 03 5c 24 88       	add    -0x78(%rsp),%r11d
  403ddc:	c5 fa 10 0c 91       	vmovss (%rcx,%rdx,4),%xmm1
  403de1:	41 8d 54 3f 0a       	lea    0xa(%r15,%rdi,1),%edx
  403de6:	c5 fa 11 0c b1       	vmovss %xmm1,(%rcx,%rsi,4)
  403deb:	c5 fa 10 0c 91       	vmovss (%rcx,%rdx,4),%xmm1
  403df0:	8d 54 3b 08          	lea    0x8(%rbx,%rdi,1),%edx
  403df4:	c5 fa 11 4c b9 20    	vmovss %xmm1,0x20(%rcx,%rdi,4)
  403dfa:	c5 fa 10 0c 91       	vmovss (%rcx,%rdx,4),%xmm1
  403dff:	41 8d 54 3a 08       	lea    0x8(%r10,%rdi,1),%edx
  403e04:	48 83 c7 08          	add    $0x8,%rdi
  403e08:	c5 fa 11 0c 91       	vmovss %xmm1,(%rcx,%rdx,4)
  403e0d:	48 39 7c 24 90       	cmp    %rdi,-0x70(%rsp)
  403e12:	0f 85 68 fd ff ff    	jne    403b80 <project+0x9e0>
  403e18:	4c 8b 64 24 10       	mov    0x10(%rsp),%r12
  403e1d:	48 8b 74 24 c0       	mov    -0x40(%rsp),%rsi
  403e22:	4c 8b 6c 24 d0       	mov    -0x30(%rsp),%r13
  403e27:	48 8b 6c 24 e8       	mov    -0x18(%rsp),%rbp
  403e2c:	48 ff c7             	inc    %rdi
  403e2f:	48 85 ed             	test   %rbp,%rbp
  403e32:	74 77                	je     403eab <project+0xd0b>
  403e34:	4c 8b 54 24 28       	mov    0x28(%rsp),%r10
  403e39:	48 8b 54 24 d8       	mov    -0x28(%rsp),%rdx
  403e3e:	48 8b 5c 24 80       	mov    -0x80(%rsp),%rbx
  403e43:	48 8d 04 b9          	lea    (%rcx,%rdi,4),%rax
  403e47:	45 31 f6             	xor    %r14d,%r14d
  403e4a:	44 8d 0c 3a          	lea    (%rdx,%rdi,1),%r9d
  403e4e:	41 01 fa             	add    %edi,%r10d
  403e51:	44 8d 5c 3b 02       	lea    0x2(%rbx,%rdi,1),%r11d
  403e56:	0f af fe             	imul   %esi,%edi
  403e59:	01 fb                	add    %edi,%ebx
  403e5b:	0f 1f 44 00 00       	nopl   0x0(%rax,%rax,1)
  403e60:	8d 57 01             	lea    0x1(%rdi),%edx
  403e63:	c5 fa 10 0c 91       	vmovss (%rcx,%rdx,4),%xmm1
  403e68:	89 fa                	mov    %edi,%edx
  403e6a:	01 f7                	add    %esi,%edi
  403e6c:	c5 fa 11 0c 91       	vmovss %xmm1,(%rcx,%rdx,4)
  403e71:	89 da                	mov    %ebx,%edx
  403e73:	c5 fa 10 0c 91       	vmovss (%rcx,%rdx,4),%xmm1
  403e78:	8d 53 01             	lea    0x1(%rbx),%edx
  403e7b:	01 f3                	add    %esi,%ebx
  403e7d:	c5 fa 11 0c 91       	vmovss %xmm1,(%rcx,%rdx,4)
  403e82:	43 8d 14 33          	lea    (%r11,%r14,1),%edx
  403e86:	c5 fa 10 0c 91       	vmovss (%rcx,%rdx,4),%xmm1
  403e8b:	43 8d 14 32          	lea    (%r10,%r14,1),%edx
  403e8f:	c4 a1 7a 11 0c b0    	vmovss %xmm1,(%rax,%r14,4)
  403e95:	c5 fa 10 0c 91       	vmovss (%rcx,%rdx,4),%xmm1
  403e9a:	43 8d 14 31          	lea    (%r9,%r14,1),%edx
  403e9e:	49 ff c6             	inc    %r14
  403ea1:	c5 fa 11 0c 91       	vmovss %xmm1,(%rcx,%rdx,4)
  403ea6:	4c 39 f5             	cmp    %r14,%rbp
  403ea9:	75 b5                	jne    403e60 <project+0xcc0>
  403eab:	4c 8b 54 24 80       	mov    -0x80(%rsp),%r10
  403eb0:	4c 8b 74 24 d8       	mov    -0x28(%rsp),%r14
  403eb5:	4c 8b 5c 24 18       	mov    0x18(%rsp),%r11
  403eba:	43 8d 04 16          	lea    (%r14,%r10,1),%eax
  403ebe:	4c 8b 4c 24 48       	mov    0x48(%rsp),%r9
  403ec3:	48 8b 5c 24 28       	mov    0x28(%rsp),%rbx
  403ec8:	41 8d 56 01          	lea    0x1(%r14),%edx
  403ecc:	43 8d 3c 26          	lea    (%r14,%r12,1),%edi
  403ed0:	c4 a1 7a 10 0c 89    	vmovss (%rcx,%r9,4),%xmm1
  403ed6:	41 89 d9             	mov    %ebx,%r9d
  403ed9:	42 8d 34 23          	lea    (%rbx,%r12,1),%esi
  403edd:	c5 f2 58 49 04       	vaddss 0x4(%rcx),%xmm1,%xmm1
  403ee2:	c5 f2 59 c8          	vmulss %xmm0,%xmm1,%xmm1
  403ee6:	c5 fa 11 09          	vmovss %xmm1,(%rcx)
  403eea:	c4 a1 7a 10 0c 89    	vmovss (%rcx,%r9,4),%xmm1
  403ef0:	c5 f2 58 0c 91       	vaddss (%rcx,%rdx,4),%xmm1,%xmm1
  403ef5:	44 89 f2             	mov    %r14d,%edx
  403ef8:	c5 f2 59 c8          	vmulss %xmm0,%xmm1,%xmm1
  403efc:	c5 fa 11 0c 91       	vmovss %xmm1,(%rcx,%rdx,4)
  403f01:	48 8b 54 24 50       	mov    0x50(%rsp),%rdx
  403f06:	c5 fa 10 0c 91       	vmovss (%rcx,%rdx,4),%xmm1
  403f0b:	c4 a1 72 58 0c b9    	vaddss (%rcx,%r15,4),%xmm1,%xmm1
  403f11:	c5 f2 59 c8          	vmulss %xmm0,%xmm1,%xmm1
  403f15:	c4 a1 7a 11 0c 99    	vmovss %xmm1,(%rcx,%r11,4)
  403f1b:	c5 fa 10 0c b1       	vmovss (%rcx,%rsi,4),%xmm1
  403f20:	c5 f2 58 0c 81       	vaddss (%rcx,%rax,4),%xmm1,%xmm1
  403f25:	c5 f2 59 c8          	vmulss %xmm0,%xmm1,%xmm1
  403f29:	c5 fa 11 0c b9       	vmovss %xmm1,(%rcx,%rdi,4)
  403f2e:	45 85 d2             	test   %r10d,%r10d
  403f31:	0f 84 08 0d 00 00    	je     404c3f <project+0x1a9f>
  403f37:	48 8b 44 24 c0       	mov    -0x40(%rsp),%rax
  403f3c:	41 83 fc 03          	cmp    $0x3,%r12d
  403f40:	ba 02 00 00 00       	mov    $0x2,%edx
  403f45:	c5 fa 10 0d cf 90 00 	vmovss 0x90cf(%rip),%xmm1        # 40d01c <_IO_stdin_used+0x1c>
  403f4c:	00 
  403f4d:	47 8d 4c 52 06       	lea    0x6(%r10,%r10,2),%r9d
  403f52:	47 8d 1c 92          	lea    (%r10,%r10,4),%r11d
  403f56:	41 0f 43 d4          	cmovae %r12d,%edx
  403f5a:	44 89 4c 24 74       	mov    %r9d,0x74(%rsp)
  403f5f:	46 8d 0c d5 10 00 00 	lea    0x10(,%r10,8),%r9d
  403f66:	00 
  403f67:	4c 89 5c 24 60       	mov    %r11,0x60(%rsp)
  403f6c:	46 8d 1c 95 00 00 00 	lea    0x0(,%r10,4),%r11d
  403f73:	00 
  403f74:	4c 89 5c 24 28       	mov    %r11,0x28(%rsp)
  403f79:	44 89 4c 24 30       	mov    %r9d,0x30(%rsp)
  403f7e:	89 c7                	mov    %eax,%edi
  403f80:	41 0f af fc          	imul   %r12d,%edi
  403f84:	89 c6                	mov    %eax,%esi
  403f86:	41 0f af f2          	imul   %r10d,%esi
  403f8a:	8d 47 01             	lea    0x1(%rdi),%eax
  403f8d:	48 89 74 24 20       	mov    %rsi,0x20(%rsp)
  403f92:	48 89 7c 24 58       	mov    %rdi,0x58(%rsp)
  403f97:	48 89 84 24 a0 00 00 	mov    %rax,0xa0(%rsp)
  403f9e:	00 
  403f9f:	42 8d 04 17          	lea    (%rdi,%r10,1),%eax
  403fa3:	48 89 84 24 98 00 00 	mov    %rax,0x98(%rsp)
  403faa:	00 
  403fab:	48 89 f0             	mov    %rsi,%rax
  403fae:	48 89 f8             	mov    %rdi,%rax
  403fb1:	44 01 e6             	add    %r12d,%esi
  403fb4:	44 01 e7             	add    %r12d,%edi
  403fb7:	48 8d 42 fe          	lea    -0x2(%rdx),%rax
  403fbb:	48 89 b4 24 90 00 00 	mov    %rsi,0x90(%rsp)
  403fc2:	00 
  403fc3:	48 8d 72 ff          	lea    -0x1(%rdx),%rsi
  403fc7:	48 89 bc 24 88 00 00 	mov    %rdi,0x88(%rsp)
  403fce:	00 
  403fcf:	ff ca                	dec    %edx
  403fd1:	43 8d 7c 12 04       	lea    0x4(%r10,%r10,1),%edi
  403fd6:	48 89 44 24 98       	mov    %rax,-0x68(%rsp)
  403fdb:	89 d0                	mov    %edx,%eax
  403fdd:	83 e0 fe             	and    $0xfffffffe,%eax
  403fe0:	89 f5                	mov    %esi,%ebp
  403fe2:	48 89 74 24 b0       	mov    %rsi,-0x50(%rsp)
  403fe7:	83 e5 07             	and    $0x7,%ebp
  403fea:	48 89 94 24 a8 00 00 	mov    %rdx,0xa8(%rsp)
  403ff1:	00 
  403ff2:	89 44 24 40          	mov    %eax,0x40(%rsp)
  403ff6:	48 89 f0             	mov    %rsi,%rax
  403ff9:	48 83 e6 f8          	and    $0xfffffffffffffff8,%rsi
  403ffd:	48 89 7c 24 08       	mov    %rdi,0x8(%rsp)
  404002:	43 8d 3c 52          	lea    (%r10,%r10,2),%edi
  404006:	42 8d 04 d5 00 00 00 	lea    0x0(,%r10,8),%eax
  40400d:	00 
  40400e:	48 89 6c 24 90       	mov    %rbp,-0x70(%rsp)
  404013:	48 89 74 24 c8       	mov    %rsi,-0x38(%rsp)
  404018:	43 8d 34 12          	lea    (%r10,%r10,1),%esi
  40401c:	48 89 7c 24 b8       	mov    %rdi,-0x48(%rsp)
  404021:	43 8d 3c d2          	lea    (%r10,%r10,8),%edi
  404025:	8d 1c 76             	lea    (%rsi,%rsi,2),%ebx
  404028:	89 c2                	mov    %eax,%edx
  40402a:	44 29 d2             	sub    %r10d,%edx
  40402d:	41 83 c2 02          	add    $0x2,%r10d
  404031:	48 89 74 24 f0       	mov    %rsi,-0x10(%rsp)
  404036:	48 89 44 24 78       	mov    %rax,0x78(%rsp)
  40403b:	4c 89 94 24 80 00 00 	mov    %r10,0x80(%rsp)
  404042:	00 
  404043:	45 31 d2             	xor    %r10d,%r10d
  404046:	48 89 14 24          	mov    %rdx,(%rsp)
  40404a:	48 89 7c 24 38       	mov    %rdi,0x38(%rsp)
  40404f:	48 89 5c 24 68       	mov    %rbx,0x68(%rsp)
  404054:	e9 ac 00 00 00       	jmp    404105 <project+0xf65>
  404059:	0f 1f 80 00 00 00 00 	nopl   0x0(%rax)
  404060:	48 8b 44 24 48       	mov    0x48(%rsp),%rax
  404065:	4c 8b 7c 24 f8       	mov    -0x8(%rsp),%r15
  40406a:	4c 8b 5c 24 18       	mov    0x18(%rsp),%r11
  40406f:	4c 8b 94 24 b0 00 00 	mov    0xb0(%rsp),%r10
  404076:	00 
  404077:	4c 8b 64 24 10       	mov    0x10(%rsp),%r12
  40407c:	c5 fa 10 14 81       	vmovss (%rcx,%rax,4),%xmm2
  404081:	48 8b 44 24 20       	mov    0x20(%rsp),%rax
  404086:	41 ff c2             	inc    %r10d
  404089:	c5 ea 58 51 04       	vaddss 0x4(%rcx),%xmm2,%xmm2
  40408e:	c5 ea 59 d0          	vmulss %xmm0,%xmm2,%xmm2
  404092:	c5 fa 11 11          	vmovss %xmm2,(%rcx)
  404096:	c5 fa 10 14 81       	vmovss (%rcx,%rax,4),%xmm2
  40409b:	48 8b 84 24 a0 00 00 	mov    0xa0(%rsp),%rax
  4040a2:	00 
  4040a3:	c5 ea 58 14 81       	vaddss (%rcx,%rax,4),%xmm2,%xmm2
  4040a8:	48 8b 44 24 58       	mov    0x58(%rsp),%rax
  4040ad:	c5 ea 59 d0          	vmulss %xmm0,%xmm2,%xmm2
  4040b1:	c5 fa 11 14 81       	vmovss %xmm2,(%rcx,%rax,4)
  4040b6:	48 8b 44 24 50       	mov    0x50(%rsp),%rax
  4040bb:	c5 fa 10 14 81       	vmovss (%rcx,%rax,4),%xmm2
  4040c0:	48 8b 84 24 90 00 00 	mov    0x90(%rsp),%rax
  4040c7:	00 
  4040c8:	c4 a1 6a 58 14 b9    	vaddss (%rcx,%r15,4),%xmm2,%xmm2
  4040ce:	c5 ea 59 d0          	vmulss %xmm0,%xmm2,%xmm2
  4040d2:	c4 a1 7a 11 14 99    	vmovss %xmm2,(%rcx,%r11,4)
  4040d8:	c5 fa 10 14 81       	vmovss (%rcx,%rax,4),%xmm2
  4040dd:	48 8b 84 24 98 00 00 	mov    0x98(%rsp),%rax
  4040e4:	00 
  4040e5:	c5 ea 58 14 81       	vaddss (%rcx,%rax,4),%xmm2,%xmm2
  4040ea:	48 8b 84 24 88 00 00 	mov    0x88(%rsp),%rax
  4040f1:	00 
  4040f2:	c5 ea 59 d0          	vmulss %xmm0,%xmm2,%xmm2
  4040f6:	c5 fa 11 14 81       	vmovss %xmm2,(%rcx,%rax,4)
  4040fb:	41 83 fa 14          	cmp    $0x14,%r10d
  4040ff:	0f 84 57 0b 00 00    	je     404c5c <project+0x1abc>
  404105:	b8 01 00 00 00       	mov    $0x1,%eax
  40410a:	4c 89 94 24 b0 00 00 	mov    %r10,0xb0(%rsp)
  404111:	00 
  404112:	48 89 44 24 88       	mov    %rax,-0x78(%rsp)
  404117:	41 83 fc 03          	cmp    $0x3,%r12d
  40411b:	0f 83 0f 06 00 00    	jae    404730 <project+0x1590>
  404121:	f6 84 24 a8 00 00 00 	testb  $0x1,0xa8(%rsp)
  404128:	01 
  404129:	4c 8b 7c 24 88       	mov    -0x78(%rsp),%r15
  40412e:	0f 84 73 02 00 00    	je     4043a7 <project+0x1207>
  404134:	48 8b 44 24 c0       	mov    -0x40(%rsp),%rax
  404139:	41 8d 7f 01          	lea    0x1(%r15),%edi
  40413d:	44 89 fa             	mov    %r15d,%edx
  404140:	41 ff cf             	dec    %r15d
  404143:	41 ba 01 00 00 00    	mov    $0x1,%r10d
  404149:	0f af d0             	imul   %eax,%edx
  40414c:	44 0f af f8          	imul   %eax,%r15d
  404150:	0f af f8             	imul   %eax,%edi
  404153:	48 83 7c 24 98 07    	cmpq   $0x7,-0x68(%rsp)
  404159:	0f 82 db 01 00 00    	jb     40433a <project+0x119a>
  40415f:	4c 8b 4c 24 c8       	mov    -0x38(%rsp),%r9
  404164:	4c 89 7c 24 88       	mov    %r15,-0x78(%rsp)
  404169:	48 89 54 24 a8       	mov    %rdx,-0x58(%rsp)
  40416e:	41 89 d3             	mov    %edx,%r11d
  404171:	41 89 fe             	mov    %edi,%r14d
  404174:	45 89 ff             	mov    %r15d,%r15d
  404177:	45 31 d2             	xor    %r10d,%r10d
  40417a:	66 0f 1f 44 00 00    	nopw   0x0(%rax,%rax,1)
  404180:	43 8d 44 13 01       	lea    0x1(%r11,%r10,1),%eax
  404185:	43 8d 54 13 02       	lea    0x2(%r11,%r10,1),%edx
  40418a:	43 8d 74 17 01       	lea    0x1(%r15,%r10,1),%esi
  40418f:	47 8d 24 13          	lea    (%r11,%r10,1),%r12d
  404193:	43 8d 5c 16 01       	lea    0x1(%r14,%r10,1),%ebx
  404198:	c4 c1 7a 10 14 80    	vmovss (%r8,%rax,4),%xmm2
  40419e:	c5 fa 10 1c 91       	vmovss (%rcx,%rdx,4),%xmm3
  4041a3:	c4 a1 6a 58 14 a1    	vaddss (%rcx,%r12,4),%xmm2,%xmm2
  4041a9:	c5 e2 58 1c b1       	vaddss (%rcx,%rsi,4),%xmm3,%xmm3
  4041ae:	43 8d 74 13 03       	lea    0x3(%r11,%r10,1),%esi
  4041b3:	47 8d 64 16 06       	lea    0x6(%r14,%r10,1),%r12d
  4041b8:	c5 e2 58 d2          	vaddss %xmm2,%xmm3,%xmm2
  4041bc:	c5 f2 59 1c 99       	vmulss (%rcx,%rbx,4),%xmm1,%xmm3
  4041c1:	43 8d 5c 17 02       	lea    0x2(%r15,%r10,1),%ebx
  4041c6:	c4 e2 71 b9 da       	vfmadd231ss %xmm2,%xmm1,%xmm3
  4041cb:	c5 fa 11 1c 81       	vmovss %xmm3,(%rcx,%rax,4)
  4041d0:	43 8d 44 16 02       	lea    0x2(%r14,%r10,1),%eax
  4041d5:	c5 fa 10 14 b1       	vmovss (%rcx,%rsi,4),%xmm2
  4041da:	c4 c1 62 58 1c 90    	vaddss (%r8,%rdx,4),%xmm3,%xmm3
  4041e0:	c5 ea 58 14 99       	vaddss (%rcx,%rbx,4),%xmm2,%xmm2
  4041e5:	43 8d 5c 16 03       	lea    0x3(%r14,%r10,1),%ebx
  4041ea:	c5 ea 58 d3          	vaddss %xmm3,%xmm2,%xmm2
  4041ee:	c5 f2 59 1c 81       	vmulss (%rcx,%rax,4),%xmm1,%xmm3
  4041f3:	43 8d 44 13 04       	lea    0x4(%r11,%r10,1),%eax
  4041f8:	c4 e2 71 b9 da       	vfmadd231ss %xmm2,%xmm1,%xmm3
  4041fd:	c5 fa 11 1c 91       	vmovss %xmm3,(%rcx,%rdx,4)
  404202:	43 8d 54 17 03       	lea    0x3(%r15,%r10,1),%edx
  404207:	c5 fa 10 14 81       	vmovss (%rcx,%rax,4),%xmm2
  40420c:	c4 c1 62 58 1c b0    	vaddss (%r8,%rsi,4),%xmm3,%xmm3
  404212:	c5 ea 58 14 91       	vaddss (%rcx,%rdx,4),%xmm2,%xmm2
  404217:	43 8d 54 13 05       	lea    0x5(%r11,%r10,1),%edx
  40421c:	c5 ea 58 d3          	vaddss %xmm3,%xmm2,%xmm2
  404220:	c5 f2 59 1c 99       	vmulss (%rcx,%rbx,4),%xmm1,%xmm3
  404225:	43 8d 5c 16 04       	lea    0x4(%r14,%r10,1),%ebx
  40422a:	c4 e2 71 b9 da       	vfmadd231ss %xmm2,%xmm1,%xmm3
  40422f:	c5 fa 11 1c b1       	vmovss %xmm3,(%rcx,%rsi,4)
  404234:	43 8d 74 17 04       	lea    0x4(%r15,%r10,1),%esi
  404239:	c5 fa 10 14 91       	vmovss (%rcx,%rdx,4),%xmm2
  40423e:	c4 c1 62 58 1c 80    	vaddss (%r8,%rax,4),%xmm3,%xmm3
  404244:	c5 ea 58 14 b1       	vaddss (%rcx,%rsi,4),%xmm2,%xmm2
  404249:	43 8d 74 17 05       	lea    0x5(%r15,%r10,1),%esi
  40424e:	c5 ea 58 d3          	vaddss %xmm3,%xmm2,%xmm2
  404252:	c5 f2 59 1c 99       	vmulss (%rcx,%rbx,4),%xmm1,%xmm3
  404257:	43 8d 5c 16 05       	lea    0x5(%r14,%r10,1),%ebx
  40425c:	c4 e2 71 b9 da       	vfmadd231ss %xmm2,%xmm1,%xmm3
  404261:	c5 fa 11 1c 81       	vmovss %xmm3,(%rcx,%rax,4)
  404266:	43 8d 44 13 06       	lea    0x6(%r11,%r10,1),%eax
  40426b:	c4 c1 62 58 1c 90    	vaddss (%r8,%rdx,4),%xmm3,%xmm3
  404271:	c5 fa 10 14 81       	vmovss (%rcx,%rax,4),%xmm2
  404276:	c5 ea 58 14 b1       	vaddss (%rcx,%rsi,4),%xmm2,%xmm2
  40427b:	43 8d 74 13 07       	lea    0x7(%r11,%r10,1),%esi
  404280:	c5 ea 58 d3          	vaddss %xmm3,%xmm2,%xmm2
  404284:	c5 f2 59 1c 99       	vmulss (%rcx,%rbx,4),%xmm1,%xmm3
  404289:	43 8d 5c 17 06       	lea    0x6(%r15,%r10,1),%ebx
  40428e:	c4 e2 71 b9 da       	vfmadd231ss %xmm2,%xmm1,%xmm3
  404293:	c5 fa 11 1c 91       	vmovss %xmm3,(%rcx,%rdx,4)
  404298:	43 8d 54 13 08       	lea    0x8(%r11,%r10,1),%edx
  40429d:	c5 fa 10 14 b1       	vmovss (%rcx,%rsi,4),%xmm2
  4042a2:	c4 c1 62 58 1c 80    	vaddss (%r8,%rax,4),%xmm3,%xmm3
  4042a8:	c4 a1 72 59 24 a1    	vmulss (%rcx,%r12,4),%xmm1,%xmm4
  4042ae:	c5 ea 58 14 99       	vaddss (%rcx,%rbx,4),%xmm2,%xmm2
  4042b3:	43 8d 5c 17 07       	lea    0x7(%r15,%r10,1),%ebx
  4042b8:	c5 ea 58 d3          	vaddss %xmm3,%xmm2,%xmm2
  4042bc:	c4 e2 71 b9 e2       	vfmadd231ss %xmm2,%xmm1,%xmm4
  4042c1:	c5 fa 11 24 81       	vmovss %xmm4,(%rcx,%rax,4)
  4042c6:	43 8d 44 16 07       	lea    0x7(%r14,%r10,1),%eax
  4042cb:	c5 fa 10 14 91       	vmovss (%rcx,%rdx,4),%xmm2
  4042d0:	c4 c1 5a 58 1c b0    	vaddss (%r8,%rsi,4),%xmm4,%xmm3
  4042d6:	c5 ea 58 14 99       	vaddss (%rcx,%rbx,4),%xmm2,%xmm2
  4042db:	43 8d 5c 17 08       	lea    0x8(%r15,%r10,1),%ebx
  4042e0:	c5 ea 58 d3          	vaddss %xmm3,%xmm2,%xmm2
  4042e4:	c5 f2 59 1c 81       	vmulss (%rcx,%rax,4),%xmm1,%xmm3
  4042e9:	43 8d 44 13 09       	lea    0x9(%r11,%r10,1),%eax
  4042ee:	c4 e2 71 b9 da       	vfmadd231ss %xmm2,%xmm1,%xmm3
  4042f3:	c5 fa 11 1c b1       	vmovss %xmm3,(%rcx,%rsi,4)
  4042f8:	c5 fa 10 14 81       	vmovss (%rcx,%rax,4),%xmm2
  4042fd:	c4 c1 62 58 1c 90    	vaddss (%r8,%rdx,4),%xmm3,%xmm3
  404303:	43 8d 44 16 08       	lea    0x8(%r14,%r10,1),%eax
  404308:	49 83 c2 08          	add    $0x8,%r10
  40430c:	c5 ea 58 14 99       	vaddss (%rcx,%rbx,4),%xmm2,%xmm2
  404311:	c5 f2 59 24 81       	vmulss (%rcx,%rax,4),%xmm1,%xmm4
  404316:	c5 ea 58 d3          	vaddss %xmm3,%xmm2,%xmm2
  40431a:	c4 e2 71 b9 e2       	vfmadd231ss %xmm2,%xmm1,%xmm4
  40431f:	c5 fa 11 24 91       	vmovss %xmm4,(%rcx,%rdx,4)
  404324:	4d 39 d1             	cmp    %r10,%r9
  404327:	0f 85 53 fe ff ff    	jne    404180 <project+0xfe0>
  40432d:	4c 8b 7c 24 88       	mov    -0x78(%rsp),%r15
  404332:	48 8b 54 24 a8       	mov    -0x58(%rsp),%rdx
  404337:	49 ff c2             	inc    %r10
  40433a:	f6 44 24 b0 07       	testb  $0x7,-0x50(%rsp)
  40433f:	74 66                	je     4043a7 <project+0x1207>
  404341:	46 8d 1c 12          	lea    (%rdx,%r10,1),%r11d
  404345:	42 8d 54 12 ff       	lea    -0x1(%rdx,%r10,1),%edx
  40434a:	44 01 d7             	add    %r10d,%edi
  40434d:	45 01 d7             	add    %r10d,%r15d
  404350:	31 f6                	xor    %esi,%esi
  404352:	66 66 66 66 66 2e 0f 	data16 data16 data16 data16 cs nopw 0x0(%rax,%rax,1)
  404359:	1f 84 00 00 00 00 00 
  404360:	41 8d 04 33          	lea    (%r11,%rsi,1),%eax
  404364:	44 8d 0c 32          	lea    (%rdx,%rsi,1),%r9d
  404368:	45 8d 54 33 01       	lea    0x1(%r11,%rsi,1),%r10d
  40436d:	41 8d 1c 37          	lea    (%r15,%rsi,1),%ebx
  404371:	44 8d 34 37          	lea    (%rdi,%rsi,1),%r14d
  404375:	48 ff c6             	inc    %rsi
  404378:	c4 c1 7a 10 14 80    	vmovss (%r8,%rax,4),%xmm2
  40437e:	c4 a1 6a 58 14 89    	vaddss (%rcx,%r9,4),%xmm2,%xmm2
  404384:	c4 a1 7a 10 1c 91    	vmovss (%rcx,%r10,4),%xmm3
  40438a:	c5 e2 58 1c 99       	vaddss (%rcx,%rbx,4),%xmm3,%xmm3
  40438f:	c4 a1 6a 58 14 b1    	vaddss (%rcx,%r14,4),%xmm2,%xmm2
  404395:	c5 ea 58 d3          	vaddss %xmm3,%xmm2,%xmm2
  404399:	c5 ea 59 d1          	vmulss %xmm1,%xmm2,%xmm2
  40439d:	c5 fa 11 14 81       	vmovss %xmm2,(%rcx,%rax,4)
  4043a2:	48 39 f5             	cmp    %rsi,%rbp
  4043a5:	75 b9                	jne    404360 <project+0x11c0>
  4043a7:	48 83 7c 24 98 07    	cmpq   $0x7,-0x68(%rsp)
  4043ad:	bf 01 00 00 00       	mov    $0x1,%edi
  4043b2:	0f 82 cd 02 00 00    	jb     404685 <project+0x14e5>
  4043b8:	48 8b 5c 24 f8       	mov    -0x8(%rsp),%rbx
  4043bd:	4c 8b 7c 24 20       	mov    0x20(%rsp),%r15
  4043c2:	4c 8b 64 24 58       	mov    0x58(%rsp),%r12
  4043c7:	4c 8b 6c 24 78       	mov    0x78(%rsp),%r13
  4043cc:	4c 8b 5c 24 b8       	mov    -0x48(%rsp),%r11
  4043d1:	45 31 c9             	xor    %r9d,%r9d
  4043d4:	31 ff                	xor    %edi,%edi
  4043d6:	66 2e 0f 1f 84 00 00 	cs nopw 0x0(%rax,%rax,1)
  4043dd:	00 00 00 
  4043e0:	48 8b 54 24 80       	mov    -0x80(%rsp),%rdx
  4043e5:	4c 8b 74 24 f0       	mov    -0x10(%rsp),%r14
  4043ea:	42 8d 44 0a 02       	lea    0x2(%rdx,%r9,1),%eax
  4043ef:	42 8d 54 0a 03       	lea    0x3(%rdx,%r9,1),%edx
  4043f4:	43 8d 74 0e 02       	lea    0x2(%r14,%r9,1),%esi
  4043f9:	47 8d 54 0e 03       	lea    0x3(%r14,%r9,1),%r10d
  4043fe:	c5 fa 10 14 91       	vmovss (%rcx,%rdx,4),%xmm2
  404403:	8d 54 3b 03          	lea    0x3(%rbx,%rdi,1),%edx
  404407:	c5 fa 11 14 81       	vmovss %xmm2,(%rcx,%rax,4)
  40440c:	41 8d 44 3f 01       	lea    0x1(%r15,%rdi,1),%eax
  404411:	c5 fa 10 14 b1       	vmovss (%rcx,%rsi,4),%xmm2
  404416:	43 8d 74 0e 05       	lea    0x5(%r14,%r9,1),%esi
  40441b:	c4 a1 7a 11 14 91    	vmovss %xmm2,(%rcx,%r10,4)
  404421:	47 8d 54 0b 04       	lea    0x4(%r11,%r9,1),%r10d
  404426:	4c 8b 5c 24 b8       	mov    -0x48(%rsp),%r11
  40442b:	c5 fa 10 14 91       	vmovss (%rcx,%rdx,4),%xmm2
  404430:	43 8d 54 0e 04       	lea    0x4(%r14,%r9,1),%edx
  404435:	4c 8b 74 24 28       	mov    0x28(%rsp),%r14
  40443a:	47 8d 5c 0b 05       	lea    0x5(%r11,%r9,1),%r11d
  40443f:	c5 fa 11 54 b9 04    	vmovss %xmm2,0x4(%rcx,%rdi,4)
  404445:	c5 fa 10 14 81       	vmovss (%rcx,%rax,4),%xmm2
  40444a:	41 8d 44 3c 01       	lea    0x1(%r12,%rdi,1),%eax
  40444f:	c5 fa 11 14 81       	vmovss %xmm2,(%rcx,%rax,4)
  404454:	8d 44 3b 04          	lea    0x4(%rbx,%rdi,1),%eax
  404458:	c5 fa 10 14 b1       	vmovss (%rcx,%rsi,4),%xmm2
  40445d:	c5 fa 11 14 91       	vmovss %xmm2,(%rcx,%rdx,4)
  404462:	c4 a1 7a 10 14 91    	vmovss (%rcx,%r10,4),%xmm2
  404468:	47 8d 54 0e 07       	lea    0x7(%r14,%r9,1),%r10d
  40446d:	c4 a1 7a 11 14 99    	vmovss %xmm2,(%rcx,%r11,4)
  404473:	4c 8b 5c 24 b8       	mov    -0x48(%rsp),%r11
  404478:	c5 fa 10 14 81       	vmovss (%rcx,%rax,4),%xmm2
  40447d:	41 8d 44 3f 02       	lea    0x2(%r15,%rdi,1),%eax
  404482:	43 8d 74 0b 07       	lea    0x7(%r11,%r9,1),%esi
  404487:	43 8d 54 0b 06       	lea    0x6(%r11,%r9,1),%edx
  40448c:	c5 fa 11 54 b9 08    	vmovss %xmm2,0x8(%rcx,%rdi,4)
  404492:	c5 fa 10 14 81       	vmovss (%rcx,%rax,4),%xmm2
  404497:	41 8d 44 3c 02       	lea    0x2(%r12,%rdi,1),%eax
  40449c:	c5 fa 11 14 81       	vmovss %xmm2,(%rcx,%rax,4)
  4044a1:	43 8d 44 0e 06       	lea    0x6(%r14,%r9,1),%eax
  4044a6:	c5 fa 10 14 b1       	vmovss (%rcx,%rsi,4),%xmm2
  4044ab:	8d 74 3b 05          	lea    0x5(%rbx,%rdi,1),%esi
  4044af:	c5 fa 11 14 91       	vmovss %xmm2,(%rcx,%rdx,4)
  4044b4:	43 8d 54 0e 08       	lea    0x8(%r14,%r9,1),%edx
  4044b9:	c5 fa 10 14 81       	vmovss (%rcx,%rax,4),%xmm2
  4044be:	41 8d 44 3f 03       	lea    0x3(%r15,%rdi,1),%eax
  4044c3:	c4 a1 7a 11 14 91    	vmovss %xmm2,(%rcx,%r10,4)
  4044c9:	c5 fa 10 14 b1       	vmovss (%rcx,%rsi,4),%xmm2
  4044ce:	43 8d 74 0e 09       	lea    0x9(%r14,%r9,1),%esi
  4044d3:	4c 8b 74 24 60       	mov    0x60(%rsp),%r14
  4044d8:	47 8d 54 0e 08       	lea    0x8(%r14,%r9,1),%r10d
  4044dd:	c5 fa 11 54 b9 0c    	vmovss %xmm2,0xc(%rcx,%rdi,4)
  4044e3:	c5 fa 10 14 81       	vmovss (%rcx,%rax,4),%xmm2
  4044e8:	41 8d 44 3c 03       	lea    0x3(%r12,%rdi,1),%eax
  4044ed:	c5 fa 11 14 81       	vmovss %xmm2,(%rcx,%rax,4)
  4044f2:	43 8d 44 0e 09       	lea    0x9(%r14,%r9,1),%eax
  4044f7:	c5 fa 10 14 b1       	vmovss (%rcx,%rsi,4),%xmm2
  4044fc:	8d 74 3b 06          	lea    0x6(%rbx,%rdi,1),%esi
  404500:	c5 fa 11 14 91       	vmovss %xmm2,(%rcx,%rdx,4)
  404505:	43 8d 54 0e 0a       	lea    0xa(%r14,%r9,1),%edx
  40450a:	c4 a1 7a 10 14 91    	vmovss (%rcx,%r10,4),%xmm2
  404510:	4c 8b 54 24 68       	mov    0x68(%rsp),%r10
  404515:	c5 fa 11 14 81       	vmovss %xmm2,(%rcx,%rax,4)
  40451a:	41 8d 44 3f 04       	lea    0x4(%r15,%rdi,1),%eax
  40451f:	c5 fa 10 14 b1       	vmovss (%rcx,%rsi,4),%xmm2
  404524:	43 8d 74 0a 0a       	lea    0xa(%r10,%r9,1),%esi
  404529:	c5 fa 11 54 b9 10    	vmovss %xmm2,0x10(%rcx,%rdi,4)
  40452f:	c5 fa 10 14 81       	vmovss (%rcx,%rax,4),%xmm2
  404534:	41 8d 44 3c 04       	lea    0x4(%r12,%rdi,1),%eax
  404539:	c5 fa 11 14 81       	vmovss %xmm2,(%rcx,%rax,4)
  40453e:	43 8d 44 0e 0b       	lea    0xb(%r14,%r9,1),%eax
  404543:	c5 fa 10 14 81       	vmovss (%rcx,%rax,4),%xmm2
  404548:	43 8d 44 0a 0b       	lea    0xb(%r10,%r9,1),%eax
  40454d:	c5 fa 11 14 91       	vmovss %xmm2,(%rcx,%rdx,4)
  404552:	8d 54 3b 07          	lea    0x7(%rbx,%rdi,1),%edx
  404556:	c5 fa 10 14 b1       	vmovss (%rcx,%rsi,4),%xmm2
  40455b:	43 8d 74 0a 0d       	lea    0xd(%r10,%r9,1),%esi
  404560:	c5 fa 11 14 81       	vmovss %xmm2,(%rcx,%rax,4)
  404565:	41 8d 44 3f 05       	lea    0x5(%r15,%rdi,1),%eax
  40456a:	c5 fa 10 14 91       	vmovss (%rcx,%rdx,4),%xmm2
  40456f:	43 8d 54 0a 0c       	lea    0xc(%r10,%r9,1),%edx
  404574:	4c 8b 14 24          	mov    (%rsp),%r10
  404578:	c5 fa 11 54 b9 14    	vmovss %xmm2,0x14(%rcx,%rdi,4)
  40457e:	c5 fa 10 14 81       	vmovss (%rcx,%rax,4),%xmm2
  404583:	41 8d 44 3c 05       	lea    0x5(%r12,%rdi,1),%eax
  404588:	c5 fa 11 14 81       	vmovss %xmm2,(%rcx,%rax,4)
  40458d:	43 8d 44 0a 0c       	lea    0xc(%r10,%r9,1),%eax
  404592:	c5 fa 10 14 b1       	vmovss (%rcx,%rsi,4),%xmm2
  404597:	43 8d 74 0a 0d       	lea    0xd(%r10,%r9,1),%esi
  40459c:	c5 fa 11 14 91       	vmovss %xmm2,(%rcx,%rdx,4)
  4045a1:	43 8d 54 0a 0f       	lea    0xf(%r10,%r9,1),%edx
  4045a6:	c5 fa 10 14 81       	vmovss (%rcx,%rax,4),%xmm2
  4045ab:	8d 44 3b 08          	lea    0x8(%rbx,%rdi,1),%eax
  4045af:	c5 fa 11 14 b1       	vmovss %xmm2,(%rcx,%rsi,4)
  4045b4:	48 8b 74 24 38       	mov    0x38(%rsp),%rsi
  4045b9:	c5 fa 10 14 81       	vmovss (%rcx,%rax,4),%xmm2
  4045be:	41 8d 44 3f 06       	lea    0x6(%r15,%rdi,1),%eax
  4045c3:	c5 fa 11 54 b9 18    	vmovss %xmm2,0x18(%rcx,%rdi,4)
  4045c9:	c5 fa 10 14 81       	vmovss (%rcx,%rax,4),%xmm2
  4045ce:	41 8d 44 3c 06       	lea    0x6(%r12,%rdi,1),%eax
  4045d3:	c5 fa 11 14 81       	vmovss %xmm2,(%rcx,%rax,4)
  4045d8:	43 8d 44 0a 0e       	lea    0xe(%r10,%r9,1),%eax
  4045dd:	c5 fa 10 14 91       	vmovss (%rcx,%rdx,4),%xmm2
  4045e2:	43 8d 54 0d 0e       	lea    0xe(%r13,%r9,1),%edx
  4045e7:	c5 fa 11 14 81       	vmovss %xmm2,(%rcx,%rax,4)
  4045ec:	43 8d 44 0d 0f       	lea    0xf(%r13,%r9,1),%eax
  4045f1:	c5 fa 10 14 91       	vmovss (%rcx,%rdx,4),%xmm2
  4045f6:	8d 54 3b 09          	lea    0x9(%rbx,%rdi,1),%edx
  4045fa:	c5 fa 11 14 81       	vmovss %xmm2,(%rcx,%rax,4)
  4045ff:	41 8d 44 3f 07       	lea    0x7(%r15,%rdi,1),%eax
  404604:	c5 fa 10 14 91       	vmovss (%rcx,%rdx,4),%xmm2
  404609:	43 8d 54 0d 10       	lea    0x10(%r13,%r9,1),%edx
  40460e:	c5 fa 11 54 b9 1c    	vmovss %xmm2,0x1c(%rcx,%rdi,4)
  404614:	c5 fa 10 14 81       	vmovss (%rcx,%rax,4),%xmm2
  404619:	41 8d 44 3c 07       	lea    0x7(%r12,%rdi,1),%eax
  40461e:	c5 fa 11 14 81       	vmovss %xmm2,(%rcx,%rax,4)
  404623:	43 8d 44 0d 11       	lea    0x11(%r13,%r9,1),%eax
  404628:	c5 fa 10 14 81       	vmovss (%rcx,%rax,4),%xmm2
  40462d:	42 8d 44 0e 10       	lea    0x10(%rsi,%r9,1),%eax
  404632:	c5 fa 11 14 91       	vmovss %xmm2,(%rcx,%rdx,4)
  404637:	42 8d 54 0e 11       	lea    0x11(%rsi,%r9,1),%edx
  40463c:	44 03 4c 24 30       	add    0x30(%rsp),%r9d
  404641:	c5 fa 10 14 81       	vmovss (%rcx,%rax,4),%xmm2
  404646:	8d 44 3b 0a          	lea    0xa(%rbx,%rdi,1),%eax
  40464a:	c5 fa 11 14 91       	vmovss %xmm2,(%rcx,%rdx,4)
  40464f:	c5 fa 10 14 81       	vmovss (%rcx,%rax,4),%xmm2
  404654:	41 8d 44 3f 08       	lea    0x8(%r15,%rdi,1),%eax
  404659:	c5 fa 11 54 b9 20    	vmovss %xmm2,0x20(%rcx,%rdi,4)
  40465f:	c5 fa 10 14 81       	vmovss (%rcx,%rax,4),%xmm2
  404664:	41 8d 44 3c 08       	lea    0x8(%r12,%rdi,1),%eax
  404669:	48 83 c7 08          	add    $0x8,%rdi
  40466d:	c5 fa 11 14 81       	vmovss %xmm2,(%rcx,%rax,4)
  404672:	48 39 7c 24 c8       	cmp    %rdi,-0x38(%rsp)
  404677:	0f 85 63 fd ff ff    	jne    4043e0 <project+0x1240>
  40467d:	4c 8b 6c 24 d0       	mov    -0x30(%rsp),%r13
  404682:	48 ff c7             	inc    %rdi
  404685:	f6 44 24 b0 07       	testb  $0x7,-0x50(%rsp)
  40468a:	48 8b 54 24 c0       	mov    -0x40(%rsp),%rdx
  40468f:	0f 84 cb f9 ff ff    	je     404060 <project+0xec0>
  404695:	48 8b 74 24 20       	mov    0x20(%rsp),%rsi
  40469a:	48 8b 44 24 58       	mov    0x58(%rsp),%rax
  40469f:	48 8b 9c 24 80 00 00 	mov    0x80(%rsp),%rbx
  4046a6:	00 
  4046a7:	4c 8d 0c b9          	lea    (%rcx,%rdi,4),%r9
  4046ab:	45 31 e4             	xor    %r12d,%r12d
  4046ae:	44 8d 1c 3e          	lea    (%rsi,%rdi,1),%r11d
  4046b2:	48 8b 74 24 80       	mov    -0x80(%rsp),%rsi
  4046b7:	44 8d 14 38          	lea    (%rax,%rdi,1),%r10d
  4046bb:	44 8d 34 3b          	lea    (%rbx,%rdi,1),%r14d
  4046bf:	0f af fa             	imul   %edx,%edi
  4046c2:	44 8d 3c 3e          	lea    (%rsi,%rdi,1),%r15d
  4046c6:	66 2e 0f 1f 84 00 00 	cs nopw 0x0(%rax,%rax,1)
  4046cd:	00 00 00 
  4046d0:	8d 47 01             	lea    0x1(%rdi),%eax
  4046d3:	c5 fa 10 14 81       	vmovss (%rcx,%rax,4),%xmm2
  4046d8:	89 f8                	mov    %edi,%eax
  4046da:	01 d7                	add    %edx,%edi
  4046dc:	c5 fa 11 14 81       	vmovss %xmm2,(%rcx,%rax,4)
  4046e1:	44 89 f8             	mov    %r15d,%eax
  4046e4:	c5 fa 10 14 81       	vmovss (%rcx,%rax,4),%xmm2
  4046e9:	41 8d 47 01          	lea    0x1(%r15),%eax
  4046ed:	41 01 d7             	add    %edx,%r15d
  4046f0:	c5 fa 11 14 81       	vmovss %xmm2,(%rcx,%rax,4)
  4046f5:	43 8d 04 26          	lea    (%r14,%r12,1),%eax
  4046f9:	c5 fa 10 14 81       	vmovss (%rcx,%rax,4),%xmm2
  4046fe:	43 8d 04 23          	lea    (%r11,%r12,1),%eax
  404702:	c4 81 7a 11 14 a1    	vmovss %xmm2,(%r9,%r12,4)
  404708:	c5 fa 10 14 81       	vmovss (%rcx,%rax,4),%xmm2
  40470d:	43 8d 04 22          	lea    (%r10,%r12,1),%eax
  404711:	49 ff c4             	inc    %r12
  404714:	c5 fa 11 14 81       	vmovss %xmm2,(%rcx,%rax,4)
  404719:	4c 39 e5             	cmp    %r12,%rbp
  40471c:	75 b2                	jne    4046d0 <project+0x1530>
  40471e:	e9 3d f9 ff ff       	jmp    404060 <project+0xec0>
  404723:	66 66 66 66 2e 0f 1f 	data16 data16 data16 cs nopw 0x0(%rax,%rax,1)
  40472a:	84 00 00 00 00 00 
  404730:	4c 8b 4c 24 b8       	mov    -0x48(%rsp),%r9
  404735:	4c 8b 7c 24 f0       	mov    -0x10(%rsp),%r15
  40473a:	4c 8b 64 24 f8       	mov    -0x8(%rsp),%r12
  40473f:	b8 01 00 00 00       	mov    $0x1,%eax
  404744:	45 31 db             	xor    %r11d,%r11d
  404747:	31 f6                	xor    %esi,%esi
  404749:	48 89 44 24 88       	mov    %rax,-0x78(%rsp)
  40474e:	48 8b 44 24 c0       	mov    -0x40(%rsp),%rax
  404753:	89 44 24 e8          	mov    %eax,-0x18(%rsp)
  404757:	8b 44 24 74          	mov    0x74(%rsp),%eax
  40475b:	48 89 44 24 a8       	mov    %rax,-0x58(%rsp)
  404760:	48 8b 44 24 08       	mov    0x8(%rsp),%rax
  404765:	48 89 44 24 a0       	mov    %rax,-0x60(%rsp)
  40476a:	eb 54                	jmp    4047c0 <project+0x1620>
  40476c:	0f 1f 40 00          	nopl   0x0(%rax)
  404770:	48 8b 44 24 88       	mov    -0x78(%rsp),%rax
  404775:	48 8b 54 24 a0       	mov    -0x60(%rsp),%rdx
  40477a:	8b 74 24 d8          	mov    -0x28(%rsp),%esi
  40477e:	4c 8b 6c 24 d0       	mov    -0x30(%rsp),%r13
  404783:	83 c0 02             	add    $0x2,%eax
  404786:	83 c6 02             	add    $0x2,%esi
  404789:	48 89 44 24 88       	mov    %rax,-0x78(%rsp)
  40478e:	48 8b 44 24 08       	mov    0x8(%rsp),%rax
  404793:	01 c2                	add    %eax,%edx
  404795:	01 44 24 e8          	add    %eax,-0x18(%rsp)
  404799:	49 01 c4             	add    %rax,%r12
  40479c:	49 01 c7             	add    %rax,%r15
  40479f:	49 01 c3             	add    %rax,%r11
  4047a2:	49 01 c1             	add    %rax,%r9
  4047a5:	48 89 54 24 a0       	mov    %rdx,-0x60(%rsp)
  4047aa:	48 8b 54 24 a8       	mov    -0x58(%rsp),%rdx
  4047af:	01 c2                	add    %eax,%edx
  4047b1:	48 89 54 24 a8       	mov    %rdx,-0x58(%rsp)
  4047b6:	3b 74 24 40          	cmp    0x40(%rsp),%esi
  4047ba:	0f 84 61 f9 ff ff    	je     404121 <project+0xf81>
  4047c0:	48 83 7c 24 98 07    	cmpq   $0x7,-0x68(%rsp)
  4047c6:	41 be 01 00 00 00    	mov    $0x1,%r14d
  4047cc:	89 74 24 d8          	mov    %esi,-0x28(%rsp)
  4047d0:	0f 82 bb 01 00 00    	jb     404991 <project+0x17f1>
  4047d6:	48 8b 5c 24 c8       	mov    -0x38(%rsp),%rbx
  4047db:	45 31 f6             	xor    %r14d,%r14d
  4047de:	66 90                	xchg   %ax,%ax
  4047e0:	43 8d 44 34 03       	lea    0x3(%r12,%r14,1),%eax
  4047e5:	43 8d 54 34 04       	lea    0x4(%r12,%r14,1),%edx
  4047ea:	43 8d 74 34 02       	lea    0x2(%r12,%r14,1),%esi
  4047ef:	43 8d 7c 33 01       	lea    0x1(%r11,%r14,1),%edi
  4047f4:	47 8d 54 37 05       	lea    0x5(%r15,%r14,1),%r10d
  4047f9:	c4 c1 7a 10 14 80    	vmovss (%r8,%rax,4),%xmm2
  4047ff:	c5 fa 10 1c 91       	vmovss (%rcx,%rdx,4),%xmm3
  404804:	c5 ea 58 14 b1       	vaddss (%rcx,%rsi,4),%xmm2,%xmm2
  404809:	c5 e2 58 1c b9       	vaddss (%rcx,%rdi,4),%xmm3,%xmm3
  40480e:	43 8d 74 34 05       	lea    0x5(%r12,%r14,1),%esi
  404813:	43 8d 7c 33 02       	lea    0x2(%r11,%r14,1),%edi
  404818:	c5 e2 58 d2          	vaddss %xmm2,%xmm3,%xmm2
  40481c:	c4 a1 72 59 1c 91    	vmulss (%rcx,%r10,4),%xmm1,%xmm3
  404822:	47 8d 54 37 0a       	lea    0xa(%r15,%r14,1),%r10d
  404827:	c4 e2 71 b9 da       	vfmadd231ss %xmm2,%xmm1,%xmm3
  40482c:	c5 fa 11 1c 81       	vmovss %xmm3,(%rcx,%rax,4)
  404831:	43 8d 44 37 06       	lea    0x6(%r15,%r14,1),%eax
  404836:	c5 fa 10 14 b1       	vmovss (%rcx,%rsi,4),%xmm2
  40483b:	c4 c1 62 58 1c 90    	vaddss (%r8,%rdx,4),%xmm3,%xmm3
  404841:	c5 ea 58 14 b9       	vaddss (%rcx,%rdi,4),%xmm2,%xmm2
  404846:	43 8d 7c 37 07       	lea    0x7(%r15,%r14,1),%edi
  40484b:	c5 ea 58 d3          	vaddss %xmm3,%xmm2,%xmm2
  40484f:	c5 f2 59 1c 81       	vmulss (%rcx,%rax,4),%xmm1,%xmm3
  404854:	43 8d 44 34 06       	lea    0x6(%r12,%r14,1),%eax
  404859:	c4 e2 71 b9 da       	vfmadd231ss %xmm2,%xmm1,%xmm3
  40485e:	c5 fa 11 1c 91       	vmovss %xmm3,(%rcx,%rdx,4)
  404863:	43 8d 54 33 03       	lea    0x3(%r11,%r14,1),%edx
  404868:	c5 fa 10 14 81       	vmovss (%rcx,%rax,4),%xmm2
  40486d:	c4 c1 62 58 1c b0    	vaddss (%r8,%rsi,4),%xmm3,%xmm3
  404873:	c5 ea 58 14 91       	vaddss (%rcx,%rdx,4),%xmm2,%xmm2
  404878:	43 8d 54 34 07       	lea    0x7(%r12,%r14,1),%edx
  40487d:	c5 ea 58 d3          	vaddss %xmm3,%xmm2,%xmm2
  404881:	c5 f2 59 1c b9       	vmulss (%rcx,%rdi,4),%xmm1,%xmm3
  404886:	43 8d 7c 37 08       	lea    0x8(%r15,%r14,1),%edi
  40488b:	c4 e2 71 b9 da       	vfmadd231ss %xmm2,%xmm1,%xmm3
  404890:	c5 fa 11 1c b1       	vmovss %xmm3,(%rcx,%rsi,4)
  404895:	43 8d 74 33 04       	lea    0x4(%r11,%r14,1),%esi
  40489a:	c5 fa 10 14 91       	vmovss (%rcx,%rdx,4),%xmm2
  40489f:	c4 c1 62 58 1c 80    	vaddss (%r8,%rax,4),%xmm3,%xmm3
  4048a5:	c5 ea 58 14 b1       	vaddss (%rcx,%rsi,4),%xmm2,%xmm2
  4048aa:	43 8d 74 33 05       	lea    0x5(%r11,%r14,1),%esi
  4048af:	c5 ea 58 d3          	vaddss %xmm3,%xmm2,%xmm2
  4048b3:	c5 f2 59 1c b9       	vmulss (%rcx,%rdi,4),%xmm1,%xmm3
  4048b8:	43 8d 7c 37 09       	lea    0x9(%r15,%r14,1),%edi
  4048bd:	c4 e2 71 b9 da       	vfmadd231ss %xmm2,%xmm1,%xmm3
  4048c2:	c5 fa 11 1c 81       	vmovss %xmm3,(%rcx,%rax,4)
  4048c7:	43 8d 44 34 08       	lea    0x8(%r12,%r14,1),%eax
  4048cc:	c4 c1 62 58 1c 90    	vaddss (%r8,%rdx,4),%xmm3,%xmm3
  4048d2:	c5 fa 10 14 81       	vmovss (%rcx,%rax,4),%xmm2
  4048d7:	c5 ea 58 14 b1       	vaddss (%rcx,%rsi,4),%xmm2,%xmm2
  4048dc:	43 8d 74 34 09       	lea    0x9(%r12,%r14,1),%esi
  4048e1:	c5 ea 58 d3          	vaddss %xmm3,%xmm2,%xmm2
  4048e5:	c5 f2 59 1c b9       	vmulss (%rcx,%rdi,4),%xmm1,%xmm3
  4048ea:	43 8d 7c 33 06       	lea    0x6(%r11,%r14,1),%edi
  4048ef:	c4 e2 71 b9 da       	vfmadd231ss %xmm2,%xmm1,%xmm3
  4048f4:	c5 fa 11 1c 91       	vmovss %xmm3,(%rcx,%rdx,4)
  4048f9:	43 8d 54 34 0a       	lea    0xa(%r12,%r14,1),%edx
  4048fe:	c5 fa 10 14 b1       	vmovss (%rcx,%rsi,4),%xmm2
  404903:	c4 c1 62 58 1c 80    	vaddss (%r8,%rax,4),%xmm3,%xmm3
  404909:	c4 a1 72 59 24 91    	vmulss (%rcx,%r10,4),%xmm1,%xmm4
  40490f:	c5 ea 58 14 b9       	vaddss (%rcx,%rdi,4),%xmm2,%xmm2
  404914:	43 8d 7c 33 07       	lea    0x7(%r11,%r14,1),%edi
  404919:	c5 ea 58 d3          	vaddss %xmm3,%xmm2,%xmm2
  40491d:	c4 e2 71 b9 e2       	vfmadd231ss %xmm2,%xmm1,%xmm4
  404922:	c5 fa 11 24 81       	vmovss %xmm4,(%rcx,%rax,4)
  404927:	43 8d 44 37 0b       	lea    0xb(%r15,%r14,1),%eax
  40492c:	c5 fa 10 14 91       	vmovss (%rcx,%rdx,4),%xmm2
  404931:	c4 c1 5a 58 1c b0    	vaddss (%r8,%rsi,4),%xmm4,%xmm3
  404937:	c5 ea 58 14 b9       	vaddss (%rcx,%rdi,4),%xmm2,%xmm2
  40493c:	43 8d 7c 33 08       	lea    0x8(%r11,%r14,1),%edi
  404941:	c5 ea 58 d3          	vaddss %xmm3,%xmm2,%xmm2
  404945:	c5 f2 59 1c 81       	vmulss (%rcx,%rax,4),%xmm1,%xmm3
  40494a:	43 8d 44 34 0b       	lea    0xb(%r12,%r14,1),%eax
  40494f:	c4 e2 71 b9 da       	vfmadd231ss %xmm2,%xmm1,%xmm3
  404954:	c5 fa 11 1c b1       	vmovss %xmm3,(%rcx,%rsi,4)
  404959:	c5 fa 10 14 81       	vmovss (%rcx,%rax,4),%xmm2
  40495e:	c4 c1 62 58 1c 90    	vaddss (%r8,%rdx,4),%xmm3,%xmm3
  404964:	43 8d 44 37 0c       	lea    0xc(%r15,%r14,1),%eax
  404969:	49 83 c6 08          	add    $0x8,%r14
  40496d:	c5 ea 58 14 b9       	vaddss (%rcx,%rdi,4),%xmm2,%xmm2
  404972:	c5 f2 59 24 81       	vmulss (%rcx,%rax,4),%xmm1,%xmm4
  404977:	c5 ea 58 d3          	vaddss %xmm3,%xmm2,%xmm2
  40497b:	c4 e2 71 b9 e2       	vfmadd231ss %xmm2,%xmm1,%xmm4
  404980:	c5 fa 11 24 91       	vmovss %xmm4,(%rcx,%rdx,4)
  404985:	4c 39 f3             	cmp    %r14,%rbx
  404988:	0f 85 52 fe ff ff    	jne    4047e0 <project+0x1640>
  40498e:	49 ff c6             	inc    %r14
  404991:	48 85 ed             	test   %rbp,%rbp
  404994:	74 65                	je     4049fb <project+0x185b>
  404996:	48 8b 44 24 a0       	mov    -0x60(%rsp),%rax
  40499b:	43 8d 3c 34          	lea    (%r12,%r14,1),%edi
  40499f:	31 f6                	xor    %esi,%esi
  4049a1:	42 8d 14 30          	lea    (%rax,%r14,1),%edx
  4049a5:	45 01 de             	add    %r11d,%r14d
  4049a8:	0f 1f 84 00 00 00 00 	nopl   0x0(%rax,%rax,1)
  4049af:	00 
  4049b0:	44 8d 54 37 02       	lea    0x2(%rdi,%rsi,1),%r10d
  4049b5:	8d 6c 37 01          	lea    0x1(%rdi,%rsi,1),%ebp
  4049b9:	44 8d 6c 37 03       	lea    0x3(%rdi,%rsi,1),%r13d
  4049be:	41 8d 1c 36          	lea    (%r14,%rsi,1),%ebx
  4049c2:	8d 04 32             	lea    (%rdx,%rsi,1),%eax
  4049c5:	48 ff c6             	inc    %rsi
  4049c8:	c4 81 7a 10 14 90    	vmovss (%r8,%r10,4),%xmm2
  4049ce:	c4 a1 7a 10 1c a9    	vmovss (%rcx,%r13,4),%xmm3
  4049d4:	c5 ea 58 14 a9       	vaddss (%rcx,%rbp,4),%xmm2,%xmm2
  4049d9:	c5 e2 58 1c 99       	vaddss (%rcx,%rbx,4),%xmm3,%xmm3
  4049de:	48 8b 6c 24 90       	mov    -0x70(%rsp),%rbp
  4049e3:	c5 ea 58 14 81       	vaddss (%rcx,%rax,4),%xmm2,%xmm2
  4049e8:	c5 ea 58 d3          	vaddss %xmm3,%xmm2,%xmm2
  4049ec:	c5 ea 59 d1          	vmulss %xmm1,%xmm2,%xmm2
  4049f0:	c4 a1 7a 11 14 91    	vmovss %xmm2,(%rcx,%r10,4)
  4049f6:	48 39 f5             	cmp    %rsi,%rbp
  4049f9:	75 b5                	jne    4049b0 <project+0x1810>
  4049fb:	48 83 7c 24 98 07    	cmpq   $0x7,-0x68(%rsp)
  404a01:	41 be 01 00 00 00    	mov    $0x1,%r14d
  404a07:	0f 82 c4 01 00 00    	jb     404bd1 <project+0x1a31>
  404a0d:	48 8b 5c 24 c8       	mov    -0x38(%rsp),%rbx
  404a12:	45 31 f6             	xor    %r14d,%r14d
  404a15:	66 66 2e 0f 1f 84 00 	data16 cs nopw 0x0(%rax,%rax,1)
  404a1c:	00 00 00 00 
  404a20:	43 8d 44 37 05       	lea    0x5(%r15,%r14,1),%eax
  404a25:	43 8d 54 37 06       	lea    0x6(%r15,%r14,1),%edx
  404a2a:	43 8d 74 37 04       	lea    0x4(%r15,%r14,1),%esi
  404a2f:	43 8d 7c 34 03       	lea    0x3(%r12,%r14,1),%edi
  404a34:	47 8d 54 31 07       	lea    0x7(%r9,%r14,1),%r10d
  404a39:	c4 c1 7a 10 14 80    	vmovss (%r8,%rax,4),%xmm2
  404a3f:	c5 fa 10 1c 91       	vmovss (%rcx,%rdx,4),%xmm3
  404a44:	c5 ea 58 14 b1       	vaddss (%rcx,%rsi,4),%xmm2,%xmm2
  404a49:	c5 e2 58 1c b9       	vaddss (%rcx,%rdi,4),%xmm3,%xmm3
  404a4e:	43 8d 74 37 07       	lea    0x7(%r15,%r14,1),%esi
  404a53:	43 8d 7c 34 04       	lea    0x4(%r12,%r14,1),%edi
  404a58:	c5 e2 58 d2          	vaddss %xmm2,%xmm3,%xmm2
  404a5c:	c4 a1 72 59 1c 91    	vmulss (%rcx,%r10,4),%xmm1,%xmm3
  404a62:	47 8d 54 31 0c       	lea    0xc(%r9,%r14,1),%r10d
  404a67:	c4 e2 71 b9 da       	vfmadd231ss %xmm2,%xmm1,%xmm3
  404a6c:	c5 fa 11 1c 81       	vmovss %xmm3,(%rcx,%rax,4)
  404a71:	43 8d 44 31 08       	lea    0x8(%r9,%r14,1),%eax
  404a76:	c5 fa 10 14 b1       	vmovss (%rcx,%rsi,4),%xmm2
  404a7b:	c4 c1 62 58 1c 90    	vaddss (%r8,%rdx,4),%xmm3,%xmm3
  404a81:	c5 ea 58 14 b9       	vaddss (%rcx,%rdi,4),%xmm2,%xmm2
  404a86:	43 8d 7c 31 09       	lea    0x9(%r9,%r14,1),%edi
  404a8b:	c5 ea 58 d3          	vaddss %xmm3,%xmm2,%xmm2
  404a8f:	c5 f2 59 1c 81       	vmulss (%rcx,%rax,4),%xmm1,%xmm3
  404a94:	43 8d 44 37 08       	lea    0x8(%r15,%r14,1),%eax
  404a99:	c4 e2 71 b9 da       	vfmadd231ss %xmm2,%xmm1,%xmm3
  404a9e:	c5 fa 11 1c 91       	vmovss %xmm3,(%rcx,%rdx,4)
  404aa3:	43 8d 54 34 05       	lea    0x5(%r12,%r14,1),%edx
  404aa8:	c5 fa 10 14 81       	vmovss (%rcx,%rax,4),%xmm2
  404aad:	c4 c1 62 58 1c b0    	vaddss (%r8,%rsi,4),%xmm3,%xmm3
  404ab3:	c5 ea 58 14 91       	vaddss (%rcx,%rdx,4),%xmm2,%xmm2
  404ab8:	43 8d 54 37 09       	lea    0x9(%r15,%r14,1),%edx
  404abd:	c5 ea 58 d3          	vaddss %xmm3,%xmm2,%xmm2
  404ac1:	c5 f2 59 1c b9       	vmulss (%rcx,%rdi,4),%xmm1,%xmm3
  404ac6:	43 8d 7c 31 0a       	lea    0xa(%r9,%r14,1),%edi
  404acb:	c4 e2 71 b9 da       	vfmadd231ss %xmm2,%xmm1,%xmm3
  404ad0:	c5 fa 11 1c b1       	vmovss %xmm3,(%rcx,%rsi,4)
  404ad5:	43 8d 74 34 06       	lea    0x6(%r12,%r14,1),%esi
  404ada:	c5 fa 10 14 91       	vmovss (%rcx,%rdx,4),%xmm2
  404adf:	c4 c1 62 58 1c 80    	vaddss (%r8,%rax,4),%xmm3,%xmm3
  404ae5:	c5 ea 58 14 b1       	vaddss (%rcx,%rsi,4),%xmm2,%xmm2
  404aea:	43 8d 74 34 07       	lea    0x7(%r12,%r14,1),%esi
  404aef:	c5 ea 58 d3          	vaddss %xmm3,%xmm2,%xmm2
  404af3:	c5 f2 59 1c b9       	vmulss (%rcx,%rdi,4),%xmm1,%xmm3
  404af8:	43 8d 7c 31 0b       	lea    0xb(%r9,%r14,1),%edi
  404afd:	c4 e2 71 b9 da       	vfmadd231ss %xmm2,%xmm1,%xmm3
  404b02:	c5 fa 11 1c 81       	vmovss %xmm3,(%rcx,%rax,4)
  404b07:	43 8d 44 37 0a       	lea    0xa(%r15,%r14,1),%eax
  404b0c:	c4 c1 62 58 1c 90    	vaddss (%r8,%rdx,4),%xmm3,%xmm3
  404b12:	c5 fa 10 14 81       	vmovss (%rcx,%rax,4),%xmm2
  404b17:	c5 ea 58 14 b1       	vaddss (%rcx,%rsi,4),%xmm2,%xmm2
  404b1c:	43 8d 74 37 0b       	lea    0xb(%r15,%r14,1),%esi
  404b21:	c5 ea 58 d3          	vaddss %xmm3,%xmm2,%xmm2
  404b25:	c5 f2 59 1c b9       	vmulss (%rcx,%rdi,4),%xmm1,%xmm3
  404b2a:	43 8d 7c 34 08       	lea    0x8(%r12,%r14,1),%edi
  404b2f:	c4 e2 71 b9 da       	vfmadd231ss %xmm2,%xmm1,%xmm3
  404b34:	c5 fa 11 1c 91       	vmovss %xmm3,(%rcx,%rdx,4)
  404b39:	43 8d 54 37 0c       	lea    0xc(%r15,%r14,1),%edx
  404b3e:	c5 fa 10 14 b1       	vmovss (%rcx,%rsi,4),%xmm2
  404b43:	c4 c1 62 58 1c 80    	vaddss (%r8,%rax,4),%xmm3,%xmm3
  404b49:	c4 a1 72 59 24 91    	vmulss (%rcx,%r10,4),%xmm1,%xmm4
  404b4f:	c5 ea 58 14 b9       	vaddss (%rcx,%rdi,4),%xmm2,%xmm2
  404b54:	43 8d 7c 34 09       	lea    0x9(%r12,%r14,1),%edi
  404b59:	c5 ea 58 d3          	vaddss %xmm3,%xmm2,%xmm2
  404b5d:	c4 e2 71 b9 e2       	vfmadd231ss %xmm2,%xmm1,%xmm4
  404b62:	c5 fa 11 24 81       	vmovss %xmm4,(%rcx,%rax,4)
  404b67:	43 8d 44 31 0d       	lea    0xd(%r9,%r14,1),%eax
  404b6c:	c5 fa 10 14 91       	vmovss (%rcx,%rdx,4),%xmm2
  404b71:	c4 c1 5a 58 1c b0    	vaddss (%r8,%rsi,4),%xmm4,%xmm3
  404b77:	c5 ea 58 14 b9       	vaddss (%rcx,%rdi,4),%xmm2,%xmm2
  404b7c:	43 8d 7c 34 0a       	lea    0xa(%r12,%r14,1),%edi
  404b81:	c5 ea 58 d3          	vaddss %xmm3,%xmm2,%xmm2
  404b85:	c5 f2 59 1c 81       	vmulss (%rcx,%rax,4),%xmm1,%xmm3
  404b8a:	43 8d 44 37 0d       	lea    0xd(%r15,%r14,1),%eax
  404b8f:	c4 e2 71 b9 da       	vfmadd231ss %xmm2,%xmm1,%xmm3
  404b94:	c5 fa 11 1c b1       	vmovss %xmm3,(%rcx,%rsi,4)
  404b99:	c5 fa 10 14 81       	vmovss (%rcx,%rax,4),%xmm2
  404b9e:	c4 c1 62 58 1c 90    	vaddss (%r8,%rdx,4),%xmm3,%xmm3
  404ba4:	43 8d 44 31 0e       	lea    0xe(%r9,%r14,1),%eax
  404ba9:	49 83 c6 08          	add    $0x8,%r14
  404bad:	c5 ea 58 14 b9       	vaddss (%rcx,%rdi,4),%xmm2,%xmm2
  404bb2:	c5 f2 59 24 81       	vmulss (%rcx,%rax,4),%xmm1,%xmm4
  404bb7:	c5 ea 58 d3          	vaddss %xmm3,%xmm2,%xmm2
  404bbb:	c4 e2 71 b9 e2       	vfmadd231ss %xmm2,%xmm1,%xmm4
  404bc0:	c5 fa 11 24 91       	vmovss %xmm4,(%rcx,%rdx,4)
  404bc5:	4c 39 f3             	cmp    %r14,%rbx
  404bc8:	0f 85 52 fe ff ff    	jne    404a20 <project+0x1880>
  404bce:	49 ff c6             	inc    %r14
  404bd1:	f6 44 24 b0 07       	testb  $0x7,-0x50(%rsp)
  404bd6:	0f 84 94 fb ff ff    	je     404770 <project+0x15d0>
  404bdc:	48 8b 44 24 a8       	mov    -0x58(%rsp),%rax
  404be1:	43 8d 3c 37          	lea    (%r15,%r14,1),%edi
  404be5:	31 f6                	xor    %esi,%esi
  404be7:	42 8d 14 30          	lea    (%rax,%r14,1),%edx
  404beb:	44 03 74 24 e8       	add    -0x18(%rsp),%r14d
  404bf0:	8d 44 37 04          	lea    0x4(%rdi,%rsi,1),%eax
  404bf4:	44 8d 54 37 03       	lea    0x3(%rdi,%rsi,1),%r10d
  404bf9:	8d 5c 37 05          	lea    0x5(%rdi,%rsi,1),%ebx
  404bfd:	45 8d 2c 36          	lea    (%r14,%rsi,1),%r13d
  404c01:	8d 2c 32             	lea    (%rdx,%rsi,1),%ebp
  404c04:	48 ff c6             	inc    %rsi
  404c07:	c4 c1 7a 10 14 80    	vmovss (%r8,%rax,4),%xmm2
  404c0d:	c5 fa 10 1c 99       	vmovss (%rcx,%rbx,4),%xmm3
  404c12:	c4 a1 6a 58 14 91    	vaddss (%rcx,%r10,4),%xmm2,%xmm2
  404c18:	c4 a1 62 58 1c a9    	vaddss (%rcx,%r13,4),%xmm3,%xmm3
  404c1e:	c5 ea 58 14 a9       	vaddss (%rcx,%rbp,4),%xmm2,%xmm2
  404c23:	48 8b 6c 24 90       	mov    -0x70(%rsp),%rbp
  404c28:	c5 ea 58 d3          	vaddss %xmm3,%xmm2,%xmm2
  404c2c:	c5 ea 59 d1          	vmulss %xmm1,%xmm2,%xmm2
  404c30:	c5 fa 11 14 81       	vmovss %xmm2,(%rcx,%rax,4)
  404c35:	48 39 f5             	cmp    %rsi,%rbp
  404c38:	75 b6                	jne    404bf0 <project+0x1a50>
  404c3a:	e9 31 fb ff ff       	jmp    404770 <project+0x15d0>
  404c3f:	c5 fa 10 49 08       	vmovss 0x8(%rcx),%xmm1
  404c44:	c5 f2 58 49 04       	vaddss 0x4(%rcx),%xmm1,%xmm1
  404c49:	c4 e2 79 a9 49 0c    	vfmadd213ss 0xc(%rcx),%xmm0,%xmm1
  404c4f:	c5 f2 59 c8          	vmulss %xmm0,%xmm1,%xmm1
  404c53:	c4 e2 79 18 c9       	vbroadcastss %xmm1,%xmm1
  404c58:	c5 f8 11 09          	vmovups %xmm1,(%rcx)
  404c5c:	48 8b 44 24 48       	mov    0x48(%rsp),%rax
  404c61:	4c 8b 4c 24 80       	mov    -0x80(%rsp),%r9
  404c66:	41 be 02 00 00 00    	mov    $0x2,%r14d
  404c6c:	bf 00 00 00 00       	mov    $0x0,%edi
  404c71:	bb 02 00 00 00       	mov    $0x2,%ebx
  404c76:	31 ed                	xor    %ebp,%ebp
  404c78:	45 85 c9             	test   %r9d,%r9d
  404c7b:	0f 84 f1 08 00 00    	je     405572 <project+0x23d2>
  404c81:	41 83 fc 03          	cmp    $0x3,%r12d
  404c85:	b8 02 00 00 00       	mov    $0x2,%eax
  404c8a:	c4 c1 ca 2a cf       	vcvtsi2ss %r15,%xmm6,%xmm1
  404c8f:	c5 f2 59 0d 7d 83 00 	vmulss 0x837d(%rip),%xmm1,%xmm1        # 40d014 <_IO_stdin_used+0x14>
  404c96:	00 
  404c97:	42 8d 3c cd 00 00 00 	lea    0x0(,%r9,8),%edi
  404c9e:	00 
  404c9f:	46 8d 04 cd 10 00 00 	lea    0x10(,%r9,8),%r8d
  404ca6:	00 
  404ca7:	41 0f 43 c4          	cmovae %r12d,%eax
  404cab:	48 8d 50 ff          	lea    -0x1(%rax),%rdx
  404caf:	48 89 44 24 b0       	mov    %rax,-0x50(%rsp)
  404cb4:	48 83 c0 fe          	add    $0xfffffffffffffffe,%rax
  404cb8:	48 89 7c 24 90       	mov    %rdi,-0x70(%rsp)
  404cbd:	44 29 cf             	sub    %r9d,%edi
  404cc0:	44 89 44 24 98       	mov    %r8d,-0x68(%rsp)
  404cc5:	41 b8 01 00 00 00    	mov    $0x1,%r8d
  404ccb:	48 89 44 24 f0       	mov    %rax,-0x10(%rsp)
  404cd0:	43 8d 44 c9 13       	lea    0x13(%r9,%r9,8),%eax
  404cd5:	89 d6                	mov    %edx,%esi
  404cd7:	48 83 e2 f8          	and    $0xfffffffffffffff8,%rdx
  404cdb:	83 e6 07             	and    $0x7,%esi
  404cde:	48 89 7c 24 a8       	mov    %rdi,-0x58(%rsp)
  404ce3:	31 ff                	xor    %edi,%edi
  404ce5:	48 f7 da             	neg    %rdx
  404ce8:	48 89 74 24 08       	mov    %rsi,0x8(%rsp)
  404ced:	48 f7 de             	neg    %rsi
  404cf0:	48 89 44 24 88       	mov    %rax,-0x78(%rsp)
  404cf5:	43 8d 04 09          	lea    (%r9,%r9,1),%eax
  404cf9:	48 89 54 24 a0       	mov    %rdx,-0x60(%rsp)
  404cfe:	48 89 74 24 30       	mov    %rsi,0x30(%rsp)
  404d03:	48 89 44 24 d8       	mov    %rax,-0x28(%rsp)
  404d08:	8d 04 40             	lea    (%rax,%rax,2),%eax
  404d0b:	48 89 44 24 40       	mov    %rax,0x40(%rsp)
  404d10:	43 8d 04 89          	lea    (%r9,%r9,4),%eax
  404d14:	48 89 04 24          	mov    %rax,(%rsp)
  404d18:	42 8d 04 8d 00 00 00 	lea    0x0(,%r9,4),%eax
  404d1f:	00 
  404d20:	48 89 44 24 e8       	mov    %rax,-0x18(%rsp)
  404d25:	43 8d 04 49          	lea    (%r9,%r9,2),%eax
  404d29:	4c 8b 4c 24 e0       	mov    -0x20(%rsp),%r9
  404d2e:	48 89 44 24 38       	mov    %rax,0x38(%rsp)
  404d33:	eb 1b                	jmp    404d50 <project+0x1bb0>
  404d35:	66 66 2e 0f 1f 84 00 	data16 cs nopw 0x0(%rax,%rax,1)
  404d3c:	00 00 00 00 
  404d40:	ff c7                	inc    %edi
  404d42:	49 89 c5             	mov    %rax,%r13
  404d45:	44 3b 44 24 b0       	cmp    -0x50(%rsp),%r8d
  404d4a:	0f 84 65 03 00 00    	je     4050b5 <project+0x1f15>
  404d50:	44 89 c0             	mov    %r8d,%eax
  404d53:	89 7c 24 b8          	mov    %edi,-0x48(%rsp)
  404d57:	48 83 7c 24 f0 07    	cmpq   $0x7,-0x10(%rsp)
  404d5d:	4c 8b 54 24 80       	mov    -0x80(%rsp),%r10
  404d62:	4c 8b 7c 24 d8       	mov    -0x28(%rsp),%r15
  404d67:	4c 8b 44 24 e8       	mov    -0x18(%rsp),%r8
  404d6c:	4c 8b 74 24 40       	mov    0x40(%rsp),%r14
  404d71:	48 8b 2c 24          	mov    (%rsp),%rbp
  404d75:	48 8b 7c 24 38       	mov    0x38(%rsp),%rdi
  404d7a:	41 bc 01 00 00 00    	mov    $0x1,%r12d
  404d80:	48 89 44 24 c8       	mov    %rax,-0x38(%rsp)
  404d85:	0f 82 89 02 00 00    	jb     405014 <project+0x1e74>
  404d8b:	8b 44 24 b8          	mov    -0x48(%rsp),%eax
  404d8f:	41 89 c3             	mov    %eax,%r11d
  404d92:	66 66 66 66 66 2e 0f 	data16 data16 data16 data16 cs nopw 0x0(%rax,%rax,1)
  404d99:	1f 84 00 00 00 00 00 
  404da0:	48 8b 44 24 80       	mov    -0x80(%rsp),%rax
  404da5:	43 8d 74 1a 02       	lea    0x2(%r10,%r11,1),%esi
  404daa:	43 8d 54 1a 04       	lea    0x4(%r10,%r11,1),%edx
  404daf:	49 89 ea             	mov    %rbp,%r10
  404db2:	c5 fa 10 14 b1       	vmovss (%rcx,%rsi,4),%xmm2
  404db7:	41 8d 73 01          	lea    0x1(%r11),%esi
  404dbb:	c5 ea 5c 14 91       	vsubss (%rcx,%rdx,4),%xmm2,%xmm2
  404dc0:	43 8d 54 1f 05       	lea    0x5(%r15,%r11,1),%edx
  404dc5:	42 8d 5c 18 03       	lea    0x3(%rax,%r11,1),%ebx
  404dca:	48 8b 44 24 d0       	mov    -0x30(%rsp),%rax
  404dcf:	c4 c2 71 a9 54 9d 00 	vfmadd213ss 0x0(%r13,%rbx,4),%xmm1,%xmm2
  404dd6:	c4 c1 7a 11 54 9d 00 	vmovss %xmm2,0x0(%r13,%rbx,4)
  404ddd:	47 8d 6c 1f 04       	lea    0x4(%r15,%r11,1),%r13d
  404de2:	c5 fa 10 14 b1       	vmovss (%rcx,%rsi,4),%xmm2
  404de7:	43 8d 74 1f 06       	lea    0x6(%r15,%r11,1),%esi
  404dec:	c5 ea 5c 14 91       	vsubss (%rcx,%rdx,4),%xmm2,%xmm2
  404df1:	c4 c2 71 a9 14 99    	vfmadd213ss (%r9,%rbx,4),%xmm1,%xmm2
  404df7:	c4 c1 7a 11 14 99    	vmovss %xmm2,(%r9,%rbx,4)
  404dfd:	c4 a1 7a 10 14 a9    	vmovss (%rcx,%r13,4),%xmm2
  404e03:	46 8d 6c 1f 06       	lea    0x6(%rdi,%r11,1),%r13d
  404e08:	c5 ea 5c 14 b1       	vsubss (%rcx,%rsi,4),%xmm2,%xmm2
  404e0d:	42 8d 74 1f 07       	lea    0x7(%rdi,%r11,1),%esi
  404e12:	c4 e2 71 a9 14 90    	vfmadd213ss (%rax,%rdx,4),%xmm1,%xmm2
  404e18:	48 8b 44 24 d0       	mov    -0x30(%rsp),%rax
  404e1d:	c5 fa 11 14 90       	vmovss %xmm2,(%rax,%rdx,4)
  404e22:	48 8b 44 24 d0       	mov    -0x30(%rsp),%rax
  404e27:	c5 fa 10 14 99       	vmovss (%rcx,%rbx,4),%xmm2
  404e2c:	42 8d 5c 1f 08       	lea    0x8(%rdi,%r11,1),%ebx
  404e31:	c5 ea 5c 14 b1       	vsubss (%rcx,%rsi,4),%xmm2,%xmm2
  404e36:	c4 c2 71 a9 14 91    	vfmadd213ss (%r9,%rdx,4),%xmm1,%xmm2
  404e3c:	c4 c1 7a 11 14 91    	vmovss %xmm2,(%r9,%rdx,4)
  404e42:	c4 a1 7a 10 14 a9    	vmovss (%rcx,%r13,4),%xmm2
  404e48:	47 8d 6c 18 08       	lea    0x8(%r8,%r11,1),%r13d
  404e4d:	c5 ea 5c 14 99       	vsubss (%rcx,%rbx,4),%xmm2,%xmm2
  404e52:	43 8d 5c 18 09       	lea    0x9(%r8,%r11,1),%ebx
  404e57:	c4 e2 71 a9 14 b0    	vfmadd213ss (%rax,%rsi,4),%xmm1,%xmm2
  404e5d:	48 8b 44 24 d0       	mov    -0x30(%rsp),%rax
  404e62:	c5 fa 11 14 b0       	vmovss %xmm2,(%rax,%rsi,4)
  404e67:	48 8b 44 24 d0       	mov    -0x30(%rsp),%rax
  404e6c:	c5 fa 10 14 91       	vmovss (%rcx,%rdx,4),%xmm2
  404e71:	43 8d 54 18 0a       	lea    0xa(%r8,%r11,1),%edx
  404e76:	c5 ea 5c 14 99       	vsubss (%rcx,%rbx,4),%xmm2,%xmm2
  404e7b:	c4 c2 71 a9 14 b1    	vfmadd213ss (%r9,%rsi,4),%xmm1,%xmm2
  404e81:	c4 c1 7a 11 14 b1    	vmovss %xmm2,(%r9,%rsi,4)
  404e87:	c4 a1 7a 10 14 a9    	vmovss (%rcx,%r13,4),%xmm2
  404e8d:	46 8d 6c 1d 0b       	lea    0xb(%rbp,%r11,1),%r13d
  404e92:	c5 ea 5c 14 91       	vsubss (%rcx,%rdx,4),%xmm2,%xmm2
  404e97:	42 8d 54 1d 0c       	lea    0xc(%rbp,%r11,1),%edx
  404e9c:	c4 e2 71 a9 14 98    	vfmadd213ss (%rax,%rbx,4),%xmm1,%xmm2
  404ea2:	48 8b 44 24 d0       	mov    -0x30(%rsp),%rax
  404ea7:	c5 fa 11 14 98       	vmovss %xmm2,(%rax,%rbx,4)
  404eac:	48 8b 44 24 d0       	mov    -0x30(%rsp),%rax
  404eb1:	c5 fa 10 14 b1       	vmovss (%rcx,%rsi,4),%xmm2
  404eb6:	42 8d 74 1d 0a       	lea    0xa(%rbp,%r11,1),%esi
  404ebb:	48 89 fd             	mov    %rdi,%rbp
  404ebe:	4c 89 f7             	mov    %r14,%rdi
  404ec1:	c4 a1 6a 5c 14 a9    	vsubss (%rcx,%r13,4),%xmm2,%xmm2
  404ec7:	c4 c2 71 a9 14 99    	vfmadd213ss (%r9,%rbx,4),%xmm1,%xmm2
  404ecd:	c4 c1 7a 11 14 99    	vmovss %xmm2,(%r9,%rbx,4)
  404ed3:	c5 fa 10 14 b1       	vmovss (%rcx,%rsi,4),%xmm2
  404ed8:	43 8d 74 1e 0d       	lea    0xd(%r14,%r11,1),%esi
  404edd:	c5 ea 5c 14 91       	vsubss (%rcx,%rdx,4),%xmm2,%xmm2
  404ee2:	43 8d 54 1e 0e       	lea    0xe(%r14,%r11,1),%edx
  404ee7:	c4 a2 71 a9 14 a8    	vfmadd213ss (%rax,%r13,4),%xmm1,%xmm2
  404eed:	48 8b 44 24 d0       	mov    -0x30(%rsp),%rax
  404ef2:	c4 a1 7a 11 14 a8    	vmovss %xmm2,(%rax,%r13,4)
  404ef8:	48 8b 44 24 d0       	mov    -0x30(%rsp),%rax
  404efd:	c5 fa 10 14 99       	vmovss (%rcx,%rbx,4),%xmm2
  404f02:	43 8d 5c 1e 0c       	lea    0xc(%r14,%r11,1),%ebx
  404f07:	4d 89 c6             	mov    %r8,%r14
  404f0a:	4d 89 f8             	mov    %r15,%r8
  404f0d:	4c 8b 7c 24 a8       	mov    -0x58(%rsp),%r15
  404f12:	c5 ea 5c 14 b1       	vsubss (%rcx,%rsi,4),%xmm2,%xmm2
  404f17:	c4 82 71 a9 14 a9    	vfmadd213ss (%r9,%r13,4),%xmm1,%xmm2
  404f1d:	c4 81 7a 11 14 a9    	vmovss %xmm2,(%r9,%r13,4)
  404f23:	c5 fa 10 14 99       	vmovss (%rcx,%rbx,4),%xmm2
  404f28:	43 8d 5c 1f 0e       	lea    0xe(%r15,%r11,1),%ebx
  404f2d:	c5 ea 5c 14 91       	vsubss (%rcx,%rdx,4),%xmm2,%xmm2
  404f32:	43 8d 54 1f 0f       	lea    0xf(%r15,%r11,1),%edx
  404f37:	c4 e2 71 a9 14 b0    	vfmadd213ss (%rax,%rsi,4),%xmm1,%xmm2
  404f3d:	48 8b 44 24 d0       	mov    -0x30(%rsp),%rax
  404f42:	c5 fa 11 14 b0       	vmovss %xmm2,(%rax,%rsi,4)
  404f47:	48 8b 44 24 90       	mov    -0x70(%rsp),%rax
  404f4c:	c4 a1 7a 10 14 a9    	vmovss (%rcx,%r13,4),%xmm2
  404f52:	4c 8b 6c 24 d0       	mov    -0x30(%rsp),%r13
  404f57:	c5 ea 5c 14 91       	vsubss (%rcx,%rdx,4),%xmm2,%xmm2
  404f5c:	c4 c2 71 a9 14 b1    	vfmadd213ss (%r9,%rsi,4),%xmm1,%xmm2
  404f62:	c4 c1 7a 11 14 b1    	vmovss %xmm2,(%r9,%rsi,4)
  404f68:	c5 fa 10 14 99       	vmovss (%rcx,%rbx,4),%xmm2
  404f6d:	43 8d 5c 1f 10       	lea    0x10(%r15,%r11,1),%ebx
  404f72:	4d 89 c7             	mov    %r8,%r15
  404f75:	4d 89 f0             	mov    %r14,%r8
  404f78:	49 89 fe             	mov    %rdi,%r14
  404f7b:	48 89 ef             	mov    %rbp,%rdi
  404f7e:	4c 89 d5             	mov    %r10,%rbp
  404f81:	4c 8b 54 24 80       	mov    -0x80(%rsp),%r10
  404f86:	c5 ea 5c 14 99       	vsubss (%rcx,%rbx,4),%xmm2,%xmm2
  404f8b:	42 8d 5c 18 11       	lea    0x11(%rax,%r11,1),%ebx
  404f90:	c4 c2 71 a9 54 95 00 	vfmadd213ss 0x0(%r13,%rdx,4),%xmm1,%xmm2
  404f97:	c4 c1 7a 11 54 95 00 	vmovss %xmm2,0x0(%r13,%rdx,4)
  404f9e:	c5 fa 10 14 b1       	vmovss (%rcx,%rsi,4),%xmm2
  404fa3:	42 8d 74 18 10       	lea    0x10(%rax,%r11,1),%esi
  404fa8:	c5 ea 5c 14 99       	vsubss (%rcx,%rbx,4),%xmm2,%xmm2
  404fad:	c4 c2 71 a9 14 91    	vfmadd213ss (%r9,%rdx,4),%xmm1,%xmm2
  404fb3:	c4 c1 7a 11 14 91    	vmovss %xmm2,(%r9,%rdx,4)
  404fb9:	c5 fa 10 14 b1       	vmovss (%rcx,%rsi,4),%xmm2
  404fbe:	42 8d 74 18 12       	lea    0x12(%rax,%r11,1),%esi
  404fc3:	48 8b 44 24 88       	mov    -0x78(%rsp),%rax
  404fc8:	c5 ea 5c 14 b1       	vsubss (%rcx,%rsi,4),%xmm2,%xmm2
  404fcd:	48 8b 74 24 a0       	mov    -0x60(%rsp),%rsi
  404fd2:	c4 c2 71 a9 54 9d 00 	vfmadd213ss 0x0(%r13,%rbx,4),%xmm1,%xmm2
  404fd9:	c4 c1 7a 11 54 9d 00 	vmovss %xmm2,0x0(%r13,%rbx,4)
  404fe0:	c5 fa 10 14 91       	vmovss (%rcx,%rdx,4),%xmm2
  404fe5:	42 8d 14 18          	lea    (%rax,%r11,1),%edx
  404fe9:	8b 44 24 98          	mov    -0x68(%rsp),%eax
  404fed:	c5 ea 5c 14 91       	vsubss (%rcx,%rdx,4),%xmm2,%xmm2
  404ff2:	4a 8d 54 26 08       	lea    0x8(%rsi,%r12,1),%rdx
  404ff7:	49 83 c4 08          	add    $0x8,%r12
  404ffb:	c4 c2 71 a9 14 99    	vfmadd213ss (%r9,%rbx,4),%xmm1,%xmm2
  405001:	41 01 c3             	add    %eax,%r11d
  405004:	c4 c1 7a 11 14 99    	vmovss %xmm2,(%r9,%rbx,4)
  40500a:	48 83 fa 01          	cmp    $0x1,%rdx
  40500e:	0f 85 8c fd ff ff    	jne    404da0 <project+0x1c00>
  405014:	48 8b 54 24 c8       	mov    -0x38(%rsp),%rdx
  405019:	48 83 7c 24 08 00    	cmpq   $0x0,0x8(%rsp)
  40501f:	48 8b 74 24 c0       	mov    -0x40(%rsp),%rsi
  405024:	8b 7c 24 b8          	mov    -0x48(%rsp),%edi
  405028:	4c 89 e8             	mov    %r13,%rax
  40502b:	44 8d 42 01          	lea    0x1(%rdx),%r8d
  40502f:	0f 84 0b fd ff ff    	je     404d40 <project+0x1ba0>
  405035:	45 8d 5c 24 01       	lea    0x1(%r12),%r11d
  40503a:	41 8d 5c 24 ff       	lea    -0x1(%r12),%ebx
  40503f:	44 0f af e6          	imul   %esi,%r12d
  405043:	44 0f af de          	imul   %esi,%r11d
  405047:	0f af de             	imul   %esi,%ebx
  40504a:	41 01 fc             	add    %edi,%r12d
  40504d:	41 01 d3             	add    %edx,%r11d
  405050:	01 d3                	add    %edx,%ebx
  405052:	48 8b 54 24 30       	mov    0x30(%rsp),%rdx
  405057:	66 0f 1f 84 00 00 00 	nopw   0x0(%rax,%rax,1)
  40505e:	00 00 
  405060:	44 89 e5             	mov    %r12d,%ebp
  405063:	c5 fa 10 14 a9       	vmovss (%rcx,%rbp,4),%xmm2
  405068:	41 8d 74 24 02       	lea    0x2(%r12),%esi
  40506d:	45 8d 6c 24 01       	lea    0x1(%r12),%r13d
  405072:	89 dd                	mov    %ebx,%ebp
  405074:	c5 ea 5c 14 b1       	vsubss (%rcx,%rsi,4),%xmm2,%xmm2
  405079:	44 89 de             	mov    %r11d,%esi
  40507c:	c4 a2 71 a9 14 a8    	vfmadd213ss (%rax,%r13,4),%xmm1,%xmm2
  405082:	c4 a1 7a 11 14 a8    	vmovss %xmm2,(%rax,%r13,4)
  405088:	c5 fa 10 14 a9       	vmovss (%rcx,%rbp,4),%xmm2
  40508d:	c5 ea 5c 14 b1       	vsubss (%rcx,%rsi,4),%xmm2,%xmm2
  405092:	48 8b 74 24 c0       	mov    -0x40(%rsp),%rsi
  405097:	c4 82 71 a9 14 a9    	vfmadd213ss (%r9,%r13,4),%xmm1,%xmm2
  40509d:	41 01 f3             	add    %esi,%r11d
  4050a0:	01 f3                	add    %esi,%ebx
  4050a2:	41 01 f4             	add    %esi,%r12d
  4050a5:	48 ff c2             	inc    %rdx
  4050a8:	c4 81 7a 11 14 a9    	vmovss %xmm2,(%r9,%r13,4)
  4050ae:	75 b0                	jne    405060 <project+0x1ec0>
  4050b0:	e9 8b fc ff ff       	jmp    404d40 <project+0x1ba0>
  4050b5:	4c 8b 64 24 10       	mov    0x10(%rsp),%r12
  4050ba:	89 f0                	mov    %esi,%eax
  4050bc:	4c 8b 5c 24 18       	mov    0x18(%rsp),%r11
  4050c1:	0f af 44 24 80       	imul   -0x80(%rsp),%eax
  4050c6:	89 f3                	mov    %esi,%ebx
  4050c8:	41 be 01 00 00 00    	mov    $0x1,%r14d
  4050ce:	41 0f af dc          	imul   %r12d,%ebx
  4050d2:	4d 8d 7b ff          	lea    -0x1(%r11),%r15
  4050d6:	49 8d 4b fe          	lea    -0x2(%r11),%rcx
  4050da:	4c 89 7c 24 a0       	mov    %r15,-0x60(%rsp)
  4050df:	41 83 e7 07          	and    $0x7,%r15d
  4050e3:	48 89 44 24 b0       	mov    %rax,-0x50(%rsp)
  4050e8:	48 83 f9 07          	cmp    $0x7,%rcx
  4050ec:	0f 82 bd 03 00 00    	jb     4054af <project+0x230f>
  4050f2:	48 8b 44 24 80       	mov    -0x80(%rsp),%rax
  4050f7:	4c 8b 54 24 d8       	mov    -0x28(%rsp),%r10
  4050fc:	c4 e2 79 18 0d 1b 7f 	vbroadcastss 0x7f1b(%rip),%xmm1        # 40d020 <_IO_stdin_used+0x20>
  405103:	00 00 
  405105:	4c 89 7c 24 08       	mov    %r15,0x8(%rsp)
  40510a:	48 83 64 24 a0 f8    	andq   $0xfffffffffffffff8,-0x60(%rsp)
  405110:	44 8b 5c 24 b0       	mov    -0x50(%rsp),%r11d
  405115:	4c 8b 4c 24 f8       	mov    -0x8(%rsp),%r9
  40511a:	48 8b 7c 24 a8       	mov    -0x58(%rsp),%rdi
  40511f:	4c 8b 7c 24 e8       	mov    -0x18(%rsp),%r15
  405124:	48 89 5c 24 f0       	mov    %rbx,-0x10(%rsp)
  405129:	41 89 d8             	mov    %ebx,%r8d
  40512c:	45 31 f6             	xor    %r14d,%r14d
  40512f:	8d 0c c0             	lea    (%rax,%rax,8),%ecx
  405132:	8d 2c 40             	lea    (%rax,%rax,2),%ebp
  405135:	48 89 4c 24 88       	mov    %rcx,-0x78(%rsp)
  40513a:	8d 0c c5 10 00 00 00 	lea    0x10(,%rax,8),%ecx
  405141:	89 4c 24 98          	mov    %ecx,-0x68(%rsp)
  405145:	43 8d 0c 52          	lea    (%r10,%r10,2),%ecx
  405149:	48 89 4c 24 b8       	mov    %rcx,-0x48(%rsp)
  40514e:	8d 0c 80             	lea    (%rax,%rax,4),%ecx
  405151:	48 8b 44 24 90       	mov    -0x70(%rsp),%rax
  405156:	48 89 4c 24 c8       	mov    %rcx,-0x38(%rsp)
  40515b:	31 c9                	xor    %ecx,%ecx
  40515d:	0f 1f 00             	nopl   (%rax)
  405160:	48 8b 74 24 80       	mov    -0x80(%rsp),%rsi
  405165:	45 8d 64 0a 02       	lea    0x2(%r10,%rcx,1),%r12d
  40516a:	48 8b 5c 24 c8       	mov    -0x38(%rsp),%rbx
  40516f:	8d 54 0e 02          	lea    0x2(%rsi,%rcx,1),%edx
  405173:	8d 74 0e 03          	lea    0x3(%rsi,%rcx,1),%esi
  405177:	c4 c1 7a 10 54 b5 00 	vmovss 0x0(%r13,%rsi,4),%xmm2
  40517e:	41 8d 74 0a 03       	lea    0x3(%r10,%rcx,1),%esi
  405183:	c5 e8 57 d1          	vxorps %xmm1,%xmm2,%xmm2
  405187:	c4 c1 7a 11 54 95 00 	vmovss %xmm2,0x0(%r13,%rdx,4)
  40518e:	43 8d 54 31 03       	lea    0x3(%r9,%r14,1),%edx
  405193:	c4 81 7a 10 54 a5 00 	vmovss 0x0(%r13,%r12,4),%xmm2
  40519a:	45 8d 64 0a 05       	lea    0x5(%r10,%rcx,1),%r12d
  40519f:	c5 e8 57 d1          	vxorps %xmm1,%xmm2,%xmm2
  4051a3:	c4 c1 7a 11 54 b5 00 	vmovss %xmm2,0x0(%r13,%rsi,4)
  4051aa:	41 8d 74 0a 04       	lea    0x4(%r10,%rcx,1),%esi
  4051af:	c4 c1 7a 10 54 95 00 	vmovss 0x0(%r13,%rdx,4),%xmm2
  4051b6:	43 8d 54 33 01       	lea    0x1(%r11,%r14,1),%edx
  4051bb:	c4 81 7a 11 54 b5 04 	vmovss %xmm2,0x4(%r13,%r14,4)
  4051c2:	c4 c1 7a 10 54 95 00 	vmovss 0x0(%r13,%rdx,4),%xmm2
  4051c9:	43 8d 54 30 01       	lea    0x1(%r8,%r14,1),%edx
  4051ce:	c4 c1 7a 11 54 95 00 	vmovss %xmm2,0x0(%r13,%rdx,4)
  4051d5:	8d 54 0d 04          	lea    0x4(%rbp,%rcx,1),%edx
  4051d9:	c4 81 7a 10 54 a5 00 	vmovss 0x0(%r13,%r12,4),%xmm2
  4051e0:	44 8d 64 0d 05       	lea    0x5(%rbp,%rcx,1),%r12d
  4051e5:	c5 e8 57 d1          	vxorps %xmm1,%xmm2,%xmm2
  4051e9:	c4 c1 7a 11 54 b5 00 	vmovss %xmm2,0x0(%r13,%rsi,4)
  4051f0:	43 8d 74 31 04       	lea    0x4(%r9,%r14,1),%esi
  4051f5:	c4 c1 7a 10 54 95 00 	vmovss 0x0(%r13,%rdx,4),%xmm2
  4051fc:	43 8d 54 33 02       	lea    0x2(%r11,%r14,1),%edx
  405201:	c5 e8 57 d1          	vxorps %xmm1,%xmm2,%xmm2
  405205:	c4 81 7a 11 54 a5 00 	vmovss %xmm2,0x0(%r13,%r12,4)
  40520c:	44 8d 64 0d 07       	lea    0x7(%rbp,%rcx,1),%r12d
  405211:	c4 c1 7a 10 54 b5 00 	vmovss 0x0(%r13,%rsi,4),%xmm2
  405218:	8d 74 0d 06          	lea    0x6(%rbp,%rcx,1),%esi
  40521c:	c4 81 7a 11 54 b5 08 	vmovss %xmm2,0x8(%r13,%r14,4)
  405223:	c4 c1 7a 10 54 95 00 	vmovss 0x0(%r13,%rdx,4),%xmm2
  40522a:	43 8d 54 30 02       	lea    0x2(%r8,%r14,1),%edx
  40522f:	c4 c1 7a 11 54 95 00 	vmovss %xmm2,0x0(%r13,%rdx,4)
  405236:	41 8d 54 0f 06       	lea    0x6(%r15,%rcx,1),%edx
  40523b:	c4 81 7a 10 54 a5 00 	vmovss 0x0(%r13,%r12,4),%xmm2
  405242:	45 8d 64 0f 07       	lea    0x7(%r15,%rcx,1),%r12d
  405247:	c5 e8 57 d1          	vxorps %xmm1,%xmm2,%xmm2
  40524b:	c4 c1 7a 11 54 b5 00 	vmovss %xmm2,0x0(%r13,%rsi,4)
  405252:	43 8d 74 31 05       	lea    0x5(%r9,%r14,1),%esi
  405257:	c4 c1 7a 10 54 95 00 	vmovss 0x0(%r13,%rdx,4),%xmm2
  40525e:	43 8d 54 33 03       	lea    0x3(%r11,%r14,1),%edx
  405263:	c5 e8 57 d1          	vxorps %xmm1,%xmm2,%xmm2
  405267:	c4 81 7a 11 54 a5 00 	vmovss %xmm2,0x0(%r13,%r12,4)
  40526e:	45 8d 64 0f 09       	lea    0x9(%r15,%rcx,1),%r12d
  405273:	c4 c1 7a 10 54 b5 00 	vmovss 0x0(%r13,%rsi,4),%xmm2
  40527a:	41 8d 74 0f 08       	lea    0x8(%r15,%rcx,1),%esi
  40527f:	c4 81 7a 11 54 b5 0c 	vmovss %xmm2,0xc(%r13,%r14,4)
  405286:	c4 c1 7a 10 54 95 00 	vmovss 0x0(%r13,%rdx,4),%xmm2
  40528d:	43 8d 54 30 03       	lea    0x3(%r8,%r14,1),%edx
  405292:	c4 c1 7a 11 54 95 00 	vmovss %xmm2,0x0(%r13,%rdx,4)
  405299:	8d 54 0b 08          	lea    0x8(%rbx,%rcx,1),%edx
  40529d:	c4 81 7a 10 54 a5 00 	vmovss 0x0(%r13,%r12,4),%xmm2
  4052a4:	44 8d 64 0b 09       	lea    0x9(%rbx,%rcx,1),%r12d
  4052a9:	c5 e8 57 d1          	vxorps %xmm1,%xmm2,%xmm2
  4052ad:	c4 c1 7a 11 54 b5 00 	vmovss %xmm2,0x0(%r13,%rsi,4)
  4052b4:	43 8d 74 31 06       	lea    0x6(%r9,%r14,1),%esi
  4052b9:	c4 c1 7a 10 54 95 00 	vmovss 0x0(%r13,%rdx,4),%xmm2
  4052c0:	43 8d 54 33 04       	lea    0x4(%r11,%r14,1),%edx
  4052c5:	c5 e8 57 d1          	vxorps %xmm1,%xmm2,%xmm2
  4052c9:	c4 81 7a 11 54 a5 00 	vmovss %xmm2,0x0(%r13,%r12,4)
  4052d0:	44 8d 64 0b 0b       	lea    0xb(%rbx,%rcx,1),%r12d
  4052d5:	c4 c1 7a 10 54 b5 00 	vmovss 0x0(%r13,%rsi,4),%xmm2
  4052dc:	8d 74 0b 0a          	lea    0xa(%rbx,%rcx,1),%esi
  4052e0:	48 8b 5c 24 b8       	mov    -0x48(%rsp),%rbx
  4052e5:	c4 81 7a 11 54 b5 10 	vmovss %xmm2,0x10(%r13,%r14,4)
  4052ec:	c4 c1 7a 10 54 95 00 	vmovss 0x0(%r13,%rdx,4),%xmm2
  4052f3:	43 8d 54 30 04       	lea    0x4(%r8,%r14,1),%edx
  4052f8:	c4 c1 7a 11 54 95 00 	vmovss %xmm2,0x0(%r13,%rdx,4)
  4052ff:	8d 54 0b 0a          	lea    0xa(%rbx,%rcx,1),%edx
  405303:	c4 81 7a 10 54 a5 00 	vmovss 0x0(%r13,%r12,4),%xmm2
  40530a:	44 8d 64 0b 0b       	lea    0xb(%rbx,%rcx,1),%r12d
  40530f:	c5 e8 57 d1          	vxorps %xmm1,%xmm2,%xmm2
  405313:	c4 c1 7a 11 54 b5 00 	vmovss %xmm2,0x0(%r13,%rsi,4)
  40531a:	43 8d 74 31 07       	lea    0x7(%r9,%r14,1),%esi
  40531f:	c4 c1 7a 10 54 95 00 	vmovss 0x0(%r13,%rdx,4),%xmm2
  405326:	43 8d 54 33 05       	lea    0x5(%r11,%r14,1),%edx
  40532b:	c5 e8 57 d1          	vxorps %xmm1,%xmm2,%xmm2
  40532f:	c4 81 7a 11 54 a5 00 	vmovss %xmm2,0x0(%r13,%r12,4)
  405336:	44 8d 64 0b 0d       	lea    0xd(%rbx,%rcx,1),%r12d
  40533b:	c4 c1 7a 10 54 b5 00 	vmovss 0x0(%r13,%rsi,4),%xmm2
  405342:	8d 74 0b 0c          	lea    0xc(%rbx,%rcx,1),%esi
  405346:	c4 81 7a 11 54 b5 14 	vmovss %xmm2,0x14(%r13,%r14,4)
  40534d:	c4 c1 7a 10 54 95 00 	vmovss 0x0(%r13,%rdx,4),%xmm2
  405354:	43 8d 54 30 05       	lea    0x5(%r8,%r14,1),%edx
  405359:	c4 c1 7a 11 54 95 00 	vmovss %xmm2,0x0(%r13,%rdx,4)
  405360:	8d 54 0f 0c          	lea    0xc(%rdi,%rcx,1),%edx
  405364:	c4 81 7a 10 54 a5 00 	vmovss 0x0(%r13,%r12,4),%xmm2
  40536b:	44 8d 64 0f 0d       	lea    0xd(%rdi,%rcx,1),%r12d
  405370:	c5 e8 57 d1          	vxorps %xmm1,%xmm2,%xmm2
  405374:	c4 c1 7a 11 54 b5 00 	vmovss %xmm2,0x0(%r13,%rsi,4)
  40537b:	43 8d 74 31 08       	lea    0x8(%r9,%r14,1),%esi
  405380:	c4 c1 7a 10 54 95 00 	vmovss 0x0(%r13,%rdx,4),%xmm2
  405387:	43 8d 54 33 06       	lea    0x6(%r11,%r14,1),%edx
  40538c:	c5 e8 57 d1          	vxorps %xmm1,%xmm2,%xmm2
  405390:	c4 81 7a 11 54 a5 00 	vmovss %xmm2,0x0(%r13,%r12,4)
  405397:	44 8d 64 0f 0f       	lea    0xf(%rdi,%rcx,1),%r12d
  40539c:	c4 c1 7a 10 54 b5 00 	vmovss 0x0(%r13,%rsi,4),%xmm2
  4053a3:	8d 74 0f 0e          	lea    0xe(%rdi,%rcx,1),%esi
  4053a7:	c4 81 7a 11 54 b5 18 	vmovss %xmm2,0x18(%r13,%r14,4)
  4053ae:	c4 c1 7a 10 54 95 00 	vmovss 0x0(%r13,%rdx,4),%xmm2
  4053b5:	43 8d 54 30 06       	lea    0x6(%r8,%r14,1),%edx
  4053ba:	c4 c1 7a 11 54 95 00 	vmovss %xmm2,0x0(%r13,%rdx,4)
  4053c1:	8d 54 08 0e          	lea    0xe(%rax,%rcx,1),%edx
  4053c5:	c4 81 7a 10 54 a5 00 	vmovss 0x0(%r13,%r12,4),%xmm2
  4053cc:	44 8d 64 08 0f       	lea    0xf(%rax,%rcx,1),%r12d
  4053d1:	c5 e8 57 d1          	vxorps %xmm1,%xmm2,%xmm2
  4053d5:	c4 c1 7a 11 54 b5 00 	vmovss %xmm2,0x0(%r13,%rsi,4)
  4053dc:	43 8d 74 31 09       	lea    0x9(%r9,%r14,1),%esi
  4053e1:	c4 c1 7a 10 54 95 00 	vmovss 0x0(%r13,%rdx,4),%xmm2
  4053e8:	43 8d 54 33 07       	lea    0x7(%r11,%r14,1),%edx
  4053ed:	c5 e8 57 d1          	vxorps %xmm1,%xmm2,%xmm2
  4053f1:	c4 81 7a 11 54 a5 00 	vmovss %xmm2,0x0(%r13,%r12,4)
  4053f8:	44 8d 64 08 11       	lea    0x11(%rax,%rcx,1),%r12d
  4053fd:	c4 c1 7a 10 54 b5 00 	vmovss 0x0(%r13,%rsi,4),%xmm2
  405404:	8d 74 08 10          	lea    0x10(%rax,%rcx,1),%esi
  405408:	c4 81 7a 11 54 b5 1c 	vmovss %xmm2,0x1c(%r13,%r14,4)
  40540f:	c4 c1 7a 10 54 95 00 	vmovss 0x0(%r13,%rdx,4),%xmm2
  405416:	43 8d 54 30 07       	lea    0x7(%r8,%r14,1),%edx
  40541b:	c4 c1 7a 11 54 95 00 	vmovss %xmm2,0x0(%r13,%rdx,4)
  405422:	c4 81 7a 10 54 a5 00 	vmovss 0x0(%r13,%r12,4),%xmm2
  405429:	4c 8b 64 24 88       	mov    -0x78(%rsp),%r12
  40542e:	41 8d 54 0c 10       	lea    0x10(%r12,%rcx,1),%edx
  405433:	c5 e8 57 d1          	vxorps %xmm1,%xmm2,%xmm2
  405437:	c4 c1 7a 11 54 b5 00 	vmovss %xmm2,0x0(%r13,%rsi,4)
  40543e:	41 8d 74 0c 11       	lea    0x11(%r12,%rcx,1),%esi
  405443:	03 4c 24 98          	add    -0x68(%rsp),%ecx
  405447:	c4 c1 7a 10 54 95 00 	vmovss 0x0(%r13,%rdx,4),%xmm2
  40544e:	43 8d 54 31 0a       	lea    0xa(%r9,%r14,1),%edx
  405453:	c5 e8 57 d1          	vxorps %xmm1,%xmm2,%xmm2
  405457:	c4 c1 7a 11 54 b5 00 	vmovss %xmm2,0x0(%r13,%rsi,4)
  40545e:	c4 c1 7a 10 54 95 00 	vmovss 0x0(%r13,%rdx,4),%xmm2
  405465:	43 8d 54 33 08       	lea    0x8(%r11,%r14,1),%edx
  40546a:	c4 81 7a 11 54 b5 20 	vmovss %xmm2,0x20(%r13,%r14,4)
  405471:	c4 c1 7a 10 54 95 00 	vmovss 0x0(%r13,%rdx,4),%xmm2
  405478:	43 8d 54 30 08       	lea    0x8(%r8,%r14,1),%edx
  40547d:	49 83 c6 08          	add    $0x8,%r14
  405481:	c4 c1 7a 11 54 95 00 	vmovss %xmm2,0x0(%r13,%rdx,4)
  405488:	4c 39 74 24 a0       	cmp    %r14,-0x60(%rsp)
  40548d:	0f 85 cd fc ff ff    	jne    405160 <project+0x1fc0>
  405493:	4c 8b 64 24 10       	mov    0x10(%rsp),%r12
  405498:	48 8b 74 24 c0       	mov    -0x40(%rsp),%rsi
  40549d:	4c 8b 5c 24 18       	mov    0x18(%rsp),%r11
  4054a2:	48 8b 5c 24 f0       	mov    -0x10(%rsp),%rbx
  4054a7:	4c 8b 7c 24 08       	mov    0x8(%rsp),%r15
  4054ac:	49 ff c6             	inc    %r14
  4054af:	4d 85 ff             	test   %r15,%r15
  4054b2:	0f 84 9f 00 00 00    	je     405557 <project+0x23b7>
  4054b8:	48 8b 54 24 b0       	mov    -0x50(%rsp),%rdx
  4054bd:	4c 8b 4c 24 80       	mov    -0x80(%rsp),%r9
  4054c2:	c4 e2 79 18 0d 55 7b 	vbroadcastss 0x7b55(%rip),%xmm1        # 40d020 <_IO_stdin_used+0x20>
  4054c9:	00 00 
  4054cb:	4b 8d 44 b5 00       	lea    0x0(%r13,%r14,4),%rax
  4054d0:	42 8d 0c 33          	lea    (%rbx,%r14,1),%ecx
  4054d4:	45 31 d2             	xor    %r10d,%r10d
  4054d7:	42 8d 3c 32          	lea    (%rdx,%r14,1),%edi
  4054db:	47 8d 44 31 02       	lea    0x2(%r9,%r14,1),%r8d
  4054e0:	44 0f af f6          	imul   %esi,%r14d
  4054e4:	45 01 f1             	add    %r14d,%r9d
  4054e7:	66 0f 1f 84 00 00 00 	nopw   0x0(%rax,%rax,1)
  4054ee:	00 00 
  4054f0:	41 8d 56 01          	lea    0x1(%r14),%edx
  4054f4:	c4 c1 7a 10 54 95 00 	vmovss 0x0(%r13,%rdx,4),%xmm2
  4054fb:	44 89 f2             	mov    %r14d,%edx
  4054fe:	41 01 f6             	add    %esi,%r14d
  405501:	c5 e8 57 d1          	vxorps %xmm1,%xmm2,%xmm2
  405505:	c4 c1 7a 11 54 95 00 	vmovss %xmm2,0x0(%r13,%rdx,4)
  40550c:	44 89 ca             	mov    %r9d,%edx
  40550f:	c4 c1 7a 10 54 95 00 	vmovss 0x0(%r13,%rdx,4),%xmm2
  405516:	41 8d 51 01          	lea    0x1(%r9),%edx
  40551a:	41 01 f1             	add    %esi,%r9d
  40551d:	c5 e8 57 d1          	vxorps %xmm1,%xmm2,%xmm2
  405521:	c4 c1 7a 11 54 95 00 	vmovss %xmm2,0x0(%r13,%rdx,4)
  405528:	43 8d 14 10          	lea    (%r8,%r10,1),%edx
  40552c:	c4 c1 7a 10 54 95 00 	vmovss 0x0(%r13,%rdx,4),%xmm2
  405533:	42 8d 14 17          	lea    (%rdi,%r10,1),%edx
  405537:	c4 a1 7a 11 14 90    	vmovss %xmm2,(%rax,%r10,4)
  40553d:	c4 c1 7a 10 54 95 00 	vmovss 0x0(%r13,%rdx,4),%xmm2
  405544:	42 8d 14 11          	lea    (%rcx,%r10,1),%edx
  405548:	49 ff c2             	inc    %r10
  40554b:	c4 c1 7a 11 54 95 00 	vmovss %xmm2,0x0(%r13,%rdx,4)
  405552:	4d 39 d7             	cmp    %r10,%r15
  405555:	75 99                	jne    4054f0 <project+0x2350>
  405557:	4c 8b 4c 24 80       	mov    -0x80(%rsp),%r9
  40555c:	4c 8b 7c 24 f8       	mov    -0x8(%rsp),%r15
  405561:	48 8b 7c 24 b0       	mov    -0x50(%rsp),%rdi
  405566:	41 be 02 00 00 00    	mov    $0x2,%r14d
  40556c:	31 ed                	xor    %ebp,%ebp
  40556e:	42 8d 04 0b          	lea    (%rbx,%r9,1),%eax
  405572:	4c 8b 44 24 48       	mov    0x48(%rsp),%r8
  405577:	42 8d 14 27          	lea    (%rdi,%r12,1),%edx
  40557b:	8d 4b 01             	lea    0x1(%rbx),%ecx
  40557e:	89 ff                	mov    %edi,%edi
  405580:	42 8d 34 23          	lea    (%rbx,%r12,1),%esi
  405584:	c4 81 7a 10 4c 85 00 	vmovss 0x0(%r13,%r8,4),%xmm1
  40558b:	c4 c1 72 58 4d 04    	vaddss 0x4(%r13),%xmm1,%xmm1
  405591:	c5 f2 59 c8          	vmulss %xmm0,%xmm1,%xmm1
  405595:	c4 c1 7a 11 4d 00    	vmovss %xmm1,0x0(%r13)
  40559b:	c4 c1 7a 10 4c bd 00 	vmovss 0x0(%r13,%rdi,4),%xmm1
  4055a2:	c4 c1 72 58 4c 8d 00 	vaddss 0x0(%r13,%rcx,4),%xmm1,%xmm1
  4055a9:	89 d9                	mov    %ebx,%ecx
  4055ab:	c5 f2 59 c8          	vmulss %xmm0,%xmm1,%xmm1
  4055af:	c4 c1 7a 11 4c 8d 00 	vmovss %xmm1,0x0(%r13,%rcx,4)
  4055b6:	48 8b 4c 24 50       	mov    0x50(%rsp),%rcx
  4055bb:	c4 c1 7a 10 4c 8d 00 	vmovss 0x0(%r13,%rcx,4),%xmm1
  4055c2:	c4 81 72 58 4c bd 00 	vaddss 0x0(%r13,%r15,4),%xmm1,%xmm1
  4055c9:	4c 8b 7c 24 e0       	mov    -0x20(%rsp),%r15
  4055ce:	c5 f2 59 c8          	vmulss %xmm0,%xmm1,%xmm1
  4055d2:	c4 81 7a 11 4c 9d 00 	vmovss %xmm1,0x0(%r13,%r11,4)
  4055d9:	c4 c1 7a 10 4c 95 00 	vmovss 0x0(%r13,%rdx,4),%xmm1
  4055e0:	c4 c1 72 58 4c 85 00 	vaddss 0x0(%r13,%rax,4),%xmm1,%xmm1
  4055e7:	4c 89 c0             	mov    %r8,%rax
  4055ea:	c5 f2 59 c8          	vmulss %xmm0,%xmm1,%xmm1
  4055ee:	c4 c1 7a 11 4c b5 00 	vmovss %xmm1,0x0(%r13,%rsi,4)
  4055f5:	45 85 c9             	test   %r9d,%r9d
  4055f8:	0f 84 1c 04 00 00    	je     405a1a <project+0x287a>
  4055fe:	48 8b 44 24 c0       	mov    -0x40(%rsp),%rax
  405603:	ba 02 00 00 00       	mov    $0x2,%edx
  405608:	b9 01 00 00 00       	mov    $0x1,%ecx
  40560d:	89 c5                	mov    %eax,%ebp
  40560f:	41 89 c6             	mov    %eax,%r14d
  405612:	41 0f af e9          	imul   %r9d,%ebp
  405616:	45 0f af f4          	imul   %r12d,%r14d
  40561a:	41 83 fc 03          	cmp    $0x3,%r12d
  40561e:	41 0f 43 d4          	cmovae %r12d,%edx
  405622:	4c 8d 6a ff          	lea    -0x1(%rdx),%r13
  405626:	48 83 c2 fe          	add    $0xfffffffffffffffe,%rdx
  40562a:	4c 89 6c 24 90       	mov    %r13,-0x70(%rsp)
  40562f:	41 83 e5 07          	and    $0x7,%r13d
  405633:	48 83 fa 07          	cmp    $0x7,%rdx
  405637:	0f 82 3b 03 00 00    	jb     405978 <project+0x27d8>
  40563d:	48 8b 4c 24 80       	mov    -0x80(%rsp),%rcx
  405642:	c4 e2 79 18 0d d5 79 	vbroadcastss 0x79d5(%rip),%xmm1        # 40d020 <_IO_stdin_used+0x20>
  405649:	00 00 
  40564b:	48 83 64 24 90 f8    	andq   $0xfffffffffffffff8,-0x70(%rsp)
  405651:	48 8b 74 24 f8       	mov    -0x8(%rsp),%rsi
  405656:	4c 89 74 24 a0       	mov    %r14,-0x60(%rsp)
  40565b:	44 89 f7             	mov    %r14d,%edi
  40565e:	4c 89 6c 24 98       	mov    %r13,-0x68(%rsp)
  405663:	48 89 6c 24 88       	mov    %rbp,-0x78(%rsp)
  405668:	41 89 e8             	mov    %ebp,%r8d
  40566b:	45 31 db             	xor    %r11d,%r11d
  40566e:	8d 04 c9             	lea    (%rcx,%rcx,8),%eax
  405671:	44 8d 14 cd 00 00 00 	lea    0x0(,%rcx,8),%r10d
  405678:	00 
  405679:	44 8d 34 09          	lea    (%rcx,%rcx,1),%r14d
  40567d:	8d 14 cd 10 00 00 00 	lea    0x10(,%rcx,8),%edx
  405684:	44 8d 24 89          	lea    (%rcx,%rcx,4),%r12d
  405688:	44 8d 2c 8d 00 00 00 	lea    0x0(,%rcx,4),%r13d
  40568f:	00 
  405690:	8d 2c 49             	lea    (%rcx,%rcx,2),%ebp
  405693:	48 89 44 24 d0       	mov    %rax,-0x30(%rsp)
  405698:	4c 89 f8             	mov    %r15,%rax
  40569b:	47 8d 3c 76          	lea    (%r14,%r14,2),%r15d
  40569f:	44 89 d3             	mov    %r10d,%ebx
  4056a2:	29 cb                	sub    %ecx,%ebx
  4056a4:	31 c9                	xor    %ecx,%ecx
  4056a6:	89 54 24 a8          	mov    %edx,-0x58(%rsp)
  4056aa:	66 0f 1f 44 00 00    	nopw   0x0(%rax,%rax,1)
  4056b0:	4c 8b 4c 24 80       	mov    -0x80(%rsp),%r9
  4056b5:	43 8d 54 19 03       	lea    0x3(%r9,%r11,1),%edx
  4056ba:	c5 fa 10 14 90       	vmovss (%rax,%rdx,4),%xmm2
  4056bf:	43 8d 54 19 02       	lea    0x2(%r9,%r11,1),%edx
  4056c4:	4c 8b 4c 24 d0       	mov    -0x30(%rsp),%r9
  4056c9:	c5 fa 11 14 90       	vmovss %xmm2,(%rax,%rdx,4)
  4056ce:	43 8d 54 1e 02       	lea    0x2(%r14,%r11,1),%edx
  4056d3:	c5 fa 10 14 90       	vmovss (%rax,%rdx,4),%xmm2
  4056d8:	43 8d 54 1e 03       	lea    0x3(%r14,%r11,1),%edx
  4056dd:	c5 fa 11 14 90       	vmovss %xmm2,(%rax,%rdx,4)
  4056e2:	8d 54 0e 03          	lea    0x3(%rsi,%rcx,1),%edx
  4056e6:	c5 fa 10 14 90       	vmovss (%rax,%rdx,4),%xmm2
  4056eb:	41 8d 54 08 01       	lea    0x1(%r8,%rcx,1),%edx
  4056f0:	c5 e8 57 d1          	vxorps %xmm1,%xmm2,%xmm2
  4056f4:	c5 fa 11 54 88 04    	vmovss %xmm2,0x4(%rax,%rcx,4)
  4056fa:	c5 fa 10 14 90       	vmovss (%rax,%rdx,4),%xmm2
  4056ff:	8d 54 0f 01          	lea    0x1(%rdi,%rcx,1),%edx
  405703:	c5 e8 57 d1          	vxorps %xmm1,%xmm2,%xmm2
  405707:	c5 fa 11 14 90       	vmovss %xmm2,(%rax,%rdx,4)
  40570c:	43 8d 54 1e 05       	lea    0x5(%r14,%r11,1),%edx
  405711:	c5 fa 10 14 90       	vmovss (%rax,%rdx,4),%xmm2
  405716:	43 8d 54 1e 04       	lea    0x4(%r14,%r11,1),%edx
  40571b:	c5 fa 11 14 90       	vmovss %xmm2,(%rax,%rdx,4)
  405720:	42 8d 54 1d 04       	lea    0x4(%rbp,%r11,1),%edx
  405725:	c5 fa 10 14 90       	vmovss (%rax,%rdx,4),%xmm2
  40572a:	42 8d 54 1d 05       	lea    0x5(%rbp,%r11,1),%edx
  40572f:	c5 fa 11 14 90       	vmovss %xmm2,(%rax,%rdx,4)
  405734:	8d 54 0e 04          	lea    0x4(%rsi,%rcx,1),%edx
  405738:	c5 fa 10 14 90       	vmovss (%rax,%rdx,4),%xmm2
  40573d:	41 8d 54 08 02       	lea    0x2(%r8,%rcx,1),%edx
  405742:	c5 e8 57 d1          	vxorps %xmm1,%xmm2,%xmm2
  405746:	c5 fa 11 54 88 08    	vmovss %xmm2,0x8(%rax,%rcx,4)
  40574c:	c5 fa 10 14 90       	vmovss (%rax,%rdx,4),%xmm2
  405751:	8d 54 0f 02          	lea    0x2(%rdi,%rcx,1),%edx
  405755:	c5 e8 57 d1          	vxorps %xmm1,%xmm2,%xmm2
  405759:	c5 fa 11 14 90       	vmovss %xmm2,(%rax,%rdx,4)
  40575e:	42 8d 54 1d 07       	lea    0x7(%rbp,%r11,1),%edx
  405763:	c5 fa 10 14 90       	vmovss (%rax,%rdx,4),%xmm2
  405768:	42 8d 54 1d 06       	lea    0x6(%rbp,%r11,1),%edx
  40576d:	c5 fa 11 14 90       	vmovss %xmm2,(%rax,%rdx,4)
  405772:	43 8d 54 1d 06       	lea    0x6(%r13,%r11,1),%edx
  405777:	c5 fa 10 14 90       	vmovss (%rax,%rdx,4),%xmm2
  40577c:	43 8d 54 1d 07       	lea    0x7(%r13,%r11,1),%edx
  405781:	c5 fa 11 14 90       	vmovss %xmm2,(%rax,%rdx,4)
  405786:	8d 54 0e 05          	lea    0x5(%rsi,%rcx,1),%edx
  40578a:	c5 fa 10 14 90       	vmovss (%rax,%rdx,4),%xmm2
  40578f:	41 8d 54 08 03       	lea    0x3(%r8,%rcx,1),%edx
  405794:	c5 e8 57 d1          	vxorps %xmm1,%xmm2,%xmm2
  405798:	c5 fa 11 54 88 0c    	vmovss %xmm2,0xc(%rax,%rcx,4)
  40579e:	c5 fa 10 14 90       	vmovss (%rax,%rdx,4),%xmm2
  4057a3:	8d 54 0f 03          	lea    0x3(%rdi,%rcx,1),%edx
  4057a7:	c5 e8 57 d1          	vxorps %xmm1,%xmm2,%xmm2
  4057ab:	c5 fa 11 14 90       	vmovss %xmm2,(%rax,%rdx,4)
  4057b0:	43 8d 54 1d 09       	lea    0x9(%r13,%r11,1),%edx
  4057b5:	c5 fa 10 14 90       	vmovss (%rax,%rdx,4),%xmm2
  4057ba:	43 8d 54 1d 08       	lea    0x8(%r13,%r11,1),%edx
  4057bf:	c5 fa 11 14 90       	vmovss %xmm2,(%rax,%rdx,4)
  4057c4:	43 8d 54 1c 08       	lea    0x8(%r12,%r11,1),%edx
  4057c9:	c5 fa 10 14 90       	vmovss (%rax,%rdx,4),%xmm2
  4057ce:	43 8d 54 1c 09       	lea    0x9(%r12,%r11,1),%edx
  4057d3:	c5 fa 11 14 90       	vmovss %xmm2,(%rax,%rdx,4)
  4057d8:	8d 54 0e 06          	lea    0x6(%rsi,%rcx,1),%edx
  4057dc:	c5 fa 10 14 90       	vmovss (%rax,%rdx,4),%xmm2
  4057e1:	41 8d 54 08 04       	lea    0x4(%r8,%rcx,1),%edx
  4057e6:	c5 e8 57 d1          	vxorps %xmm1,%xmm2,%xmm2
  4057ea:	c5 fa 11 54 88 10    	vmovss %xmm2,0x10(%rax,%rcx,4)
  4057f0:	c5 fa 10 14 90       	vmovss (%rax,%rdx,4),%xmm2
  4057f5:	8d 54 0f 04          	lea    0x4(%rdi,%rcx,1),%edx
  4057f9:	c5 e8 57 d1          	vxorps %xmm1,%xmm2,%xmm2
  4057fd:	c5 fa 11 14 90       	vmovss %xmm2,(%rax,%rdx,4)
  405802:	43 8d 54 1c 0b       	lea    0xb(%r12,%r11,1),%edx
  405807:	c5 fa 10 14 90       	vmovss (%rax,%rdx,4),%xmm2
  40580c:	43 8d 54 1c 0a       	lea    0xa(%r12,%r11,1),%edx
  405811:	c5 fa 11 14 90       	vmovss %xmm2,(%rax,%rdx,4)
  405816:	43 8d 54 1f 0a       	lea    0xa(%r15,%r11,1),%edx
  40581b:	c5 fa 10 14 90       	vmovss (%rax,%rdx,4),%xmm2
  405820:	43 8d 54 1f 0b       	lea    0xb(%r15,%r11,1),%edx
  405825:	c5 fa 11 14 90       	vmovss %xmm2,(%rax,%rdx,4)
  40582a:	8d 54 0e 07          	lea    0x7(%rsi,%rcx,1),%edx
  40582e:	c5 fa 10 14 90       	vmovss (%rax,%rdx,4),%xmm2
  405833:	41 8d 54 08 05       	lea    0x5(%r8,%rcx,1),%edx
  405838:	c5 e8 57 d1          	vxorps %xmm1,%xmm2,%xmm2
  40583c:	c5 fa 11 54 88 14    	vmovss %xmm2,0x14(%rax,%rcx,4)
  405842:	c5 fa 10 14 90       	vmovss (%rax,%rdx,4),%xmm2
  405847:	8d 54 0f 05          	lea    0x5(%rdi,%rcx,1),%edx
  40584b:	c5 e8 57 d1          	vxorps %xmm1,%xmm2,%xmm2
  40584f:	c5 fa 11 14 90       	vmovss %xmm2,(%rax,%rdx,4)
  405854:	43 8d 54 1f 0d       	lea    0xd(%r15,%r11,1),%edx
  405859:	c5 fa 10 14 90       	vmovss (%rax,%rdx,4),%xmm2
  40585e:	43 8d 54 1f 0c       	lea    0xc(%r15,%r11,1),%edx
  405863:	c5 fa 11 14 90       	vmovss %xmm2,(%rax,%rdx,4)
  405868:	42 8d 54 1b 0c       	lea    0xc(%rbx,%r11,1),%edx
  40586d:	c5 fa 10 14 90       	vmovss (%rax,%rdx,4),%xmm2
  405872:	42 8d 54 1b 0d       	lea    0xd(%rbx,%r11,1),%edx
  405877:	c5 fa 11 14 90       	vmovss %xmm2,(%rax,%rdx,4)
  40587c:	8d 54 0e 08          	lea    0x8(%rsi,%rcx,1),%edx
  405880:	c5 fa 10 14 90       	vmovss (%rax,%rdx,4),%xmm2
  405885:	41 8d 54 08 06       	lea    0x6(%r8,%rcx,1),%edx
  40588a:	c5 e8 57 d1          	vxorps %xmm1,%xmm2,%xmm2
  40588e:	c5 fa 11 54 88 18    	vmovss %xmm2,0x18(%rax,%rcx,4)
  405894:	c5 fa 10 14 90       	vmovss (%rax,%rdx,4),%xmm2
  405899:	8d 54 0f 06          	lea    0x6(%rdi,%rcx,1),%edx
  40589d:	c5 e8 57 d1          	vxorps %xmm1,%xmm2,%xmm2
  4058a1:	c5 fa 11 14 90       	vmovss %xmm2,(%rax,%rdx,4)
  4058a6:	42 8d 54 1b 0f       	lea    0xf(%rbx,%r11,1),%edx
  4058ab:	c5 fa 10 14 90       	vmovss (%rax,%rdx,4),%xmm2
  4058b0:	42 8d 54 1b 0e       	lea    0xe(%rbx,%r11,1),%edx
  4058b5:	c5 fa 11 14 90       	vmovss %xmm2,(%rax,%rdx,4)
  4058ba:	43 8d 54 1a 0e       	lea    0xe(%r10,%r11,1),%edx
  4058bf:	c5 fa 10 14 90       	vmovss (%rax,%rdx,4),%xmm2
  4058c4:	43 8d 54 1a 0f       	lea    0xf(%r10,%r11,1),%edx
  4058c9:	c5 fa 11 14 90       	vmovss %xmm2,(%rax,%rdx,4)
  4058ce:	8d 54 0e 09          	lea    0x9(%rsi,%rcx,1),%edx
  4058d2:	c5 fa 10 14 90       	vmovss (%rax,%rdx,4),%xmm2
  4058d7:	41 8d 54 08 07       	lea    0x7(%r8,%rcx,1),%edx
  4058dc:	c5 e8 57 d1          	vxorps %xmm1,%xmm2,%xmm2
  4058e0:	c5 fa 11 54 88 1c    	vmovss %xmm2,0x1c(%rax,%rcx,4)
  4058e6:	c5 fa 10 14 90       	vmovss (%rax,%rdx,4),%xmm2
  4058eb:	8d 54 0f 07          	lea    0x7(%rdi,%rcx,1),%edx
  4058ef:	c5 e8 57 d1          	vxorps %xmm1,%xmm2,%xmm2
  4058f3:	c5 fa 11 14 90       	vmovss %xmm2,(%rax,%rdx,4)
  4058f8:	43 8d 54 1a 11       	lea    0x11(%r10,%r11,1),%edx
  4058fd:	c5 fa 10 14 90       	vmovss (%rax,%rdx,4),%xmm2
  405902:	43 8d 54 1a 10       	lea    0x10(%r10,%r11,1),%edx
  405907:	c5 fa 11 14 90       	vmovss %xmm2,(%rax,%rdx,4)
  40590c:	43 8d 54 19 10       	lea    0x10(%r9,%r11,1),%edx
  405911:	c5 fa 10 14 90       	vmovss (%rax,%rdx,4),%xmm2
  405916:	43 8d 54 19 11       	lea    0x11(%r9,%r11,1),%edx
  40591b:	44 03 5c 24 a8       	add    -0x58(%rsp),%r11d
  405920:	c5 fa 11 14 90       	vmovss %xmm2,(%rax,%rdx,4)
  405925:	8d 54 0e 0a          	lea    0xa(%rsi,%rcx,1),%edx
  405929:	c5 fa 10 14 90       	vmovss (%rax,%rdx,4),%xmm2
  40592e:	41 8d 54 08 08       	lea    0x8(%r8,%rcx,1),%edx
  405933:	c5 e8 57 d1          	vxorps %xmm1,%xmm2,%xmm2
  405937:	c5 fa 11 54 88 20    	vmovss %xmm2,0x20(%rax,%rcx,4)
  40593d:	c5 fa 10 14 90       	vmovss (%rax,%rdx,4),%xmm2
  405942:	8d 54 0f 08          	lea    0x8(%rdi,%rcx,1),%edx
  405946:	48 83 c1 08          	add    $0x8,%rcx
  40594a:	c5 e8 57 d1          	vxorps %xmm1,%xmm2,%xmm2
  40594e:	c5 fa 11 14 90       	vmovss %xmm2,(%rax,%rdx,4)
  405953:	48 39 4c 24 90       	cmp    %rcx,-0x70(%rsp)
  405958:	0f 85 52 fd ff ff    	jne    4056b0 <project+0x2510>
  40595e:	4c 8b 64 24 10       	mov    0x10(%rsp),%r12
  405963:	4c 8b 74 24 a0       	mov    -0x60(%rsp),%r14
  405968:	48 8b 6c 24 88       	mov    -0x78(%rsp),%rbp
  40596d:	4c 8b 6c 24 98       	mov    -0x68(%rsp),%r13
  405972:	48 ff c1             	inc    %rcx
  405975:	49 89 c7             	mov    %rax,%r15
  405978:	48 8b 5c 24 c0       	mov    -0x40(%rsp),%rbx
  40597d:	4d 85 ed             	test   %r13,%r13
  405980:	0f 84 87 00 00 00    	je     405a0d <project+0x286d>
  405986:	48 8b 44 24 80       	mov    -0x80(%rsp),%rax
  40598b:	c4 e2 79 18 0d 8c 76 	vbroadcastss 0x768c(%rip),%xmm1        # 40d020 <_IO_stdin_used+0x20>
  405992:	00 00 
  405994:	49 8d 34 8f          	lea    (%r15,%rcx,4),%rsi
  405998:	41 8d 3c 0e          	lea    (%r14,%rcx,1),%edi
  40599c:	44 8d 44 0d 00       	lea    0x0(%rbp,%rcx,1),%r8d
  4059a1:	45 31 db             	xor    %r11d,%r11d
  4059a4:	44 8d 4c 08 02       	lea    0x2(%rax,%rcx,1),%r9d
  4059a9:	0f af cb             	imul   %ebx,%ecx
  4059ac:	44 8d 14 08          	lea    (%rax,%rcx,1),%r10d
  4059b0:	8d 51 01             	lea    0x1(%rcx),%edx
  4059b3:	c4 c1 7a 10 14 97    	vmovss (%r15,%rdx,4),%xmm2
  4059b9:	89 ca                	mov    %ecx,%edx
  4059bb:	01 d9                	add    %ebx,%ecx
  4059bd:	c4 c1 7a 11 14 97    	vmovss %xmm2,(%r15,%rdx,4)
  4059c3:	44 89 d2             	mov    %r10d,%edx
  4059c6:	c4 c1 7a 10 14 97    	vmovss (%r15,%rdx,4),%xmm2
  4059cc:	41 8d 52 01          	lea    0x1(%r10),%edx
  4059d0:	41 01 da             	add    %ebx,%r10d
  4059d3:	c4 c1 7a 11 14 97    	vmovss %xmm2,(%r15,%rdx,4)
  4059d9:	43 8d 14 19          	lea    (%r9,%r11,1),%edx
  4059dd:	c4 c1 7a 10 14 97    	vmovss (%r15,%rdx,4),%xmm2
  4059e3:	43 8d 14 18          	lea    (%r8,%r11,1),%edx
  4059e7:	c5 e8 57 d1          	vxorps %xmm1,%xmm2,%xmm2
  4059eb:	c4 a1 7a 11 14 9e    	vmovss %xmm2,(%rsi,%r11,4)
  4059f1:	c4 c1 7a 10 14 97    	vmovss (%r15,%rdx,4),%xmm2
  4059f7:	42 8d 14 1f          	lea    (%rdi,%r11,1),%edx
  4059fb:	49 ff c3             	inc    %r11
  4059fe:	c5 e8 57 d1          	vxorps %xmm1,%xmm2,%xmm2
  405a02:	c4 c1 7a 11 14 97    	vmovss %xmm2,(%r15,%rdx,4)
  405a08:	4d 39 dd             	cmp    %r11,%r13
  405a0b:	75 a3                	jne    4059b0 <project+0x2810>
  405a0d:	48 8b 44 24 80       	mov    -0x80(%rsp),%rax
  405a12:	4c 8b 5c 24 18       	mov    0x18(%rsp),%r11
  405a17:	44 01 f0             	add    %r14d,%eax
  405a1a:	48 8b 4c 24 48       	mov    0x48(%rsp),%rcx
  405a1f:	89 ea                	mov    %ebp,%edx
  405a21:	44 01 e5             	add    %r12d,%ebp
  405a24:	c4 c1 7a 10 0c 8f    	vmovss (%r15,%rcx,4),%xmm1
  405a2a:	41 8d 4e 01          	lea    0x1(%r14),%ecx
  405a2e:	c4 c1 72 58 4f 04    	vaddss 0x4(%r15),%xmm1,%xmm1
  405a34:	c5 f2 59 c8          	vmulss %xmm0,%xmm1,%xmm1
  405a38:	c4 c1 7a 11 0f       	vmovss %xmm1,(%r15)
  405a3d:	c4 c1 7a 10 0c 97    	vmovss (%r15,%rdx,4),%xmm1
  405a43:	c4 c1 72 58 0c 8f    	vaddss (%r15,%rcx,4),%xmm1,%xmm1
  405a49:	44 89 f1             	mov    %r14d,%ecx
  405a4c:	45 01 e6             	add    %r12d,%r14d
  405a4f:	c5 f2 59 c8          	vmulss %xmm0,%xmm1,%xmm1
  405a53:	c4 c1 7a 11 0c 8f    	vmovss %xmm1,(%r15,%rcx,4)
  405a59:	48 8b 4c 24 50       	mov    0x50(%rsp),%rcx
  405a5e:	c4 c1 7a 10 0c 8f    	vmovss (%r15,%rcx,4),%xmm1
  405a64:	48 8b 4c 24 f8       	mov    -0x8(%rsp),%rcx
  405a69:	c4 c1 72 58 0c 8f    	vaddss (%r15,%rcx,4),%xmm1,%xmm1
  405a6f:	c5 f2 59 c8          	vmulss %xmm0,%xmm1,%xmm1
  405a73:	c4 81 7a 11 0c 9f    	vmovss %xmm1,(%r15,%r11,4)
  405a79:	c4 c1 7a 10 0c af    	vmovss (%r15,%rbp,4),%xmm1
  405a7f:	c4 c1 72 58 0c 87    	vaddss (%r15,%rax,4),%xmm1,%xmm1
  405a85:	c5 f2 59 c0          	vmulss %xmm0,%xmm1,%xmm0
  405a89:	c4 81 7a 11 04 b7    	vmovss %xmm0,(%r15,%r14,4)
  405a8f:	48 81 c4 b8 00 00 00 	add    $0xb8,%rsp
  405a96:	5b                   	pop    %rbx
  405a97:	41 5c                	pop    %r12
  405a99:	41 5d                	pop    %r13
  405a9b:	41 5e                	pop    %r14
  405a9d:	41 5f                	pop    %r15
  405a9f:	5d                   	pop    %rbp
  405aa0:	c3                   	ret
  405aa1:	c5 fa 10 0d 63 75 00 	vmovss 0x7563(%rip),%xmm1        # 40d00c <_IO_stdin_used+0xc>
  405aa8:	00 
  405aa9:	48 8b 44 24 20       	mov    0x20(%rsp),%rax
  405aae:	83 e0 fe             	and    $0xfffffffe,%eax
  405ab1:	8d 34 ed 10 00 00 00 	lea    0x10(,%rbp,8),%esi
  405ab8:	c5 fa 10 15 58 75 00 	vmovss 0x7558(%rip),%xmm2        # 40d018 <_IO_stdin_used+0x18>
  405abf:	00 
  405ac0:	8d 5c 2d 00          	lea    0x0(%rbp,%rbp,1),%ebx
  405ac4:	44 89 d2             	mov    %r10d,%edx
  405ac7:	83 e2 07             	and    $0x7,%edx
  405aca:	44 8d 5c ed 13       	lea    0x13(%rbp,%rbp,8),%r11d
  405acf:	44 8d 4c ad 00       	lea    0x0(%rbp,%rbp,4),%r9d
  405ad4:	8d 3c ad 00 00 00 00 	lea    0x0(,%rbp,4),%edi
  405adb:	c7 44 24 b0 00 00 00 	movl   $0x0,-0x50(%rsp)
  405ae2:	00 
  405ae3:	c7 04 24 01 00 00 00 	movl   $0x1,(%rsp)
  405aea:	89 44 24 68          	mov    %eax,0x68(%rsp)
  405aee:	8d 04 ed 00 00 00 00 	lea    0x0(,%rbp,8),%eax
  405af5:	44 8d 34 5b          	lea    (%rbx,%rbx,2),%r14d
  405af9:	48 89 54 24 60       	mov    %rdx,0x60(%rsp)
  405afe:	48 f7 da             	neg    %rdx
  405b01:	48 89 5c 24 40       	mov    %rbx,0x40(%rsp)
  405b06:	89 74 24 90          	mov    %esi,-0x70(%rsp)
  405b0a:	4c 89 4c 24 b8       	mov    %r9,-0x48(%rsp)
  405b0f:	48 89 7c 24 c8       	mov    %rdi,-0x38(%rsp)
  405b14:	48 89 54 24 38       	mov    %rdx,0x38(%rsp)
  405b19:	4c 89 5c 24 d8       	mov    %r11,-0x28(%rsp)
  405b1e:	89 c6                	mov    %eax,%esi
  405b20:	48 89 44 24 98       	mov    %rax,-0x68(%rsp)
  405b25:	8d 44 6d 00          	lea    0x0(%rbp,%rbp,2),%eax
  405b29:	29 ee                	sub    %ebp,%esi
  405b2b:	4c 89 74 24 a8       	mov    %r14,-0x58(%rsp)
  405b30:	48 89 74 24 08       	mov    %rsi,0x8(%rsp)
  405b35:	48 89 44 24 88       	mov    %rax,-0x78(%rsp)
  405b3a:	4c 89 d0             	mov    %r10,%rax
  405b3d:	48 83 e0 f8          	and    $0xfffffffffffffff8,%rax
  405b41:	48 f7 d8             	neg    %rax
  405b44:	48 89 44 24 a0       	mov    %rax,-0x60(%rsp)
  405b49:	8d 44 ed 14          	lea    0x14(%rbp,%rbp,8),%eax
  405b4d:	c5 f2 5e c8          	vdivss %xmm0,%xmm1,%xmm1
  405b51:	48 89 44 24 e8       	mov    %rax,-0x18(%rsp)
  405b56:	c5 ea 59 d9          	vmulss %xmm1,%xmm2,%xmm3
  405b5a:	eb 27                	jmp    405b83 <project+0x29e3>
  405b5c:	0f 1f 40 00          	nopl   0x0(%rax)
  405b60:	8b 44 24 b0          	mov    -0x50(%rsp),%eax
  405b64:	83 04 24 02          	addl   $0x2,(%rsp)
  405b68:	48 8b 6c 24 80       	mov    -0x80(%rsp),%rbp
  405b6d:	48 8b 5c 24 40       	mov    0x40(%rsp),%rbx
  405b72:	83 c0 02             	add    $0x2,%eax
  405b75:	89 44 24 b0          	mov    %eax,-0x50(%rsp)
  405b79:	3b 44 24 68          	cmp    0x68(%rsp),%eax
  405b7d:	0f 84 aa d6 ff ff    	je     40322d <project+0x8d>
  405b83:	49 89 db             	mov    %rbx,%r11
  405b86:	48 83 7c 24 f0 07    	cmpq   $0x7,-0x10(%rsp)
  405b8c:	4c 8b 64 24 08       	mov    0x8(%rsp),%r12
  405b91:	48 8b 5c 24 b8       	mov    -0x48(%rsp),%rbx
  405b96:	48 8b 7c 24 c8       	mov    -0x38(%rsp),%rdi
  405b9b:	48 8b 44 24 88       	mov    -0x78(%rsp),%rax
  405ba0:	41 be 01 00 00 00    	mov    $0x1,%r14d
  405ba6:	0f 82 7e 02 00 00    	jb     405e2a <project+0x2c8a>
  405bac:	8b 54 24 b0          	mov    -0x50(%rsp),%edx
  405bb0:	41 89 d2             	mov    %edx,%r10d
  405bb3:	66 66 66 66 2e 0f 1f 	data16 data16 data16 cs nopw 0x0(%rax,%rax,1)
  405bba:	84 00 00 00 00 00 
  405bc0:	42 8d 54 15 04       	lea    0x4(%rbp,%r10,1),%edx
  405bc5:	42 8d 74 15 02       	lea    0x2(%rbp,%r10,1),%esi
  405bca:	46 8d 4c 15 03       	lea    0x3(%rbp,%r10,1),%r9d
  405bcf:	c4 c1 7a 10 64 95 00 	vmovss 0x0(%r13,%rdx,4),%xmm4
  405bd6:	43 8d 54 13 05       	lea    0x5(%r11,%r10,1),%edx
  405bdb:	c4 c1 7a 10 6c b5 00 	vmovss 0x0(%r13,%rsi,4),%xmm5
  405be2:	44 89 d6             	mov    %r10d,%esi
  405be5:	c4 c1 52 58 6c b7 04 	vaddss 0x4(%r15,%rsi,4),%xmm5,%xmm5
  405bec:	43 8d 74 13 06       	lea    0x6(%r11,%r10,1),%esi
  405bf1:	c4 c1 5a 58 24 97    	vaddss (%r15,%rdx,4),%xmm4,%xmm4
  405bf7:	c5 da 5c e5          	vsubss %xmm5,%xmm4,%xmm4
  405bfb:	c5 da 59 e3          	vmulss %xmm3,%xmm4,%xmm4
  405bff:	c4 81 7a 11 24 88    	vmovss %xmm4,(%r8,%r9,4)
  405c05:	42 c7 04 89 00 00 00 	movl   $0x0,(%rcx,%r9,4)
  405c0c:	00 
  405c0d:	c4 c1 7a 10 64 b5 00 	vmovss 0x0(%r13,%rsi,4),%xmm4
  405c14:	43 8d 74 13 04       	lea    0x4(%r11,%r10,1),%esi
  405c19:	c4 c1 7a 10 6c b5 00 	vmovss 0x0(%r13,%rsi,4),%xmm5
  405c20:	42 8d 74 10 07       	lea    0x7(%rax,%r10,1),%esi
  405c25:	c4 81 52 58 2c 8f    	vaddss (%r15,%r9,4),%xmm5,%xmm5
  405c2b:	46 8d 4c 10 08       	lea    0x8(%rax,%r10,1),%r9d
  405c30:	c4 c1 5a 58 24 b7    	vaddss (%r15,%rsi,4),%xmm4,%xmm4
  405c36:	46 8d 7c 10 06       	lea    0x6(%rax,%r10,1),%r15d
  405c3b:	48 8b 44 24 e0       	mov    -0x20(%rsp),%rax
  405c40:	c5 da 5c e5          	vsubss %xmm5,%xmm4,%xmm4
  405c44:	c5 da 59 e3          	vmulss %xmm3,%xmm4,%xmm4
  405c48:	c4 c1 7a 11 24 90    	vmovss %xmm4,(%r8,%rdx,4)
  405c4e:	c7 04 91 00 00 00 00 	movl   $0x0,(%rcx,%rdx,4)
  405c55:	c4 81 7a 10 64 8d 00 	vmovss 0x0(%r13,%r9,4),%xmm4
  405c5c:	4c 8b 4c 24 e0       	mov    -0x20(%rsp),%r9
  405c61:	c4 81 7a 10 6c bd 00 	vmovss 0x0(%r13,%r15,4),%xmm5
  405c68:	49 89 ef             	mov    %rbp,%r15
  405c6b:	42 8d 6c 17 09       	lea    0x9(%rdi,%r10,1),%ebp
  405c70:	c5 d2 58 2c 90       	vaddss (%rax,%rdx,4),%xmm5,%xmm5
  405c75:	42 8d 54 17 0a       	lea    0xa(%rdi,%r10,1),%edx
  405c7a:	48 8b 44 24 e0       	mov    -0x20(%rsp),%rax
  405c7f:	c4 c1 5a 58 24 a9    	vaddss (%r9,%rbp,4),%xmm4,%xmm4
  405c85:	46 8d 4c 13 0b       	lea    0xb(%rbx,%r10,1),%r9d
  405c8a:	c5 da 5c e5          	vsubss %xmm5,%xmm4,%xmm4
  405c8e:	c5 da 59 e3          	vmulss %xmm3,%xmm4,%xmm4
  405c92:	c4 c1 7a 11 24 b0    	vmovss %xmm4,(%r8,%rsi,4)
  405c98:	c7 04 b1 00 00 00 00 	movl   $0x0,(%rcx,%rsi,4)
  405c9f:	c4 c1 7a 10 64 95 00 	vmovss 0x0(%r13,%rdx,4),%xmm4
  405ca6:	42 8d 54 17 08       	lea    0x8(%rdi,%r10,1),%edx
  405cab:	c4 c1 7a 10 6c 95 00 	vmovss 0x0(%r13,%rdx,4),%xmm5
  405cb2:	48 8b 54 24 e0       	mov    -0x20(%rsp),%rdx
  405cb7:	c5 d2 58 2c b0       	vaddss (%rax,%rsi,4),%xmm5,%xmm5
  405cbc:	48 89 f8             	mov    %rdi,%rax
  405cbf:	4c 89 df             	mov    %r11,%rdi
  405cc2:	49 89 db             	mov    %rbx,%r11
  405cc5:	c4 a1 5a 58 24 8a    	vaddss (%rdx,%r9,4),%xmm4,%xmm4
  405ccb:	42 8d 54 13 0c       	lea    0xc(%rbx,%r10,1),%edx
  405cd0:	c5 da 5c e5          	vsubss %xmm5,%xmm4,%xmm4
  405cd4:	c5 da 59 e3          	vmulss %xmm3,%xmm4,%xmm4
  405cd8:	c4 c1 7a 11 24 a8    	vmovss %xmm4,(%r8,%rbp,4)
  405cde:	c7 04 a9 00 00 00 00 	movl   $0x0,(%rcx,%rbp,4)
  405ce5:	c4 c1 7a 10 64 95 00 	vmovss 0x0(%r13,%rdx,4),%xmm4
  405cec:	42 8d 54 13 0a       	lea    0xa(%rbx,%r10,1),%edx
  405cf1:	4c 89 e3             	mov    %r12,%rbx
  405cf4:	4c 8b 64 24 a8       	mov    -0x58(%rsp),%r12
  405cf9:	c4 c1 7a 10 6c 95 00 	vmovss 0x0(%r13,%rdx,4),%xmm5
  405d00:	48 8b 54 24 e0       	mov    -0x20(%rsp),%rdx
  405d05:	43 8d 74 14 0d       	lea    0xd(%r12,%r10,1),%esi
  405d0a:	c5 da 58 24 b2       	vaddss (%rdx,%rsi,4),%xmm4,%xmm4
  405d0f:	48 8b 54 24 e0       	mov    -0x20(%rsp),%rdx
  405d14:	c5 d2 58 2c aa       	vaddss (%rdx,%rbp,4),%xmm5,%xmm5
  405d19:	4c 89 fd             	mov    %r15,%rbp
  405d1c:	47 8d 7c 14 0c       	lea    0xc(%r12,%r10,1),%r15d
  405d21:	43 8d 54 14 0e       	lea    0xe(%r12,%r10,1),%edx
  405d26:	49 89 dc             	mov    %rbx,%r12
  405d29:	c5 da 5c e5          	vsubss %xmm5,%xmm4,%xmm4
  405d2d:	c5 da 59 e3          	vmulss %xmm3,%xmm4,%xmm4
  405d31:	c4 81 7a 11 24 88    	vmovss %xmm4,(%r8,%r9,4)
  405d37:	42 c7 04 89 00 00 00 	movl   $0x0,(%rcx,%r9,4)
  405d3e:	00 
  405d3f:	c4 81 7a 10 6c bd 00 	vmovss 0x0(%r13,%r15,4),%xmm5
  405d46:	4c 8b 7c 24 e0       	mov    -0x20(%rsp),%r15
  405d4b:	c4 c1 7a 10 64 95 00 	vmovss 0x0(%r13,%rdx,4),%xmm4
  405d52:	42 8d 54 13 0f       	lea    0xf(%rbx,%r10,1),%edx
  405d57:	c4 81 52 58 2c 8f    	vaddss (%r15,%r9,4),%xmm5,%xmm5
  405d5d:	c4 c1 5a 58 24 97    	vaddss (%r15,%rdx,4),%xmm4,%xmm4
  405d63:	46 8d 4c 13 10       	lea    0x10(%rbx,%r10,1),%r9d
  405d68:	c5 da 5c e5          	vsubss %xmm5,%xmm4,%xmm4
  405d6c:	c5 da 59 e3          	vmulss %xmm3,%xmm4,%xmm4
  405d70:	c4 c1 7a 11 24 b0    	vmovss %xmm4,(%r8,%rsi,4)
  405d76:	c7 04 b1 00 00 00 00 	movl   $0x0,(%rcx,%rsi,4)
  405d7d:	c4 81 7a 10 64 8d 00 	vmovss 0x0(%r13,%r9,4),%xmm4
  405d84:	46 8d 4c 13 0e       	lea    0xe(%rbx,%r10,1),%r9d
  405d89:	48 8b 5c 24 98       	mov    -0x68(%rsp),%rbx
  405d8e:	c4 81 7a 10 6c 8d 00 	vmovss 0x0(%r13,%r9,4),%xmm5
  405d95:	c4 c1 52 58 2c b7    	vaddss (%r15,%rsi,4),%xmm5,%xmm5
  405d9b:	46 8d 4c 13 11       	lea    0x11(%rbx,%r10,1),%r9d
  405da0:	42 8d 74 13 12       	lea    0x12(%rbx,%r10,1),%esi
  405da5:	c4 81 5a 58 24 8f    	vaddss (%r15,%r9,4),%xmm4,%xmm4
  405dab:	c5 da 5c e5          	vsubss %xmm5,%xmm4,%xmm4
  405daf:	c5 da 59 e3          	vmulss %xmm3,%xmm4,%xmm4
  405db3:	c4 c1 7a 11 24 90    	vmovss %xmm4,(%r8,%rdx,4)
  405db9:	c7 04 91 00 00 00 00 	movl   $0x0,(%rcx,%rdx,4)
  405dc0:	c4 c1 7a 10 64 b5 00 	vmovss 0x0(%r13,%rsi,4),%xmm4
  405dc7:	42 8d 74 13 10       	lea    0x10(%rbx,%r10,1),%esi
  405dcc:	4c 89 db             	mov    %r11,%rbx
  405dcf:	49 89 fb             	mov    %rdi,%r11
  405dd2:	48 89 c7             	mov    %rax,%rdi
  405dd5:	48 8b 44 24 88       	mov    -0x78(%rsp),%rax
  405dda:	c4 c1 7a 10 6c b5 00 	vmovss 0x0(%r13,%rsi,4),%xmm5
  405de1:	48 8b 74 24 d8       	mov    -0x28(%rsp),%rsi
  405de6:	c4 c1 52 58 2c 97    	vaddss (%r15,%rdx,4),%xmm5,%xmm5
  405dec:	48 8b 54 24 a0       	mov    -0x60(%rsp),%rdx
  405df1:	44 01 d6             	add    %r10d,%esi
  405df4:	c4 c1 5a 58 24 b7    	vaddss (%r15,%rsi,4),%xmm4,%xmm4
  405dfa:	8b 74 24 90          	mov    -0x70(%rsp),%esi
  405dfe:	4a 8d 54 32 08       	lea    0x8(%rdx,%r14,1),%rdx
  405e03:	49 83 c6 08          	add    $0x8,%r14
  405e07:	41 01 f2             	add    %esi,%r10d
  405e0a:	c5 da 5c e5          	vsubss %xmm5,%xmm4,%xmm4
  405e0e:	c5 da 59 e3          	vmulss %xmm3,%xmm4,%xmm4
  405e12:	c4 81 7a 11 24 88    	vmovss %xmm4,(%r8,%r9,4)
  405e18:	42 c7 04 89 00 00 00 	movl   $0x0,(%rcx,%r9,4)
  405e1f:	00 
  405e20:	48 83 fa 01          	cmp    $0x1,%rdx
  405e24:	0f 85 96 fd ff ff    	jne    405bc0 <project+0x2a20>
  405e2a:	48 83 7c 24 60 00    	cmpq   $0x0,0x60(%rsp)
  405e30:	4c 8b 54 24 c0       	mov    -0x40(%rsp),%r10
  405e35:	74 7b                	je     405eb2 <project+0x2d12>
  405e37:	8b 14 24             	mov    (%rsp),%edx
  405e3a:	41 8d 7e 01          	lea    0x1(%r14),%edi
  405e3e:	41 8d 6e ff          	lea    -0x1(%r14),%ebp
  405e42:	45 0f af f2          	imul   %r10d,%r14d
  405e46:	44 03 74 24 b0       	add    -0x50(%rsp),%r14d
  405e4b:	41 0f af fa          	imul   %r10d,%edi
  405e4f:	41 0f af ea          	imul   %r10d,%ebp
  405e53:	01 d7                	add    %edx,%edi
  405e55:	01 d5                	add    %edx,%ebp
  405e57:	48 8b 54 24 38       	mov    0x38(%rsp),%rdx
  405e5c:	0f 1f 40 00          	nopl   0x0(%rax)
  405e60:	41 8d 76 02          	lea    0x2(%r14),%esi
  405e64:	45 89 f1             	mov    %r14d,%r9d
  405e67:	c4 81 7a 10 6c 8d 00 	vmovss 0x0(%r13,%r9,4),%xmm5
  405e6e:	41 89 ec             	mov    %ebp,%r12d
  405e71:	41 89 f9             	mov    %edi,%r9d
  405e74:	44 01 d7             	add    %r10d,%edi
  405e77:	44 01 d5             	add    %r10d,%ebp
  405e7a:	c4 c1 7a 10 64 b5 00 	vmovss 0x0(%r13,%rsi,4),%xmm4
  405e81:	c4 81 52 58 2c a7    	vaddss (%r15,%r12,4),%xmm5,%xmm5
  405e87:	41 8d 76 01          	lea    0x1(%r14),%esi
  405e8b:	45 01 d6             	add    %r10d,%r14d
  405e8e:	48 ff c2             	inc    %rdx
  405e91:	c4 81 5a 58 24 8f    	vaddss (%r15,%r9,4),%xmm4,%xmm4
  405e97:	c5 da 5c e5          	vsubss %xmm5,%xmm4,%xmm4
  405e9b:	c5 da 59 e2          	vmulss %xmm2,%xmm4,%xmm4
  405e9f:	c5 da 59 e1          	vmulss %xmm1,%xmm4,%xmm4
  405ea3:	c4 c1 7a 11 24 b0    	vmovss %xmm4,(%r8,%rsi,4)
  405ea9:	c7 04 b1 00 00 00 00 	movl   $0x0,(%rcx,%rsi,4)
  405eb0:	75 ae                	jne    405e60 <project+0x2cc0>
  405eb2:	48 83 7c 24 f0 07    	cmpq   $0x7,-0x10(%rsp)
  405eb8:	4c 8b 54 24 80       	mov    -0x80(%rsp),%r10
  405ebd:	4c 8b 64 24 98       	mov    -0x68(%rsp),%r12
  405ec2:	48 8b 6c 24 08       	mov    0x8(%rsp),%rbp
  405ec7:	48 8b 5c 24 40       	mov    0x40(%rsp),%rbx
  405ecc:	48 8b 44 24 88       	mov    -0x78(%rsp),%rax
  405ed1:	41 be 01 00 00 00    	mov    $0x1,%r14d
  405ed7:	0f 82 50 02 00 00    	jb     40612d <project+0x2f8d>
  405edd:	8b 54 24 b0          	mov    -0x50(%rsp),%edx
  405ee1:	89 d7                	mov    %edx,%edi
  405ee3:	66 66 66 66 2e 0f 1f 	data16 data16 data16 cs nopw 0x0(%rax,%rax,1)
  405eea:	84 00 00 00 00 00 
  405ef0:	41 8d 54 3a 05       	lea    0x5(%r10,%rdi,1),%edx
  405ef5:	41 8d 74 3a 03       	lea    0x3(%r10,%rdi,1),%esi
  405efa:	4c 8b 4c 24 80       	mov    -0x80(%rsp),%r9
  405eff:	49 89 eb             	mov    %rbp,%r11
  405f02:	4c 89 e5             	mov    %r12,%rbp
  405f05:	44 8d 64 38 07       	lea    0x7(%rax,%rdi,1),%r12d
  405f0a:	49 89 c2             	mov    %rax,%r10
  405f0d:	c4 c1 7a 10 64 95 00 	vmovss 0x0(%r13,%rdx,4),%xmm4
  405f14:	8d 54 3b 06          	lea    0x6(%rbx,%rdi,1),%edx
  405f18:	c4 c1 7a 10 6c b5 00 	vmovss 0x0(%r13,%rsi,4),%xmm5
  405f1f:	8d 77 02             	lea    0x2(%rdi),%esi
  405f22:	c4 c1 52 58 2c b7    	vaddss (%r15,%rsi,4),%xmm5,%xmm5
  405f28:	8d 74 3b 07          	lea    0x7(%rbx,%rdi,1),%esi
  405f2c:	c4 c1 5a 58 24 97    	vaddss (%r15,%rdx,4),%xmm4,%xmm4
  405f32:	45 8d 4c 39 04       	lea    0x4(%r9,%rdi,1),%r9d
  405f37:	c5 da 5c e5          	vsubss %xmm5,%xmm4,%xmm4
  405f3b:	c5 da 59 e3          	vmulss %xmm3,%xmm4,%xmm4
  405f3f:	c4 81 7a 11 24 88    	vmovss %xmm4,(%r8,%r9,4)
  405f45:	42 c7 04 89 00 00 00 	movl   $0x0,(%rcx,%r9,4)
  405f4c:	00 
  405f4d:	c4 c1 7a 10 64 b5 00 	vmovss 0x0(%r13,%rsi,4),%xmm4
  405f54:	8d 74 3b 05          	lea    0x5(%rbx,%rdi,1),%esi
  405f58:	c4 c1 7a 10 6c b5 00 	vmovss 0x0(%r13,%rsi,4),%xmm5
  405f5f:	8d 74 38 08          	lea    0x8(%rax,%rdi,1),%esi
  405f63:	c4 81 52 58 2c 8f    	vaddss (%r15,%r9,4),%xmm5,%xmm5
  405f69:	44 8d 4c 38 09       	lea    0x9(%rax,%rdi,1),%r9d
  405f6e:	48 8b 44 24 c8       	mov    -0x38(%rsp),%rax
  405f73:	c4 c1 5a 58 24 b7    	vaddss (%r15,%rsi,4),%xmm4,%xmm4
  405f79:	c5 da 5c e5          	vsubss %xmm5,%xmm4,%xmm4
  405f7d:	c5 da 59 e3          	vmulss %xmm3,%xmm4,%xmm4
  405f81:	c4 c1 7a 11 24 90    	vmovss %xmm4,(%r8,%rdx,4)
  405f87:	c7 04 91 00 00 00 00 	movl   $0x0,(%rcx,%rdx,4)
  405f8e:	c4 81 7a 10 64 8d 00 	vmovss 0x0(%r13,%r9,4),%xmm4
  405f95:	44 8d 4c 38 0a       	lea    0xa(%rax,%rdi,1),%r9d
  405f9a:	c4 81 7a 10 6c a5 00 	vmovss 0x0(%r13,%r12,4),%xmm5
  405fa1:	49 89 ec             	mov    %rbp,%r12
  405fa4:	c4 c1 52 58 2c 97    	vaddss (%r15,%rdx,4),%xmm5,%xmm5
  405faa:	8d 54 38 0b          	lea    0xb(%rax,%rdi,1),%edx
  405fae:	c4 81 5a 58 24 8f    	vaddss (%r15,%r9,4),%xmm4,%xmm4
  405fb4:	c5 da 5c e5          	vsubss %xmm5,%xmm4,%xmm4
  405fb8:	c5 da 59 e3          	vmulss %xmm3,%xmm4,%xmm4
  405fbc:	c4 c1 7a 11 24 b0    	vmovss %xmm4,(%r8,%rsi,4)
  405fc2:	c7 04 b1 00 00 00 00 	movl   $0x0,(%rcx,%rsi,4)
  405fc9:	c4 c1 7a 10 64 95 00 	vmovss 0x0(%r13,%rdx,4),%xmm4
  405fd0:	8d 54 38 09          	lea    0x9(%rax,%rdi,1),%edx
  405fd4:	48 8b 44 24 b8       	mov    -0x48(%rsp),%rax
  405fd9:	c4 c1 7a 10 6c 95 00 	vmovss 0x0(%r13,%rdx,4),%xmm5
  405fe0:	c4 c1 52 58 2c b7    	vaddss (%r15,%rsi,4),%xmm5,%xmm5
  405fe6:	8d 6c 38 0c          	lea    0xc(%rax,%rdi,1),%ebp
  405fea:	8d 54 38 0d          	lea    0xd(%rax,%rdi,1),%edx
  405fee:	c4 c1 5a 58 24 af    	vaddss (%r15,%rbp,4),%xmm4,%xmm4
  405ff4:	c5 da 5c e5          	vsubss %xmm5,%xmm4,%xmm4
  405ff8:	c5 da 59 e3          	vmulss %xmm3,%xmm4,%xmm4
  405ffc:	c4 81 7a 11 24 88    	vmovss %xmm4,(%r8,%r9,4)
  406002:	42 c7 04 89 00 00 00 	movl   $0x0,(%rcx,%r9,4)
  406009:	00 
  40600a:	c4 c1 7a 10 64 95 00 	vmovss 0x0(%r13,%rdx,4),%xmm4
  406011:	8d 54 38 0b          	lea    0xb(%rax,%rdi,1),%edx
  406015:	48 8b 44 24 a8       	mov    -0x58(%rsp),%rax
  40601a:	c4 c1 7a 10 6c 95 00 	vmovss 0x0(%r13,%rdx,4),%xmm5
  406021:	c4 81 52 58 2c 8f    	vaddss (%r15,%r9,4),%xmm5,%xmm5
  406027:	8d 74 38 0e          	lea    0xe(%rax,%rdi,1),%esi
  40602b:	8d 54 38 0f          	lea    0xf(%rax,%rdi,1),%edx
  40602f:	44 8d 4c 38 0d       	lea    0xd(%rax,%rdi,1),%r9d
  406034:	4c 89 d0             	mov    %r10,%rax
  406037:	4c 8b 54 24 e8       	mov    -0x18(%rsp),%r10
  40603c:	c4 c1 5a 58 24 b7    	vaddss (%r15,%rsi,4),%xmm4,%xmm4
  406042:	c5 da 5c e5          	vsubss %xmm5,%xmm4,%xmm4
  406046:	c5 da 59 e3          	vmulss %xmm3,%xmm4,%xmm4
  40604a:	c4 c1 7a 11 24 a8    	vmovss %xmm4,(%r8,%rbp,4)
  406050:	c7 04 a9 00 00 00 00 	movl   $0x0,(%rcx,%rbp,4)
  406057:	c4 c1 7a 10 64 95 00 	vmovss 0x0(%r13,%rdx,4),%xmm4
  40605e:	41 8d 54 3b 10       	lea    0x10(%r11,%rdi,1),%edx
  406063:	c4 81 7a 10 6c 8d 00 	vmovss 0x0(%r13,%r9,4),%xmm5
  40606a:	c4 c1 52 58 2c af    	vaddss (%r15,%rbp,4),%xmm5,%xmm5
  406070:	4c 89 dd             	mov    %r11,%rbp
  406073:	44 8d 4c 3d 11       	lea    0x11(%rbp,%rdi,1),%r9d
  406078:	4c 8b 5c 24 a0       	mov    -0x60(%rsp),%r11
  40607d:	c4 c1 5a 58 24 97    	vaddss (%r15,%rdx,4),%xmm4,%xmm4
  406083:	c5 da 5c e5          	vsubss %xmm5,%xmm4,%xmm4
  406087:	c5 da 59 e3          	vmulss %xmm3,%xmm4,%xmm4
  40608b:	c4 c1 7a 11 24 b0    	vmovss %xmm4,(%r8,%rsi,4)
  406091:	c7 04 b1 00 00 00 00 	movl   $0x0,(%rcx,%rsi,4)
  406098:	c4 81 7a 10 64 8d 00 	vmovss 0x0(%r13,%r9,4),%xmm4
  40609f:	44 8d 4c 3d 0f       	lea    0xf(%rbp,%rdi,1),%r9d
  4060a4:	c4 81 7a 10 6c 8d 00 	vmovss 0x0(%r13,%r9,4),%xmm5
  4060ab:	45 8d 4c 3c 12       	lea    0x12(%r12,%rdi,1),%r9d
  4060b0:	c4 c1 52 58 2c b7    	vaddss (%r15,%rsi,4),%xmm5,%xmm5
  4060b6:	41 8d 74 3c 13       	lea    0x13(%r12,%rdi,1),%esi
  4060bb:	c4 81 5a 58 24 8f    	vaddss (%r15,%r9,4),%xmm4,%xmm4
  4060c1:	c5 da 5c e5          	vsubss %xmm5,%xmm4,%xmm4
  4060c5:	c5 da 59 e3          	vmulss %xmm3,%xmm4,%xmm4
  4060c9:	c4 c1 7a 11 24 90    	vmovss %xmm4,(%r8,%rdx,4)
  4060cf:	c7 04 91 00 00 00 00 	movl   $0x0,(%rcx,%rdx,4)
  4060d6:	c4 c1 7a 10 64 b5 00 	vmovss 0x0(%r13,%rsi,4),%xmm4
  4060dd:	41 8d 74 3c 11       	lea    0x11(%r12,%rdi,1),%esi
  4060e2:	c4 c1 7a 10 6c b5 00 	vmovss 0x0(%r13,%rsi,4),%xmm5
  4060e9:	41 8d 34 3a          	lea    (%r10,%rdi,1),%esi
  4060ed:	4c 8b 54 24 80       	mov    -0x80(%rsp),%r10
  4060f2:	c4 c1 5a 58 24 b7    	vaddss (%r15,%rsi,4),%xmm4,%xmm4
  4060f8:	c4 c1 52 58 2c 97    	vaddss (%r15,%rdx,4),%xmm5,%xmm5
  4060fe:	8b 74 24 90          	mov    -0x70(%rsp),%esi
  406102:	4b 8d 54 33 08       	lea    0x8(%r11,%r14,1),%rdx
  406107:	49 83 c6 08          	add    $0x8,%r14
  40610b:	01 f7                	add    %esi,%edi
  40610d:	c5 da 5c e5          	vsubss %xmm5,%xmm4,%xmm4
  406111:	c5 da 59 e3          	vmulss %xmm3,%xmm4,%xmm4
  406115:	c4 81 7a 11 24 88    	vmovss %xmm4,(%r8,%r9,4)
  40611b:	42 c7 04 89 00 00 00 	movl   $0x0,(%rcx,%r9,4)
  406122:	00 
  406123:	48 83 fa 01          	cmp    $0x1,%rdx
  406127:	0f 85 c3 fd ff ff    	jne    405ef0 <project+0x2d50>
  40612d:	f6 44 24 30 07       	testb  $0x7,0x30(%rsp)
  406132:	4c 8b 5c 24 c0       	mov    -0x40(%rsp),%r11
  406137:	0f 84 23 fa ff ff    	je     405b60 <project+0x29c0>
  40613d:	41 8d 7e 01          	lea    0x1(%r14),%edi
  406141:	41 8d 56 ff          	lea    -0x1(%r14),%edx
  406145:	8b 44 24 b0          	mov    -0x50(%rsp),%eax
  406149:	48 8b 74 24 38       	mov    0x38(%rsp),%rsi
  40614e:	45 0f af f3          	imul   %r11d,%r14d
  406152:	41 0f af fb          	imul   %r11d,%edi
  406156:	41 0f af d3          	imul   %r11d,%edx
  40615a:	83 c7 02             	add    $0x2,%edi
  40615d:	83 c2 02             	add    $0x2,%edx
  406160:	89 c5                	mov    %eax,%ebp
  406162:	66 66 66 66 66 2e 0f 	data16 data16 data16 data16 cs nopw 0x0(%rax,%rax,1)
  406169:	1f 84 00 00 00 00 00 
  406170:	4c 8b 54 24 e0       	mov    -0x20(%rsp),%r10
  406175:	48 8b 44 24 e0       	mov    -0x20(%rsp),%rax
  40617a:	45 8d 4c 2e 03       	lea    0x3(%r14,%rbp,1),%r9d
  40617f:	45 8d 64 2e 01       	lea    0x1(%r14,%rbp,1),%r12d
  406184:	44 8d 3c 2a          	lea    (%rdx,%rbp,1),%r15d
  406188:	c4 81 7a 10 6c a5 00 	vmovss 0x0(%r13,%r12,4),%xmm5
  40618f:	c4 81 7a 10 64 8d 00 	vmovss 0x0(%r13,%r9,4),%xmm4
  406196:	44 8d 24 2f          	lea    (%rdi,%rbp,1),%r12d
  40619a:	45 8d 4c 2e 02       	lea    0x2(%r14,%rbp,1),%r9d
  40619f:	44 01 dd             	add    %r11d,%ebp
  4061a2:	48 ff c6             	inc    %rsi
  4061a5:	c4 a1 52 58 2c b8    	vaddss (%rax,%r15,4),%xmm5,%xmm5
  4061ab:	c4 81 5a 58 24 a2    	vaddss (%r10,%r12,4),%xmm4,%xmm4
  4061b1:	4c 8b 7c 24 e0       	mov    -0x20(%rsp),%r15
  4061b6:	c5 da 5c e5          	vsubss %xmm5,%xmm4,%xmm4
  4061ba:	c5 da 59 e2          	vmulss %xmm2,%xmm4,%xmm4
  4061be:	c5 da 59 e1          	vmulss %xmm1,%xmm4,%xmm4
  4061c2:	c4 81 7a 11 24 88    	vmovss %xmm4,(%r8,%r9,4)
  4061c8:	42 c7 04 89 00 00 00 	movl   $0x0,(%rcx,%r9,4)
  4061cf:	00 
  4061d0:	75 9e                	jne    406170 <project+0x2fd0>
  4061d2:	e9 89 f9 ff ff       	jmp    405b60 <project+0x29c0>
  4061d7:	66 0f 1f 84 00 00 00 	nopw   0x0(%rax,%rax,1)
  4061de:	00 00 

00000000004061e0 <set_bnd>:
  4061e0:	55                   	push   %rbp
  4061e1:	41 57                	push   %r15
  4061e3:	41 56                	push   %r14
  4061e5:	41 55                	push   %r13
  4061e7:	41 54                	push   %r12
  4061e9:	53                   	push   %rbx
  4061ea:	41 89 f9             	mov    %edi,%r9d
  4061ed:	45 8d 61 02          	lea    0x2(%r9),%r12d
  4061f1:	41 8d 69 01          	lea    0x1(%r9),%ebp
  4061f5:	41 89 fa             	mov    %edi,%r10d
  4061f8:	85 ff                	test   %edi,%edi
  4061fa:	0f 84 44 04 00 00    	je     406644 <set_bnd+0x464>
  406200:	45 89 e7             	mov    %r12d,%r15d
  406203:	45 89 e6             	mov    %r12d,%r14d
  406206:	45 0f af f9          	imul   %r9d,%r15d
  40620a:	44 0f af f5          	imul   %ebp,%r14d
  40620e:	4c 89 4c 24 b8       	mov    %r9,-0x48(%rsp)
  406213:	83 fe 01             	cmp    $0x1,%esi
  406216:	0f 84 36 04 00 00    	je     406652 <set_bnd+0x472>
  40621c:	83 fe 02             	cmp    $0x2,%esi
  40621f:	0f 85 7f 08 00 00    	jne    406aa4 <set_bnd+0x8c4>
  406225:	83 fd 03             	cmp    $0x3,%ebp
  406228:	b8 02 00 00 00       	mov    $0x2,%eax
  40622d:	41 bb 01 00 00 00    	mov    $0x1,%r11d
  406233:	0f 43 c5             	cmovae %ebp,%eax
  406236:	4c 8d 68 ff          	lea    -0x1(%rax),%r13
  40623a:	48 83 c0 fe          	add    $0xfffffffffffffffe,%rax
  40623e:	4c 89 6c 24 b0       	mov    %r13,-0x50(%rsp)
  406243:	41 83 e5 07          	and    $0x7,%r13d
  406247:	48 83 f8 07          	cmp    $0x7,%rax
  40624b:	0f 82 60 03 00 00    	jb     4065b1 <set_bnd+0x3d1>
  406251:	c4 e2 79 18 05 c6 6d 	vbroadcastss 0x6dc6(%rip),%xmm0        # 40d020 <_IO_stdin_used+0x20>
  406258:	00 00 
  40625a:	48 83 64 24 b0 f8    	andq   $0xfffffffffffffff8,-0x50(%rsp)
  406260:	43 8d 04 c9          	lea    (%r9,%r9,8),%eax
  406264:	4c 89 6c 24 d8       	mov    %r13,-0x28(%rsp)
  406269:	46 8d 2c cd 00 00 00 	lea    0x0(,%r9,8),%r13d
  406270:	00 
  406271:	47 8d 04 09          	lea    (%r9,%r9,1),%r8d
  406275:	89 6c 24 a8          	mov    %ebp,-0x58(%rsp)
  406279:	43 8d 2c 89          	lea    (%r9,%r9,4),%ebp
  40627d:	42 8d 34 8d 00 00 00 	lea    0x0(,%r9,4),%esi
  406284:	00 
  406285:	43 8d 1c 49          	lea    (%r9,%r9,2),%ebx
  406289:	4c 89 64 24 c0       	mov    %r12,-0x40(%rsp)
  40628e:	4c 89 74 24 d0       	mov    %r14,-0x30(%rsp)
  406293:	4c 89 7c 24 c8       	mov    %r15,-0x38(%rsp)
  406298:	45 89 f6             	mov    %r14d,%r14d
  40629b:	45 89 ff             	mov    %r15d,%r15d
  40629e:	45 31 e4             	xor    %r12d,%r12d
  4062a1:	45 31 db             	xor    %r11d,%r11d
  4062a4:	43 8d 0c 40          	lea    (%r8,%r8,2),%ecx
  4062a8:	48 89 44 24 e8       	mov    %rax,-0x18(%rsp)
  4062ad:	42 8d 04 cd 10 00 00 	lea    0x10(,%r9,8),%eax
  4062b4:	00 
  4062b5:	4c 89 6c 24 e0       	mov    %r13,-0x20(%rsp)
  4062ba:	45 29 cd             	sub    %r9d,%r13d
  4062bd:	89 44 24 ac          	mov    %eax,-0x54(%rsp)
  4062c1:	66 66 66 66 66 66 2e 	data16 data16 data16 data16 data16 cs nopw 0x0(%rax,%rax,1)
  4062c8:	0f 1f 84 00 00 00 00 
  4062cf:	00 
  4062d0:	43 8d 7c 21 03       	lea    0x3(%r9,%r12,1),%edi
  4062d5:	48 8b 44 24 e0       	mov    -0x20(%rsp),%rax
  4062da:	c5 fa 10 0c ba       	vmovss (%rdx,%rdi,4),%xmm1
  4062df:	43 8d 7c 21 02       	lea    0x2(%r9,%r12,1),%edi
  4062e4:	c5 fa 11 0c ba       	vmovss %xmm1,(%rdx,%rdi,4)
  4062e9:	43 8d 7c 20 02       	lea    0x2(%r8,%r12,1),%edi
  4062ee:	c5 fa 10 0c ba       	vmovss (%rdx,%rdi,4),%xmm1
  4062f3:	43 8d 7c 20 03       	lea    0x3(%r8,%r12,1),%edi
  4062f8:	c5 fa 11 0c ba       	vmovss %xmm1,(%rdx,%rdi,4)
  4062fd:	43 8d 7c 1a 03       	lea    0x3(%r10,%r11,1),%edi
  406302:	c5 fa 10 0c ba       	vmovss (%rdx,%rdi,4),%xmm1
  406307:	43 8d 7c 1f 01       	lea    0x1(%r15,%r11,1),%edi
  40630c:	c5 f0 57 c8          	vxorps %xmm0,%xmm1,%xmm1
  406310:	c4 a1 7a 11 4c 9a 04 	vmovss %xmm1,0x4(%rdx,%r11,4)
  406317:	c5 fa 10 0c ba       	vmovss (%rdx,%rdi,4),%xmm1
  40631c:	43 8d 7c 1e 01       	lea    0x1(%r14,%r11,1),%edi
  406321:	c5 f0 57 c8          	vxorps %xmm0,%xmm1,%xmm1
  406325:	c5 fa 11 0c ba       	vmovss %xmm1,(%rdx,%rdi,4)
  40632a:	43 8d 7c 20 05       	lea    0x5(%r8,%r12,1),%edi
  40632f:	c5 fa 10 0c ba       	vmovss (%rdx,%rdi,4),%xmm1
  406334:	43 8d 7c 20 04       	lea    0x4(%r8,%r12,1),%edi
  406339:	c5 fa 11 0c ba       	vmovss %xmm1,(%rdx,%rdi,4)
  40633e:	42 8d 7c 23 04       	lea    0x4(%rbx,%r12,1),%edi
  406343:	c5 fa 10 0c ba       	vmovss (%rdx,%rdi,4),%xmm1
  406348:	42 8d 7c 23 05       	lea    0x5(%rbx,%r12,1),%edi
  40634d:	c5 fa 11 0c ba       	vmovss %xmm1,(%rdx,%rdi,4)
  406352:	43 8d 7c 1a 04       	lea    0x4(%r10,%r11,1),%edi
  406357:	c5 fa 10 0c ba       	vmovss (%rdx,%rdi,4),%xmm1
  40635c:	43 8d 7c 1f 02       	lea    0x2(%r15,%r11,1),%edi
  406361:	c5 f0 57 c8          	vxorps %xmm0,%xmm1,%xmm1
  406365:	c4 a1 7a 11 4c 9a 08 	vmovss %xmm1,0x8(%rdx,%r11,4)
  40636c:	c5 fa 10 0c ba       	vmovss (%rdx,%rdi,4),%xmm1
  406371:	43 8d 7c 1e 02       	lea    0x2(%r14,%r11,1),%edi
  406376:	c5 f0 57 c8          	vxorps %xmm0,%xmm1,%xmm1
  40637a:	c5 fa 11 0c ba       	vmovss %xmm1,(%rdx,%rdi,4)
  40637f:	42 8d 7c 23 07       	lea    0x7(%rbx,%r12,1),%edi
  406384:	c5 fa 10 0c ba       	vmovss (%rdx,%rdi,4),%xmm1
  406389:	42 8d 7c 23 06       	lea    0x6(%rbx,%r12,1),%edi
  40638e:	c5 fa 11 0c ba       	vmovss %xmm1,(%rdx,%rdi,4)
  406393:	42 8d 7c 26 06       	lea    0x6(%rsi,%r12,1),%edi
  406398:	c5 fa 10 0c ba       	vmovss (%rdx,%rdi,4),%xmm1
  40639d:	42 8d 7c 26 07       	lea    0x7(%rsi,%r12,1),%edi
  4063a2:	c5 fa 11 0c ba       	vmovss %xmm1,(%rdx,%rdi,4)
  4063a7:	43 8d 7c 1a 05       	lea    0x5(%r10,%r11,1),%edi
  4063ac:	c5 fa 10 0c ba       	vmovss (%rdx,%rdi,4),%xmm1
  4063b1:	43 8d 7c 1f 03       	lea    0x3(%r15,%r11,1),%edi
  4063b6:	c5 f0 57 c8          	vxorps %xmm0,%xmm1,%xmm1
  4063ba:	c4 a1 7a 11 4c 9a 0c 	vmovss %xmm1,0xc(%rdx,%r11,4)
  4063c1:	c5 fa 10 0c ba       	vmovss (%rdx,%rdi,4),%xmm1
  4063c6:	43 8d 7c 1e 03       	lea    0x3(%r14,%r11,1),%edi
  4063cb:	c5 f0 57 c8          	vxorps %xmm0,%xmm1,%xmm1
  4063cf:	c5 fa 11 0c ba       	vmovss %xmm1,(%rdx,%rdi,4)
  4063d4:	42 8d 7c 26 09       	lea    0x9(%rsi,%r12,1),%edi
  4063d9:	c5 fa 10 0c ba       	vmovss (%rdx,%rdi,4),%xmm1
  4063de:	42 8d 7c 26 08       	lea    0x8(%rsi,%r12,1),%edi
  4063e3:	c5 fa 11 0c ba       	vmovss %xmm1,(%rdx,%rdi,4)
  4063e8:	42 8d 7c 25 08       	lea    0x8(%rbp,%r12,1),%edi
  4063ed:	c5 fa 10 0c ba       	vmovss (%rdx,%rdi,4),%xmm1
  4063f2:	42 8d 7c 25 09       	lea    0x9(%rbp,%r12,1),%edi
  4063f7:	c5 fa 11 0c ba       	vmovss %xmm1,(%rdx,%rdi,4)
  4063fc:	43 8d 7c 1a 06       	lea    0x6(%r10,%r11,1),%edi
  406401:	c5 fa 10 0c ba       	vmovss (%rdx,%rdi,4),%xmm1
  406406:	43 8d 7c 1f 04       	lea    0x4(%r15,%r11,1),%edi
  40640b:	c5 f0 57 c8          	vxorps %xmm0,%xmm1,%xmm1
  40640f:	c4 a1 7a 11 4c 9a 10 	vmovss %xmm1,0x10(%rdx,%r11,4)
  406416:	c5 fa 10 0c ba       	vmovss (%rdx,%rdi,4),%xmm1
  40641b:	43 8d 7c 1e 04       	lea    0x4(%r14,%r11,1),%edi
  406420:	c5 f0 57 c8          	vxorps %xmm0,%xmm1,%xmm1
  406424:	c5 fa 11 0c ba       	vmovss %xmm1,(%rdx,%rdi,4)
  406429:	42 8d 7c 25 0b       	lea    0xb(%rbp,%r12,1),%edi
  40642e:	c5 fa 10 0c ba       	vmovss (%rdx,%rdi,4),%xmm1
  406433:	42 8d 7c 25 0a       	lea    0xa(%rbp,%r12,1),%edi
  406438:	c5 fa 11 0c ba       	vmovss %xmm1,(%rdx,%rdi,4)
  40643d:	42 8d 7c 21 0a       	lea    0xa(%rcx,%r12,1),%edi
  406442:	c5 fa 10 0c ba       	vmovss (%rdx,%rdi,4),%xmm1
  406447:	42 8d 7c 21 0b       	lea    0xb(%rcx,%r12,1),%edi
  40644c:	c5 fa 11 0c ba       	vmovss %xmm1,(%rdx,%rdi,4)
  406451:	43 8d 7c 1a 07       	lea    0x7(%r10,%r11,1),%edi
  406456:	c5 fa 10 0c ba       	vmovss (%rdx,%rdi,4),%xmm1
  40645b:	43 8d 7c 1f 05       	lea    0x5(%r15,%r11,1),%edi
  406460:	c5 f0 57 c8          	vxorps %xmm0,%xmm1,%xmm1
  406464:	c4 a1 7a 11 4c 9a 14 	vmovss %xmm1,0x14(%rdx,%r11,4)
  40646b:	c5 fa 10 0c ba       	vmovss (%rdx,%rdi,4),%xmm1
  406470:	43 8d 7c 1e 05       	lea    0x5(%r14,%r11,1),%edi
  406475:	c5 f0 57 c8          	vxorps %xmm0,%xmm1,%xmm1
  406479:	c5 fa 11 0c ba       	vmovss %xmm1,(%rdx,%rdi,4)
  40647e:	42 8d 7c 21 0d       	lea    0xd(%rcx,%r12,1),%edi
  406483:	c5 fa 10 0c ba       	vmovss (%rdx,%rdi,4),%xmm1
  406488:	42 8d 7c 21 0c       	lea    0xc(%rcx,%r12,1),%edi
  40648d:	c5 fa 11 0c ba       	vmovss %xmm1,(%rdx,%rdi,4)
  406492:	43 8d 7c 25 0c       	lea    0xc(%r13,%r12,1),%edi
  406497:	c5 fa 10 0c ba       	vmovss (%rdx,%rdi,4),%xmm1
  40649c:	43 8d 7c 25 0d       	lea    0xd(%r13,%r12,1),%edi
  4064a1:	c5 fa 11 0c ba       	vmovss %xmm1,(%rdx,%rdi,4)
  4064a6:	43 8d 7c 1a 08       	lea    0x8(%r10,%r11,1),%edi
  4064ab:	c5 fa 10 0c ba       	vmovss (%rdx,%rdi,4),%xmm1
  4064b0:	43 8d 7c 1f 06       	lea    0x6(%r15,%r11,1),%edi
  4064b5:	c5 f0 57 c8          	vxorps %xmm0,%xmm1,%xmm1
  4064b9:	c4 a1 7a 11 4c 9a 18 	vmovss %xmm1,0x18(%rdx,%r11,4)
  4064c0:	c5 fa 10 0c ba       	vmovss (%rdx,%rdi,4),%xmm1
  4064c5:	43 8d 7c 1e 06       	lea    0x6(%r14,%r11,1),%edi
  4064ca:	c5 f0 57 c8          	vxorps %xmm0,%xmm1,%xmm1
  4064ce:	c5 fa 11 0c ba       	vmovss %xmm1,(%rdx,%rdi,4)
  4064d3:	43 8d 7c 25 0f       	lea    0xf(%r13,%r12,1),%edi
  4064d8:	c5 fa 10 0c ba       	vmovss (%rdx,%rdi,4),%xmm1
  4064dd:	43 8d 7c 25 0e       	lea    0xe(%r13,%r12,1),%edi
  4064e2:	c5 fa 11 0c ba       	vmovss %xmm1,(%rdx,%rdi,4)
  4064e7:	42 8d 7c 20 0e       	lea    0xe(%rax,%r12,1),%edi
  4064ec:	c5 fa 10 0c ba       	vmovss (%rdx,%rdi,4),%xmm1
  4064f1:	42 8d 7c 20 0f       	lea    0xf(%rax,%r12,1),%edi
  4064f6:	c5 fa 11 0c ba       	vmovss %xmm1,(%rdx,%rdi,4)
  4064fb:	43 8d 7c 1a 09       	lea    0x9(%r10,%r11,1),%edi
  406500:	c5 fa 10 0c ba       	vmovss (%rdx,%rdi,4),%xmm1
  406505:	43 8d 7c 1f 07       	lea    0x7(%r15,%r11,1),%edi
  40650a:	c5 f0 57 c8          	vxorps %xmm0,%xmm1,%xmm1
  40650e:	c4 a1 7a 11 4c 9a 1c 	vmovss %xmm1,0x1c(%rdx,%r11,4)
  406515:	c5 fa 10 0c ba       	vmovss (%rdx,%rdi,4),%xmm1
  40651a:	43 8d 7c 1e 07       	lea    0x7(%r14,%r11,1),%edi
  40651f:	c5 f0 57 c8          	vxorps %xmm0,%xmm1,%xmm1
  406523:	c5 fa 11 0c ba       	vmovss %xmm1,(%rdx,%rdi,4)
  406528:	42 8d 7c 20 11       	lea    0x11(%rax,%r12,1),%edi
  40652d:	c5 fa 10 0c ba       	vmovss (%rdx,%rdi,4),%xmm1
  406532:	42 8d 7c 20 10       	lea    0x10(%rax,%r12,1),%edi
  406537:	48 8b 44 24 e8       	mov    -0x18(%rsp),%rax
  40653c:	c5 fa 11 0c ba       	vmovss %xmm1,(%rdx,%rdi,4)
  406541:	42 8d 7c 20 10       	lea    0x10(%rax,%r12,1),%edi
  406546:	c5 fa 10 0c ba       	vmovss (%rdx,%rdi,4),%xmm1
  40654b:	42 8d 7c 20 11       	lea    0x11(%rax,%r12,1),%edi
  406550:	44 03 64 24 ac       	add    -0x54(%rsp),%r12d
  406555:	c5 fa 11 0c ba       	vmovss %xmm1,(%rdx,%rdi,4)
  40655a:	43 8d 7c 1a 0a       	lea    0xa(%r10,%r11,1),%edi
  40655f:	c5 fa 10 0c ba       	vmovss (%rdx,%rdi,4),%xmm1
  406564:	43 8d 7c 1f 08       	lea    0x8(%r15,%r11,1),%edi
  406569:	c5 f0 57 c8          	vxorps %xmm0,%xmm1,%xmm1
  40656d:	c4 a1 7a 11 4c 9a 20 	vmovss %xmm1,0x20(%rdx,%r11,4)
  406574:	c5 fa 10 0c ba       	vmovss (%rdx,%rdi,4),%xmm1
  406579:	43 8d 7c 1e 08       	lea    0x8(%r14,%r11,1),%edi
  40657e:	49 83 c3 08          	add    $0x8,%r11
  406582:	c5 f0 57 c8          	vxorps %xmm0,%xmm1,%xmm1
  406586:	c5 fa 11 0c ba       	vmovss %xmm1,(%rdx,%rdi,4)
  40658b:	4c 39 5c 24 b0       	cmp    %r11,-0x50(%rsp)
  406590:	0f 85 3a fd ff ff    	jne    4062d0 <set_bnd+0xf0>
  406596:	8b 6c 24 a8          	mov    -0x58(%rsp),%ebp
  40659a:	4c 8b 74 24 d0       	mov    -0x30(%rsp),%r14
  40659f:	4c 8b 7c 24 c8       	mov    -0x38(%rsp),%r15
  4065a4:	4c 8b 64 24 c0       	mov    -0x40(%rsp),%r12
  4065a9:	4c 8b 6c 24 d8       	mov    -0x28(%rsp),%r13
  4065ae:	49 ff c3             	inc    %r11
  4065b1:	4d 85 ed             	test   %r13,%r13
  4065b4:	0f 84 e2 08 00 00    	je     406e9c <set_bnd+0xcbc>
  4065ba:	c4 e2 79 18 05 5d 6a 	vbroadcastss 0x6a5d(%rip),%xmm0        # 40d020 <_IO_stdin_used+0x20>
  4065c1:	00 00 
  4065c3:	4a 8d 04 9a          	lea    (%rdx,%r11,4),%rax
  4065c7:	43 8d 0c 1e          	lea    (%r14,%r11,1),%ecx
  4065cb:	43 8d 34 1f          	lea    (%r15,%r11,1),%esi
  4065cf:	43 8d 7c 19 02       	lea    0x2(%r9,%r11,1),%edi
  4065d4:	45 0f af dc          	imul   %r12d,%r11d
  4065d8:	31 db                	xor    %ebx,%ebx
  4065da:	47 8d 04 19          	lea    (%r9,%r11,1),%r8d
  4065de:	66 90                	xchg   %ax,%ax
  4065e0:	45 8d 4b 01          	lea    0x1(%r11),%r9d
  4065e4:	c4 a1 7a 10 0c 8a    	vmovss (%rdx,%r9,4),%xmm1
  4065ea:	45 89 d9             	mov    %r11d,%r9d
  4065ed:	45 01 e3             	add    %r12d,%r11d
  4065f0:	c4 a1 7a 11 0c 8a    	vmovss %xmm1,(%rdx,%r9,4)
  4065f6:	45 89 c1             	mov    %r8d,%r9d
  4065f9:	c4 a1 7a 10 0c 8a    	vmovss (%rdx,%r9,4),%xmm1
  4065ff:	45 8d 48 01          	lea    0x1(%r8),%r9d
  406603:	45 01 e0             	add    %r12d,%r8d
  406606:	c4 a1 7a 11 0c 8a    	vmovss %xmm1,(%rdx,%r9,4)
  40660c:	44 8d 0c 1f          	lea    (%rdi,%rbx,1),%r9d
  406610:	c4 a1 7a 10 0c 8a    	vmovss (%rdx,%r9,4),%xmm1
  406616:	44 8d 0c 1e          	lea    (%rsi,%rbx,1),%r9d
  40661a:	c5 f0 57 c8          	vxorps %xmm0,%xmm1,%xmm1
  40661e:	c5 fa 11 0c 98       	vmovss %xmm1,(%rax,%rbx,4)
  406623:	c4 a1 7a 10 0c 8a    	vmovss (%rdx,%r9,4),%xmm1
  406629:	44 8d 0c 19          	lea    (%rcx,%rbx,1),%r9d
  40662d:	48 ff c3             	inc    %rbx
  406630:	c5 f0 57 c8          	vxorps %xmm0,%xmm1,%xmm1
  406634:	c4 a1 7a 11 0c 8a    	vmovss %xmm1,(%rdx,%r9,4)
  40663a:	49 39 dd             	cmp    %rbx,%r13
  40663d:	75 a1                	jne    4065e0 <set_bnd+0x400>
  40663f:	e9 53 08 00 00       	jmp    406e97 <set_bnd+0xcb7>
  406644:	41 be 02 00 00 00    	mov    $0x2,%r14d
  40664a:	45 31 ff             	xor    %r15d,%r15d
  40664d:	e9 4a 08 00 00       	jmp    406e9c <set_bnd+0xcbc>
  406652:	83 fd 03             	cmp    $0x3,%ebp
  406655:	b8 02 00 00 00       	mov    $0x2,%eax
  40665a:	41 bb 01 00 00 00    	mov    $0x1,%r11d
  406660:	0f 43 c5             	cmovae %ebp,%eax
  406663:	4c 8d 68 ff          	lea    -0x1(%rax),%r13
  406667:	48 83 c0 fe          	add    $0xfffffffffffffffe,%rax
  40666b:	4c 89 6c 24 b0       	mov    %r13,-0x50(%rsp)
  406670:	41 83 e5 07          	and    $0x7,%r13d
  406674:	48 83 f8 07          	cmp    $0x7,%rax
  406678:	0f 82 90 03 00 00    	jb     406a0e <set_bnd+0x82e>
  40667e:	c4 e2 79 18 05 99 69 	vbroadcastss 0x6999(%rip),%xmm0        # 40d020 <_IO_stdin_used+0x20>
  406685:	00 00 
  406687:	43 8d 04 c9          	lea    (%r9,%r9,8),%eax
  40668b:	42 8d 0c cd 10 00 00 	lea    0x10(,%r9,8),%ecx
  406692:	00 
  406693:	48 83 64 24 b0 f8    	andq   $0xfffffffffffffff8,-0x50(%rsp)
  406699:	89 6c 24 a8          	mov    %ebp,-0x58(%rsp)
  40669d:	43 8d 2c 89          	lea    (%r9,%r9,4),%ebp
  4066a1:	42 8d 34 8d 00 00 00 	lea    0x0(,%r9,4),%esi
  4066a8:	00 
  4066a9:	43 8d 1c 49          	lea    (%r9,%r9,2),%ebx
  4066ad:	4c 89 64 24 c0       	mov    %r12,-0x40(%rsp)
  4066b2:	4c 89 74 24 d0       	mov    %r14,-0x30(%rsp)
  4066b7:	4c 89 7c 24 c8       	mov    %r15,-0x38(%rsp)
  4066bc:	4c 89 6c 24 f0       	mov    %r13,-0x10(%rsp)
  4066c1:	45 89 f6             	mov    %r14d,%r14d
  4066c4:	45 89 ff             	mov    %r15d,%r15d
  4066c7:	45 31 e4             	xor    %r12d,%r12d
  4066ca:	45 31 db             	xor    %r11d,%r11d
  4066cd:	48 89 44 24 e8       	mov    %rax,-0x18(%rsp)
  4066d2:	42 8d 04 cd 00 00 00 	lea    0x0(,%r9,8),%eax
  4066d9:	00 
  4066da:	89 4c 24 ac          	mov    %ecx,-0x54(%rsp)
  4066de:	43 8d 0c 09          	lea    (%r9,%r9,1),%ecx
  4066e2:	48 89 4c 24 d8       	mov    %rcx,-0x28(%rsp)
  4066e7:	8d 0c 49             	lea    (%rcx,%rcx,2),%ecx
  4066ea:	48 89 44 24 e0       	mov    %rax,-0x20(%rsp)
  4066ef:	44 29 c8             	sub    %r9d,%eax
  4066f2:	66 66 66 66 66 2e 0f 	data16 data16 data16 data16 cs nopw 0x0(%rax,%rax,1)
  4066f9:	1f 84 00 00 00 00 00 
  406700:	4c 8b 44 24 b8       	mov    -0x48(%rsp),%r8
  406705:	43 8d 7c 21 02       	lea    0x2(%r9,%r12,1),%edi
  40670a:	47 8d 4c 20 03       	lea    0x3(%r8,%r12,1),%r9d
  40670f:	4c 8b 44 24 d8       	mov    -0x28(%rsp),%r8
  406714:	c4 a1 7a 10 0c 8a    	vmovss (%rdx,%r9,4),%xmm1
  40671a:	47 8d 6c 20 02       	lea    0x2(%r8,%r12,1),%r13d
  40671f:	47 8d 4c 20 03       	lea    0x3(%r8,%r12,1),%r9d
  406724:	c5 f0 57 c8          	vxorps %xmm0,%xmm1,%xmm1
  406728:	c5 fa 11 0c ba       	vmovss %xmm1,(%rdx,%rdi,4)
  40672d:	43 8d 7c 1a 03       	lea    0x3(%r10,%r11,1),%edi
  406732:	c4 a1 7a 10 0c aa    	vmovss (%rdx,%r13,4),%xmm1
  406738:	47 8d 6c 20 05       	lea    0x5(%r8,%r12,1),%r13d
  40673d:	c5 f0 57 c8          	vxorps %xmm0,%xmm1,%xmm1
  406741:	c4 a1 7a 11 0c 8a    	vmovss %xmm1,(%rdx,%r9,4)
  406747:	47 8d 4c 20 04       	lea    0x4(%r8,%r12,1),%r9d
  40674c:	4c 8b 44 24 e0       	mov    -0x20(%rsp),%r8
  406751:	c5 fa 10 0c ba       	vmovss (%rdx,%rdi,4),%xmm1
  406756:	43 8d 7c 1f 01       	lea    0x1(%r15,%r11,1),%edi
  40675b:	c4 a1 7a 11 4c 9a 04 	vmovss %xmm1,0x4(%rdx,%r11,4)
  406762:	c5 fa 10 0c ba       	vmovss (%rdx,%rdi,4),%xmm1
  406767:	43 8d 7c 1e 01       	lea    0x1(%r14,%r11,1),%edi
  40676c:	c5 fa 11 0c ba       	vmovss %xmm1,(%rdx,%rdi,4)
  406771:	42 8d 7c 23 04       	lea    0x4(%rbx,%r12,1),%edi
  406776:	c4 a1 7a 10 0c aa    	vmovss (%rdx,%r13,4),%xmm1
  40677c:	46 8d 6c 23 05       	lea    0x5(%rbx,%r12,1),%r13d
  406781:	c5 f0 57 c8          	vxorps %xmm0,%xmm1,%xmm1
  406785:	c4 a1 7a 11 0c 8a    	vmovss %xmm1,(%rdx,%r9,4)
  40678b:	47 8d 4c 1a 04       	lea    0x4(%r10,%r11,1),%r9d
  406790:	c5 fa 10 0c ba       	vmovss (%rdx,%rdi,4),%xmm1
  406795:	43 8d 7c 1f 02       	lea    0x2(%r15,%r11,1),%edi
  40679a:	c5 f0 57 c8          	vxorps %xmm0,%xmm1,%xmm1
  40679e:	c4 a1 7a 11 0c aa    	vmovss %xmm1,(%rdx,%r13,4)
  4067a4:	46 8d 6c 23 07       	lea    0x7(%rbx,%r12,1),%r13d
  4067a9:	c4 a1 7a 10 0c 8a    	vmovss (%rdx,%r9,4),%xmm1
  4067af:	46 8d 4c 23 06       	lea    0x6(%rbx,%r12,1),%r9d
  4067b4:	c4 a1 7a 11 4c 9a 08 	vmovss %xmm1,0x8(%rdx,%r11,4)
  4067bb:	c5 fa 10 0c ba       	vmovss (%rdx,%rdi,4),%xmm1
  4067c0:	43 8d 7c 1e 02       	lea    0x2(%r14,%r11,1),%edi
  4067c5:	c5 fa 11 0c ba       	vmovss %xmm1,(%rdx,%rdi,4)
  4067ca:	42 8d 7c 26 06       	lea    0x6(%rsi,%r12,1),%edi
  4067cf:	c4 a1 7a 10 0c aa    	vmovss (%rdx,%r13,4),%xmm1
  4067d5:	46 8d 6c 26 07       	lea    0x7(%rsi,%r12,1),%r13d
  4067da:	c5 f0 57 c8          	vxorps %xmm0,%xmm1,%xmm1
  4067de:	c4 a1 7a 11 0c 8a    	vmovss %xmm1,(%rdx,%r9,4)
  4067e4:	47 8d 4c 1a 05       	lea    0x5(%r10,%r11,1),%r9d
  4067e9:	c5 fa 10 0c ba       	vmovss (%rdx,%rdi,4),%xmm1
  4067ee:	43 8d 7c 1f 03       	lea    0x3(%r15,%r11,1),%edi
  4067f3:	c5 f0 57 c8          	vxorps %xmm0,%xmm1,%xmm1
  4067f7:	c4 a1 7a 11 0c aa    	vmovss %xmm1,(%rdx,%r13,4)
  4067fd:	46 8d 6c 26 09       	lea    0x9(%rsi,%r12,1),%r13d
  406802:	c4 a1 7a 10 0c 8a    	vmovss (%rdx,%r9,4),%xmm1
  406808:	46 8d 4c 26 08       	lea    0x8(%rsi,%r12,1),%r9d
  40680d:	c4 a1 7a 11 4c 9a 0c 	vmovss %xmm1,0xc(%rdx,%r11,4)
  406814:	c5 fa 10 0c ba       	vmovss (%rdx,%rdi,4),%xmm1
  406819:	43 8d 7c 1e 03       	lea    0x3(%r14,%r11,1),%edi
  40681e:	c5 fa 11 0c ba       	vmovss %xmm1,(%rdx,%rdi,4)
  406823:	42 8d 7c 25 08       	lea    0x8(%rbp,%r12,1),%edi
  406828:	c4 a1 7a 10 0c aa    	vmovss (%rdx,%r13,4),%xmm1
  40682e:	46 8d 6c 25 09       	lea    0x9(%rbp,%r12,1),%r13d
  406833:	c5 f0 57 c8          	vxorps %xmm0,%xmm1,%xmm1
  406837:	c4 a1 7a 11 0c 8a    	vmovss %xmm1,(%rdx,%r9,4)
  40683d:	47 8d 4c 1a 06       	lea    0x6(%r10,%r11,1),%r9d
  406842:	c5 fa 10 0c ba       	vmovss (%rdx,%rdi,4),%xmm1
  406847:	43 8d 7c 1f 04       	lea    0x4(%r15,%r11,1),%edi
  40684c:	c5 f0 57 c8          	vxorps %xmm0,%xmm1,%xmm1
  406850:	c4 a1 7a 11 0c aa    	vmovss %xmm1,(%rdx,%r13,4)
  406856:	46 8d 6c 25 0b       	lea    0xb(%rbp,%r12,1),%r13d
  40685b:	c4 a1 7a 10 0c 8a    	vmovss (%rdx,%r9,4),%xmm1
  406861:	46 8d 4c 25 0a       	lea    0xa(%rbp,%r12,1),%r9d
  406866:	c4 a1 7a 11 4c 9a 10 	vmovss %xmm1,0x10(%rdx,%r11,4)
  40686d:	c5 fa 10 0c ba       	vmovss (%rdx,%rdi,4),%xmm1
  406872:	43 8d 7c 1e 04       	lea    0x4(%r14,%r11,1),%edi
  406877:	c5 fa 11 0c ba       	vmovss %xmm1,(%rdx,%rdi,4)
  40687c:	42 8d 7c 21 0a       	lea    0xa(%rcx,%r12,1),%edi
  406881:	c4 a1 7a 10 0c aa    	vmovss (%rdx,%r13,4),%xmm1
  406887:	46 8d 6c 21 0b       	lea    0xb(%rcx,%r12,1),%r13d
  40688c:	c5 f0 57 c8          	vxorps %xmm0,%xmm1,%xmm1
  406890:	c4 a1 7a 11 0c 8a    	vmovss %xmm1,(%rdx,%r9,4)
  406896:	47 8d 4c 1a 07       	lea    0x7(%r10,%r11,1),%r9d
  40689b:	c5 fa 10 0c ba       	vmovss (%rdx,%rdi,4),%xmm1
  4068a0:	43 8d 7c 1f 05       	lea    0x5(%r15,%r11,1),%edi
  4068a5:	c5 f0 57 c8          	vxorps %xmm0,%xmm1,%xmm1
  4068a9:	c4 a1 7a 11 0c aa    	vmovss %xmm1,(%rdx,%r13,4)
  4068af:	46 8d 6c 21 0d       	lea    0xd(%rcx,%r12,1),%r13d
  4068b4:	c4 a1 7a 10 0c 8a    	vmovss (%rdx,%r9,4),%xmm1
  4068ba:	46 8d 4c 21 0c       	lea    0xc(%rcx,%r12,1),%r9d
  4068bf:	c4 a1 7a 11 4c 9a 14 	vmovss %xmm1,0x14(%rdx,%r11,4)
  4068c6:	c5 fa 10 0c ba       	vmovss (%rdx,%rdi,4),%xmm1
  4068cb:	43 8d 7c 1e 05       	lea    0x5(%r14,%r11,1),%edi
  4068d0:	c5 fa 11 0c ba       	vmovss %xmm1,(%rdx,%rdi,4)
  4068d5:	42 8d 7c 20 0c       	lea    0xc(%rax,%r12,1),%edi
  4068da:	c4 a1 7a 10 0c aa    	vmovss (%rdx,%r13,4),%xmm1
  4068e0:	46 8d 6c 20 0d       	lea    0xd(%rax,%r12,1),%r13d
  4068e5:	c5 f0 57 c8          	vxorps %xmm0,%xmm1,%xmm1
  4068e9:	c4 a1 7a 11 0c 8a    	vmovss %xmm1,(%rdx,%r9,4)
  4068ef:	47 8d 4c 1a 08       	lea    0x8(%r10,%r11,1),%r9d
  4068f4:	c5 fa 10 0c ba       	vmovss (%rdx,%rdi,4),%xmm1
  4068f9:	43 8d 7c 1f 06       	lea    0x6(%r15,%r11,1),%edi
  4068fe:	c5 f0 57 c8          	vxorps %xmm0,%xmm1,%xmm1
  406902:	c4 a1 7a 11 0c aa    	vmovss %xmm1,(%rdx,%r13,4)
  406908:	46 8d 6c 20 0f       	lea    0xf(%rax,%r12,1),%r13d
  40690d:	c4 a1 7a 10 0c 8a    	vmovss (%rdx,%r9,4),%xmm1
  406913:	46 8d 4c 20 0e       	lea    0xe(%rax,%r12,1),%r9d
  406918:	c4 a1 7a 11 4c 9a 18 	vmovss %xmm1,0x18(%rdx,%r11,4)
  40691f:	c5 fa 10 0c ba       	vmovss (%rdx,%rdi,4),%xmm1
  406924:	43 8d 7c 1e 06       	lea    0x6(%r14,%r11,1),%edi
  406929:	c5 fa 11 0c ba       	vmovss %xmm1,(%rdx,%rdi,4)
  40692e:	43 8d 7c 20 0e       	lea    0xe(%r8,%r12,1),%edi
  406933:	c4 a1 7a 10 0c aa    	vmovss (%rdx,%r13,4),%xmm1
  406939:	47 8d 6c 20 0f       	lea    0xf(%r8,%r12,1),%r13d
  40693e:	c5 f0 57 c8          	vxorps %xmm0,%xmm1,%xmm1
  406942:	c4 a1 7a 11 0c 8a    	vmovss %xmm1,(%rdx,%r9,4)
  406948:	47 8d 4c 1a 09       	lea    0x9(%r10,%r11,1),%r9d
  40694d:	c5 fa 10 0c ba       	vmovss (%rdx,%rdi,4),%xmm1
  406952:	43 8d 7c 1f 07       	lea    0x7(%r15,%r11,1),%edi
  406957:	c5 f0 57 c8          	vxorps %xmm0,%xmm1,%xmm1
  40695b:	c4 a1 7a 11 0c aa    	vmovss %xmm1,(%rdx,%r13,4)
  406961:	47 8d 6c 20 11       	lea    0x11(%r8,%r12,1),%r13d
  406966:	c4 a1 7a 10 0c 8a    	vmovss (%rdx,%r9,4),%xmm1
  40696c:	47 8d 4c 20 10       	lea    0x10(%r8,%r12,1),%r9d
  406971:	c4 a1 7a 11 4c 9a 1c 	vmovss %xmm1,0x1c(%rdx,%r11,4)
  406978:	c5 fa 10 0c ba       	vmovss (%rdx,%rdi,4),%xmm1
  40697d:	43 8d 7c 1e 07       	lea    0x7(%r14,%r11,1),%edi
  406982:	c5 fa 11 0c ba       	vmovss %xmm1,(%rdx,%rdi,4)
  406987:	c4 a1 7a 10 0c aa    	vmovss (%rdx,%r13,4),%xmm1
  40698d:	4c 8b 6c 24 e8       	mov    -0x18(%rsp),%r13
  406992:	43 8d 7c 25 10       	lea    0x10(%r13,%r12,1),%edi
  406997:	c5 f0 57 c8          	vxorps %xmm0,%xmm1,%xmm1
  40699b:	c4 a1 7a 11 0c 8a    	vmovss %xmm1,(%rdx,%r9,4)
  4069a1:	47 8d 4c 25 11       	lea    0x11(%r13,%r12,1),%r9d
  4069a6:	44 03 64 24 ac       	add    -0x54(%rsp),%r12d
  4069ab:	c5 fa 10 0c ba       	vmovss (%rdx,%rdi,4),%xmm1
  4069b0:	43 8d 7c 1a 0a       	lea    0xa(%r10,%r11,1),%edi
  4069b5:	c5 f0 57 c8          	vxorps %xmm0,%xmm1,%xmm1
  4069b9:	c4 a1 7a 11 0c 8a    	vmovss %xmm1,(%rdx,%r9,4)
  4069bf:	4c 8b 4c 24 b8       	mov    -0x48(%rsp),%r9
  4069c4:	c5 fa 10 0c ba       	vmovss (%rdx,%rdi,4),%xmm1
  4069c9:	43 8d 7c 1f 08       	lea    0x8(%r15,%r11,1),%edi
  4069ce:	c4 a1 7a 11 4c 9a 20 	vmovss %xmm1,0x20(%rdx,%r11,4)
  4069d5:	c5 fa 10 0c ba       	vmovss (%rdx,%rdi,4),%xmm1
  4069da:	43 8d 7c 1e 08       	lea    0x8(%r14,%r11,1),%edi
  4069df:	49 83 c3 08          	add    $0x8,%r11
  4069e3:	c5 fa 11 0c ba       	vmovss %xmm1,(%rdx,%rdi,4)
  4069e8:	4c 39 5c 24 b0       	cmp    %r11,-0x50(%rsp)
  4069ed:	0f 85 0d fd ff ff    	jne    406700 <set_bnd+0x520>
  4069f3:	8b 6c 24 a8          	mov    -0x58(%rsp),%ebp
  4069f7:	4c 8b 74 24 d0       	mov    -0x30(%rsp),%r14
  4069fc:	4c 8b 7c 24 c8       	mov    -0x38(%rsp),%r15
  406a01:	4c 8b 64 24 c0       	mov    -0x40(%rsp),%r12
  406a06:	4c 8b 6c 24 f0       	mov    -0x10(%rsp),%r13
  406a0b:	49 ff c3             	inc    %r11
  406a0e:	4d 85 ed             	test   %r13,%r13
  406a11:	0f 84 85 04 00 00    	je     406e9c <set_bnd+0xcbc>
  406a17:	c4 e2 79 18 05 00 66 	vbroadcastss 0x6600(%rip),%xmm0        # 40d020 <_IO_stdin_used+0x20>
  406a1e:	00 00 
  406a20:	4a 8d 04 9a          	lea    (%rdx,%r11,4),%rax
  406a24:	43 8d 0c 1e          	lea    (%r14,%r11,1),%ecx
  406a28:	43 8d 34 1f          	lea    (%r15,%r11,1),%esi
  406a2c:	43 8d 7c 19 02       	lea    0x2(%r9,%r11,1),%edi
  406a31:	45 0f af dc          	imul   %r12d,%r11d
  406a35:	31 db                	xor    %ebx,%ebx
  406a37:	47 8d 04 19          	lea    (%r9,%r11,1),%r8d
  406a3b:	0f 1f 44 00 00       	nopl   0x0(%rax,%rax,1)
  406a40:	45 8d 4b 01          	lea    0x1(%r11),%r9d
  406a44:	c4 a1 7a 10 0c 8a    	vmovss (%rdx,%r9,4),%xmm1
  406a4a:	45 89 d9             	mov    %r11d,%r9d
  406a4d:	45 01 e3             	add    %r12d,%r11d
  406a50:	c5 f0 57 c8          	vxorps %xmm0,%xmm1,%xmm1
  406a54:	c4 a1 7a 11 0c 8a    	vmovss %xmm1,(%rdx,%r9,4)
  406a5a:	45 89 c1             	mov    %r8d,%r9d
  406a5d:	c4 a1 7a 10 0c 8a    	vmovss (%rdx,%r9,4),%xmm1
  406a63:	45 8d 48 01          	lea    0x1(%r8),%r9d
  406a67:	45 01 e0             	add    %r12d,%r8d
  406a6a:	c5 f0 57 c8          	vxorps %xmm0,%xmm1,%xmm1
  406a6e:	c4 a1 7a 11 0c 8a    	vmovss %xmm1,(%rdx,%r9,4)
  406a74:	44 8d 0c 1f          	lea    (%rdi,%rbx,1),%r9d
  406a78:	c4 a1 7a 10 0c 8a    	vmovss (%rdx,%r9,4),%xmm1
  406a7e:	44 8d 0c 1e          	lea    (%rsi,%rbx,1),%r9d
  406a82:	c5 fa 11 0c 98       	vmovss %xmm1,(%rax,%rbx,4)
  406a87:	c4 a1 7a 10 0c 8a    	vmovss (%rdx,%r9,4),%xmm1
  406a8d:	44 8d 0c 19          	lea    (%rcx,%rbx,1),%r9d
  406a91:	48 ff c3             	inc    %rbx
  406a94:	c4 a1 7a 11 0c 8a    	vmovss %xmm1,(%rdx,%r9,4)
  406a9a:	49 39 dd             	cmp    %rbx,%r13
  406a9d:	75 a1                	jne    406a40 <set_bnd+0x860>
  406a9f:	e9 f3 03 00 00       	jmp    406e97 <set_bnd+0xcb7>
  406aa4:	83 fd 03             	cmp    $0x3,%ebp
  406aa7:	b8 02 00 00 00       	mov    $0x2,%eax
  406aac:	41 bb 01 00 00 00    	mov    $0x1,%r11d
  406ab2:	0f 43 c5             	cmovae %ebp,%eax
  406ab5:	4c 8d 68 ff          	lea    -0x1(%rax),%r13
  406ab9:	48 83 c0 fe          	add    $0xfffffffffffffffe,%rax
  406abd:	4c 89 6c 24 b0       	mov    %r13,-0x50(%rsp)
  406ac2:	41 83 e5 07          	and    $0x7,%r13d
  406ac6:	48 83 f8 07          	cmp    $0x7,%rax
  406aca:	0f 82 44 03 00 00    	jb     406e14 <set_bnd+0xc34>
  406ad0:	43 8d 04 c9          	lea    (%r9,%r9,8),%eax
  406ad4:	48 83 64 24 b0 f8    	andq   $0xfffffffffffffff8,-0x50(%rsp)
  406ada:	42 8d 34 cd 10 00 00 	lea    0x10(,%r9,8),%esi
  406ae1:	00 
  406ae2:	4c 89 7c 24 c8       	mov    %r15,-0x38(%rsp)
  406ae7:	44 89 fb             	mov    %r15d,%ebx
  406aea:	46 8d 3c cd 00 00 00 	lea    0x0(,%r9,8),%r15d
  406af1:	00 
  406af2:	89 6c 24 a8          	mov    %ebp,-0x58(%rsp)
  406af6:	43 8d 2c 89          	lea    (%r9,%r9,4),%ebp
  406afa:	4c 89 6c 24 f8       	mov    %r13,-0x8(%rsp)
  406aff:	4c 89 64 24 c0       	mov    %r12,-0x40(%rsp)
  406b04:	4c 89 74 24 d0       	mov    %r14,-0x30(%rsp)
  406b09:	44 89 f1             	mov    %r14d,%ecx
  406b0c:	45 31 c0             	xor    %r8d,%r8d
  406b0f:	45 31 db             	xor    %r11d,%r11d
  406b12:	48 89 44 24 e8       	mov    %rax,-0x18(%rsp)
  406b17:	43 8d 04 09          	lea    (%r9,%r9,1),%eax
  406b1b:	89 74 24 ac          	mov    %esi,-0x54(%rsp)
  406b1f:	42 8d 34 8d 00 00 00 	lea    0x0(,%r9,4),%esi
  406b26:	00 
  406b27:	4c 89 7c 24 e0       	mov    %r15,-0x20(%rsp)
  406b2c:	45 29 cf             	sub    %r9d,%r15d
  406b2f:	48 89 44 24 d8       	mov    %rax,-0x28(%rsp)
  406b34:	8d 04 40             	lea    (%rax,%rax,2),%eax
  406b37:	48 89 44 24 f0       	mov    %rax,-0x10(%rsp)
  406b3c:	43 8d 04 49          	lea    (%r9,%r9,2),%eax
  406b40:	48 8b 7c 24 b8       	mov    -0x48(%rsp),%rdi
  406b45:	4c 8b 74 24 b8       	mov    -0x48(%rsp),%r14
  406b4a:	4c 8b 6c 24 d8       	mov    -0x28(%rsp),%r13
  406b4f:	46 8d 4c 07 02       	lea    0x2(%rdi,%r8,1),%r9d
  406b54:	43 8d 7c 06 03       	lea    0x3(%r14,%r8,1),%edi
  406b59:	47 8d 74 05 02       	lea    0x2(%r13,%r8,1),%r14d
  406b5e:	47 8d 64 05 03       	lea    0x3(%r13,%r8,1),%r12d
  406b63:	c5 fa 10 04 ba       	vmovss (%rdx,%rdi,4),%xmm0
  406b68:	43 8d 7c 1a 03       	lea    0x3(%r10,%r11,1),%edi
  406b6d:	c4 a1 7a 11 04 8a    	vmovss %xmm0,(%rdx,%r9,4)
  406b73:	47 8d 4c 05 04       	lea    0x4(%r13,%r8,1),%r9d
  406b78:	c4 a1 7a 10 04 b2    	vmovss (%rdx,%r14,4),%xmm0
  406b7e:	47 8d 74 05 05       	lea    0x5(%r13,%r8,1),%r14d
  406b83:	46 8d 6c 00 05       	lea    0x5(%rax,%r8,1),%r13d
  406b88:	c4 a1 7a 11 04 a2    	vmovss %xmm0,(%rdx,%r12,4)
  406b8e:	46 8d 64 00 04       	lea    0x4(%rax,%r8,1),%r12d
  406b93:	c5 fa 10 04 ba       	vmovss (%rdx,%rdi,4),%xmm0
  406b98:	42 8d 7c 1b 01       	lea    0x1(%rbx,%r11,1),%edi
  406b9d:	c4 a1 7a 11 44 9a 04 	vmovss %xmm0,0x4(%rdx,%r11,4)
  406ba4:	c5 fa 10 04 ba       	vmovss (%rdx,%rdi,4),%xmm0
  406ba9:	42 8d 7c 19 01       	lea    0x1(%rcx,%r11,1),%edi
  406bae:	c5 fa 11 04 ba       	vmovss %xmm0,(%rdx,%rdi,4)
  406bb3:	43 8d 7c 1a 04       	lea    0x4(%r10,%r11,1),%edi
  406bb8:	c4 a1 7a 10 04 b2    	vmovss (%rdx,%r14,4),%xmm0
  406bbe:	46 8d 74 00 07       	lea    0x7(%rax,%r8,1),%r14d
  406bc3:	c4 a1 7a 11 04 8a    	vmovss %xmm0,(%rdx,%r9,4)
  406bc9:	46 8d 4c 00 06       	lea    0x6(%rax,%r8,1),%r9d
  406bce:	c4 a1 7a 10 04 a2    	vmovss (%rdx,%r12,4),%xmm0
  406bd4:	46 8d 64 06 07       	lea    0x7(%rsi,%r8,1),%r12d
  406bd9:	c4 a1 7a 11 04 aa    	vmovss %xmm0,(%rdx,%r13,4)
  406bdf:	c5 fa 10 04 ba       	vmovss (%rdx,%rdi,4),%xmm0
  406be4:	42 8d 7c 1b 02       	lea    0x2(%rbx,%r11,1),%edi
  406be9:	c4 a1 7a 11 44 9a 08 	vmovss %xmm0,0x8(%rdx,%r11,4)
  406bf0:	c5 fa 10 04 ba       	vmovss (%rdx,%rdi,4),%xmm0
  406bf5:	42 8d 7c 19 02       	lea    0x2(%rcx,%r11,1),%edi
  406bfa:	c5 fa 11 04 ba       	vmovss %xmm0,(%rdx,%rdi,4)
  406bff:	42 8d 7c 06 06       	lea    0x6(%rsi,%r8,1),%edi
  406c04:	c4 a1 7a 10 04 b2    	vmovss (%rdx,%r14,4),%xmm0
  406c0a:	47 8d 74 1a 05       	lea    0x5(%r10,%r11,1),%r14d
  406c0f:	c4 a1 7a 11 04 8a    	vmovss %xmm0,(%rdx,%r9,4)
  406c15:	46 8d 4c 06 08       	lea    0x8(%rsi,%r8,1),%r9d
  406c1a:	c5 fa 10 04 ba       	vmovss (%rdx,%rdi,4),%xmm0
  406c1f:	42 8d 7c 1b 03       	lea    0x3(%rbx,%r11,1),%edi
  406c24:	c4 a1 7a 11 04 a2    	vmovss %xmm0,(%rdx,%r12,4)
  406c2a:	46 8d 64 05 08       	lea    0x8(%rbp,%r8,1),%r12d
  406c2f:	c4 a1 7a 10 04 b2    	vmovss (%rdx,%r14,4),%xmm0
  406c35:	46 8d 74 06 09       	lea    0x9(%rsi,%r8,1),%r14d
  406c3a:	c4 a1 7a 11 44 9a 0c 	vmovss %xmm0,0xc(%rdx,%r11,4)
  406c41:	c5 fa 10 04 ba       	vmovss (%rdx,%rdi,4),%xmm0
  406c46:	42 8d 7c 19 03       	lea    0x3(%rcx,%r11,1),%edi
  406c4b:	c5 fa 11 04 ba       	vmovss %xmm0,(%rdx,%rdi,4)
  406c50:	42 8d 7c 05 09       	lea    0x9(%rbp,%r8,1),%edi
  406c55:	c4 a1 7a 10 04 b2    	vmovss (%rdx,%r14,4),%xmm0
  406c5b:	47 8d 74 1a 06       	lea    0x6(%r10,%r11,1),%r14d
  406c60:	c4 a1 7a 11 04 8a    	vmovss %xmm0,(%rdx,%r9,4)
  406c66:	46 8d 4c 05 0a       	lea    0xa(%rbp,%r8,1),%r9d
  406c6b:	c4 a1 7a 10 04 a2    	vmovss (%rdx,%r12,4),%xmm0
  406c71:	4c 8b 64 24 f0       	mov    -0x10(%rsp),%r12
  406c76:	c5 fa 11 04 ba       	vmovss %xmm0,(%rdx,%rdi,4)
  406c7b:	42 8d 7c 1b 04       	lea    0x4(%rbx,%r11,1),%edi
  406c80:	c4 a1 7a 10 04 b2    	vmovss (%rdx,%r14,4),%xmm0
  406c86:	47 8d 74 04 0a       	lea    0xa(%r12,%r8,1),%r14d
  406c8b:	c4 a1 7a 11 44 9a 10 	vmovss %xmm0,0x10(%rdx,%r11,4)
  406c92:	c5 fa 10 04 ba       	vmovss (%rdx,%rdi,4),%xmm0
  406c97:	42 8d 7c 19 04       	lea    0x4(%rcx,%r11,1),%edi
  406c9c:	c5 fa 11 04 ba       	vmovss %xmm0,(%rdx,%rdi,4)
  406ca1:	42 8d 7c 05 0b       	lea    0xb(%rbp,%r8,1),%edi
  406ca6:	c5 fa 10 04 ba       	vmovss (%rdx,%rdi,4),%xmm0
  406cab:	43 8d 7c 04 0b       	lea    0xb(%r12,%r8,1),%edi
  406cb0:	c4 a1 7a 11 04 8a    	vmovss %xmm0,(%rdx,%r9,4)
  406cb6:	47 8d 4c 1a 07       	lea    0x7(%r10,%r11,1),%r9d
  406cbb:	c4 a1 7a 10 04 b2    	vmovss (%rdx,%r14,4),%xmm0
  406cc1:	47 8d 74 04 0d       	lea    0xd(%r12,%r8,1),%r14d
  406cc6:	c5 fa 11 04 ba       	vmovss %xmm0,(%rdx,%rdi,4)
  406ccb:	42 8d 7c 1b 05       	lea    0x5(%rbx,%r11,1),%edi
  406cd0:	c4 a1 7a 10 04 8a    	vmovss (%rdx,%r9,4),%xmm0
  406cd6:	47 8d 4c 04 0c       	lea    0xc(%r12,%r8,1),%r9d
  406cdb:	c4 a1 7a 11 44 9a 14 	vmovss %xmm0,0x14(%rdx,%r11,4)
  406ce2:	c5 fa 10 04 ba       	vmovss (%rdx,%rdi,4),%xmm0
  406ce7:	42 8d 7c 19 05       	lea    0x5(%rcx,%r11,1),%edi
  406cec:	c5 fa 11 04 ba       	vmovss %xmm0,(%rdx,%rdi,4)
  406cf1:	43 8d 7c 07 0c       	lea    0xc(%r15,%r8,1),%edi
  406cf6:	c4 a1 7a 10 04 b2    	vmovss (%rdx,%r14,4),%xmm0
  406cfc:	47 8d 74 07 0d       	lea    0xd(%r15,%r8,1),%r14d
  406d01:	c4 a1 7a 11 04 8a    	vmovss %xmm0,(%rdx,%r9,4)
  406d07:	47 8d 4c 07 0f       	lea    0xf(%r15,%r8,1),%r9d
  406d0c:	c5 fa 10 04 ba       	vmovss (%rdx,%rdi,4),%xmm0
  406d11:	43 8d 7c 1a 08       	lea    0x8(%r10,%r11,1),%edi
  406d16:	c4 a1 7a 11 04 b2    	vmovss %xmm0,(%rdx,%r14,4)
  406d1c:	4c 8b 74 24 e0       	mov    -0x20(%rsp),%r14
  406d21:	c5 fa 10 04 ba       	vmovss (%rdx,%rdi,4),%xmm0
  406d26:	42 8d 7c 1b 06       	lea    0x6(%rbx,%r11,1),%edi
  406d2b:	c4 a1 7a 11 44 9a 18 	vmovss %xmm0,0x18(%rdx,%r11,4)
  406d32:	c5 fa 10 04 ba       	vmovss (%rdx,%rdi,4),%xmm0
  406d37:	42 8d 7c 19 06       	lea    0x6(%rcx,%r11,1),%edi
  406d3c:	c5 fa 11 04 ba       	vmovss %xmm0,(%rdx,%rdi,4)
  406d41:	43 8d 7c 07 0e       	lea    0xe(%r15,%r8,1),%edi
  406d46:	c4 a1 7a 10 04 8a    	vmovss (%rdx,%r9,4),%xmm0
  406d4c:	47 8d 4c 06 0e       	lea    0xe(%r14,%r8,1),%r9d
  406d51:	c5 fa 11 04 ba       	vmovss %xmm0,(%rdx,%rdi,4)
  406d56:	43 8d 7c 06 0f       	lea    0xf(%r14,%r8,1),%edi
  406d5b:	c4 a1 7a 10 04 8a    	vmovss (%rdx,%r9,4),%xmm0
  406d61:	47 8d 4c 1a 09       	lea    0x9(%r10,%r11,1),%r9d
  406d66:	c5 fa 11 04 ba       	vmovss %xmm0,(%rdx,%rdi,4)
  406d6b:	42 8d 7c 1b 07       	lea    0x7(%rbx,%r11,1),%edi
  406d70:	c4 a1 7a 10 04 8a    	vmovss (%rdx,%r9,4),%xmm0
  406d76:	47 8d 4c 06 10       	lea    0x10(%r14,%r8,1),%r9d
  406d7b:	c4 a1 7a 11 44 9a 1c 	vmovss %xmm0,0x1c(%rdx,%r11,4)
  406d82:	c5 fa 10 04 ba       	vmovss (%rdx,%rdi,4),%xmm0
  406d87:	42 8d 7c 19 07       	lea    0x7(%rcx,%r11,1),%edi
  406d8c:	c5 fa 11 04 ba       	vmovss %xmm0,(%rdx,%rdi,4)
  406d91:	43 8d 7c 06 11       	lea    0x11(%r14,%r8,1),%edi
  406d96:	4c 8b 74 24 e8       	mov    -0x18(%rsp),%r14
  406d9b:	c5 fa 10 04 ba       	vmovss (%rdx,%rdi,4),%xmm0
  406da0:	43 8d 7c 06 10       	lea    0x10(%r14,%r8,1),%edi
  406da5:	c4 a1 7a 11 04 8a    	vmovss %xmm0,(%rdx,%r9,4)
  406dab:	47 8d 4c 06 11       	lea    0x11(%r14,%r8,1),%r9d
  406db0:	44 03 44 24 ac       	add    -0x54(%rsp),%r8d
  406db5:	c5 fa 10 04 ba       	vmovss (%rdx,%rdi,4),%xmm0
  406dba:	43 8d 7c 1a 0a       	lea    0xa(%r10,%r11,1),%edi
  406dbf:	c4 a1 7a 11 04 8a    	vmovss %xmm0,(%rdx,%r9,4)
  406dc5:	4c 8b 4c 24 b8       	mov    -0x48(%rsp),%r9
  406dca:	c5 fa 10 04 ba       	vmovss (%rdx,%rdi,4),%xmm0
  406dcf:	42 8d 7c 1b 08       	lea    0x8(%rbx,%r11,1),%edi
  406dd4:	c4 a1 7a 11 44 9a 20 	vmovss %xmm0,0x20(%rdx,%r11,4)
  406ddb:	c5 fa 10 04 ba       	vmovss (%rdx,%rdi,4),%xmm0
  406de0:	42 8d 7c 19 08       	lea    0x8(%rcx,%r11,1),%edi
  406de5:	49 83 c3 08          	add    $0x8,%r11
  406de9:	c5 fa 11 04 ba       	vmovss %xmm0,(%rdx,%rdi,4)
  406dee:	4c 39 5c 24 b0       	cmp    %r11,-0x50(%rsp)
  406df3:	0f 85 47 fd ff ff    	jne    406b40 <set_bnd+0x960>
  406df9:	8b 6c 24 a8          	mov    -0x58(%rsp),%ebp
  406dfd:	4c 8b 74 24 d0       	mov    -0x30(%rsp),%r14
  406e02:	4c 8b 7c 24 c8       	mov    -0x38(%rsp),%r15
  406e07:	4c 8b 64 24 c0       	mov    -0x40(%rsp),%r12
  406e0c:	4c 8b 6c 24 f8       	mov    -0x8(%rsp),%r13
  406e11:	49 ff c3             	inc    %r11
  406e14:	4d 85 ed             	test   %r13,%r13
  406e17:	0f 84 7f 00 00 00    	je     406e9c <set_bnd+0xcbc>
  406e1d:	4a 8d 04 9a          	lea    (%rdx,%r11,4),%rax
  406e21:	43 8d 0c 1e          	lea    (%r14,%r11,1),%ecx
  406e25:	43 8d 34 1f          	lea    (%r15,%r11,1),%esi
  406e29:	43 8d 7c 19 02       	lea    0x2(%r9,%r11,1),%edi
  406e2e:	45 0f af dc          	imul   %r12d,%r11d
  406e32:	31 db                	xor    %ebx,%ebx
  406e34:	47 8d 04 19          	lea    (%r9,%r11,1),%r8d
  406e38:	0f 1f 84 00 00 00 00 	nopl   0x0(%rax,%rax,1)
  406e3f:	00 
  406e40:	45 8d 4b 01          	lea    0x1(%r11),%r9d
  406e44:	c4 a1 7a 10 04 8a    	vmovss (%rdx,%r9,4),%xmm0
  406e4a:	45 89 d9             	mov    %r11d,%r9d
  406e4d:	45 01 e3             	add    %r12d,%r11d
  406e50:	c4 a1 7a 11 04 8a    	vmovss %xmm0,(%rdx,%r9,4)
  406e56:	45 89 c1             	mov    %r8d,%r9d
  406e59:	c4 a1 7a 10 04 8a    	vmovss (%rdx,%r9,4),%xmm0
  406e5f:	45 8d 48 01          	lea    0x1(%r8),%r9d
  406e63:	45 01 e0             	add    %r12d,%r8d
  406e66:	c4 a1 7a 11 04 8a    	vmovss %xmm0,(%rdx,%r9,4)
  406e6c:	44 8d 0c 1f          	lea    (%rdi,%rbx,1),%r9d
  406e70:	c4 a1 7a 10 04 8a    	vmovss (%rdx,%r9,4),%xmm0
  406e76:	44 8d 0c 1e          	lea    (%rsi,%rbx,1),%r9d
  406e7a:	c5 fa 11 04 98       	vmovss %xmm0,(%rax,%rbx,4)
  406e7f:	c4 a1 7a 10 04 8a    	vmovss (%rdx,%r9,4),%xmm0
  406e85:	44 8d 0c 19          	lea    (%rcx,%rbx,1),%r9d
  406e89:	48 ff c3             	inc    %rbx
  406e8c:	c4 a1 7a 11 04 8a    	vmovss %xmm0,(%rdx,%r9,4)
  406e92:	49 39 dd             	cmp    %rbx,%r13
  406e95:	75 a9                	jne    406e40 <set_bnd+0xc60>
  406e97:	4c 8b 4c 24 b8       	mov    -0x48(%rsp),%r9
  406e9c:	44 89 e0             	mov    %r12d,%eax
  406e9f:	c5 fa 10 04 82       	vmovss (%rdx,%rax,4),%xmm0
  406ea4:	c5 fa 10 0d 68 61 00 	vmovss 0x6168(%rip),%xmm1        # 40d014 <_IO_stdin_used+0x14>
  406eab:	00 
  406eac:	44 89 f9             	mov    %r15d,%ecx
  406eaf:	41 8d 46 01          	lea    0x1(%r14),%eax
  406eb3:	41 01 ec             	add    %ebp,%r12d
  406eb6:	41 01 ef             	add    %ebp,%r15d
  406eb9:	45 01 f1             	add    %r14d,%r9d
  406ebc:	c5 fa 58 42 04       	vaddss 0x4(%rdx),%xmm0,%xmm0
  406ec1:	c5 fa 59 c1          	vmulss %xmm1,%xmm0,%xmm0
  406ec5:	c5 fa 11 02          	vmovss %xmm0,(%rdx)
  406ec9:	c5 fa 10 04 8a       	vmovss (%rdx,%rcx,4),%xmm0
  406ece:	c5 fa 58 04 82       	vaddss (%rdx,%rax,4),%xmm0,%xmm0
  406ed3:	44 89 f0             	mov    %r14d,%eax
  406ed6:	41 01 ee             	add    %ebp,%r14d
  406ed9:	c5 fa 59 c1          	vmulss %xmm1,%xmm0,%xmm0
  406edd:	c5 fa 11 04 82       	vmovss %xmm0,(%rdx,%rax,4)
  406ee2:	89 e8                	mov    %ebp,%eax
  406ee4:	c4 a1 7a 10 04 a2    	vmovss (%rdx,%r12,4),%xmm0
  406eea:	c4 a1 7a 58 04 92    	vaddss (%rdx,%r10,4),%xmm0,%xmm0
  406ef0:	c5 fa 59 c1          	vmulss %xmm1,%xmm0,%xmm0
  406ef4:	c5 fa 11 04 82       	vmovss %xmm0,(%rdx,%rax,4)
  406ef9:	c4 a1 7a 10 04 ba    	vmovss (%rdx,%r15,4),%xmm0
  406eff:	c4 a1 7a 58 04 8a    	vaddss (%rdx,%r9,4),%xmm0,%xmm0
  406f05:	c5 fa 59 c1          	vmulss %xmm1,%xmm0,%xmm0
  406f09:	c4 a1 7a 11 04 b2    	vmovss %xmm0,(%rdx,%r14,4)
  406f0f:	5b                   	pop    %rbx
  406f10:	41 5c                	pop    %r12
  406f12:	41 5d                	pop    %r13
  406f14:	41 5e                	pop    %r14
  406f16:	41 5f                	pop    %r15
  406f18:	5d                   	pop    %rbp
  406f19:	c3                   	ret
  406f1a:	66 0f 1f 44 00 00    	nopw   0x0(%rax,%rax,1)

0000000000406f20 <wtime>:
  406f20:	48 83 ec 18          	sub    $0x18,%rsp
  406f24:	48 8d 74 24 08       	lea    0x8(%rsp),%rsi
  406f29:	bf 04 00 00 00       	mov    $0x4,%edi
  406f2e:	e8 2d a1 ff ff       	call   401060 <clock_gettime@plt>
  406f33:	c4 e1 fb 2a 4c 24 10 	vcvtsi2sdq 0x10(%rsp),%xmm0,%xmm1
  406f3a:	c4 e1 fb 2a 44 24 08 	vcvtsi2sdq 0x8(%rsp),%xmm0,%xmm0
  406f41:	c4 e2 f1 b9 05 06 61 	vfmadd231sd 0x6106(%rip),%xmm1,%xmm0        # 40d050 <_IO_stdin_used+0x50>
  406f48:	00 00 
  406f4a:	48 83 c4 18          	add    $0x18,%rsp
  406f4e:	c3                   	ret
  406f4f:	90                   	nop

0000000000406f50 <__intel_get_fast_memset_impl.V>:
  406f50:	48 c7 c0 10 89 40 00 	mov    $0x408910,%rax
  406f57:	c3                   	ret
  406f58:	0f 1f 84 00 00 00 00 	nopl   0x0(%rax,%rax,1)
  406f5f:	00 

0000000000406f60 <__intel_get_fast_memset_impl.Z>:
  406f60:	48 c7 c0 40 70 40 00 	mov    $0x407040,%rax
  406f67:	c3                   	ret
  406f68:	0f 1f 84 00 00 00 00 	nopl   0x0(%rax,%rax,1)
  406f6f:	00 

0000000000406f70 <_intel_fast_memset>:
  406f70:	f3 0f 1e fa          	endbr64
  406f74:	48 8b 05 05 a2 00 00 	mov    0xa205(%rip),%rax        # 411180 <__real_memset_impl>
  406f7b:	48 85 c0             	test   %rax,%rax
  406f7e:	0f 84 0c 00 00 00    	je     406f90 <__real_memset_impl_setup>
  406f84:	ff e0                	jmp    *%rax
  406f86:	66 2e 0f 1f 84 00 00 	cs nopw 0x0(%rax,%rax,1)
  406f8d:	00 00 00 

0000000000406f90 <__real_memset_impl_setup>:
  406f90:	55                   	push   %rbp
  406f91:	41 56                	push   %r14
  406f93:	53                   	push   %rbx
  406f94:	48 89 d3             	mov    %rdx,%rbx
  406f97:	89 f5                	mov    %esi,%ebp
  406f99:	49 89 fe             	mov    %rdi,%r14
  406f9c:	48 c7 c1 a0 11 41 00 	mov    $0x4111a0,%rcx
  406fa3:	48 8b 01             	mov    (%rcx),%rax
  406fa6:	48 85 c0             	test   %rax,%rax
  406fa9:	75 12                	jne    406fbd <__real_memset_impl_setup+0x2d>
  406fab:	0f 1f 44 00 00       	nopl   0x0(%rax,%rax,1)
  406fb0:	e8 eb 46 00 00       	call   40b6a0 <__intel_cpu_features_init_x>
  406fb5:	48 8b 01             	mov    (%rcx),%rax
  406fb8:	48 85 c0             	test   %rax,%rax
  406fbb:	74 f3                	je     406fb0 <__real_memset_impl_setup+0x20>
  406fbd:	48 89 c1             	mov    %rax,%rcx
  406fc0:	48 f7 d1             	not    %rcx
  406fc3:	48 ba ec 9f 9d 18 07 	movabs $0x7189d9fec,%rdx
  406fca:	00 00 00 
  406fcd:	48 85 d1             	test   %rdx,%rcx
  406fd0:	75 07                	jne    406fd9 <__real_memset_impl_setup+0x49>
  406fd2:	e8 89 ff ff ff       	call   406f60 <__intel_get_fast_memset_impl.Z>
  406fd7:	eb 29                	jmp    407002 <__real_memset_impl_setup+0x72>
  406fd9:	89 c1                	mov    %eax,%ecx
  406fdb:	f7 d1                	not    %ecx
  406fdd:	f7 c1 ec 9f 9d 00    	test   $0x9d9fec,%ecx
  406fe3:	75 07                	jne    406fec <__real_memset_impl_setup+0x5c>
  406fe5:	e8 66 ff ff ff       	call   406f50 <__intel_get_fast_memset_impl.V>
  406fea:	eb 16                	jmp    407002 <__real_memset_impl_setup+0x72>
  406fec:	f7 d0                	not    %eax
  406fee:	a8 6c                	test   $0x6c,%al
  406ff0:	75 09                	jne    406ffb <__real_memset_impl_setup+0x6b>
  406ff2:	48 c7 c0 e0 99 40 00 	mov    $0x4099e0,%rax
  406ff9:	eb 07                	jmp    407002 <__real_memset_impl_setup+0x72>
  406ffb:	48 8b 05 be 9f 00 00 	mov    0x9fbe(%rip),%rax        # 410fc0 <memset@GLIBC_2.2.5>
  407002:	48 89 05 77 a1 00 00 	mov    %rax,0xa177(%rip)        # 411180 <__real_memset_impl>
  407009:	4c 89 f7             	mov    %r14,%rdi
  40700c:	89 ee                	mov    %ebp,%esi
  40700e:	48 89 da             	mov    %rbx,%rdx
  407011:	5b                   	pop    %rbx
  407012:	41 5e                	pop    %r14
  407014:	5d                   	pop    %rbp
  407015:	ff e0                	jmp    *%rax
  407017:	90                   	nop
  407018:	66 2e 0f 1f 84 00 00 	cs nopw 0x0(%rax,%rax,1)
  40701f:	00 00 00 
  407022:	66 2e 0f 1f 84 00 00 	cs nopw 0x0(%rax,%rax,1)
  407029:	00 00 00 
  40702c:	66 2e 0f 1f 84 00 00 	cs nopw 0x0(%rax,%rax,1)
  407033:	00 00 00 
  407036:	66 2e 0f 1f 84 00 00 	cs nopw 0x0(%rax,%rax,1)
  40703d:	00 00 00 

0000000000407040 <__intel_mic_avx512f_memset>:
  407040:	f3 0f 1e fa          	endbr64
  407044:	48 89 f8             	mov    %rdi,%rax
  407047:	48 c7 c1 d0 10 41 00 	mov    $0x4110d0,%rcx
  40704e:	49 b8 01 01 01 01 01 	movabs $0x101010101010101,%r8
  407055:	01 01 01 
  407058:	4c 0f b6 ce          	movzbq %sil,%r9
  40705c:	4d 0f af c8          	imul   %r8,%r9
  407060:	48 8d 35 99 14 00 00 	lea    0x1499(%rip),%rsi        # 408500 <__intel_mic_avx512f_memset+0x14c0>
  407067:	62 d2 7d 48 7c c1    	vpbroadcastd %r9d,%zmm0
  40706d:	48 81 fa 80 00 00 00 	cmp    $0x80,%rdx
  407074:	7d 0c                	jge    407082 <__intel_mic_avx512f_memset+0x42>
  407076:	49 89 f8             	mov    %rdi,%r8
  407079:	49 01 d0             	add    %rdx,%r8
  40707c:	48 2b 34 d6          	sub    (%rsi,%rdx,8),%rsi
  407080:	ff e6                	jmp    *%rsi
  407082:	48 8d 35 77 02 00 00 	lea    0x277(%rip),%rsi        # 407300 <__intel_mic_avx512f_memset+0x2c0>
  407089:	49 89 fa             	mov    %rdi,%r10
  40708c:	49 f7 da             	neg    %r10
  40708f:	49 83 c2 40          	add    $0x40,%r10
  407093:	49 83 e2 3f          	and    $0x3f,%r10
  407097:	74 12                	je     4070ab <__intel_mic_avx512f_memset+0x6b>
  407099:	4c 29 d2             	sub    %r10,%rdx
  40709c:	49 89 f8             	mov    %rdi,%r8
  40709f:	4d 01 d0             	add    %r10,%r8
  4070a2:	4a 2b 34 d6          	sub    (%rsi,%r10,8),%rsi
  4070a6:	ff e6                	jmp    *%rsi
  4070a8:	4c 01 d7             	add    %r10,%rdi
  4070ab:	48 81 fa 00 02 00 00 	cmp    $0x200,%rdx
  4070b2:	0f 8c 21 01 00 00    	jl     4071d9 <__intel_mic_avx512f_memset+0x199>
  4070b8:	48 3b 11             	cmp    (%rcx),%rdx
  4070bb:	73 53                	jae    407110 <__intel_mic_avx512f_memset+0xd0>
  4070bd:	62 f1 7c 48 29 07    	vmovaps %zmm0,(%rdi)
  4070c3:	62 f1 7c 48 29 47 01 	vmovaps %zmm0,0x40(%rdi)
  4070ca:	62 f1 7c 48 29 47 02 	vmovaps %zmm0,0x80(%rdi)
  4070d1:	62 f1 7c 48 29 47 03 	vmovaps %zmm0,0xc0(%rdi)
  4070d8:	48 8d bf 00 02 00 00 	lea    0x200(%rdi),%rdi
  4070df:	48 81 ea 00 02 00 00 	sub    $0x200,%rdx
  4070e6:	62 f1 7c 48 29 47 fc 	vmovaps %zmm0,-0x100(%rdi)
  4070ed:	62 f1 7c 48 29 47 fd 	vmovaps %zmm0,-0xc0(%rdi)
  4070f4:	62 f1 7c 48 29 47 fe 	vmovaps %zmm0,-0x80(%rdi)
  4070fb:	62 f1 7c 48 29 47 ff 	vmovaps %zmm0,-0x40(%rdi)
  407102:	48 81 fa 00 02 00 00 	cmp    $0x200,%rdx
  407109:	7d b2                	jge    4070bd <__intel_mic_avx512f_memset+0x7d>
  40710b:	e9 c9 00 00 00       	jmp    4071d9 <__intel_mic_avx512f_memset+0x199>
  407110:	62 f1 7d 48 e7 07    	vmovntdq %zmm0,(%rdi)
  407116:	62 f1 7d 48 e7 47 01 	vmovntdq %zmm0,0x40(%rdi)
  40711d:	62 f1 7d 48 e7 47 02 	vmovntdq %zmm0,0x80(%rdi)
  407124:	62 f1 7d 48 e7 47 03 	vmovntdq %zmm0,0xc0(%rdi)
  40712b:	48 8d bf 00 02 00 00 	lea    0x200(%rdi),%rdi
  407132:	48 81 ea 00 02 00 00 	sub    $0x200,%rdx
  407139:	62 f1 7d 48 e7 47 fc 	vmovntdq %zmm0,-0x100(%rdi)
  407140:	62 f1 7d 48 e7 47 fd 	vmovntdq %zmm0,-0xc0(%rdi)
  407147:	62 f1 7d 48 e7 47 fe 	vmovntdq %zmm0,-0x80(%rdi)
  40714e:	62 f1 7d 48 e7 47 ff 	vmovntdq %zmm0,-0x40(%rdi)
  407155:	48 81 fa 00 02 00 00 	cmp    $0x200,%rdx
  40715c:	7d b2                	jge    407110 <__intel_mic_avx512f_memset+0xd0>
  40715e:	0f ae f8             	sfence
  407161:	eb 76                	jmp    4071d9 <__intel_mic_avx512f_memset+0x199>
  407163:	44 88 0f             	mov    %r9b,(%rdi)
  407166:	e9 3d ff ff ff       	jmp    4070a8 <__intel_mic_avx512f_memset+0x68>
  40716b:	66 44 89 0f          	mov    %r9w,(%rdi)
  40716f:	e9 34 ff ff ff       	jmp    4070a8 <__intel_mic_avx512f_memset+0x68>
  407174:	66 44 89 0f          	mov    %r9w,(%rdi)
  407178:	44 88 4f 02          	mov    %r9b,0x2(%rdi)
  40717c:	e9 27 ff ff ff       	jmp    4070a8 <__intel_mic_avx512f_memset+0x68>
  407181:	44 89 0f             	mov    %r9d,(%rdi)
  407184:	e9 1f ff ff ff       	jmp    4070a8 <__intel_mic_avx512f_memset+0x68>
  407189:	44 89 0f             	mov    %r9d,(%rdi)
  40718c:	45 89 48 fc          	mov    %r9d,-0x4(%r8)
  407190:	e9 13 ff ff ff       	jmp    4070a8 <__intel_mic_avx512f_memset+0x68>
  407195:	4c 89 0f             	mov    %r9,(%rdi)
  407198:	e9 0b ff ff ff       	jmp    4070a8 <__intel_mic_avx512f_memset+0x68>
  40719d:	4c 89 0f             	mov    %r9,(%rdi)
  4071a0:	4d 89 48 f8          	mov    %r9,-0x8(%r8)
  4071a4:	e9 ff fe ff ff       	jmp    4070a8 <__intel_mic_avx512f_memset+0x68>
  4071a9:	c5 f8 11 07          	vmovups %xmm0,(%rdi)
  4071ad:	e9 f6 fe ff ff       	jmp    4070a8 <__intel_mic_avx512f_memset+0x68>
  4071b2:	c5 f8 11 07          	vmovups %xmm0,(%rdi)
  4071b6:	c4 c1 78 11 40 f0    	vmovups %xmm0,-0x10(%r8)
  4071bc:	e9 e7 fe ff ff       	jmp    4070a8 <__intel_mic_avx512f_memset+0x68>
  4071c1:	c5 fc 11 07          	vmovups %ymm0,(%rdi)
  4071c5:	e9 de fe ff ff       	jmp    4070a8 <__intel_mic_avx512f_memset+0x68>
  4071ca:	c5 fc 11 07          	vmovups %ymm0,(%rdi)
  4071ce:	c4 c1 7c 11 40 e0    	vmovups %ymm0,-0x20(%r8)
  4071d4:	e9 cf fe ff ff       	jmp    4070a8 <__intel_mic_avx512f_memset+0x68>
  4071d9:	49 89 f8             	mov    %rdi,%r8
  4071dc:	49 01 d0             	add    %rdx,%r8
  4071df:	48 01 d7             	add    %rdx,%rdi
  4071e2:	48 83 e7 c0          	and    $0xffffffffffffffc0,%rdi
  4071e6:	48 8d 35 13 03 00 00 	lea    0x313(%rip),%rsi        # 407500 <__intel_mic_avx512f_memset+0x4c0>
  4071ed:	48 2b 34 d6          	sub    (%rsi,%rdx,8),%rsi
  4071f1:	ff e6                	jmp    *%rsi
  4071f3:	62 f1 7c 48 29 47 f9 	vmovaps %zmm0,-0x1c0(%rdi)
  4071fa:	62 f1 7c 48 29 47 fa 	vmovaps %zmm0,-0x180(%rdi)
  407201:	62 f1 7c 48 29 47 fb 	vmovaps %zmm0,-0x140(%rdi)
  407208:	62 f1 7c 48 29 47 fc 	vmovaps %zmm0,-0x100(%rdi)
  40720f:	62 f1 7c 48 29 47 fd 	vmovaps %zmm0,-0xc0(%rdi)
  407216:	62 f1 7c 48 29 47 fe 	vmovaps %zmm0,-0x80(%rdi)
  40721d:	62 f1 7c 48 29 47 ff 	vmovaps %zmm0,-0x40(%rdi)
  407224:	4c 89 c2             	mov    %r8,%rdx
  407227:	48 83 e2 3f          	and    $0x3f,%rdx
  40722b:	48 8d 35 ce 02 00 00 	lea    0x2ce(%rip),%rsi        # 407500 <__intel_mic_avx512f_memset+0x4c0>
  407232:	48 2b 34 d6          	sub    (%rsi,%rdx,8),%rsi
  407236:	ff e6                	jmp    *%rsi
  407238:	44 88 0f             	mov    %r9b,(%rdi)
  40723b:	e9 c0 16 00 00       	jmp    408900 <__intel_mic_avx512f_memset+0x18c0>
  407240:	e9 bb 16 00 00       	jmp    408900 <__intel_mic_avx512f_memset+0x18c0>
  407245:	66 44 89 0f          	mov    %r9w,(%rdi)
  407249:	e9 b2 16 00 00       	jmp    408900 <__intel_mic_avx512f_memset+0x18c0>
  40724e:	66 44 89 0f          	mov    %r9w,(%rdi)
  407252:	44 88 4f 02          	mov    %r9b,0x2(%rdi)
  407256:	e9 a5 16 00 00       	jmp    408900 <__intel_mic_avx512f_memset+0x18c0>
  40725b:	44 89 0f             	mov    %r9d,(%rdi)
  40725e:	e9 9d 16 00 00       	jmp    408900 <__intel_mic_avx512f_memset+0x18c0>
  407263:	44 89 0f             	mov    %r9d,(%rdi)
  407266:	45 89 48 fc          	mov    %r9d,-0x4(%r8)
  40726a:	e9 91 16 00 00       	jmp    408900 <__intel_mic_avx512f_memset+0x18c0>
  40726f:	4c 89 0f             	mov    %r9,(%rdi)
  407272:	e9 89 16 00 00       	jmp    408900 <__intel_mic_avx512f_memset+0x18c0>
  407277:	4c 89 0f             	mov    %r9,(%rdi)
  40727a:	4d 89 48 f8          	mov    %r9,-0x8(%r8)
  40727e:	e9 7d 16 00 00       	jmp    408900 <__intel_mic_avx512f_memset+0x18c0>
  407283:	c5 f8 11 07          	vmovups %xmm0,(%rdi)
  407287:	e9 74 16 00 00       	jmp    408900 <__intel_mic_avx512f_memset+0x18c0>
  40728c:	c5 f8 11 07          	vmovups %xmm0,(%rdi)
  407290:	c4 c1 78 11 40 f0    	vmovups %xmm0,-0x10(%r8)
  407296:	e9 65 16 00 00       	jmp    408900 <__intel_mic_avx512f_memset+0x18c0>
  40729b:	c5 fc 11 07          	vmovups %ymm0,(%rdi)
  40729f:	e9 5c 16 00 00       	jmp    408900 <__intel_mic_avx512f_memset+0x18c0>
  4072a4:	c5 fc 11 07          	vmovups %ymm0,(%rdi)
  4072a8:	c4 c1 7c 11 40 e0    	vmovups %ymm0,-0x20(%r8)
  4072ae:	e9 4d 16 00 00       	jmp    408900 <__intel_mic_avx512f_memset+0x18c0>
  4072b3:	62 f1 7c 48 11 07    	vmovups %zmm0,(%rdi)
  4072b9:	e9 42 16 00 00       	jmp    408900 <__intel_mic_avx512f_memset+0x18c0>
  4072be:	62 f1 7c 48 11 07    	vmovups %zmm0,(%rdi)
  4072c4:	62 d1 7c 48 11 40 ff 	vmovups %zmm0,-0x40(%r8)
  4072cb:	e9 30 16 00 00       	jmp    408900 <__intel_mic_avx512f_memset+0x18c0>
  4072d0:	66 66 66 66 66 66 2e 	data16 data16 data16 data16 data16 cs nopw 0x0(%rax,%rax,1)
  4072d7:	0f 1f 84 00 00 00 00 
  4072de:	00 
  4072df:	66 66 66 66 66 66 2e 	data16 data16 data16 data16 data16 cs nopw 0x0(%rax,%rax,1)
  4072e6:	0f 1f 84 00 00 00 00 
  4072ed:	00 
  4072ee:	66 66 66 66 66 66 2e 	data16 data16 data16 data16 data16 cs nopw 0x0(%rax,%rax,1)
  4072f5:	0f 1f 84 00 00 00 00 
  4072fc:	00 
  4072fd:	0f 1f 00             	nopl   (%rax)
  407300:	9a                   	(bad)
  407301:	01 00                	add    %eax,(%rax)
  407303:	00 00                	add    %al,(%rax)
  407305:	00 00                	add    %al,(%rax)
  407307:	00 9d 01 00 00 00    	add    %bl,0x1(%rbp)
  40730d:	00 00                	add    %al,(%rax)
  40730f:	00 95 01 00 00 00    	add    %dl,0x1(%rbp)
  407315:	00 00                	add    %al,(%rax)
  407317:	00 8c 01 00 00 00 00 	add    %cl,0x0(%rcx,%rax,1)
  40731e:	00 00                	add    %al,(%rax)
  407320:	7f 01                	jg     407323 <__intel_mic_avx512f_memset+0x2e3>
  407322:	00 00                	add    %al,(%rax)
  407324:	00 00                	add    %al,(%rax)
  407326:	00 00                	add    %al,(%rax)
  407328:	77 01                	ja     40732b <__intel_mic_avx512f_memset+0x2eb>
  40732a:	00 00                	add    %al,(%rax)
  40732c:	00 00                	add    %al,(%rax)
  40732e:	00 00                	add    %al,(%rax)
  407330:	77 01                	ja     407333 <__intel_mic_avx512f_memset+0x2f3>
  407332:	00 00                	add    %al,(%rax)
  407334:	00 00                	add    %al,(%rax)
  407336:	00 00                	add    %al,(%rax)
  407338:	77 01                	ja     40733b <__intel_mic_avx512f_memset+0x2fb>
  40733a:	00 00                	add    %al,(%rax)
  40733c:	00 00                	add    %al,(%rax)
  40733e:	00 00                	add    %al,(%rax)
  407340:	6b 01 00             	imul   $0x0,(%rcx),%eax
  407343:	00 00                	add    %al,(%rax)
  407345:	00 00                	add    %al,(%rax)
  407347:	00 63 01             	add    %ah,0x1(%rbx)
  40734a:	00 00                	add    %al,(%rax)
  40734c:	00 00                	add    %al,(%rax)
  40734e:	00 00                	add    %al,(%rax)
  407350:	63 01                	movsxd (%rcx),%eax
  407352:	00 00                	add    %al,(%rax)
  407354:	00 00                	add    %al,(%rax)
  407356:	00 00                	add    %al,(%rax)
  407358:	63 01                	movsxd (%rcx),%eax
  40735a:	00 00                	add    %al,(%rax)
  40735c:	00 00                	add    %al,(%rax)
  40735e:	00 00                	add    %al,(%rax)
  407360:	63 01                	movsxd (%rcx),%eax
  407362:	00 00                	add    %al,(%rax)
  407364:	00 00                	add    %al,(%rax)
  407366:	00 00                	add    %al,(%rax)
  407368:	63 01                	movsxd (%rcx),%eax
  40736a:	00 00                	add    %al,(%rax)
  40736c:	00 00                	add    %al,(%rax)
  40736e:	00 00                	add    %al,(%rax)
  407370:	63 01                	movsxd (%rcx),%eax
  407372:	00 00                	add    %al,(%rax)
  407374:	00 00                	add    %al,(%rax)
  407376:	00 00                	add    %al,(%rax)
  407378:	63 01                	movsxd (%rcx),%eax
  40737a:	00 00                	add    %al,(%rax)
  40737c:	00 00                	add    %al,(%rax)
  40737e:	00 00                	add    %al,(%rax)
  407380:	57                   	push   %rdi
  407381:	01 00                	add    %eax,(%rax)
  407383:	00 00                	add    %al,(%rax)
  407385:	00 00                	add    %al,(%rax)
  407387:	00 4e 01             	add    %cl,0x1(%rsi)
  40738a:	00 00                	add    %al,(%rax)
  40738c:	00 00                	add    %al,(%rax)
  40738e:	00 00                	add    %al,(%rax)
  407390:	4e 01 00             	rex.WRX add %r8,(%rax)
  407393:	00 00                	add    %al,(%rax)
  407395:	00 00                	add    %al,(%rax)
  407397:	00 4e 01             	add    %cl,0x1(%rsi)
  40739a:	00 00                	add    %al,(%rax)
  40739c:	00 00                	add    %al,(%rax)
  40739e:	00 00                	add    %al,(%rax)
  4073a0:	4e 01 00             	rex.WRX add %r8,(%rax)
  4073a3:	00 00                	add    %al,(%rax)
  4073a5:	00 00                	add    %al,(%rax)
  4073a7:	00 4e 01             	add    %cl,0x1(%rsi)
  4073aa:	00 00                	add    %al,(%rax)
  4073ac:	00 00                	add    %al,(%rax)
  4073ae:	00 00                	add    %al,(%rax)
  4073b0:	4e 01 00             	rex.WRX add %r8,(%rax)
  4073b3:	00 00                	add    %al,(%rax)
  4073b5:	00 00                	add    %al,(%rax)
  4073b7:	00 4e 01             	add    %cl,0x1(%rsi)
  4073ba:	00 00                	add    %al,(%rax)
  4073bc:	00 00                	add    %al,(%rax)
  4073be:	00 00                	add    %al,(%rax)
  4073c0:	4e 01 00             	rex.WRX add %r8,(%rax)
  4073c3:	00 00                	add    %al,(%rax)
  4073c5:	00 00                	add    %al,(%rax)
  4073c7:	00 4e 01             	add    %cl,0x1(%rsi)
  4073ca:	00 00                	add    %al,(%rax)
  4073cc:	00 00                	add    %al,(%rax)
  4073ce:	00 00                	add    %al,(%rax)
  4073d0:	4e 01 00             	rex.WRX add %r8,(%rax)
  4073d3:	00 00                	add    %al,(%rax)
  4073d5:	00 00                	add    %al,(%rax)
  4073d7:	00 4e 01             	add    %cl,0x1(%rsi)
  4073da:	00 00                	add    %al,(%rax)
  4073dc:	00 00                	add    %al,(%rax)
  4073de:	00 00                	add    %al,(%rax)
  4073e0:	4e 01 00             	rex.WRX add %r8,(%rax)
  4073e3:	00 00                	add    %al,(%rax)
  4073e5:	00 00                	add    %al,(%rax)
  4073e7:	00 4e 01             	add    %cl,0x1(%rsi)
  4073ea:	00 00                	add    %al,(%rax)
  4073ec:	00 00                	add    %al,(%rax)
  4073ee:	00 00                	add    %al,(%rax)
  4073f0:	4e 01 00             	rex.WRX add %r8,(%rax)
  4073f3:	00 00                	add    %al,(%rax)
  4073f5:	00 00                	add    %al,(%rax)
  4073f7:	00 4e 01             	add    %cl,0x1(%rsi)
  4073fa:	00 00                	add    %al,(%rax)
  4073fc:	00 00                	add    %al,(%rax)
  4073fe:	00 00                	add    %al,(%rax)
  407400:	3f                   	(bad)
  407401:	01 00                	add    %eax,(%rax)
  407403:	00 00                	add    %al,(%rax)
  407405:	00 00                	add    %al,(%rax)
  407407:	00 36                	add    %dh,(%rsi)
  407409:	01 00                	add    %eax,(%rax)
  40740b:	00 00                	add    %al,(%rax)
  40740d:	00 00                	add    %al,(%rax)
  40740f:	00 36                	add    %dh,(%rsi)
  407411:	01 00                	add    %eax,(%rax)
  407413:	00 00                	add    %al,(%rax)
  407415:	00 00                	add    %al,(%rax)
  407417:	00 36                	add    %dh,(%rsi)
  407419:	01 00                	add    %eax,(%rax)
  40741b:	00 00                	add    %al,(%rax)
  40741d:	00 00                	add    %al,(%rax)
  40741f:	00 36                	add    %dh,(%rsi)
  407421:	01 00                	add    %eax,(%rax)
  407423:	00 00                	add    %al,(%rax)
  407425:	00 00                	add    %al,(%rax)
  407427:	00 36                	add    %dh,(%rsi)
  407429:	01 00                	add    %eax,(%rax)
  40742b:	00 00                	add    %al,(%rax)
  40742d:	00 00                	add    %al,(%rax)
  40742f:	00 36                	add    %dh,(%rsi)
  407431:	01 00                	add    %eax,(%rax)
  407433:	00 00                	add    %al,(%rax)
  407435:	00 00                	add    %al,(%rax)
  407437:	00 36                	add    %dh,(%rsi)
  407439:	01 00                	add    %eax,(%rax)
  40743b:	00 00                	add    %al,(%rax)
  40743d:	00 00                	add    %al,(%rax)
  40743f:	00 36                	add    %dh,(%rsi)
  407441:	01 00                	add    %eax,(%rax)
  407443:	00 00                	add    %al,(%rax)
  407445:	00 00                	add    %al,(%rax)
  407447:	00 36                	add    %dh,(%rsi)
  407449:	01 00                	add    %eax,(%rax)
  40744b:	00 00                	add    %al,(%rax)
  40744d:	00 00                	add    %al,(%rax)
  40744f:	00 36                	add    %dh,(%rsi)
  407451:	01 00                	add    %eax,(%rax)
  407453:	00 00                	add    %al,(%rax)
  407455:	00 00                	add    %al,(%rax)
  407457:	00 36                	add    %dh,(%rsi)
  407459:	01 00                	add    %eax,(%rax)
  40745b:	00 00                	add    %al,(%rax)
  40745d:	00 00                	add    %al,(%rax)
  40745f:	00 36                	add    %dh,(%rsi)
  407461:	01 00                	add    %eax,(%rax)
  407463:	00 00                	add    %al,(%rax)
  407465:	00 00                	add    %al,(%rax)
  407467:	00 36                	add    %dh,(%rsi)
  407469:	01 00                	add    %eax,(%rax)
  40746b:	00 00                	add    %al,(%rax)
  40746d:	00 00                	add    %al,(%rax)
  40746f:	00 36                	add    %dh,(%rsi)
  407471:	01 00                	add    %eax,(%rax)
  407473:	00 00                	add    %al,(%rax)
  407475:	00 00                	add    %al,(%rax)
  407477:	00 36                	add    %dh,(%rsi)
  407479:	01 00                	add    %eax,(%rax)
  40747b:	00 00                	add    %al,(%rax)
  40747d:	00 00                	add    %al,(%rax)
  40747f:	00 36                	add    %dh,(%rsi)
  407481:	01 00                	add    %eax,(%rax)
  407483:	00 00                	add    %al,(%rax)
  407485:	00 00                	add    %al,(%rax)
  407487:	00 36                	add    %dh,(%rsi)
  407489:	01 00                	add    %eax,(%rax)
  40748b:	00 00                	add    %al,(%rax)
  40748d:	00 00                	add    %al,(%rax)
  40748f:	00 36                	add    %dh,(%rsi)
  407491:	01 00                	add    %eax,(%rax)
  407493:	00 00                	add    %al,(%rax)
  407495:	00 00                	add    %al,(%rax)
  407497:	00 36                	add    %dh,(%rsi)
  407499:	01 00                	add    %eax,(%rax)
  40749b:	00 00                	add    %al,(%rax)
  40749d:	00 00                	add    %al,(%rax)
  40749f:	00 36                	add    %dh,(%rsi)
  4074a1:	01 00                	add    %eax,(%rax)
  4074a3:	00 00                	add    %al,(%rax)
  4074a5:	00 00                	add    %al,(%rax)
  4074a7:	00 36                	add    %dh,(%rsi)
  4074a9:	01 00                	add    %eax,(%rax)
  4074ab:	00 00                	add    %al,(%rax)
  4074ad:	00 00                	add    %al,(%rax)
  4074af:	00 36                	add    %dh,(%rsi)
  4074b1:	01 00                	add    %eax,(%rax)
  4074b3:	00 00                	add    %al,(%rax)
  4074b5:	00 00                	add    %al,(%rax)
  4074b7:	00 36                	add    %dh,(%rsi)
  4074b9:	01 00                	add    %eax,(%rax)
  4074bb:	00 00                	add    %al,(%rax)
  4074bd:	00 00                	add    %al,(%rax)
  4074bf:	00 36                	add    %dh,(%rsi)
  4074c1:	01 00                	add    %eax,(%rax)
  4074c3:	00 00                	add    %al,(%rax)
  4074c5:	00 00                	add    %al,(%rax)
  4074c7:	00 36                	add    %dh,(%rsi)
  4074c9:	01 00                	add    %eax,(%rax)
  4074cb:	00 00                	add    %al,(%rax)
  4074cd:	00 00                	add    %al,(%rax)
  4074cf:	00 36                	add    %dh,(%rsi)
  4074d1:	01 00                	add    %eax,(%rax)
  4074d3:	00 00                	add    %al,(%rax)
  4074d5:	00 00                	add    %al,(%rax)
  4074d7:	00 36                	add    %dh,(%rsi)
  4074d9:	01 00                	add    %eax,(%rax)
  4074db:	00 00                	add    %al,(%rax)
  4074dd:	00 00                	add    %al,(%rax)
  4074df:	00 36                	add    %dh,(%rsi)
  4074e1:	01 00                	add    %eax,(%rax)
  4074e3:	00 00                	add    %al,(%rax)
  4074e5:	00 00                	add    %al,(%rax)
  4074e7:	00 36                	add    %dh,(%rsi)
  4074e9:	01 00                	add    %eax,(%rax)
  4074eb:	00 00                	add    %al,(%rax)
  4074ed:	00 00                	add    %al,(%rax)
  4074ef:	00 36                	add    %dh,(%rsi)
  4074f1:	01 00                	add    %eax,(%rax)
  4074f3:	00 00                	add    %al,(%rax)
  4074f5:	00 00                	add    %al,(%rax)
  4074f7:	00 36                	add    %dh,(%rsi)
  4074f9:	01 00                	add    %eax,(%rax)
  4074fb:	00 00                	add    %al,(%rax)
  4074fd:	00 00                	add    %al,(%rax)
  4074ff:	00 c0                	add    %al,%al
  407501:	02 00                	add    (%rax),%al
  407503:	00 00                	add    %al,(%rax)
  407505:	00 00                	add    %al,(%rax)
  407507:	00 c8                	add    %cl,%al
  407509:	02 00                	add    (%rax),%al
  40750b:	00 00                	add    %al,(%rax)
  40750d:	00 00                	add    %al,(%rax)
  40750f:	00 bb 02 00 00 00    	add    %bh,0x2(%rbx)
  407515:	00 00                	add    %al,(%rax)
  407517:	00 b2 02 00 00 00    	add    %dh,0x2(%rdx)
  40751d:	00 00                	add    %al,(%rax)
  40751f:	00 a5 02 00 00 00    	add    %ah,0x2(%rbp)
  407525:	00 00                	add    %al,(%rax)
  407527:	00 9d 02 00 00 00    	add    %bl,0x2(%rbp)
  40752d:	00 00                	add    %al,(%rax)
  40752f:	00 9d 02 00 00 00    	add    %bl,0x2(%rbp)
  407535:	00 00                	add    %al,(%rax)
  407537:	00 9d 02 00 00 00    	add    %bl,0x2(%rbp)
  40753d:	00 00                	add    %al,(%rax)
  40753f:	00 91 02 00 00 00    	add    %dl,0x2(%rcx)
  407545:	00 00                	add    %al,(%rax)
  407547:	00 89 02 00 00 00    	add    %cl,0x2(%rcx)
  40754d:	00 00                	add    %al,(%rax)
  40754f:	00 89 02 00 00 00    	add    %cl,0x2(%rcx)
  407555:	00 00                	add    %al,(%rax)
  407557:	00 89 02 00 00 00    	add    %cl,0x2(%rcx)
  40755d:	00 00                	add    %al,(%rax)
  40755f:	00 89 02 00 00 00    	add    %cl,0x2(%rcx)
  407565:	00 00                	add    %al,(%rax)
  407567:	00 89 02 00 00 00    	add    %cl,0x2(%rcx)
  40756d:	00 00                	add    %al,(%rax)
  40756f:	00 89 02 00 00 00    	add    %cl,0x2(%rcx)
  407575:	00 00                	add    %al,(%rax)
  407577:	00 89 02 00 00 00    	add    %cl,0x2(%rcx)
  40757d:	00 00                	add    %al,(%rax)
  40757f:	00 7d 02             	add    %bh,0x2(%rbp)
  407582:	00 00                	add    %al,(%rax)
  407584:	00 00                	add    %al,(%rax)
  407586:	00 00                	add    %al,(%rax)
  407588:	74 02                	je     40758c <__intel_mic_avx512f_memset+0x54c>
  40758a:	00 00                	add    %al,(%rax)
  40758c:	00 00                	add    %al,(%rax)
  40758e:	00 00                	add    %al,(%rax)
  407590:	74 02                	je     407594 <__intel_mic_avx512f_memset+0x554>
  407592:	00 00                	add    %al,(%rax)
  407594:	00 00                	add    %al,(%rax)
  407596:	00 00                	add    %al,(%rax)
  407598:	74 02                	je     40759c <__intel_mic_avx512f_memset+0x55c>
  40759a:	00 00                	add    %al,(%rax)
  40759c:	00 00                	add    %al,(%rax)
  40759e:	00 00                	add    %al,(%rax)
  4075a0:	74 02                	je     4075a4 <__intel_mic_avx512f_memset+0x564>
  4075a2:	00 00                	add    %al,(%rax)
  4075a4:	00 00                	add    %al,(%rax)
  4075a6:	00 00                	add    %al,(%rax)
  4075a8:	74 02                	je     4075ac <__intel_mic_avx512f_memset+0x56c>
  4075aa:	00 00                	add    %al,(%rax)
  4075ac:	00 00                	add    %al,(%rax)
  4075ae:	00 00                	add    %al,(%rax)
  4075b0:	74 02                	je     4075b4 <__intel_mic_avx512f_memset+0x574>
  4075b2:	00 00                	add    %al,(%rax)
  4075b4:	00 00                	add    %al,(%rax)
  4075b6:	00 00                	add    %al,(%rax)
  4075b8:	74 02                	je     4075bc <__intel_mic_avx512f_memset+0x57c>
  4075ba:	00 00                	add    %al,(%rax)
  4075bc:	00 00                	add    %al,(%rax)
  4075be:	00 00                	add    %al,(%rax)
  4075c0:	74 02                	je     4075c4 <__intel_mic_avx512f_memset+0x584>
  4075c2:	00 00                	add    %al,(%rax)
  4075c4:	00 00                	add    %al,(%rax)
  4075c6:	00 00                	add    %al,(%rax)
  4075c8:	74 02                	je     4075cc <__intel_mic_avx512f_memset+0x58c>
  4075ca:	00 00                	add    %al,(%rax)
  4075cc:	00 00                	add    %al,(%rax)
  4075ce:	00 00                	add    %al,(%rax)
  4075d0:	74 02                	je     4075d4 <__intel_mic_avx512f_memset+0x594>
  4075d2:	00 00                	add    %al,(%rax)
  4075d4:	00 00                	add    %al,(%rax)
  4075d6:	00 00                	add    %al,(%rax)
  4075d8:	74 02                	je     4075dc <__intel_mic_avx512f_memset+0x59c>
  4075da:	00 00                	add    %al,(%rax)
  4075dc:	00 00                	add    %al,(%rax)
  4075de:	00 00                	add    %al,(%rax)
  4075e0:	74 02                	je     4075e4 <__intel_mic_avx512f_memset+0x5a4>
  4075e2:	00 00                	add    %al,(%rax)
  4075e4:	00 00                	add    %al,(%rax)
  4075e6:	00 00                	add    %al,(%rax)
  4075e8:	74 02                	je     4075ec <__intel_mic_avx512f_memset+0x5ac>
  4075ea:	00 00                	add    %al,(%rax)
  4075ec:	00 00                	add    %al,(%rax)
  4075ee:	00 00                	add    %al,(%rax)
  4075f0:	74 02                	je     4075f4 <__intel_mic_avx512f_memset+0x5b4>
  4075f2:	00 00                	add    %al,(%rax)
  4075f4:	00 00                	add    %al,(%rax)
  4075f6:	00 00                	add    %al,(%rax)
  4075f8:	74 02                	je     4075fc <__intel_mic_avx512f_memset+0x5bc>
  4075fa:	00 00                	add    %al,(%rax)
  4075fc:	00 00                	add    %al,(%rax)
  4075fe:	00 00                	add    %al,(%rax)
  407600:	65 02 00             	add    %gs:(%rax),%al
  407603:	00 00                	add    %al,(%rax)
  407605:	00 00                	add    %al,(%rax)
  407607:	00 5c 02 00          	add    %bl,0x0(%rdx,%rax,1)
  40760b:	00 00                	add    %al,(%rax)
  40760d:	00 00                	add    %al,(%rax)
  40760f:	00 5c 02 00          	add    %bl,0x0(%rdx,%rax,1)
  407613:	00 00                	add    %al,(%rax)
  407615:	00 00                	add    %al,(%rax)
  407617:	00 5c 02 00          	add    %bl,0x0(%rdx,%rax,1)
  40761b:	00 00                	add    %al,(%rax)
  40761d:	00 00                	add    %al,(%rax)
  40761f:	00 5c 02 00          	add    %bl,0x0(%rdx,%rax,1)
  407623:	00 00                	add    %al,(%rax)
  407625:	00 00                	add    %al,(%rax)
  407627:	00 5c 02 00          	add    %bl,0x0(%rdx,%rax,1)
  40762b:	00 00                	add    %al,(%rax)
  40762d:	00 00                	add    %al,(%rax)
  40762f:	00 5c 02 00          	add    %bl,0x0(%rdx,%rax,1)
  407633:	00 00                	add    %al,(%rax)
  407635:	00 00                	add    %al,(%rax)
  407637:	00 5c 02 00          	add    %bl,0x0(%rdx,%rax,1)
  40763b:	00 00                	add    %al,(%rax)
  40763d:	00 00                	add    %al,(%rax)
  40763f:	00 5c 02 00          	add    %bl,0x0(%rdx,%rax,1)
  407643:	00 00                	add    %al,(%rax)
  407645:	00 00                	add    %al,(%rax)
  407647:	00 5c 02 00          	add    %bl,0x0(%rdx,%rax,1)
  40764b:	00 00                	add    %al,(%rax)
  40764d:	00 00                	add    %al,(%rax)
  40764f:	00 5c 02 00          	add    %bl,0x0(%rdx,%rax,1)
  407653:	00 00                	add    %al,(%rax)
  407655:	00 00                	add    %al,(%rax)
  407657:	00 5c 02 00          	add    %bl,0x0(%rdx,%rax,1)
  40765b:	00 00                	add    %al,(%rax)
  40765d:	00 00                	add    %al,(%rax)
  40765f:	00 5c 02 00          	add    %bl,0x0(%rdx,%rax,1)
  407663:	00 00                	add    %al,(%rax)
  407665:	00 00                	add    %al,(%rax)
  407667:	00 5c 02 00          	add    %bl,0x0(%rdx,%rax,1)
  40766b:	00 00                	add    %al,(%rax)
  40766d:	00 00                	add    %al,(%rax)
  40766f:	00 5c 02 00          	add    %bl,0x0(%rdx,%rax,1)
  407673:	00 00                	add    %al,(%rax)
  407675:	00 00                	add    %al,(%rax)
  407677:	00 5c 02 00          	add    %bl,0x0(%rdx,%rax,1)
  40767b:	00 00                	add    %al,(%rax)
  40767d:	00 00                	add    %al,(%rax)
  40767f:	00 5c 02 00          	add    %bl,0x0(%rdx,%rax,1)
  407683:	00 00                	add    %al,(%rax)
  407685:	00 00                	add    %al,(%rax)
  407687:	00 5c 02 00          	add    %bl,0x0(%rdx,%rax,1)
  40768b:	00 00                	add    %al,(%rax)
  40768d:	00 00                	add    %al,(%rax)
  40768f:	00 5c 02 00          	add    %bl,0x0(%rdx,%rax,1)
  407693:	00 00                	add    %al,(%rax)
  407695:	00 00                	add    %al,(%rax)
  407697:	00 5c 02 00          	add    %bl,0x0(%rdx,%rax,1)
  40769b:	00 00                	add    %al,(%rax)
  40769d:	00 00                	add    %al,(%rax)
  40769f:	00 5c 02 00          	add    %bl,0x0(%rdx,%rax,1)
  4076a3:	00 00                	add    %al,(%rax)
  4076a5:	00 00                	add    %al,(%rax)
  4076a7:	00 5c 02 00          	add    %bl,0x0(%rdx,%rax,1)
  4076ab:	00 00                	add    %al,(%rax)
  4076ad:	00 00                	add    %al,(%rax)
  4076af:	00 5c 02 00          	add    %bl,0x0(%rdx,%rax,1)
  4076b3:	00 00                	add    %al,(%rax)
  4076b5:	00 00                	add    %al,(%rax)
  4076b7:	00 5c 02 00          	add    %bl,0x0(%rdx,%rax,1)
  4076bb:	00 00                	add    %al,(%rax)
  4076bd:	00 00                	add    %al,(%rax)
  4076bf:	00 5c 02 00          	add    %bl,0x0(%rdx,%rax,1)
  4076c3:	00 00                	add    %al,(%rax)
  4076c5:	00 00                	add    %al,(%rax)
  4076c7:	00 5c 02 00          	add    %bl,0x0(%rdx,%rax,1)
  4076cb:	00 00                	add    %al,(%rax)
  4076cd:	00 00                	add    %al,(%rax)
  4076cf:	00 5c 02 00          	add    %bl,0x0(%rdx,%rax,1)
  4076d3:	00 00                	add    %al,(%rax)
  4076d5:	00 00                	add    %al,(%rax)
  4076d7:	00 5c 02 00          	add    %bl,0x0(%rdx,%rax,1)
  4076db:	00 00                	add    %al,(%rax)
  4076dd:	00 00                	add    %al,(%rax)
  4076df:	00 5c 02 00          	add    %bl,0x0(%rdx,%rax,1)
  4076e3:	00 00                	add    %al,(%rax)
  4076e5:	00 00                	add    %al,(%rax)
  4076e7:	00 5c 02 00          	add    %bl,0x0(%rdx,%rax,1)
  4076eb:	00 00                	add    %al,(%rax)
  4076ed:	00 00                	add    %al,(%rax)
  4076ef:	00 5c 02 00          	add    %bl,0x0(%rdx,%rax,1)
  4076f3:	00 00                	add    %al,(%rax)
  4076f5:	00 00                	add    %al,(%rax)
  4076f7:	00 5c 02 00          	add    %bl,0x0(%rdx,%rax,1)
  4076fb:	00 00                	add    %al,(%rax)
  4076fd:	00 00                	add    %al,(%rax)
  4076ff:	00 e3                	add    %ah,%bl
  407701:	02 00                	add    (%rax),%al
  407703:	00 00                	add    %al,(%rax)
  407705:	00 00                	add    %al,(%rax)
  407707:	00 e3                	add    %ah,%bl
  407709:	02 00                	add    (%rax),%al
  40770b:	00 00                	add    %al,(%rax)
  40770d:	00 00                	add    %al,(%rax)
  40770f:	00 e3                	add    %ah,%bl
  407711:	02 00                	add    (%rax),%al
  407713:	00 00                	add    %al,(%rax)
  407715:	00 00                	add    %al,(%rax)
  407717:	00 e3                	add    %ah,%bl
  407719:	02 00                	add    (%rax),%al
  40771b:	00 00                	add    %al,(%rax)
  40771d:	00 00                	add    %al,(%rax)
  40771f:	00 e3                	add    %ah,%bl
  407721:	02 00                	add    (%rax),%al
  407723:	00 00                	add    %al,(%rax)
  407725:	00 00                	add    %al,(%rax)
  407727:	00 e3                	add    %ah,%bl
  407729:	02 00                	add    (%rax),%al
  40772b:	00 00                	add    %al,(%rax)
  40772d:	00 00                	add    %al,(%rax)
  40772f:	00 e3                	add    %ah,%bl
  407731:	02 00                	add    (%rax),%al
  407733:	00 00                	add    %al,(%rax)
  407735:	00 00                	add    %al,(%rax)
  407737:	00 e3                	add    %ah,%bl
  407739:	02 00                	add    (%rax),%al
  40773b:	00 00                	add    %al,(%rax)
  40773d:	00 00                	add    %al,(%rax)
  40773f:	00 e3                	add    %ah,%bl
  407741:	02 00                	add    (%rax),%al
  407743:	00 00                	add    %al,(%rax)
  407745:	00 00                	add    %al,(%rax)
  407747:	00 e3                	add    %ah,%bl
  407749:	02 00                	add    (%rax),%al
  40774b:	00 00                	add    %al,(%rax)
  40774d:	00 00                	add    %al,(%rax)
  40774f:	00 e3                	add    %ah,%bl
  407751:	02 00                	add    (%rax),%al
  407753:	00 00                	add    %al,(%rax)
  407755:	00 00                	add    %al,(%rax)
  407757:	00 e3                	add    %ah,%bl
  407759:	02 00                	add    (%rax),%al
  40775b:	00 00                	add    %al,(%rax)
  40775d:	00 00                	add    %al,(%rax)
  40775f:	00 e3                	add    %ah,%bl
  407761:	02 00                	add    (%rax),%al
  407763:	00 00                	add    %al,(%rax)
  407765:	00 00                	add    %al,(%rax)
  407767:	00 e3                	add    %ah,%bl
  407769:	02 00                	add    (%rax),%al
  40776b:	00 00                	add    %al,(%rax)
  40776d:	00 00                	add    %al,(%rax)
  40776f:	00 e3                	add    %ah,%bl
  407771:	02 00                	add    (%rax),%al
  407773:	00 00                	add    %al,(%rax)
  407775:	00 00                	add    %al,(%rax)
  407777:	00 e3                	add    %ah,%bl
  407779:	02 00                	add    (%rax),%al
  40777b:	00 00                	add    %al,(%rax)
  40777d:	00 00                	add    %al,(%rax)
  40777f:	00 e3                	add    %ah,%bl
  407781:	02 00                	add    (%rax),%al
  407783:	00 00                	add    %al,(%rax)
  407785:	00 00                	add    %al,(%rax)
  407787:	00 e3                	add    %ah,%bl
  407789:	02 00                	add    (%rax),%al
  40778b:	00 00                	add    %al,(%rax)
  40778d:	00 00                	add    %al,(%rax)
  40778f:	00 e3                	add    %ah,%bl
  407791:	02 00                	add    (%rax),%al
  407793:	00 00                	add    %al,(%rax)
  407795:	00 00                	add    %al,(%rax)
  407797:	00 e3                	add    %ah,%bl
  407799:	02 00                	add    (%rax),%al
  40779b:	00 00                	add    %al,(%rax)
  40779d:	00 00                	add    %al,(%rax)
  40779f:	00 e3                	add    %ah,%bl
  4077a1:	02 00                	add    (%rax),%al
  4077a3:	00 00                	add    %al,(%rax)
  4077a5:	00 00                	add    %al,(%rax)
  4077a7:	00 e3                	add    %ah,%bl
  4077a9:	02 00                	add    (%rax),%al
  4077ab:	00 00                	add    %al,(%rax)
  4077ad:	00 00                	add    %al,(%rax)
  4077af:	00 e3                	add    %ah,%bl
  4077b1:	02 00                	add    (%rax),%al
  4077b3:	00 00                	add    %al,(%rax)
  4077b5:	00 00                	add    %al,(%rax)
  4077b7:	00 e3                	add    %ah,%bl
  4077b9:	02 00                	add    (%rax),%al
  4077bb:	00 00                	add    %al,(%rax)
  4077bd:	00 00                	add    %al,(%rax)
  4077bf:	00 e3                	add    %ah,%bl
  4077c1:	02 00                	add    (%rax),%al
  4077c3:	00 00                	add    %al,(%rax)
  4077c5:	00 00                	add    %al,(%rax)
  4077c7:	00 e3                	add    %ah,%bl
  4077c9:	02 00                	add    (%rax),%al
  4077cb:	00 00                	add    %al,(%rax)
  4077cd:	00 00                	add    %al,(%rax)
  4077cf:	00 e3                	add    %ah,%bl
  4077d1:	02 00                	add    (%rax),%al
  4077d3:	00 00                	add    %al,(%rax)
  4077d5:	00 00                	add    %al,(%rax)
  4077d7:	00 e3                	add    %ah,%bl
  4077d9:	02 00                	add    (%rax),%al
  4077db:	00 00                	add    %al,(%rax)
  4077dd:	00 00                	add    %al,(%rax)
  4077df:	00 e3                	add    %ah,%bl
  4077e1:	02 00                	add    (%rax),%al
  4077e3:	00 00                	add    %al,(%rax)
  4077e5:	00 00                	add    %al,(%rax)
  4077e7:	00 e3                	add    %ah,%bl
  4077e9:	02 00                	add    (%rax),%al
  4077eb:	00 00                	add    %al,(%rax)
  4077ed:	00 00                	add    %al,(%rax)
  4077ef:	00 e3                	add    %ah,%bl
  4077f1:	02 00                	add    (%rax),%al
  4077f3:	00 00                	add    %al,(%rax)
  4077f5:	00 00                	add    %al,(%rax)
  4077f7:	00 e3                	add    %ah,%bl
  4077f9:	02 00                	add    (%rax),%al
  4077fb:	00 00                	add    %al,(%rax)
  4077fd:	00 00                	add    %al,(%rax)
  4077ff:	00 e3                	add    %ah,%bl
  407801:	02 00                	add    (%rax),%al
  407803:	00 00                	add    %al,(%rax)
  407805:	00 00                	add    %al,(%rax)
  407807:	00 e3                	add    %ah,%bl
  407809:	02 00                	add    (%rax),%al
  40780b:	00 00                	add    %al,(%rax)
  40780d:	00 00                	add    %al,(%rax)
  40780f:	00 e3                	add    %ah,%bl
  407811:	02 00                	add    (%rax),%al
  407813:	00 00                	add    %al,(%rax)
  407815:	00 00                	add    %al,(%rax)
  407817:	00 e3                	add    %ah,%bl
  407819:	02 00                	add    (%rax),%al
  40781b:	00 00                	add    %al,(%rax)
  40781d:	00 00                	add    %al,(%rax)
  40781f:	00 e3                	add    %ah,%bl
  407821:	02 00                	add    (%rax),%al
  407823:	00 00                	add    %al,(%rax)
  407825:	00 00                	add    %al,(%rax)
  407827:	00 e3                	add    %ah,%bl
  407829:	02 00                	add    (%rax),%al
  40782b:	00 00                	add    %al,(%rax)
  40782d:	00 00                	add    %al,(%rax)
  40782f:	00 e3                	add    %ah,%bl
  407831:	02 00                	add    (%rax),%al
  407833:	00 00                	add    %al,(%rax)
  407835:	00 00                	add    %al,(%rax)
  407837:	00 e3                	add    %ah,%bl
  407839:	02 00                	add    (%rax),%al
  40783b:	00 00                	add    %al,(%rax)
  40783d:	00 00                	add    %al,(%rax)
  40783f:	00 e3                	add    %ah,%bl
  407841:	02 00                	add    (%rax),%al
  407843:	00 00                	add    %al,(%rax)
  407845:	00 00                	add    %al,(%rax)
  407847:	00 e3                	add    %ah,%bl
  407849:	02 00                	add    (%rax),%al
  40784b:	00 00                	add    %al,(%rax)
  40784d:	00 00                	add    %al,(%rax)
  40784f:	00 e3                	add    %ah,%bl
  407851:	02 00                	add    (%rax),%al
  407853:	00 00                	add    %al,(%rax)
  407855:	00 00                	add    %al,(%rax)
  407857:	00 e3                	add    %ah,%bl
  407859:	02 00                	add    (%rax),%al
  40785b:	00 00                	add    %al,(%rax)
  40785d:	00 00                	add    %al,(%rax)
  40785f:	00 e3                	add    %ah,%bl
  407861:	02 00                	add    (%rax),%al
  407863:	00 00                	add    %al,(%rax)
  407865:	00 00                	add    %al,(%rax)
  407867:	00 e3                	add    %ah,%bl
  407869:	02 00                	add    (%rax),%al
  40786b:	00 00                	add    %al,(%rax)
  40786d:	00 00                	add    %al,(%rax)
  40786f:	00 e3                	add    %ah,%bl
  407871:	02 00                	add    (%rax),%al
  407873:	00 00                	add    %al,(%rax)
  407875:	00 00                	add    %al,(%rax)
  407877:	00 e3                	add    %ah,%bl
  407879:	02 00                	add    (%rax),%al
  40787b:	00 00                	add    %al,(%rax)
  40787d:	00 00                	add    %al,(%rax)
  40787f:	00 e3                	add    %ah,%bl
  407881:	02 00                	add    (%rax),%al
  407883:	00 00                	add    %al,(%rax)
  407885:	00 00                	add    %al,(%rax)
  407887:	00 e3                	add    %ah,%bl
  407889:	02 00                	add    (%rax),%al
  40788b:	00 00                	add    %al,(%rax)
  40788d:	00 00                	add    %al,(%rax)
  40788f:	00 e3                	add    %ah,%bl
  407891:	02 00                	add    (%rax),%al
  407893:	00 00                	add    %al,(%rax)
  407895:	00 00                	add    %al,(%rax)
  407897:	00 e3                	add    %ah,%bl
  407899:	02 00                	add    (%rax),%al
  40789b:	00 00                	add    %al,(%rax)
  40789d:	00 00                	add    %al,(%rax)
  40789f:	00 e3                	add    %ah,%bl
  4078a1:	02 00                	add    (%rax),%al
  4078a3:	00 00                	add    %al,(%rax)
  4078a5:	00 00                	add    %al,(%rax)
  4078a7:	00 e3                	add    %ah,%bl
  4078a9:	02 00                	add    (%rax),%al
  4078ab:	00 00                	add    %al,(%rax)
  4078ad:	00 00                	add    %al,(%rax)
  4078af:	00 e3                	add    %ah,%bl
  4078b1:	02 00                	add    (%rax),%al
  4078b3:	00 00                	add    %al,(%rax)
  4078b5:	00 00                	add    %al,(%rax)
  4078b7:	00 e3                	add    %ah,%bl
  4078b9:	02 00                	add    (%rax),%al
  4078bb:	00 00                	add    %al,(%rax)
  4078bd:	00 00                	add    %al,(%rax)
  4078bf:	00 e3                	add    %ah,%bl
  4078c1:	02 00                	add    (%rax),%al
  4078c3:	00 00                	add    %al,(%rax)
  4078c5:	00 00                	add    %al,(%rax)
  4078c7:	00 e3                	add    %ah,%bl
  4078c9:	02 00                	add    (%rax),%al
  4078cb:	00 00                	add    %al,(%rax)
  4078cd:	00 00                	add    %al,(%rax)
  4078cf:	00 e3                	add    %ah,%bl
  4078d1:	02 00                	add    (%rax),%al
  4078d3:	00 00                	add    %al,(%rax)
  4078d5:	00 00                	add    %al,(%rax)
  4078d7:	00 e3                	add    %ah,%bl
  4078d9:	02 00                	add    (%rax),%al
  4078db:	00 00                	add    %al,(%rax)
  4078dd:	00 00                	add    %al,(%rax)
  4078df:	00 e3                	add    %ah,%bl
  4078e1:	02 00                	add    (%rax),%al
  4078e3:	00 00                	add    %al,(%rax)
  4078e5:	00 00                	add    %al,(%rax)
  4078e7:	00 e3                	add    %ah,%bl
  4078e9:	02 00                	add    (%rax),%al
  4078eb:	00 00                	add    %al,(%rax)
  4078ed:	00 00                	add    %al,(%rax)
  4078ef:	00 e3                	add    %ah,%bl
  4078f1:	02 00                	add    (%rax),%al
  4078f3:	00 00                	add    %al,(%rax)
  4078f5:	00 00                	add    %al,(%rax)
  4078f7:	00 e3                	add    %ah,%bl
  4078f9:	02 00                	add    (%rax),%al
  4078fb:	00 00                	add    %al,(%rax)
  4078fd:	00 00                	add    %al,(%rax)
  4078ff:	00 ea                	add    %ch,%dl
  407901:	02 00                	add    (%rax),%al
  407903:	00 00                	add    %al,(%rax)
  407905:	00 00                	add    %al,(%rax)
  407907:	00 ea                	add    %ch,%dl
  407909:	02 00                	add    (%rax),%al
  40790b:	00 00                	add    %al,(%rax)
  40790d:	00 00                	add    %al,(%rax)
  40790f:	00 ea                	add    %ch,%dl
  407911:	02 00                	add    (%rax),%al
  407913:	00 00                	add    %al,(%rax)
  407915:	00 00                	add    %al,(%rax)
  407917:	00 ea                	add    %ch,%dl
  407919:	02 00                	add    (%rax),%al
  40791b:	00 00                	add    %al,(%rax)
  40791d:	00 00                	add    %al,(%rax)
  40791f:	00 ea                	add    %ch,%dl
  407921:	02 00                	add    (%rax),%al
  407923:	00 00                	add    %al,(%rax)
  407925:	00 00                	add    %al,(%rax)
  407927:	00 ea                	add    %ch,%dl
  407929:	02 00                	add    (%rax),%al
  40792b:	00 00                	add    %al,(%rax)
  40792d:	00 00                	add    %al,(%rax)
  40792f:	00 ea                	add    %ch,%dl
  407931:	02 00                	add    (%rax),%al
  407933:	00 00                	add    %al,(%rax)
  407935:	00 00                	add    %al,(%rax)
  407937:	00 ea                	add    %ch,%dl
  407939:	02 00                	add    (%rax),%al
  40793b:	00 00                	add    %al,(%rax)
  40793d:	00 00                	add    %al,(%rax)
  40793f:	00 ea                	add    %ch,%dl
  407941:	02 00                	add    (%rax),%al
  407943:	00 00                	add    %al,(%rax)
  407945:	00 00                	add    %al,(%rax)
  407947:	00 ea                	add    %ch,%dl
  407949:	02 00                	add    (%rax),%al
  40794b:	00 00                	add    %al,(%rax)
  40794d:	00 00                	add    %al,(%rax)
  40794f:	00 ea                	add    %ch,%dl
  407951:	02 00                	add    (%rax),%al
  407953:	00 00                	add    %al,(%rax)
  407955:	00 00                	add    %al,(%rax)
  407957:	00 ea                	add    %ch,%dl
  407959:	02 00                	add    (%rax),%al
  40795b:	00 00                	add    %al,(%rax)
  40795d:	00 00                	add    %al,(%rax)
  40795f:	00 ea                	add    %ch,%dl
  407961:	02 00                	add    (%rax),%al
  407963:	00 00                	add    %al,(%rax)
  407965:	00 00                	add    %al,(%rax)
  407967:	00 ea                	add    %ch,%dl
  407969:	02 00                	add    (%rax),%al
  40796b:	00 00                	add    %al,(%rax)
  40796d:	00 00                	add    %al,(%rax)
  40796f:	00 ea                	add    %ch,%dl
  407971:	02 00                	add    (%rax),%al
  407973:	00 00                	add    %al,(%rax)
  407975:	00 00                	add    %al,(%rax)
  407977:	00 ea                	add    %ch,%dl
  407979:	02 00                	add    (%rax),%al
  40797b:	00 00                	add    %al,(%rax)
  40797d:	00 00                	add    %al,(%rax)
  40797f:	00 ea                	add    %ch,%dl
  407981:	02 00                	add    (%rax),%al
  407983:	00 00                	add    %al,(%rax)
  407985:	00 00                	add    %al,(%rax)
  407987:	00 ea                	add    %ch,%dl
  407989:	02 00                	add    (%rax),%al
  40798b:	00 00                	add    %al,(%rax)
  40798d:	00 00                	add    %al,(%rax)
  40798f:	00 ea                	add    %ch,%dl
  407991:	02 00                	add    (%rax),%al
  407993:	00 00                	add    %al,(%rax)
  407995:	00 00                	add    %al,(%rax)
  407997:	00 ea                	add    %ch,%dl
  407999:	02 00                	add    (%rax),%al
  40799b:	00 00                	add    %al,(%rax)
  40799d:	00 00                	add    %al,(%rax)
  40799f:	00 ea                	add    %ch,%dl
  4079a1:	02 00                	add    (%rax),%al
  4079a3:	00 00                	add    %al,(%rax)
  4079a5:	00 00                	add    %al,(%rax)
  4079a7:	00 ea                	add    %ch,%dl
  4079a9:	02 00                	add    (%rax),%al
  4079ab:	00 00                	add    %al,(%rax)
  4079ad:	00 00                	add    %al,(%rax)
  4079af:	00 ea                	add    %ch,%dl
  4079b1:	02 00                	add    (%rax),%al
  4079b3:	00 00                	add    %al,(%rax)
  4079b5:	00 00                	add    %al,(%rax)
  4079b7:	00 ea                	add    %ch,%dl
  4079b9:	02 00                	add    (%rax),%al
  4079bb:	00 00                	add    %al,(%rax)
  4079bd:	00 00                	add    %al,(%rax)
  4079bf:	00 ea                	add    %ch,%dl
  4079c1:	02 00                	add    (%rax),%al
  4079c3:	00 00                	add    %al,(%rax)
  4079c5:	00 00                	add    %al,(%rax)
  4079c7:	00 ea                	add    %ch,%dl
  4079c9:	02 00                	add    (%rax),%al
  4079cb:	00 00                	add    %al,(%rax)
  4079cd:	00 00                	add    %al,(%rax)
  4079cf:	00 ea                	add    %ch,%dl
  4079d1:	02 00                	add    (%rax),%al
  4079d3:	00 00                	add    %al,(%rax)
  4079d5:	00 00                	add    %al,(%rax)
  4079d7:	00 ea                	add    %ch,%dl
  4079d9:	02 00                	add    (%rax),%al
  4079db:	00 00                	add    %al,(%rax)
  4079dd:	00 00                	add    %al,(%rax)
  4079df:	00 ea                	add    %ch,%dl
  4079e1:	02 00                	add    (%rax),%al
  4079e3:	00 00                	add    %al,(%rax)
  4079e5:	00 00                	add    %al,(%rax)
  4079e7:	00 ea                	add    %ch,%dl
  4079e9:	02 00                	add    (%rax),%al
  4079eb:	00 00                	add    %al,(%rax)
  4079ed:	00 00                	add    %al,(%rax)
  4079ef:	00 ea                	add    %ch,%dl
  4079f1:	02 00                	add    (%rax),%al
  4079f3:	00 00                	add    %al,(%rax)
  4079f5:	00 00                	add    %al,(%rax)
  4079f7:	00 ea                	add    %ch,%dl
  4079f9:	02 00                	add    (%rax),%al
  4079fb:	00 00                	add    %al,(%rax)
  4079fd:	00 00                	add    %al,(%rax)
  4079ff:	00 ea                	add    %ch,%dl
  407a01:	02 00                	add    (%rax),%al
  407a03:	00 00                	add    %al,(%rax)
  407a05:	00 00                	add    %al,(%rax)
  407a07:	00 ea                	add    %ch,%dl
  407a09:	02 00                	add    (%rax),%al
  407a0b:	00 00                	add    %al,(%rax)
  407a0d:	00 00                	add    %al,(%rax)
  407a0f:	00 ea                	add    %ch,%dl
  407a11:	02 00                	add    (%rax),%al
  407a13:	00 00                	add    %al,(%rax)
  407a15:	00 00                	add    %al,(%rax)
  407a17:	00 ea                	add    %ch,%dl
  407a19:	02 00                	add    (%rax),%al
  407a1b:	00 00                	add    %al,(%rax)
  407a1d:	00 00                	add    %al,(%rax)
  407a1f:	00 ea                	add    %ch,%dl
  407a21:	02 00                	add    (%rax),%al
  407a23:	00 00                	add    %al,(%rax)
  407a25:	00 00                	add    %al,(%rax)
  407a27:	00 ea                	add    %ch,%dl
  407a29:	02 00                	add    (%rax),%al
  407a2b:	00 00                	add    %al,(%rax)
  407a2d:	00 00                	add    %al,(%rax)
  407a2f:	00 ea                	add    %ch,%dl
  407a31:	02 00                	add    (%rax),%al
  407a33:	00 00                	add    %al,(%rax)
  407a35:	00 00                	add    %al,(%rax)
  407a37:	00 ea                	add    %ch,%dl
  407a39:	02 00                	add    (%rax),%al
  407a3b:	00 00                	add    %al,(%rax)
  407a3d:	00 00                	add    %al,(%rax)
  407a3f:	00 ea                	add    %ch,%dl
  407a41:	02 00                	add    (%rax),%al
  407a43:	00 00                	add    %al,(%rax)
  407a45:	00 00                	add    %al,(%rax)
  407a47:	00 ea                	add    %ch,%dl
  407a49:	02 00                	add    (%rax),%al
  407a4b:	00 00                	add    %al,(%rax)
  407a4d:	00 00                	add    %al,(%rax)
  407a4f:	00 ea                	add    %ch,%dl
  407a51:	02 00                	add    (%rax),%al
  407a53:	00 00                	add    %al,(%rax)
  407a55:	00 00                	add    %al,(%rax)
  407a57:	00 ea                	add    %ch,%dl
  407a59:	02 00                	add    (%rax),%al
  407a5b:	00 00                	add    %al,(%rax)
  407a5d:	00 00                	add    %al,(%rax)
  407a5f:	00 ea                	add    %ch,%dl
  407a61:	02 00                	add    (%rax),%al
  407a63:	00 00                	add    %al,(%rax)
  407a65:	00 00                	add    %al,(%rax)
  407a67:	00 ea                	add    %ch,%dl
  407a69:	02 00                	add    (%rax),%al
  407a6b:	00 00                	add    %al,(%rax)
  407a6d:	00 00                	add    %al,(%rax)
  407a6f:	00 ea                	add    %ch,%dl
  407a71:	02 00                	add    (%rax),%al
  407a73:	00 00                	add    %al,(%rax)
  407a75:	00 00                	add    %al,(%rax)
  407a77:	00 ea                	add    %ch,%dl
  407a79:	02 00                	add    (%rax),%al
  407a7b:	00 00                	add    %al,(%rax)
  407a7d:	00 00                	add    %al,(%rax)
  407a7f:	00 ea                	add    %ch,%dl
  407a81:	02 00                	add    (%rax),%al
  407a83:	00 00                	add    %al,(%rax)
  407a85:	00 00                	add    %al,(%rax)
  407a87:	00 ea                	add    %ch,%dl
  407a89:	02 00                	add    (%rax),%al
  407a8b:	00 00                	add    %al,(%rax)
  407a8d:	00 00                	add    %al,(%rax)
  407a8f:	00 ea                	add    %ch,%dl
  407a91:	02 00                	add    (%rax),%al
  407a93:	00 00                	add    %al,(%rax)
  407a95:	00 00                	add    %al,(%rax)
  407a97:	00 ea                	add    %ch,%dl
  407a99:	02 00                	add    (%rax),%al
  407a9b:	00 00                	add    %al,(%rax)
  407a9d:	00 00                	add    %al,(%rax)
  407a9f:	00 ea                	add    %ch,%dl
  407aa1:	02 00                	add    (%rax),%al
  407aa3:	00 00                	add    %al,(%rax)
  407aa5:	00 00                	add    %al,(%rax)
  407aa7:	00 ea                	add    %ch,%dl
  407aa9:	02 00                	add    (%rax),%al
  407aab:	00 00                	add    %al,(%rax)
  407aad:	00 00                	add    %al,(%rax)
  407aaf:	00 ea                	add    %ch,%dl
  407ab1:	02 00                	add    (%rax),%al
  407ab3:	00 00                	add    %al,(%rax)
  407ab5:	00 00                	add    %al,(%rax)
  407ab7:	00 ea                	add    %ch,%dl
  407ab9:	02 00                	add    (%rax),%al
  407abb:	00 00                	add    %al,(%rax)
  407abd:	00 00                	add    %al,(%rax)
  407abf:	00 ea                	add    %ch,%dl
  407ac1:	02 00                	add    (%rax),%al
  407ac3:	00 00                	add    %al,(%rax)
  407ac5:	00 00                	add    %al,(%rax)
  407ac7:	00 ea                	add    %ch,%dl
  407ac9:	02 00                	add    (%rax),%al
  407acb:	00 00                	add    %al,(%rax)
  407acd:	00 00                	add    %al,(%rax)
  407acf:	00 ea                	add    %ch,%dl
  407ad1:	02 00                	add    (%rax),%al
  407ad3:	00 00                	add    %al,(%rax)
  407ad5:	00 00                	add    %al,(%rax)
  407ad7:	00 ea                	add    %ch,%dl
  407ad9:	02 00                	add    (%rax),%al
  407adb:	00 00                	add    %al,(%rax)
  407add:	00 00                	add    %al,(%rax)
  407adf:	00 ea                	add    %ch,%dl
  407ae1:	02 00                	add    (%rax),%al
  407ae3:	00 00                	add    %al,(%rax)
  407ae5:	00 00                	add    %al,(%rax)
  407ae7:	00 ea                	add    %ch,%dl
  407ae9:	02 00                	add    (%rax),%al
  407aeb:	00 00                	add    %al,(%rax)
  407aed:	00 00                	add    %al,(%rax)
  407aef:	00 ea                	add    %ch,%dl
  407af1:	02 00                	add    (%rax),%al
  407af3:	00 00                	add    %al,(%rax)
  407af5:	00 00                	add    %al,(%rax)
  407af7:	00 ea                	add    %ch,%dl
  407af9:	02 00                	add    (%rax),%al
  407afb:	00 00                	add    %al,(%rax)
  407afd:	00 00                	add    %al,(%rax)
  407aff:	00 f1                	add    %dh,%cl
  407b01:	02 00                	add    (%rax),%al
  407b03:	00 00                	add    %al,(%rax)
  407b05:	00 00                	add    %al,(%rax)
  407b07:	00 f1                	add    %dh,%cl
  407b09:	02 00                	add    (%rax),%al
  407b0b:	00 00                	add    %al,(%rax)
  407b0d:	00 00                	add    %al,(%rax)
  407b0f:	00 f1                	add    %dh,%cl
  407b11:	02 00                	add    (%rax),%al
  407b13:	00 00                	add    %al,(%rax)
  407b15:	00 00                	add    %al,(%rax)
  407b17:	00 f1                	add    %dh,%cl
  407b19:	02 00                	add    (%rax),%al
  407b1b:	00 00                	add    %al,(%rax)
  407b1d:	00 00                	add    %al,(%rax)
  407b1f:	00 f1                	add    %dh,%cl
  407b21:	02 00                	add    (%rax),%al
  407b23:	00 00                	add    %al,(%rax)
  407b25:	00 00                	add    %al,(%rax)
  407b27:	00 f1                	add    %dh,%cl
  407b29:	02 00                	add    (%rax),%al
  407b2b:	00 00                	add    %al,(%rax)
  407b2d:	00 00                	add    %al,(%rax)
  407b2f:	00 f1                	add    %dh,%cl
  407b31:	02 00                	add    (%rax),%al
  407b33:	00 00                	add    %al,(%rax)
  407b35:	00 00                	add    %al,(%rax)
  407b37:	00 f1                	add    %dh,%cl
  407b39:	02 00                	add    (%rax),%al
  407b3b:	00 00                	add    %al,(%rax)
  407b3d:	00 00                	add    %al,(%rax)
  407b3f:	00 f1                	add    %dh,%cl
  407b41:	02 00                	add    (%rax),%al
  407b43:	00 00                	add    %al,(%rax)
  407b45:	00 00                	add    %al,(%rax)
  407b47:	00 f1                	add    %dh,%cl
  407b49:	02 00                	add    (%rax),%al
  407b4b:	00 00                	add    %al,(%rax)
  407b4d:	00 00                	add    %al,(%rax)
  407b4f:	00 f1                	add    %dh,%cl
  407b51:	02 00                	add    (%rax),%al
  407b53:	00 00                	add    %al,(%rax)
  407b55:	00 00                	add    %al,(%rax)
  407b57:	00 f1                	add    %dh,%cl
  407b59:	02 00                	add    (%rax),%al
  407b5b:	00 00                	add    %al,(%rax)
  407b5d:	00 00                	add    %al,(%rax)
  407b5f:	00 f1                	add    %dh,%cl
  407b61:	02 00                	add    (%rax),%al
  407b63:	00 00                	add    %al,(%rax)
  407b65:	00 00                	add    %al,(%rax)
  407b67:	00 f1                	add    %dh,%cl
  407b69:	02 00                	add    (%rax),%al
  407b6b:	00 00                	add    %al,(%rax)
  407b6d:	00 00                	add    %al,(%rax)
  407b6f:	00 f1                	add    %dh,%cl
  407b71:	02 00                	add    (%rax),%al
  407b73:	00 00                	add    %al,(%rax)
  407b75:	00 00                	add    %al,(%rax)
  407b77:	00 f1                	add    %dh,%cl
  407b79:	02 00                	add    (%rax),%al
  407b7b:	00 00                	add    %al,(%rax)
  407b7d:	00 00                	add    %al,(%rax)
  407b7f:	00 f1                	add    %dh,%cl
  407b81:	02 00                	add    (%rax),%al
  407b83:	00 00                	add    %al,(%rax)
  407b85:	00 00                	add    %al,(%rax)
  407b87:	00 f1                	add    %dh,%cl
  407b89:	02 00                	add    (%rax),%al
  407b8b:	00 00                	add    %al,(%rax)
  407b8d:	00 00                	add    %al,(%rax)
  407b8f:	00 f1                	add    %dh,%cl
  407b91:	02 00                	add    (%rax),%al
  407b93:	00 00                	add    %al,(%rax)
  407b95:	00 00                	add    %al,(%rax)
  407b97:	00 f1                	add    %dh,%cl
  407b99:	02 00                	add    (%rax),%al
  407b9b:	00 00                	add    %al,(%rax)
  407b9d:	00 00                	add    %al,(%rax)
  407b9f:	00 f1                	add    %dh,%cl
  407ba1:	02 00                	add    (%rax),%al
  407ba3:	00 00                	add    %al,(%rax)
  407ba5:	00 00                	add    %al,(%rax)
  407ba7:	00 f1                	add    %dh,%cl
  407ba9:	02 00                	add    (%rax),%al
  407bab:	00 00                	add    %al,(%rax)
  407bad:	00 00                	add    %al,(%rax)
  407baf:	00 f1                	add    %dh,%cl
  407bb1:	02 00                	add    (%rax),%al
  407bb3:	00 00                	add    %al,(%rax)
  407bb5:	00 00                	add    %al,(%rax)
  407bb7:	00 f1                	add    %dh,%cl
  407bb9:	02 00                	add    (%rax),%al
  407bbb:	00 00                	add    %al,(%rax)
  407bbd:	00 00                	add    %al,(%rax)
  407bbf:	00 f1                	add    %dh,%cl
  407bc1:	02 00                	add    (%rax),%al
  407bc3:	00 00                	add    %al,(%rax)
  407bc5:	00 00                	add    %al,(%rax)
  407bc7:	00 f1                	add    %dh,%cl
  407bc9:	02 00                	add    (%rax),%al
  407bcb:	00 00                	add    %al,(%rax)
  407bcd:	00 00                	add    %al,(%rax)
  407bcf:	00 f1                	add    %dh,%cl
  407bd1:	02 00                	add    (%rax),%al
  407bd3:	00 00                	add    %al,(%rax)
  407bd5:	00 00                	add    %al,(%rax)
  407bd7:	00 f1                	add    %dh,%cl
  407bd9:	02 00                	add    (%rax),%al
  407bdb:	00 00                	add    %al,(%rax)
  407bdd:	00 00                	add    %al,(%rax)
  407bdf:	00 f1                	add    %dh,%cl
  407be1:	02 00                	add    (%rax),%al
  407be3:	00 00                	add    %al,(%rax)
  407be5:	00 00                	add    %al,(%rax)
  407be7:	00 f1                	add    %dh,%cl
  407be9:	02 00                	add    (%rax),%al
  407beb:	00 00                	add    %al,(%rax)
  407bed:	00 00                	add    %al,(%rax)
  407bef:	00 f1                	add    %dh,%cl
  407bf1:	02 00                	add    (%rax),%al
  407bf3:	00 00                	add    %al,(%rax)
  407bf5:	00 00                	add    %al,(%rax)
  407bf7:	00 f1                	add    %dh,%cl
  407bf9:	02 00                	add    (%rax),%al
  407bfb:	00 00                	add    %al,(%rax)
  407bfd:	00 00                	add    %al,(%rax)
  407bff:	00 f1                	add    %dh,%cl
  407c01:	02 00                	add    (%rax),%al
  407c03:	00 00                	add    %al,(%rax)
  407c05:	00 00                	add    %al,(%rax)
  407c07:	00 f1                	add    %dh,%cl
  407c09:	02 00                	add    (%rax),%al
  407c0b:	00 00                	add    %al,(%rax)
  407c0d:	00 00                	add    %al,(%rax)
  407c0f:	00 f1                	add    %dh,%cl
  407c11:	02 00                	add    (%rax),%al
  407c13:	00 00                	add    %al,(%rax)
  407c15:	00 00                	add    %al,(%rax)
  407c17:	00 f1                	add    %dh,%cl
  407c19:	02 00                	add    (%rax),%al
  407c1b:	00 00                	add    %al,(%rax)
  407c1d:	00 00                	add    %al,(%rax)
  407c1f:	00 f1                	add    %dh,%cl
  407c21:	02 00                	add    (%rax),%al
  407c23:	00 00                	add    %al,(%rax)
  407c25:	00 00                	add    %al,(%rax)
  407c27:	00 f1                	add    %dh,%cl
  407c29:	02 00                	add    (%rax),%al
  407c2b:	00 00                	add    %al,(%rax)
  407c2d:	00 00                	add    %al,(%rax)
  407c2f:	00 f1                	add    %dh,%cl
  407c31:	02 00                	add    (%rax),%al
  407c33:	00 00                	add    %al,(%rax)
  407c35:	00 00                	add    %al,(%rax)
  407c37:	00 f1                	add    %dh,%cl
  407c39:	02 00                	add    (%rax),%al
  407c3b:	00 00                	add    %al,(%rax)
  407c3d:	00 00                	add    %al,(%rax)
  407c3f:	00 f1                	add    %dh,%cl
  407c41:	02 00                	add    (%rax),%al
  407c43:	00 00                	add    %al,(%rax)
  407c45:	00 00                	add    %al,(%rax)
  407c47:	00 f1                	add    %dh,%cl
  407c49:	02 00                	add    (%rax),%al
  407c4b:	00 00                	add    %al,(%rax)
  407c4d:	00 00                	add    %al,(%rax)
  407c4f:	00 f1                	add    %dh,%cl
  407c51:	02 00                	add    (%rax),%al
  407c53:	00 00                	add    %al,(%rax)
  407c55:	00 00                	add    %al,(%rax)
  407c57:	00 f1                	add    %dh,%cl
  407c59:	02 00                	add    (%rax),%al
  407c5b:	00 00                	add    %al,(%rax)
  407c5d:	00 00                	add    %al,(%rax)
  407c5f:	00 f1                	add    %dh,%cl
  407c61:	02 00                	add    (%rax),%al
  407c63:	00 00                	add    %al,(%rax)
  407c65:	00 00                	add    %al,(%rax)
  407c67:	00 f1                	add    %dh,%cl
  407c69:	02 00                	add    (%rax),%al
  407c6b:	00 00                	add    %al,(%rax)
  407c6d:	00 00                	add    %al,(%rax)
  407c6f:	00 f1                	add    %dh,%cl
  407c71:	02 00                	add    (%rax),%al
  407c73:	00 00                	add    %al,(%rax)
  407c75:	00 00                	add    %al,(%rax)
  407c77:	00 f1                	add    %dh,%cl
  407c79:	02 00                	add    (%rax),%al
  407c7b:	00 00                	add    %al,(%rax)
  407c7d:	00 00                	add    %al,(%rax)
  407c7f:	00 f1                	add    %dh,%cl
  407c81:	02 00                	add    (%rax),%al
  407c83:	00 00                	add    %al,(%rax)
  407c85:	00 00                	add    %al,(%rax)
  407c87:	00 f1                	add    %dh,%cl
  407c89:	02 00                	add    (%rax),%al
  407c8b:	00 00                	add    %al,(%rax)
  407c8d:	00 00                	add    %al,(%rax)
  407c8f:	00 f1                	add    %dh,%cl
  407c91:	02 00                	add    (%rax),%al
  407c93:	00 00                	add    %al,(%rax)
  407c95:	00 00                	add    %al,(%rax)
  407c97:	00 f1                	add    %dh,%cl
  407c99:	02 00                	add    (%rax),%al
  407c9b:	00 00                	add    %al,(%rax)
  407c9d:	00 00                	add    %al,(%rax)
  407c9f:	00 f1                	add    %dh,%cl
  407ca1:	02 00                	add    (%rax),%al
  407ca3:	00 00                	add    %al,(%rax)
  407ca5:	00 00                	add    %al,(%rax)
  407ca7:	00 f1                	add    %dh,%cl
  407ca9:	02 00                	add    (%rax),%al
  407cab:	00 00                	add    %al,(%rax)
  407cad:	00 00                	add    %al,(%rax)
  407caf:	00 f1                	add    %dh,%cl
  407cb1:	02 00                	add    (%rax),%al
  407cb3:	00 00                	add    %al,(%rax)
  407cb5:	00 00                	add    %al,(%rax)
  407cb7:	00 f1                	add    %dh,%cl
  407cb9:	02 00                	add    (%rax),%al
  407cbb:	00 00                	add    %al,(%rax)
  407cbd:	00 00                	add    %al,(%rax)
  407cbf:	00 f1                	add    %dh,%cl
  407cc1:	02 00                	add    (%rax),%al
  407cc3:	00 00                	add    %al,(%rax)
  407cc5:	00 00                	add    %al,(%rax)
  407cc7:	00 f1                	add    %dh,%cl
  407cc9:	02 00                	add    (%rax),%al
  407ccb:	00 00                	add    %al,(%rax)
  407ccd:	00 00                	add    %al,(%rax)
  407ccf:	00 f1                	add    %dh,%cl
  407cd1:	02 00                	add    (%rax),%al
  407cd3:	00 00                	add    %al,(%rax)
  407cd5:	00 00                	add    %al,(%rax)
  407cd7:	00 f1                	add    %dh,%cl
  407cd9:	02 00                	add    (%rax),%al
  407cdb:	00 00                	add    %al,(%rax)
  407cdd:	00 00                	add    %al,(%rax)
  407cdf:	00 f1                	add    %dh,%cl
  407ce1:	02 00                	add    (%rax),%al
  407ce3:	00 00                	add    %al,(%rax)
  407ce5:	00 00                	add    %al,(%rax)
  407ce7:	00 f1                	add    %dh,%cl
  407ce9:	02 00                	add    (%rax),%al
  407ceb:	00 00                	add    %al,(%rax)
  407ced:	00 00                	add    %al,(%rax)
  407cef:	00 f1                	add    %dh,%cl
  407cf1:	02 00                	add    (%rax),%al
  407cf3:	00 00                	add    %al,(%rax)
  407cf5:	00 00                	add    %al,(%rax)
  407cf7:	00 f1                	add    %dh,%cl
  407cf9:	02 00                	add    (%rax),%al
  407cfb:	00 00                	add    %al,(%rax)
  407cfd:	00 00                	add    %al,(%rax)
  407cff:	00 f8                	add    %bh,%al
  407d01:	02 00                	add    (%rax),%al
  407d03:	00 00                	add    %al,(%rax)
  407d05:	00 00                	add    %al,(%rax)
  407d07:	00 f8                	add    %bh,%al
  407d09:	02 00                	add    (%rax),%al
  407d0b:	00 00                	add    %al,(%rax)
  407d0d:	00 00                	add    %al,(%rax)
  407d0f:	00 f8                	add    %bh,%al
  407d11:	02 00                	add    (%rax),%al
  407d13:	00 00                	add    %al,(%rax)
  407d15:	00 00                	add    %al,(%rax)
  407d17:	00 f8                	add    %bh,%al
  407d19:	02 00                	add    (%rax),%al
  407d1b:	00 00                	add    %al,(%rax)
  407d1d:	00 00                	add    %al,(%rax)
  407d1f:	00 f8                	add    %bh,%al
  407d21:	02 00                	add    (%rax),%al
  407d23:	00 00                	add    %al,(%rax)
  407d25:	00 00                	add    %al,(%rax)
  407d27:	00 f8                	add    %bh,%al
  407d29:	02 00                	add    (%rax),%al
  407d2b:	00 00                	add    %al,(%rax)
  407d2d:	00 00                	add    %al,(%rax)
  407d2f:	00 f8                	add    %bh,%al
  407d31:	02 00                	add    (%rax),%al
  407d33:	00 00                	add    %al,(%rax)
  407d35:	00 00                	add    %al,(%rax)
  407d37:	00 f8                	add    %bh,%al
  407d39:	02 00                	add    (%rax),%al
  407d3b:	00 00                	add    %al,(%rax)
  407d3d:	00 00                	add    %al,(%rax)
  407d3f:	00 f8                	add    %bh,%al
  407d41:	02 00                	add    (%rax),%al
  407d43:	00 00                	add    %al,(%rax)
  407d45:	00 00                	add    %al,(%rax)
  407d47:	00 f8                	add    %bh,%al
  407d49:	02 00                	add    (%rax),%al
  407d4b:	00 00                	add    %al,(%rax)
  407d4d:	00 00                	add    %al,(%rax)
  407d4f:	00 f8                	add    %bh,%al
  407d51:	02 00                	add    (%rax),%al
  407d53:	00 00                	add    %al,(%rax)
  407d55:	00 00                	add    %al,(%rax)
  407d57:	00 f8                	add    %bh,%al
  407d59:	02 00                	add    (%rax),%al
  407d5b:	00 00                	add    %al,(%rax)
  407d5d:	00 00                	add    %al,(%rax)
  407d5f:	00 f8                	add    %bh,%al
  407d61:	02 00                	add    (%rax),%al
  407d63:	00 00                	add    %al,(%rax)
  407d65:	00 00                	add    %al,(%rax)
  407d67:	00 f8                	add    %bh,%al
  407d69:	02 00                	add    (%rax),%al
  407d6b:	00 00                	add    %al,(%rax)
  407d6d:	00 00                	add    %al,(%rax)
  407d6f:	00 f8                	add    %bh,%al
  407d71:	02 00                	add    (%rax),%al
  407d73:	00 00                	add    %al,(%rax)
  407d75:	00 00                	add    %al,(%rax)
  407d77:	00 f8                	add    %bh,%al
  407d79:	02 00                	add    (%rax),%al
  407d7b:	00 00                	add    %al,(%rax)
  407d7d:	00 00                	add    %al,(%rax)
  407d7f:	00 f8                	add    %bh,%al
  407d81:	02 00                	add    (%rax),%al
  407d83:	00 00                	add    %al,(%rax)
  407d85:	00 00                	add    %al,(%rax)
  407d87:	00 f8                	add    %bh,%al
  407d89:	02 00                	add    (%rax),%al
  407d8b:	00 00                	add    %al,(%rax)
  407d8d:	00 00                	add    %al,(%rax)
  407d8f:	00 f8                	add    %bh,%al
  407d91:	02 00                	add    (%rax),%al
  407d93:	00 00                	add    %al,(%rax)
  407d95:	00 00                	add    %al,(%rax)
  407d97:	00 f8                	add    %bh,%al
  407d99:	02 00                	add    (%rax),%al
  407d9b:	00 00                	add    %al,(%rax)
  407d9d:	00 00                	add    %al,(%rax)
  407d9f:	00 f8                	add    %bh,%al
  407da1:	02 00                	add    (%rax),%al
  407da3:	00 00                	add    %al,(%rax)
  407da5:	00 00                	add    %al,(%rax)
  407da7:	00 f8                	add    %bh,%al
  407da9:	02 00                	add    (%rax),%al
  407dab:	00 00                	add    %al,(%rax)
  407dad:	00 00                	add    %al,(%rax)
  407daf:	00 f8                	add    %bh,%al
  407db1:	02 00                	add    (%rax),%al
  407db3:	00 00                	add    %al,(%rax)
  407db5:	00 00                	add    %al,(%rax)
  407db7:	00 f8                	add    %bh,%al
  407db9:	02 00                	add    (%rax),%al
  407dbb:	00 00                	add    %al,(%rax)
  407dbd:	00 00                	add    %al,(%rax)
  407dbf:	00 f8                	add    %bh,%al
  407dc1:	02 00                	add    (%rax),%al
  407dc3:	00 00                	add    %al,(%rax)
  407dc5:	00 00                	add    %al,(%rax)
  407dc7:	00 f8                	add    %bh,%al
  407dc9:	02 00                	add    (%rax),%al
  407dcb:	00 00                	add    %al,(%rax)
  407dcd:	00 00                	add    %al,(%rax)
  407dcf:	00 f8                	add    %bh,%al
  407dd1:	02 00                	add    (%rax),%al
  407dd3:	00 00                	add    %al,(%rax)
  407dd5:	00 00                	add    %al,(%rax)
  407dd7:	00 f8                	add    %bh,%al
  407dd9:	02 00                	add    (%rax),%al
  407ddb:	00 00                	add    %al,(%rax)
  407ddd:	00 00                	add    %al,(%rax)
  407ddf:	00 f8                	add    %bh,%al
  407de1:	02 00                	add    (%rax),%al
  407de3:	00 00                	add    %al,(%rax)
  407de5:	00 00                	add    %al,(%rax)
  407de7:	00 f8                	add    %bh,%al
  407de9:	02 00                	add    (%rax),%al
  407deb:	00 00                	add    %al,(%rax)
  407ded:	00 00                	add    %al,(%rax)
  407def:	00 f8                	add    %bh,%al
  407df1:	02 00                	add    (%rax),%al
  407df3:	00 00                	add    %al,(%rax)
  407df5:	00 00                	add    %al,(%rax)
  407df7:	00 f8                	add    %bh,%al
  407df9:	02 00                	add    (%rax),%al
  407dfb:	00 00                	add    %al,(%rax)
  407dfd:	00 00                	add    %al,(%rax)
  407dff:	00 f8                	add    %bh,%al
  407e01:	02 00                	add    (%rax),%al
  407e03:	00 00                	add    %al,(%rax)
  407e05:	00 00                	add    %al,(%rax)
  407e07:	00 f8                	add    %bh,%al
  407e09:	02 00                	add    (%rax),%al
  407e0b:	00 00                	add    %al,(%rax)
  407e0d:	00 00                	add    %al,(%rax)
  407e0f:	00 f8                	add    %bh,%al
  407e11:	02 00                	add    (%rax),%al
  407e13:	00 00                	add    %al,(%rax)
  407e15:	00 00                	add    %al,(%rax)
  407e17:	00 f8                	add    %bh,%al
  407e19:	02 00                	add    (%rax),%al
  407e1b:	00 00                	add    %al,(%rax)
  407e1d:	00 00                	add    %al,(%rax)
  407e1f:	00 f8                	add    %bh,%al
  407e21:	02 00                	add    (%rax),%al
  407e23:	00 00                	add    %al,(%rax)
  407e25:	00 00                	add    %al,(%rax)
  407e27:	00 f8                	add    %bh,%al
  407e29:	02 00                	add    (%rax),%al
  407e2b:	00 00                	add    %al,(%rax)
  407e2d:	00 00                	add    %al,(%rax)
  407e2f:	00 f8                	add    %bh,%al
  407e31:	02 00                	add    (%rax),%al
  407e33:	00 00                	add    %al,(%rax)
  407e35:	00 00                	add    %al,(%rax)
  407e37:	00 f8                	add    %bh,%al
  407e39:	02 00                	add    (%rax),%al
  407e3b:	00 00                	add    %al,(%rax)
  407e3d:	00 00                	add    %al,(%rax)
  407e3f:	00 f8                	add    %bh,%al
  407e41:	02 00                	add    (%rax),%al
  407e43:	00 00                	add    %al,(%rax)
  407e45:	00 00                	add    %al,(%rax)
  407e47:	00 f8                	add    %bh,%al
  407e49:	02 00                	add    (%rax),%al
  407e4b:	00 00                	add    %al,(%rax)
  407e4d:	00 00                	add    %al,(%rax)
  407e4f:	00 f8                	add    %bh,%al
  407e51:	02 00                	add    (%rax),%al
  407e53:	00 00                	add    %al,(%rax)
  407e55:	00 00                	add    %al,(%rax)
  407e57:	00 f8                	add    %bh,%al
  407e59:	02 00                	add    (%rax),%al
  407e5b:	00 00                	add    %al,(%rax)
  407e5d:	00 00                	add    %al,(%rax)
  407e5f:	00 f8                	add    %bh,%al
  407e61:	02 00                	add    (%rax),%al
  407e63:	00 00                	add    %al,(%rax)
  407e65:	00 00                	add    %al,(%rax)
  407e67:	00 f8                	add    %bh,%al
  407e69:	02 00                	add    (%rax),%al
  407e6b:	00 00                	add    %al,(%rax)
  407e6d:	00 00                	add    %al,(%rax)
  407e6f:	00 f8                	add    %bh,%al
  407e71:	02 00                	add    (%rax),%al
  407e73:	00 00                	add    %al,(%rax)
  407e75:	00 00                	add    %al,(%rax)
  407e77:	00 f8                	add    %bh,%al
  407e79:	02 00                	add    (%rax),%al
  407e7b:	00 00                	add    %al,(%rax)
  407e7d:	00 00                	add    %al,(%rax)
  407e7f:	00 f8                	add    %bh,%al
  407e81:	02 00                	add    (%rax),%al
  407e83:	00 00                	add    %al,(%rax)
  407e85:	00 00                	add    %al,(%rax)
  407e87:	00 f8                	add    %bh,%al
  407e89:	02 00                	add    (%rax),%al
  407e8b:	00 00                	add    %al,(%rax)
  407e8d:	00 00                	add    %al,(%rax)
  407e8f:	00 f8                	add    %bh,%al
  407e91:	02 00                	add    (%rax),%al
  407e93:	00 00                	add    %al,(%rax)
  407e95:	00 00                	add    %al,(%rax)
  407e97:	00 f8                	add    %bh,%al
  407e99:	02 00                	add    (%rax),%al
  407e9b:	00 00                	add    %al,(%rax)
  407e9d:	00 00                	add    %al,(%rax)
  407e9f:	00 f8                	add    %bh,%al
  407ea1:	02 00                	add    (%rax),%al
  407ea3:	00 00                	add    %al,(%rax)
  407ea5:	00 00                	add    %al,(%rax)
  407ea7:	00 f8                	add    %bh,%al
  407ea9:	02 00                	add    (%rax),%al
  407eab:	00 00                	add    %al,(%rax)
  407ead:	00 00                	add    %al,(%rax)
  407eaf:	00 f8                	add    %bh,%al
  407eb1:	02 00                	add    (%rax),%al
  407eb3:	00 00                	add    %al,(%rax)
  407eb5:	00 00                	add    %al,(%rax)
  407eb7:	00 f8                	add    %bh,%al
  407eb9:	02 00                	add    (%rax),%al
  407ebb:	00 00                	add    %al,(%rax)
  407ebd:	00 00                	add    %al,(%rax)
  407ebf:	00 f8                	add    %bh,%al
  407ec1:	02 00                	add    (%rax),%al
  407ec3:	00 00                	add    %al,(%rax)
  407ec5:	00 00                	add    %al,(%rax)
  407ec7:	00 f8                	add    %bh,%al
  407ec9:	02 00                	add    (%rax),%al
  407ecb:	00 00                	add    %al,(%rax)
  407ecd:	00 00                	add    %al,(%rax)
  407ecf:	00 f8                	add    %bh,%al
  407ed1:	02 00                	add    (%rax),%al
  407ed3:	00 00                	add    %al,(%rax)
  407ed5:	00 00                	add    %al,(%rax)
  407ed7:	00 f8                	add    %bh,%al
  407ed9:	02 00                	add    (%rax),%al
  407edb:	00 00                	add    %al,(%rax)
  407edd:	00 00                	add    %al,(%rax)
  407edf:	00 f8                	add    %bh,%al
  407ee1:	02 00                	add    (%rax),%al
  407ee3:	00 00                	add    %al,(%rax)
  407ee5:	00 00                	add    %al,(%rax)
  407ee7:	00 f8                	add    %bh,%al
  407ee9:	02 00                	add    (%rax),%al
  407eeb:	00 00                	add    %al,(%rax)
  407eed:	00 00                	add    %al,(%rax)
  407eef:	00 f8                	add    %bh,%al
  407ef1:	02 00                	add    (%rax),%al
  407ef3:	00 00                	add    %al,(%rax)
  407ef5:	00 00                	add    %al,(%rax)
  407ef7:	00 f8                	add    %bh,%al
  407ef9:	02 00                	add    (%rax),%al
  407efb:	00 00                	add    %al,(%rax)
  407efd:	00 00                	add    %al,(%rax)
  407eff:	00 ff                	add    %bh,%bh
  407f01:	02 00                	add    (%rax),%al
  407f03:	00 00                	add    %al,(%rax)
  407f05:	00 00                	add    %al,(%rax)
  407f07:	00 ff                	add    %bh,%bh
  407f09:	02 00                	add    (%rax),%al
  407f0b:	00 00                	add    %al,(%rax)
  407f0d:	00 00                	add    %al,(%rax)
  407f0f:	00 ff                	add    %bh,%bh
  407f11:	02 00                	add    (%rax),%al
  407f13:	00 00                	add    %al,(%rax)
  407f15:	00 00                	add    %al,(%rax)
  407f17:	00 ff                	add    %bh,%bh
  407f19:	02 00                	add    (%rax),%al
  407f1b:	00 00                	add    %al,(%rax)
  407f1d:	00 00                	add    %al,(%rax)
  407f1f:	00 ff                	add    %bh,%bh
  407f21:	02 00                	add    (%rax),%al
  407f23:	00 00                	add    %al,(%rax)
  407f25:	00 00                	add    %al,(%rax)
  407f27:	00 ff                	add    %bh,%bh
  407f29:	02 00                	add    (%rax),%al
  407f2b:	00 00                	add    %al,(%rax)
  407f2d:	00 00                	add    %al,(%rax)
  407f2f:	00 ff                	add    %bh,%bh
  407f31:	02 00                	add    (%rax),%al
  407f33:	00 00                	add    %al,(%rax)
  407f35:	00 00                	add    %al,(%rax)
  407f37:	00 ff                	add    %bh,%bh
  407f39:	02 00                	add    (%rax),%al
  407f3b:	00 00                	add    %al,(%rax)
  407f3d:	00 00                	add    %al,(%rax)
  407f3f:	00 ff                	add    %bh,%bh
  407f41:	02 00                	add    (%rax),%al
  407f43:	00 00                	add    %al,(%rax)
  407f45:	00 00                	add    %al,(%rax)
  407f47:	00 ff                	add    %bh,%bh
  407f49:	02 00                	add    (%rax),%al
  407f4b:	00 00                	add    %al,(%rax)
  407f4d:	00 00                	add    %al,(%rax)
  407f4f:	00 ff                	add    %bh,%bh
  407f51:	02 00                	add    (%rax),%al
  407f53:	00 00                	add    %al,(%rax)
  407f55:	00 00                	add    %al,(%rax)
  407f57:	00 ff                	add    %bh,%bh
  407f59:	02 00                	add    (%rax),%al
  407f5b:	00 00                	add    %al,(%rax)
  407f5d:	00 00                	add    %al,(%rax)
  407f5f:	00 ff                	add    %bh,%bh
  407f61:	02 00                	add    (%rax),%al
  407f63:	00 00                	add    %al,(%rax)
  407f65:	00 00                	add    %al,(%rax)
  407f67:	00 ff                	add    %bh,%bh
  407f69:	02 00                	add    (%rax),%al
  407f6b:	00 00                	add    %al,(%rax)
  407f6d:	00 00                	add    %al,(%rax)
  407f6f:	00 ff                	add    %bh,%bh
  407f71:	02 00                	add    (%rax),%al
  407f73:	00 00                	add    %al,(%rax)
  407f75:	00 00                	add    %al,(%rax)
  407f77:	00 ff                	add    %bh,%bh
  407f79:	02 00                	add    (%rax),%al
  407f7b:	00 00                	add    %al,(%rax)
  407f7d:	00 00                	add    %al,(%rax)
  407f7f:	00 ff                	add    %bh,%bh
  407f81:	02 00                	add    (%rax),%al
  407f83:	00 00                	add    %al,(%rax)
  407f85:	00 00                	add    %al,(%rax)
  407f87:	00 ff                	add    %bh,%bh
  407f89:	02 00                	add    (%rax),%al
  407f8b:	00 00                	add    %al,(%rax)
  407f8d:	00 00                	add    %al,(%rax)
  407f8f:	00 ff                	add    %bh,%bh
  407f91:	02 00                	add    (%rax),%al
  407f93:	00 00                	add    %al,(%rax)
  407f95:	00 00                	add    %al,(%rax)
  407f97:	00 ff                	add    %bh,%bh
  407f99:	02 00                	add    (%rax),%al
  407f9b:	00 00                	add    %al,(%rax)
  407f9d:	00 00                	add    %al,(%rax)
  407f9f:	00 ff                	add    %bh,%bh
  407fa1:	02 00                	add    (%rax),%al
  407fa3:	00 00                	add    %al,(%rax)
  407fa5:	00 00                	add    %al,(%rax)
  407fa7:	00 ff                	add    %bh,%bh
  407fa9:	02 00                	add    (%rax),%al
  407fab:	00 00                	add    %al,(%rax)
  407fad:	00 00                	add    %al,(%rax)
  407faf:	00 ff                	add    %bh,%bh
  407fb1:	02 00                	add    (%rax),%al
  407fb3:	00 00                	add    %al,(%rax)
  407fb5:	00 00                	add    %al,(%rax)
  407fb7:	00 ff                	add    %bh,%bh
  407fb9:	02 00                	add    (%rax),%al
  407fbb:	00 00                	add    %al,(%rax)
  407fbd:	00 00                	add    %al,(%rax)
  407fbf:	00 ff                	add    %bh,%bh
  407fc1:	02 00                	add    (%rax),%al
  407fc3:	00 00                	add    %al,(%rax)
  407fc5:	00 00                	add    %al,(%rax)
  407fc7:	00 ff                	add    %bh,%bh
  407fc9:	02 00                	add    (%rax),%al
  407fcb:	00 00                	add    %al,(%rax)
  407fcd:	00 00                	add    %al,(%rax)
  407fcf:	00 ff                	add    %bh,%bh
  407fd1:	02 00                	add    (%rax),%al
  407fd3:	00 00                	add    %al,(%rax)
  407fd5:	00 00                	add    %al,(%rax)
  407fd7:	00 ff                	add    %bh,%bh
  407fd9:	02 00                	add    (%rax),%al
  407fdb:	00 00                	add    %al,(%rax)
  407fdd:	00 00                	add    %al,(%rax)
  407fdf:	00 ff                	add    %bh,%bh
  407fe1:	02 00                	add    (%rax),%al
  407fe3:	00 00                	add    %al,(%rax)
  407fe5:	00 00                	add    %al,(%rax)
  407fe7:	00 ff                	add    %bh,%bh
  407fe9:	02 00                	add    (%rax),%al
  407feb:	00 00                	add    %al,(%rax)
  407fed:	00 00                	add    %al,(%rax)
  407fef:	00 ff                	add    %bh,%bh
  407ff1:	02 00                	add    (%rax),%al
  407ff3:	00 00                	add    %al,(%rax)
  407ff5:	00 00                	add    %al,(%rax)
  407ff7:	00 ff                	add    %bh,%bh
  407ff9:	02 00                	add    (%rax),%al
  407ffb:	00 00                	add    %al,(%rax)
  407ffd:	00 00                	add    %al,(%rax)
  407fff:	00 ff                	add    %bh,%bh
  408001:	02 00                	add    (%rax),%al
  408003:	00 00                	add    %al,(%rax)
  408005:	00 00                	add    %al,(%rax)
  408007:	00 ff                	add    %bh,%bh
  408009:	02 00                	add    (%rax),%al
  40800b:	00 00                	add    %al,(%rax)
  40800d:	00 00                	add    %al,(%rax)
  40800f:	00 ff                	add    %bh,%bh
  408011:	02 00                	add    (%rax),%al
  408013:	00 00                	add    %al,(%rax)
  408015:	00 00                	add    %al,(%rax)
  408017:	00 ff                	add    %bh,%bh
  408019:	02 00                	add    (%rax),%al
  40801b:	00 00                	add    %al,(%rax)
  40801d:	00 00                	add    %al,(%rax)
  40801f:	00 ff                	add    %bh,%bh
  408021:	02 00                	add    (%rax),%al
  408023:	00 00                	add    %al,(%rax)
  408025:	00 00                	add    %al,(%rax)
  408027:	00 ff                	add    %bh,%bh
  408029:	02 00                	add    (%rax),%al
  40802b:	00 00                	add    %al,(%rax)
  40802d:	00 00                	add    %al,(%rax)
  40802f:	00 ff                	add    %bh,%bh
  408031:	02 00                	add    (%rax),%al
  408033:	00 00                	add    %al,(%rax)
  408035:	00 00                	add    %al,(%rax)
  408037:	00 ff                	add    %bh,%bh
  408039:	02 00                	add    (%rax),%al
  40803b:	00 00                	add    %al,(%rax)
  40803d:	00 00                	add    %al,(%rax)
  40803f:	00 ff                	add    %bh,%bh
  408041:	02 00                	add    (%rax),%al
  408043:	00 00                	add    %al,(%rax)
  408045:	00 00                	add    %al,(%rax)
  408047:	00 ff                	add    %bh,%bh
  408049:	02 00                	add    (%rax),%al
  40804b:	00 00                	add    %al,(%rax)
  40804d:	00 00                	add    %al,(%rax)
  40804f:	00 ff                	add    %bh,%bh
  408051:	02 00                	add    (%rax),%al
  408053:	00 00                	add    %al,(%rax)
  408055:	00 00                	add    %al,(%rax)
  408057:	00 ff                	add    %bh,%bh
  408059:	02 00                	add    (%rax),%al
  40805b:	00 00                	add    %al,(%rax)
  40805d:	00 00                	add    %al,(%rax)
  40805f:	00 ff                	add    %bh,%bh
  408061:	02 00                	add    (%rax),%al
  408063:	00 00                	add    %al,(%rax)
  408065:	00 00                	add    %al,(%rax)
  408067:	00 ff                	add    %bh,%bh
  408069:	02 00                	add    (%rax),%al
  40806b:	00 00                	add    %al,(%rax)
  40806d:	00 00                	add    %al,(%rax)
  40806f:	00 ff                	add    %bh,%bh
  408071:	02 00                	add    (%rax),%al
  408073:	00 00                	add    %al,(%rax)
  408075:	00 00                	add    %al,(%rax)
  408077:	00 ff                	add    %bh,%bh
  408079:	02 00                	add    (%rax),%al
  40807b:	00 00                	add    %al,(%rax)
  40807d:	00 00                	add    %al,(%rax)
  40807f:	00 ff                	add    %bh,%bh
  408081:	02 00                	add    (%rax),%al
  408083:	00 00                	add    %al,(%rax)
  408085:	00 00                	add    %al,(%rax)
  408087:	00 ff                	add    %bh,%bh
  408089:	02 00                	add    (%rax),%al
  40808b:	00 00                	add    %al,(%rax)
  40808d:	00 00                	add    %al,(%rax)
  40808f:	00 ff                	add    %bh,%bh
  408091:	02 00                	add    (%rax),%al
  408093:	00 00                	add    %al,(%rax)
  408095:	00 00                	add    %al,(%rax)
  408097:	00 ff                	add    %bh,%bh
  408099:	02 00                	add    (%rax),%al
  40809b:	00 00                	add    %al,(%rax)
  40809d:	00 00                	add    %al,(%rax)
  40809f:	00 ff                	add    %bh,%bh
  4080a1:	02 00                	add    (%rax),%al
  4080a3:	00 00                	add    %al,(%rax)
  4080a5:	00 00                	add    %al,(%rax)
  4080a7:	00 ff                	add    %bh,%bh
  4080a9:	02 00                	add    (%rax),%al
  4080ab:	00 00                	add    %al,(%rax)
  4080ad:	00 00                	add    %al,(%rax)
  4080af:	00 ff                	add    %bh,%bh
  4080b1:	02 00                	add    (%rax),%al
  4080b3:	00 00                	add    %al,(%rax)
  4080b5:	00 00                	add    %al,(%rax)
  4080b7:	00 ff                	add    %bh,%bh
  4080b9:	02 00                	add    (%rax),%al
  4080bb:	00 00                	add    %al,(%rax)
  4080bd:	00 00                	add    %al,(%rax)
  4080bf:	00 ff                	add    %bh,%bh
  4080c1:	02 00                	add    (%rax),%al
  4080c3:	00 00                	add    %al,(%rax)
  4080c5:	00 00                	add    %al,(%rax)
  4080c7:	00 ff                	add    %bh,%bh
  4080c9:	02 00                	add    (%rax),%al
  4080cb:	00 00                	add    %al,(%rax)
  4080cd:	00 00                	add    %al,(%rax)
  4080cf:	00 ff                	add    %bh,%bh
  4080d1:	02 00                	add    (%rax),%al
  4080d3:	00 00                	add    %al,(%rax)
  4080d5:	00 00                	add    %al,(%rax)
  4080d7:	00 ff                	add    %bh,%bh
  4080d9:	02 00                	add    (%rax),%al
  4080db:	00 00                	add    %al,(%rax)
  4080dd:	00 00                	add    %al,(%rax)
  4080df:	00 ff                	add    %bh,%bh
  4080e1:	02 00                	add    (%rax),%al
  4080e3:	00 00                	add    %al,(%rax)
  4080e5:	00 00                	add    %al,(%rax)
  4080e7:	00 ff                	add    %bh,%bh
  4080e9:	02 00                	add    (%rax),%al
  4080eb:	00 00                	add    %al,(%rax)
  4080ed:	00 00                	add    %al,(%rax)
  4080ef:	00 ff                	add    %bh,%bh
  4080f1:	02 00                	add    (%rax),%al
  4080f3:	00 00                	add    %al,(%rax)
  4080f5:	00 00                	add    %al,(%rax)
  4080f7:	00 ff                	add    %bh,%bh
  4080f9:	02 00                	add    (%rax),%al
  4080fb:	00 00                	add    %al,(%rax)
  4080fd:	00 00                	add    %al,(%rax)
  4080ff:	00 06                	add    %al,(%rsi)
  408101:	03 00                	add    (%rax),%eax
  408103:	00 00                	add    %al,(%rax)
  408105:	00 00                	add    %al,(%rax)
  408107:	00 06                	add    %al,(%rsi)
  408109:	03 00                	add    (%rax),%eax
  40810b:	00 00                	add    %al,(%rax)
  40810d:	00 00                	add    %al,(%rax)
  40810f:	00 06                	add    %al,(%rsi)
  408111:	03 00                	add    (%rax),%eax
  408113:	00 00                	add    %al,(%rax)
  408115:	00 00                	add    %al,(%rax)
  408117:	00 06                	add    %al,(%rsi)
  408119:	03 00                	add    (%rax),%eax
  40811b:	00 00                	add    %al,(%rax)
  40811d:	00 00                	add    %al,(%rax)
  40811f:	00 06                	add    %al,(%rsi)
  408121:	03 00                	add    (%rax),%eax
  408123:	00 00                	add    %al,(%rax)
  408125:	00 00                	add    %al,(%rax)
  408127:	00 06                	add    %al,(%rsi)
  408129:	03 00                	add    (%rax),%eax
  40812b:	00 00                	add    %al,(%rax)
  40812d:	00 00                	add    %al,(%rax)
  40812f:	00 06                	add    %al,(%rsi)
  408131:	03 00                	add    (%rax),%eax
  408133:	00 00                	add    %al,(%rax)
  408135:	00 00                	add    %al,(%rax)
  408137:	00 06                	add    %al,(%rsi)
  408139:	03 00                	add    (%rax),%eax
  40813b:	00 00                	add    %al,(%rax)
  40813d:	00 00                	add    %al,(%rax)
  40813f:	00 06                	add    %al,(%rsi)
  408141:	03 00                	add    (%rax),%eax
  408143:	00 00                	add    %al,(%rax)
  408145:	00 00                	add    %al,(%rax)
  408147:	00 06                	add    %al,(%rsi)
  408149:	03 00                	add    (%rax),%eax
  40814b:	00 00                	add    %al,(%rax)
  40814d:	00 00                	add    %al,(%rax)
  40814f:	00 06                	add    %al,(%rsi)
  408151:	03 00                	add    (%rax),%eax
  408153:	00 00                	add    %al,(%rax)
  408155:	00 00                	add    %al,(%rax)
  408157:	00 06                	add    %al,(%rsi)
  408159:	03 00                	add    (%rax),%eax
  40815b:	00 00                	add    %al,(%rax)
  40815d:	00 00                	add    %al,(%rax)
  40815f:	00 06                	add    %al,(%rsi)
  408161:	03 00                	add    (%rax),%eax
  408163:	00 00                	add    %al,(%rax)
  408165:	00 00                	add    %al,(%rax)
  408167:	00 06                	add    %al,(%rsi)
  408169:	03 00                	add    (%rax),%eax
  40816b:	00 00                	add    %al,(%rax)
  40816d:	00 00                	add    %al,(%rax)
  40816f:	00 06                	add    %al,(%rsi)
  408171:	03 00                	add    (%rax),%eax
  408173:	00 00                	add    %al,(%rax)
  408175:	00 00                	add    %al,(%rax)
  408177:	00 06                	add    %al,(%rsi)
  408179:	03 00                	add    (%rax),%eax
  40817b:	00 00                	add    %al,(%rax)
  40817d:	00 00                	add    %al,(%rax)
  40817f:	00 06                	add    %al,(%rsi)
  408181:	03 00                	add    (%rax),%eax
  408183:	00 00                	add    %al,(%rax)
  408185:	00 00                	add    %al,(%rax)
  408187:	00 06                	add    %al,(%rsi)
  408189:	03 00                	add    (%rax),%eax
  40818b:	00 00                	add    %al,(%rax)
  40818d:	00 00                	add    %al,(%rax)
  40818f:	00 06                	add    %al,(%rsi)
  408191:	03 00                	add    (%rax),%eax
  408193:	00 00                	add    %al,(%rax)
  408195:	00 00                	add    %al,(%rax)
  408197:	00 06                	add    %al,(%rsi)
  408199:	03 00                	add    (%rax),%eax
  40819b:	00 00                	add    %al,(%rax)
  40819d:	00 00                	add    %al,(%rax)
  40819f:	00 06                	add    %al,(%rsi)
  4081a1:	03 00                	add    (%rax),%eax
  4081a3:	00 00                	add    %al,(%rax)
  4081a5:	00 00                	add    %al,(%rax)
  4081a7:	00 06                	add    %al,(%rsi)
  4081a9:	03 00                	add    (%rax),%eax
  4081ab:	00 00                	add    %al,(%rax)
  4081ad:	00 00                	add    %al,(%rax)
  4081af:	00 06                	add    %al,(%rsi)
  4081b1:	03 00                	add    (%rax),%eax
  4081b3:	00 00                	add    %al,(%rax)
  4081b5:	00 00                	add    %al,(%rax)
  4081b7:	00 06                	add    %al,(%rsi)
  4081b9:	03 00                	add    (%rax),%eax
  4081bb:	00 00                	add    %al,(%rax)
  4081bd:	00 00                	add    %al,(%rax)
  4081bf:	00 06                	add    %al,(%rsi)
  4081c1:	03 00                	add    (%rax),%eax
  4081c3:	00 00                	add    %al,(%rax)
  4081c5:	00 00                	add    %al,(%rax)
  4081c7:	00 06                	add    %al,(%rsi)
  4081c9:	03 00                	add    (%rax),%eax
  4081cb:	00 00                	add    %al,(%rax)
  4081cd:	00 00                	add    %al,(%rax)
  4081cf:	00 06                	add    %al,(%rsi)
  4081d1:	03 00                	add    (%rax),%eax
  4081d3:	00 00                	add    %al,(%rax)
  4081d5:	00 00                	add    %al,(%rax)
  4081d7:	00 06                	add    %al,(%rsi)
  4081d9:	03 00                	add    (%rax),%eax
  4081db:	00 00                	add    %al,(%rax)
  4081dd:	00 00                	add    %al,(%rax)
  4081df:	00 06                	add    %al,(%rsi)
  4081e1:	03 00                	add    (%rax),%eax
  4081e3:	00 00                	add    %al,(%rax)
  4081e5:	00 00                	add    %al,(%rax)
  4081e7:	00 06                	add    %al,(%rsi)
  4081e9:	03 00                	add    (%rax),%eax
  4081eb:	00 00                	add    %al,(%rax)
  4081ed:	00 00                	add    %al,(%rax)
  4081ef:	00 06                	add    %al,(%rsi)
  4081f1:	03 00                	add    (%rax),%eax
  4081f3:	00 00                	add    %al,(%rax)
  4081f5:	00 00                	add    %al,(%rax)
  4081f7:	00 06                	add    %al,(%rsi)
  4081f9:	03 00                	add    (%rax),%eax
  4081fb:	00 00                	add    %al,(%rax)
  4081fd:	00 00                	add    %al,(%rax)
  4081ff:	00 06                	add    %al,(%rsi)
  408201:	03 00                	add    (%rax),%eax
  408203:	00 00                	add    %al,(%rax)
  408205:	00 00                	add    %al,(%rax)
  408207:	00 06                	add    %al,(%rsi)
  408209:	03 00                	add    (%rax),%eax
  40820b:	00 00                	add    %al,(%rax)
  40820d:	00 00                	add    %al,(%rax)
  40820f:	00 06                	add    %al,(%rsi)
  408211:	03 00                	add    (%rax),%eax
  408213:	00 00                	add    %al,(%rax)
  408215:	00 00                	add    %al,(%rax)
  408217:	00 06                	add    %al,(%rsi)
  408219:	03 00                	add    (%rax),%eax
  40821b:	00 00                	add    %al,(%rax)
  40821d:	00 00                	add    %al,(%rax)
  40821f:	00 06                	add    %al,(%rsi)
  408221:	03 00                	add    (%rax),%eax
  408223:	00 00                	add    %al,(%rax)
  408225:	00 00                	add    %al,(%rax)
  408227:	00 06                	add    %al,(%rsi)
  408229:	03 00                	add    (%rax),%eax
  40822b:	00 00                	add    %al,(%rax)
  40822d:	00 00                	add    %al,(%rax)
  40822f:	00 06                	add    %al,(%rsi)
  408231:	03 00                	add    (%rax),%eax
  408233:	00 00                	add    %al,(%rax)
  408235:	00 00                	add    %al,(%rax)
  408237:	00 06                	add    %al,(%rsi)
  408239:	03 00                	add    (%rax),%eax
  40823b:	00 00                	add    %al,(%rax)
  40823d:	00 00                	add    %al,(%rax)
  40823f:	00 06                	add    %al,(%rsi)
  408241:	03 00                	add    (%rax),%eax
  408243:	00 00                	add    %al,(%rax)
  408245:	00 00                	add    %al,(%rax)
  408247:	00 06                	add    %al,(%rsi)
  408249:	03 00                	add    (%rax),%eax
  40824b:	00 00                	add    %al,(%rax)
  40824d:	00 00                	add    %al,(%rax)
  40824f:	00 06                	add    %al,(%rsi)
  408251:	03 00                	add    (%rax),%eax
  408253:	00 00                	add    %al,(%rax)
  408255:	00 00                	add    %al,(%rax)
  408257:	00 06                	add    %al,(%rsi)
  408259:	03 00                	add    (%rax),%eax
  40825b:	00 00                	add    %al,(%rax)
  40825d:	00 00                	add    %al,(%rax)
  40825f:	00 06                	add    %al,(%rsi)
  408261:	03 00                	add    (%rax),%eax
  408263:	00 00                	add    %al,(%rax)
  408265:	00 00                	add    %al,(%rax)
  408267:	00 06                	add    %al,(%rsi)
  408269:	03 00                	add    (%rax),%eax
  40826b:	00 00                	add    %al,(%rax)
  40826d:	00 00                	add    %al,(%rax)
  40826f:	00 06                	add    %al,(%rsi)
  408271:	03 00                	add    (%rax),%eax
  408273:	00 00                	add    %al,(%rax)
  408275:	00 00                	add    %al,(%rax)
  408277:	00 06                	add    %al,(%rsi)
  408279:	03 00                	add    (%rax),%eax
  40827b:	00 00                	add    %al,(%rax)
  40827d:	00 00                	add    %al,(%rax)
  40827f:	00 06                	add    %al,(%rsi)
  408281:	03 00                	add    (%rax),%eax
  408283:	00 00                	add    %al,(%rax)
  408285:	00 00                	add    %al,(%rax)
  408287:	00 06                	add    %al,(%rsi)
  408289:	03 00                	add    (%rax),%eax
  40828b:	00 00                	add    %al,(%rax)
  40828d:	00 00                	add    %al,(%rax)
  40828f:	00 06                	add    %al,(%rsi)
  408291:	03 00                	add    (%rax),%eax
  408293:	00 00                	add    %al,(%rax)
  408295:	00 00                	add    %al,(%rax)
  408297:	00 06                	add    %al,(%rsi)
  408299:	03 00                	add    (%rax),%eax
  40829b:	00 00                	add    %al,(%rax)
  40829d:	00 00                	add    %al,(%rax)
  40829f:	00 06                	add    %al,(%rsi)
  4082a1:	03 00                	add    (%rax),%eax
  4082a3:	00 00                	add    %al,(%rax)
  4082a5:	00 00                	add    %al,(%rax)
  4082a7:	00 06                	add    %al,(%rsi)
  4082a9:	03 00                	add    (%rax),%eax
  4082ab:	00 00                	add    %al,(%rax)
  4082ad:	00 00                	add    %al,(%rax)
  4082af:	00 06                	add    %al,(%rsi)
  4082b1:	03 00                	add    (%rax),%eax
  4082b3:	00 00                	add    %al,(%rax)
  4082b5:	00 00                	add    %al,(%rax)
  4082b7:	00 06                	add    %al,(%rsi)
  4082b9:	03 00                	add    (%rax),%eax
  4082bb:	00 00                	add    %al,(%rax)
  4082bd:	00 00                	add    %al,(%rax)
  4082bf:	00 06                	add    %al,(%rsi)
  4082c1:	03 00                	add    (%rax),%eax
  4082c3:	00 00                	add    %al,(%rax)
  4082c5:	00 00                	add    %al,(%rax)
  4082c7:	00 06                	add    %al,(%rsi)
  4082c9:	03 00                	add    (%rax),%eax
  4082cb:	00 00                	add    %al,(%rax)
  4082cd:	00 00                	add    %al,(%rax)
  4082cf:	00 06                	add    %al,(%rsi)
  4082d1:	03 00                	add    (%rax),%eax
  4082d3:	00 00                	add    %al,(%rax)
  4082d5:	00 00                	add    %al,(%rax)
  4082d7:	00 06                	add    %al,(%rsi)
  4082d9:	03 00                	add    (%rax),%eax
  4082db:	00 00                	add    %al,(%rax)
  4082dd:	00 00                	add    %al,(%rax)
  4082df:	00 06                	add    %al,(%rsi)
  4082e1:	03 00                	add    (%rax),%eax
  4082e3:	00 00                	add    %al,(%rax)
  4082e5:	00 00                	add    %al,(%rax)
  4082e7:	00 06                	add    %al,(%rsi)
  4082e9:	03 00                	add    (%rax),%eax
  4082eb:	00 00                	add    %al,(%rax)
  4082ed:	00 00                	add    %al,(%rax)
  4082ef:	00 06                	add    %al,(%rsi)
  4082f1:	03 00                	add    (%rax),%eax
  4082f3:	00 00                	add    %al,(%rax)
  4082f5:	00 00                	add    %al,(%rax)
  4082f7:	00 06                	add    %al,(%rsi)
  4082f9:	03 00                	add    (%rax),%eax
  4082fb:	00 00                	add    %al,(%rax)
  4082fd:	00 00                	add    %al,(%rax)
  4082ff:	00 0d 03 00 00 00    	add    %cl,0x3(%rip)        # 408308 <__intel_mic_avx512f_memset+0x12c8>
  408305:	00 00                	add    %al,(%rax)
  408307:	00 0d 03 00 00 00    	add    %cl,0x3(%rip)        # 408310 <__intel_mic_avx512f_memset+0x12d0>
  40830d:	00 00                	add    %al,(%rax)
  40830f:	00 0d 03 00 00 00    	add    %cl,0x3(%rip)        # 408318 <__intel_mic_avx512f_memset+0x12d8>
  408315:	00 00                	add    %al,(%rax)
  408317:	00 0d 03 00 00 00    	add    %cl,0x3(%rip)        # 408320 <__intel_mic_avx512f_memset+0x12e0>
  40831d:	00 00                	add    %al,(%rax)
  40831f:	00 0d 03 00 00 00    	add    %cl,0x3(%rip)        # 408328 <__intel_mic_avx512f_memset+0x12e8>
  408325:	00 00                	add    %al,(%rax)
  408327:	00 0d 03 00 00 00    	add    %cl,0x3(%rip)        # 408330 <__intel_mic_avx512f_memset+0x12f0>
  40832d:	00 00                	add    %al,(%rax)
  40832f:	00 0d 03 00 00 00    	add    %cl,0x3(%rip)        # 408338 <__intel_mic_avx512f_memset+0x12f8>
  408335:	00 00                	add    %al,(%rax)
  408337:	00 0d 03 00 00 00    	add    %cl,0x3(%rip)        # 408340 <__intel_mic_avx512f_memset+0x1300>
  40833d:	00 00                	add    %al,(%rax)
  40833f:	00 0d 03 00 00 00    	add    %cl,0x3(%rip)        # 408348 <__intel_mic_avx512f_memset+0x1308>
  408345:	00 00                	add    %al,(%rax)
  408347:	00 0d 03 00 00 00    	add    %cl,0x3(%rip)        # 408350 <__intel_mic_avx512f_memset+0x1310>
  40834d:	00 00                	add    %al,(%rax)
  40834f:	00 0d 03 00 00 00    	add    %cl,0x3(%rip)        # 408358 <__intel_mic_avx512f_memset+0x1318>
  408355:	00 00                	add    %al,(%rax)
  408357:	00 0d 03 00 00 00    	add    %cl,0x3(%rip)        # 408360 <__intel_mic_avx512f_memset+0x1320>
  40835d:	00 00                	add    %al,(%rax)
  40835f:	00 0d 03 00 00 00    	add    %cl,0x3(%rip)        # 408368 <__intel_mic_avx512f_memset+0x1328>
  408365:	00 00                	add    %al,(%rax)
  408367:	00 0d 03 00 00 00    	add    %cl,0x3(%rip)        # 408370 <__intel_mic_avx512f_memset+0x1330>
  40836d:	00 00                	add    %al,(%rax)
  40836f:	00 0d 03 00 00 00    	add    %cl,0x3(%rip)        # 408378 <__intel_mic_avx512f_memset+0x1338>
  408375:	00 00                	add    %al,(%rax)
  408377:	00 0d 03 00 00 00    	add    %cl,0x3(%rip)        # 408380 <__intel_mic_avx512f_memset+0x1340>
  40837d:	00 00                	add    %al,(%rax)
  40837f:	00 0d 03 00 00 00    	add    %cl,0x3(%rip)        # 408388 <__intel_mic_avx512f_memset+0x1348>
  408385:	00 00                	add    %al,(%rax)
  408387:	00 0d 03 00 00 00    	add    %cl,0x3(%rip)        # 408390 <__intel_mic_avx512f_memset+0x1350>
  40838d:	00 00                	add    %al,(%rax)
  40838f:	00 0d 03 00 00 00    	add    %cl,0x3(%rip)        # 408398 <__intel_mic_avx512f_memset+0x1358>
  408395:	00 00                	add    %al,(%rax)
  408397:	00 0d 03 00 00 00    	add    %cl,0x3(%rip)        # 4083a0 <__intel_mic_avx512f_memset+0x1360>
  40839d:	00 00                	add    %al,(%rax)
  40839f:	00 0d 03 00 00 00    	add    %cl,0x3(%rip)        # 4083a8 <__intel_mic_avx512f_memset+0x1368>
  4083a5:	00 00                	add    %al,(%rax)
  4083a7:	00 0d 03 00 00 00    	add    %cl,0x3(%rip)        # 4083b0 <__intel_mic_avx512f_memset+0x1370>
  4083ad:	00 00                	add    %al,(%rax)
  4083af:	00 0d 03 00 00 00    	add    %cl,0x3(%rip)        # 4083b8 <__intel_mic_avx512f_memset+0x1378>
  4083b5:	00 00                	add    %al,(%rax)
  4083b7:	00 0d 03 00 00 00    	add    %cl,0x3(%rip)        # 4083c0 <__intel_mic_avx512f_memset+0x1380>
  4083bd:	00 00                	add    %al,(%rax)
  4083bf:	00 0d 03 00 00 00    	add    %cl,0x3(%rip)        # 4083c8 <__intel_mic_avx512f_memset+0x1388>
  4083c5:	00 00                	add    %al,(%rax)
  4083c7:	00 0d 03 00 00 00    	add    %cl,0x3(%rip)        # 4083d0 <__intel_mic_avx512f_memset+0x1390>
  4083cd:	00 00                	add    %al,(%rax)
  4083cf:	00 0d 03 00 00 00    	add    %cl,0x3(%rip)        # 4083d8 <__intel_mic_avx512f_memset+0x1398>
  4083d5:	00 00                	add    %al,(%rax)
  4083d7:	00 0d 03 00 00 00    	add    %cl,0x3(%rip)        # 4083e0 <__intel_mic_avx512f_memset+0x13a0>
  4083dd:	00 00                	add    %al,(%rax)
  4083df:	00 0d 03 00 00 00    	add    %cl,0x3(%rip)        # 4083e8 <__intel_mic_avx512f_memset+0x13a8>
  4083e5:	00 00                	add    %al,(%rax)
  4083e7:	00 0d 03 00 00 00    	add    %cl,0x3(%rip)        # 4083f0 <__intel_mic_avx512f_memset+0x13b0>
  4083ed:	00 00                	add    %al,(%rax)
  4083ef:	00 0d 03 00 00 00    	add    %cl,0x3(%rip)        # 4083f8 <__intel_mic_avx512f_memset+0x13b8>
  4083f5:	00 00                	add    %al,(%rax)
  4083f7:	00 0d 03 00 00 00    	add    %cl,0x3(%rip)        # 408400 <__intel_mic_avx512f_memset+0x13c0>
  4083fd:	00 00                	add    %al,(%rax)
  4083ff:	00 0d 03 00 00 00    	add    %cl,0x3(%rip)        # 408408 <__intel_mic_avx512f_memset+0x13c8>
  408405:	00 00                	add    %al,(%rax)
  408407:	00 0d 03 00 00 00    	add    %cl,0x3(%rip)        # 408410 <__intel_mic_avx512f_memset+0x13d0>
  40840d:	00 00                	add    %al,(%rax)
  40840f:	00 0d 03 00 00 00    	add    %cl,0x3(%rip)        # 408418 <__intel_mic_avx512f_memset+0x13d8>
  408415:	00 00                	add    %al,(%rax)
  408417:	00 0d 03 00 00 00    	add    %cl,0x3(%rip)        # 408420 <__intel_mic_avx512f_memset+0x13e0>
  40841d:	00 00                	add    %al,(%rax)
  40841f:	00 0d 03 00 00 00    	add    %cl,0x3(%rip)        # 408428 <__intel_mic_avx512f_memset+0x13e8>
  408425:	00 00                	add    %al,(%rax)
  408427:	00 0d 03 00 00 00    	add    %cl,0x3(%rip)        # 408430 <__intel_mic_avx512f_memset+0x13f0>
  40842d:	00 00                	add    %al,(%rax)
  40842f:	00 0d 03 00 00 00    	add    %cl,0x3(%rip)        # 408438 <__intel_mic_avx512f_memset+0x13f8>
  408435:	00 00                	add    %al,(%rax)
  408437:	00 0d 03 00 00 00    	add    %cl,0x3(%rip)        # 408440 <__intel_mic_avx512f_memset+0x1400>
  40843d:	00 00                	add    %al,(%rax)
  40843f:	00 0d 03 00 00 00    	add    %cl,0x3(%rip)        # 408448 <__intel_mic_avx512f_memset+0x1408>
  408445:	00 00                	add    %al,(%rax)
  408447:	00 0d 03 00 00 00    	add    %cl,0x3(%rip)        # 408450 <__intel_mic_avx512f_memset+0x1410>
  40844d:	00 00                	add    %al,(%rax)
  40844f:	00 0d 03 00 00 00    	add    %cl,0x3(%rip)        # 408458 <__intel_mic_avx512f_memset+0x1418>
  408455:	00 00                	add    %al,(%rax)
  408457:	00 0d 03 00 00 00    	add    %cl,0x3(%rip)        # 408460 <__intel_mic_avx512f_memset+0x1420>
  40845d:	00 00                	add    %al,(%rax)
  40845f:	00 0d 03 00 00 00    	add    %cl,0x3(%rip)        # 408468 <__intel_mic_avx512f_memset+0x1428>
  408465:	00 00                	add    %al,(%rax)
  408467:	00 0d 03 00 00 00    	add    %cl,0x3(%rip)        # 408470 <__intel_mic_avx512f_memset+0x1430>
  40846d:	00 00                	add    %al,(%rax)
  40846f:	00 0d 03 00 00 00    	add    %cl,0x3(%rip)        # 408478 <__intel_mic_avx512f_memset+0x1438>
  408475:	00 00                	add    %al,(%rax)
  408477:	00 0d 03 00 00 00    	add    %cl,0x3(%rip)        # 408480 <__intel_mic_avx512f_memset+0x1440>
  40847d:	00 00                	add    %al,(%rax)
  40847f:	00 0d 03 00 00 00    	add    %cl,0x3(%rip)        # 408488 <__intel_mic_avx512f_memset+0x1448>
  408485:	00 00                	add    %al,(%rax)
  408487:	00 0d 03 00 00 00    	add    %cl,0x3(%rip)        # 408490 <__intel_mic_avx512f_memset+0x1450>
  40848d:	00 00                	add    %al,(%rax)
  40848f:	00 0d 03 00 00 00    	add    %cl,0x3(%rip)        # 408498 <__intel_mic_avx512f_memset+0x1458>
  408495:	00 00                	add    %al,(%rax)
  408497:	00 0d 03 00 00 00    	add    %cl,0x3(%rip)        # 4084a0 <__intel_mic_avx512f_memset+0x1460>
  40849d:	00 00                	add    %al,(%rax)
  40849f:	00 0d 03 00 00 00    	add    %cl,0x3(%rip)        # 4084a8 <__intel_mic_avx512f_memset+0x1468>
  4084a5:	00 00                	add    %al,(%rax)
  4084a7:	00 0d 03 00 00 00    	add    %cl,0x3(%rip)        # 4084b0 <__intel_mic_avx512f_memset+0x1470>
  4084ad:	00 00                	add    %al,(%rax)
  4084af:	00 0d 03 00 00 00    	add    %cl,0x3(%rip)        # 4084b8 <__intel_mic_avx512f_memset+0x1478>
  4084b5:	00 00                	add    %al,(%rax)
  4084b7:	00 0d 03 00 00 00    	add    %cl,0x3(%rip)        # 4084c0 <__intel_mic_avx512f_memset+0x1480>
  4084bd:	00 00                	add    %al,(%rax)
  4084bf:	00 0d 03 00 00 00    	add    %cl,0x3(%rip)        # 4084c8 <__intel_mic_avx512f_memset+0x1488>
  4084c5:	00 00                	add    %al,(%rax)
  4084c7:	00 0d 03 00 00 00    	add    %cl,0x3(%rip)        # 4084d0 <__intel_mic_avx512f_memset+0x1490>
  4084cd:	00 00                	add    %al,(%rax)
  4084cf:	00 0d 03 00 00 00    	add    %cl,0x3(%rip)        # 4084d8 <__intel_mic_avx512f_memset+0x1498>
  4084d5:	00 00                	add    %al,(%rax)
  4084d7:	00 0d 03 00 00 00    	add    %cl,0x3(%rip)        # 4084e0 <__intel_mic_avx512f_memset+0x14a0>
  4084dd:	00 00                	add    %al,(%rax)
  4084df:	00 0d 03 00 00 00    	add    %cl,0x3(%rip)        # 4084e8 <__intel_mic_avx512f_memset+0x14a8>
  4084e5:	00 00                	add    %al,(%rax)
  4084e7:	00 0d 03 00 00 00    	add    %cl,0x3(%rip)        # 4084f0 <__intel_mic_avx512f_memset+0x14b0>
  4084ed:	00 00                	add    %al,(%rax)
  4084ef:	00 0d 03 00 00 00    	add    %cl,0x3(%rip)        # 4084f8 <__intel_mic_avx512f_memset+0x14b8>
  4084f5:	00 00                	add    %al,(%rax)
  4084f7:	00 0d 03 00 00 00    	add    %cl,0x3(%rip)        # 408500 <__intel_mic_avx512f_memset+0x14c0>
  4084fd:	00 00                	add    %al,(%rax)
  4084ff:	00 c0                	add    %al,%al
  408501:	12 00                	adc    (%rax),%al
  408503:	00 00                	add    %al,(%rax)
  408505:	00 00                	add    %al,(%rax)
  408507:	00 c8                	add    %cl,%al
  408509:	12 00                	adc    (%rax),%al
  40850b:	00 00                	add    %al,(%rax)
  40850d:	00 00                	add    %al,(%rax)
  40850f:	00 bb 12 00 00 00    	add    %bh,0x12(%rbx)
  408515:	00 00                	add    %al,(%rax)
  408517:	00 b2 12 00 00 00    	add    %dh,0x12(%rdx)
  40851d:	00 00                	add    %al,(%rax)
  40851f:	00 a5 12 00 00 00    	add    %ah,0x12(%rbp)
  408525:	00 00                	add    %al,(%rax)
  408527:	00 9d 12 00 00 00    	add    %bl,0x12(%rbp)
  40852d:	00 00                	add    %al,(%rax)
  40852f:	00 9d 12 00 00 00    	add    %bl,0x12(%rbp)
  408535:	00 00                	add    %al,(%rax)
  408537:	00 9d 12 00 00 00    	add    %bl,0x12(%rbp)
  40853d:	00 00                	add    %al,(%rax)
  40853f:	00 91 12 00 00 00    	add    %dl,0x12(%rcx)
  408545:	00 00                	add    %al,(%rax)
  408547:	00 89 12 00 00 00    	add    %cl,0x12(%rcx)
  40854d:	00 00                	add    %al,(%rax)
  40854f:	00 89 12 00 00 00    	add    %cl,0x12(%rcx)
  408555:	00 00                	add    %al,(%rax)
  408557:	00 89 12 00 00 00    	add    %cl,0x12(%rcx)
  40855d:	00 00                	add    %al,(%rax)
  40855f:	00 89 12 00 00 00    	add    %cl,0x12(%rcx)
  408565:	00 00                	add    %al,(%rax)
  408567:	00 89 12 00 00 00    	add    %cl,0x12(%rcx)
  40856d:	00 00                	add    %al,(%rax)
  40856f:	00 89 12 00 00 00    	add    %cl,0x12(%rcx)
  408575:	00 00                	add    %al,(%rax)
  408577:	00 89 12 00 00 00    	add    %cl,0x12(%rcx)
  40857d:	00 00                	add    %al,(%rax)
  40857f:	00 7d 12             	add    %bh,0x12(%rbp)
  408582:	00 00                	add    %al,(%rax)
  408584:	00 00                	add    %al,(%rax)
  408586:	00 00                	add    %al,(%rax)
  408588:	74 12                	je     40859c <__intel_mic_avx512f_memset+0x155c>
  40858a:	00 00                	add    %al,(%rax)
  40858c:	00 00                	add    %al,(%rax)
  40858e:	00 00                	add    %al,(%rax)
  408590:	74 12                	je     4085a4 <__intel_mic_avx512f_memset+0x1564>
  408592:	00 00                	add    %al,(%rax)
  408594:	00 00                	add    %al,(%rax)
  408596:	00 00                	add    %al,(%rax)
  408598:	74 12                	je     4085ac <__intel_mic_avx512f_memset+0x156c>
  40859a:	00 00                	add    %al,(%rax)
  40859c:	00 00                	add    %al,(%rax)
  40859e:	00 00                	add    %al,(%rax)
  4085a0:	74 12                	je     4085b4 <__intel_mic_avx512f_memset+0x1574>
  4085a2:	00 00                	add    %al,(%rax)
  4085a4:	00 00                	add    %al,(%rax)
  4085a6:	00 00                	add    %al,(%rax)
  4085a8:	74 12                	je     4085bc <__intel_mic_avx512f_memset+0x157c>
  4085aa:	00 00                	add    %al,(%rax)
  4085ac:	00 00                	add    %al,(%rax)
  4085ae:	00 00                	add    %al,(%rax)
  4085b0:	74 12                	je     4085c4 <__intel_mic_avx512f_memset+0x1584>
  4085b2:	00 00                	add    %al,(%rax)
  4085b4:	00 00                	add    %al,(%rax)
  4085b6:	00 00                	add    %al,(%rax)
  4085b8:	74 12                	je     4085cc <__intel_mic_avx512f_memset+0x158c>
  4085ba:	00 00                	add    %al,(%rax)
  4085bc:	00 00                	add    %al,(%rax)
  4085be:	00 00                	add    %al,(%rax)
  4085c0:	74 12                	je     4085d4 <__intel_mic_avx512f_memset+0x1594>
  4085c2:	00 00                	add    %al,(%rax)
  4085c4:	00 00                	add    %al,(%rax)
  4085c6:	00 00                	add    %al,(%rax)
  4085c8:	74 12                	je     4085dc <__intel_mic_avx512f_memset+0x159c>
  4085ca:	00 00                	add    %al,(%rax)
  4085cc:	00 00                	add    %al,(%rax)
  4085ce:	00 00                	add    %al,(%rax)
  4085d0:	74 12                	je     4085e4 <__intel_mic_avx512f_memset+0x15a4>
  4085d2:	00 00                	add    %al,(%rax)
  4085d4:	00 00                	add    %al,(%rax)
  4085d6:	00 00                	add    %al,(%rax)
  4085d8:	74 12                	je     4085ec <__intel_mic_avx512f_memset+0x15ac>
  4085da:	00 00                	add    %al,(%rax)
  4085dc:	00 00                	add    %al,(%rax)
  4085de:	00 00                	add    %al,(%rax)
  4085e0:	74 12                	je     4085f4 <__intel_mic_avx512f_memset+0x15b4>
  4085e2:	00 00                	add    %al,(%rax)
  4085e4:	00 00                	add    %al,(%rax)
  4085e6:	00 00                	add    %al,(%rax)
  4085e8:	74 12                	je     4085fc <__intel_mic_avx512f_memset+0x15bc>
  4085ea:	00 00                	add    %al,(%rax)
  4085ec:	00 00                	add    %al,(%rax)
  4085ee:	00 00                	add    %al,(%rax)
  4085f0:	74 12                	je     408604 <__intel_mic_avx512f_memset+0x15c4>
  4085f2:	00 00                	add    %al,(%rax)
  4085f4:	00 00                	add    %al,(%rax)
  4085f6:	00 00                	add    %al,(%rax)
  4085f8:	74 12                	je     40860c <__intel_mic_avx512f_memset+0x15cc>
  4085fa:	00 00                	add    %al,(%rax)
  4085fc:	00 00                	add    %al,(%rax)
  4085fe:	00 00                	add    %al,(%rax)
  408600:	65 12 00             	adc    %gs:(%rax),%al
  408603:	00 00                	add    %al,(%rax)
  408605:	00 00                	add    %al,(%rax)
  408607:	00 5c 12 00          	add    %bl,0x0(%rdx,%rdx,1)
  40860b:	00 00                	add    %al,(%rax)
  40860d:	00 00                	add    %al,(%rax)
  40860f:	00 5c 12 00          	add    %bl,0x0(%rdx,%rdx,1)
  408613:	00 00                	add    %al,(%rax)
  408615:	00 00                	add    %al,(%rax)
  408617:	00 5c 12 00          	add    %bl,0x0(%rdx,%rdx,1)
  40861b:	00 00                	add    %al,(%rax)
  40861d:	00 00                	add    %al,(%rax)
  40861f:	00 5c 12 00          	add    %bl,0x0(%rdx,%rdx,1)
  408623:	00 00                	add    %al,(%rax)
  408625:	00 00                	add    %al,(%rax)
  408627:	00 5c 12 00          	add    %bl,0x0(%rdx,%rdx,1)
  40862b:	00 00                	add    %al,(%rax)
  40862d:	00 00                	add    %al,(%rax)
  40862f:	00 5c 12 00          	add    %bl,0x0(%rdx,%rdx,1)
  408633:	00 00                	add    %al,(%rax)
  408635:	00 00                	add    %al,(%rax)
  408637:	00 5c 12 00          	add    %bl,0x0(%rdx,%rdx,1)
  40863b:	00 00                	add    %al,(%rax)
  40863d:	00 00                	add    %al,(%rax)
  40863f:	00 5c 12 00          	add    %bl,0x0(%rdx,%rdx,1)
  408643:	00 00                	add    %al,(%rax)
  408645:	00 00                	add    %al,(%rax)
  408647:	00 5c 12 00          	add    %bl,0x0(%rdx,%rdx,1)
  40864b:	00 00                	add    %al,(%rax)
  40864d:	00 00                	add    %al,(%rax)
  40864f:	00 5c 12 00          	add    %bl,0x0(%rdx,%rdx,1)
  408653:	00 00                	add    %al,(%rax)
  408655:	00 00                	add    %al,(%rax)
  408657:	00 5c 12 00          	add    %bl,0x0(%rdx,%rdx,1)
  40865b:	00 00                	add    %al,(%rax)
  40865d:	00 00                	add    %al,(%rax)
  40865f:	00 5c 12 00          	add    %bl,0x0(%rdx,%rdx,1)
  408663:	00 00                	add    %al,(%rax)
  408665:	00 00                	add    %al,(%rax)
  408667:	00 5c 12 00          	add    %bl,0x0(%rdx,%rdx,1)
  40866b:	00 00                	add    %al,(%rax)
  40866d:	00 00                	add    %al,(%rax)
  40866f:	00 5c 12 00          	add    %bl,0x0(%rdx,%rdx,1)
  408673:	00 00                	add    %al,(%rax)
  408675:	00 00                	add    %al,(%rax)
  408677:	00 5c 12 00          	add    %bl,0x0(%rdx,%rdx,1)
  40867b:	00 00                	add    %al,(%rax)
  40867d:	00 00                	add    %al,(%rax)
  40867f:	00 5c 12 00          	add    %bl,0x0(%rdx,%rdx,1)
  408683:	00 00                	add    %al,(%rax)
  408685:	00 00                	add    %al,(%rax)
  408687:	00 5c 12 00          	add    %bl,0x0(%rdx,%rdx,1)
  40868b:	00 00                	add    %al,(%rax)
  40868d:	00 00                	add    %al,(%rax)
  40868f:	00 5c 12 00          	add    %bl,0x0(%rdx,%rdx,1)
  408693:	00 00                	add    %al,(%rax)
  408695:	00 00                	add    %al,(%rax)
  408697:	00 5c 12 00          	add    %bl,0x0(%rdx,%rdx,1)
  40869b:	00 00                	add    %al,(%rax)
  40869d:	00 00                	add    %al,(%rax)
  40869f:	00 5c 12 00          	add    %bl,0x0(%rdx,%rdx,1)
  4086a3:	00 00                	add    %al,(%rax)
  4086a5:	00 00                	add    %al,(%rax)
  4086a7:	00 5c 12 00          	add    %bl,0x0(%rdx,%rdx,1)
  4086ab:	00 00                	add    %al,(%rax)
  4086ad:	00 00                	add    %al,(%rax)
  4086af:	00 5c 12 00          	add    %bl,0x0(%rdx,%rdx,1)
  4086b3:	00 00                	add    %al,(%rax)
  4086b5:	00 00                	add    %al,(%rax)
  4086b7:	00 5c 12 00          	add    %bl,0x0(%rdx,%rdx,1)
  4086bb:	00 00                	add    %al,(%rax)
  4086bd:	00 00                	add    %al,(%rax)
  4086bf:	00 5c 12 00          	add    %bl,0x0(%rdx,%rdx,1)
  4086c3:	00 00                	add    %al,(%rax)
  4086c5:	00 00                	add    %al,(%rax)
  4086c7:	00 5c 12 00          	add    %bl,0x0(%rdx,%rdx,1)
  4086cb:	00 00                	add    %al,(%rax)
  4086cd:	00 00                	add    %al,(%rax)
  4086cf:	00 5c 12 00          	add    %bl,0x0(%rdx,%rdx,1)
  4086d3:	00 00                	add    %al,(%rax)
  4086d5:	00 00                	add    %al,(%rax)
  4086d7:	00 5c 12 00          	add    %bl,0x0(%rdx,%rdx,1)
  4086db:	00 00                	add    %al,(%rax)
  4086dd:	00 00                	add    %al,(%rax)
  4086df:	00 5c 12 00          	add    %bl,0x0(%rdx,%rdx,1)
  4086e3:	00 00                	add    %al,(%rax)
  4086e5:	00 00                	add    %al,(%rax)
  4086e7:	00 5c 12 00          	add    %bl,0x0(%rdx,%rdx,1)
  4086eb:	00 00                	add    %al,(%rax)
  4086ed:	00 00                	add    %al,(%rax)
  4086ef:	00 5c 12 00          	add    %bl,0x0(%rdx,%rdx,1)
  4086f3:	00 00                	add    %al,(%rax)
  4086f5:	00 00                	add    %al,(%rax)
  4086f7:	00 5c 12 00          	add    %bl,0x0(%rdx,%rdx,1)
  4086fb:	00 00                	add    %al,(%rax)
  4086fd:	00 00                	add    %al,(%rax)
  4086ff:	00 4d 12             	add    %cl,0x12(%rbp)
  408702:	00 00                	add    %al,(%rax)
  408704:	00 00                	add    %al,(%rax)
  408706:	00 00                	add    %al,(%rax)
  408708:	42 12 00             	rex.X adc (%rax),%al
  40870b:	00 00                	add    %al,(%rax)
  40870d:	00 00                	add    %al,(%rax)
  40870f:	00 42 12             	add    %al,0x12(%rdx)
  408712:	00 00                	add    %al,(%rax)
  408714:	00 00                	add    %al,(%rax)
  408716:	00 00                	add    %al,(%rax)
  408718:	42 12 00             	rex.X adc (%rax),%al
  40871b:	00 00                	add    %al,(%rax)
  40871d:	00 00                	add    %al,(%rax)
  40871f:	00 42 12             	add    %al,0x12(%rdx)
  408722:	00 00                	add    %al,(%rax)
  408724:	00 00                	add    %al,(%rax)
  408726:	00 00                	add    %al,(%rax)
  408728:	42 12 00             	rex.X adc (%rax),%al
  40872b:	00 00                	add    %al,(%rax)
  40872d:	00 00                	add    %al,(%rax)
  40872f:	00 42 12             	add    %al,0x12(%rdx)
  408732:	00 00                	add    %al,(%rax)
  408734:	00 00                	add    %al,(%rax)
  408736:	00 00                	add    %al,(%rax)
  408738:	42 12 00             	rex.X adc (%rax),%al
  40873b:	00 00                	add    %al,(%rax)
  40873d:	00 00                	add    %al,(%rax)
  40873f:	00 42 12             	add    %al,0x12(%rdx)
  408742:	00 00                	add    %al,(%rax)
  408744:	00 00                	add    %al,(%rax)
  408746:	00 00                	add    %al,(%rax)
  408748:	42 12 00             	rex.X adc (%rax),%al
  40874b:	00 00                	add    %al,(%rax)
  40874d:	00 00                	add    %al,(%rax)
  40874f:	00 42 12             	add    %al,0x12(%rdx)
  408752:	00 00                	add    %al,(%rax)
  408754:	00 00                	add    %al,(%rax)
  408756:	00 00                	add    %al,(%rax)
  408758:	42 12 00             	rex.X adc (%rax),%al
  40875b:	00 00                	add    %al,(%rax)
  40875d:	00 00                	add    %al,(%rax)
  40875f:	00 42 12             	add    %al,0x12(%rdx)
  408762:	00 00                	add    %al,(%rax)
  408764:	00 00                	add    %al,(%rax)
  408766:	00 00                	add    %al,(%rax)
  408768:	42 12 00             	rex.X adc (%rax),%al
  40876b:	00 00                	add    %al,(%rax)
  40876d:	00 00                	add    %al,(%rax)
  40876f:	00 42 12             	add    %al,0x12(%rdx)
  408772:	00 00                	add    %al,(%rax)
  408774:	00 00                	add    %al,(%rax)
  408776:	00 00                	add    %al,(%rax)
  408778:	42 12 00             	rex.X adc (%rax),%al
  40877b:	00 00                	add    %al,(%rax)
  40877d:	00 00                	add    %al,(%rax)
  40877f:	00 42 12             	add    %al,0x12(%rdx)
  408782:	00 00                	add    %al,(%rax)
  408784:	00 00                	add    %al,(%rax)
  408786:	00 00                	add    %al,(%rax)
  408788:	42 12 00             	rex.X adc (%rax),%al
  40878b:	00 00                	add    %al,(%rax)
  40878d:	00 00                	add    %al,(%rax)
  40878f:	00 42 12             	add    %al,0x12(%rdx)
  408792:	00 00                	add    %al,(%rax)
  408794:	00 00                	add    %al,(%rax)
  408796:	00 00                	add    %al,(%rax)
  408798:	42 12 00             	rex.X adc (%rax),%al
  40879b:	00 00                	add    %al,(%rax)
  40879d:	00 00                	add    %al,(%rax)
  40879f:	00 42 12             	add    %al,0x12(%rdx)
  4087a2:	00 00                	add    %al,(%rax)
  4087a4:	00 00                	add    %al,(%rax)
  4087a6:	00 00                	add    %al,(%rax)
  4087a8:	42 12 00             	rex.X adc (%rax),%al
  4087ab:	00 00                	add    %al,(%rax)
  4087ad:	00 00                	add    %al,(%rax)
  4087af:	00 42 12             	add    %al,0x12(%rdx)
  4087b2:	00 00                	add    %al,(%rax)
  4087b4:	00 00                	add    %al,(%rax)
  4087b6:	00 00                	add    %al,(%rax)
  4087b8:	42 12 00             	rex.X adc (%rax),%al
  4087bb:	00 00                	add    %al,(%rax)
  4087bd:	00 00                	add    %al,(%rax)
  4087bf:	00 42 12             	add    %al,0x12(%rdx)
  4087c2:	00 00                	add    %al,(%rax)
  4087c4:	00 00                	add    %al,(%rax)
  4087c6:	00 00                	add    %al,(%rax)
  4087c8:	42 12 00             	rex.X adc (%rax),%al
  4087cb:	00 00                	add    %al,(%rax)
  4087cd:	00 00                	add    %al,(%rax)
  4087cf:	00 42 12             	add    %al,0x12(%rdx)
  4087d2:	00 00                	add    %al,(%rax)
  4087d4:	00 00                	add    %al,(%rax)
  4087d6:	00 00                	add    %al,(%rax)
  4087d8:	42 12 00             	rex.X adc (%rax),%al
  4087db:	00 00                	add    %al,(%rax)
  4087dd:	00 00                	add    %al,(%rax)
  4087df:	00 42 12             	add    %al,0x12(%rdx)
  4087e2:	00 00                	add    %al,(%rax)
  4087e4:	00 00                	add    %al,(%rax)
  4087e6:	00 00                	add    %al,(%rax)
  4087e8:	42 12 00             	rex.X adc (%rax),%al
  4087eb:	00 00                	add    %al,(%rax)
  4087ed:	00 00                	add    %al,(%rax)
  4087ef:	00 42 12             	add    %al,0x12(%rdx)
  4087f2:	00 00                	add    %al,(%rax)
  4087f4:	00 00                	add    %al,(%rax)
  4087f6:	00 00                	add    %al,(%rax)
  4087f8:	42 12 00             	rex.X adc (%rax),%al
  4087fb:	00 00                	add    %al,(%rax)
  4087fd:	00 00                	add    %al,(%rax)
  4087ff:	00 42 12             	add    %al,0x12(%rdx)
  408802:	00 00                	add    %al,(%rax)
  408804:	00 00                	add    %al,(%rax)
  408806:	00 00                	add    %al,(%rax)
  408808:	42 12 00             	rex.X adc (%rax),%al
  40880b:	00 00                	add    %al,(%rax)
  40880d:	00 00                	add    %al,(%rax)
  40880f:	00 42 12             	add    %al,0x12(%rdx)
  408812:	00 00                	add    %al,(%rax)
  408814:	00 00                	add    %al,(%rax)
  408816:	00 00                	add    %al,(%rax)
  408818:	42 12 00             	rex.X adc (%rax),%al
  40881b:	00 00                	add    %al,(%rax)
  40881d:	00 00                	add    %al,(%rax)
  40881f:	00 42 12             	add    %al,0x12(%rdx)
  408822:	00 00                	add    %al,(%rax)
  408824:	00 00                	add    %al,(%rax)
  408826:	00 00                	add    %al,(%rax)
  408828:	42 12 00             	rex.X adc (%rax),%al
  40882b:	00 00                	add    %al,(%rax)
  40882d:	00 00                	add    %al,(%rax)
  40882f:	00 42 12             	add    %al,0x12(%rdx)
  408832:	00 00                	add    %al,(%rax)
  408834:	00 00                	add    %al,(%rax)
  408836:	00 00                	add    %al,(%rax)
  408838:	42 12 00             	rex.X adc (%rax),%al
  40883b:	00 00                	add    %al,(%rax)
  40883d:	00 00                	add    %al,(%rax)
  40883f:	00 42 12             	add    %al,0x12(%rdx)
  408842:	00 00                	add    %al,(%rax)
  408844:	00 00                	add    %al,(%rax)
  408846:	00 00                	add    %al,(%rax)
  408848:	42 12 00             	rex.X adc (%rax),%al
  40884b:	00 00                	add    %al,(%rax)
  40884d:	00 00                	add    %al,(%rax)
  40884f:	00 42 12             	add    %al,0x12(%rdx)
  408852:	00 00                	add    %al,(%rax)
  408854:	00 00                	add    %al,(%rax)
  408856:	00 00                	add    %al,(%rax)
  408858:	42 12 00             	rex.X adc (%rax),%al
  40885b:	00 00                	add    %al,(%rax)
  40885d:	00 00                	add    %al,(%rax)
  40885f:	00 42 12             	add    %al,0x12(%rdx)
  408862:	00 00                	add    %al,(%rax)
  408864:	00 00                	add    %al,(%rax)
  408866:	00 00                	add    %al,(%rax)
  408868:	42 12 00             	rex.X adc (%rax),%al
  40886b:	00 00                	add    %al,(%rax)
  40886d:	00 00                	add    %al,(%rax)
  40886f:	00 42 12             	add    %al,0x12(%rdx)
  408872:	00 00                	add    %al,(%rax)
  408874:	00 00                	add    %al,(%rax)
  408876:	00 00                	add    %al,(%rax)
  408878:	42 12 00             	rex.X adc (%rax),%al
  40887b:	00 00                	add    %al,(%rax)
  40887d:	00 00                	add    %al,(%rax)
  40887f:	00 42 12             	add    %al,0x12(%rdx)
  408882:	00 00                	add    %al,(%rax)
  408884:	00 00                	add    %al,(%rax)
  408886:	00 00                	add    %al,(%rax)
  408888:	42 12 00             	rex.X adc (%rax),%al
  40888b:	00 00                	add    %al,(%rax)
  40888d:	00 00                	add    %al,(%rax)
  40888f:	00 42 12             	add    %al,0x12(%rdx)
  408892:	00 00                	add    %al,(%rax)
  408894:	00 00                	add    %al,(%rax)
  408896:	00 00                	add    %al,(%rax)
  408898:	42 12 00             	rex.X adc (%rax),%al
  40889b:	00 00                	add    %al,(%rax)
  40889d:	00 00                	add    %al,(%rax)
  40889f:	00 42 12             	add    %al,0x12(%rdx)
  4088a2:	00 00                	add    %al,(%rax)
  4088a4:	00 00                	add    %al,(%rax)
  4088a6:	00 00                	add    %al,(%rax)
  4088a8:	42 12 00             	rex.X adc (%rax),%al
  4088ab:	00 00                	add    %al,(%rax)
  4088ad:	00 00                	add    %al,(%rax)
  4088af:	00 42 12             	add    %al,0x12(%rdx)
  4088b2:	00 00                	add    %al,(%rax)
  4088b4:	00 00                	add    %al,(%rax)
  4088b6:	00 00                	add    %al,(%rax)
  4088b8:	42 12 00             	rex.X adc (%rax),%al
  4088bb:	00 00                	add    %al,(%rax)
  4088bd:	00 00                	add    %al,(%rax)
  4088bf:	00 42 12             	add    %al,0x12(%rdx)
  4088c2:	00 00                	add    %al,(%rax)
  4088c4:	00 00                	add    %al,(%rax)
  4088c6:	00 00                	add    %al,(%rax)
  4088c8:	42 12 00             	rex.X adc (%rax),%al
  4088cb:	00 00                	add    %al,(%rax)
  4088cd:	00 00                	add    %al,(%rax)
  4088cf:	00 42 12             	add    %al,0x12(%rdx)
  4088d2:	00 00                	add    %al,(%rax)
  4088d4:	00 00                	add    %al,(%rax)
  4088d6:	00 00                	add    %al,(%rax)
  4088d8:	42 12 00             	rex.X adc (%rax),%al
  4088db:	00 00                	add    %al,(%rax)
  4088dd:	00 00                	add    %al,(%rax)
  4088df:	00 42 12             	add    %al,0x12(%rdx)
  4088e2:	00 00                	add    %al,(%rax)
  4088e4:	00 00                	add    %al,(%rax)
  4088e6:	00 00                	add    %al,(%rax)
  4088e8:	42 12 00             	rex.X adc (%rax),%al
  4088eb:	00 00                	add    %al,(%rax)
  4088ed:	00 00                	add    %al,(%rax)
  4088ef:	00 42 12             	add    %al,0x12(%rdx)
  4088f2:	00 00                	add    %al,(%rax)
  4088f4:	00 00                	add    %al,(%rax)
  4088f6:	00 00                	add    %al,(%rax)
  4088f8:	42 12 00             	rex.X adc (%rax),%al
  4088fb:	00 00                	add    %al,(%rax)
  4088fd:	00 00                	add    %al,(%rax)
  4088ff:	00 c3                	add    %al,%bl
  408901:	0f 1f 00             	nopl   (%rax)
  408904:	66 2e 0f 1f 84 00 00 	cs nopw 0x0(%rax,%rax,1)
  40890b:	00 00 00 
  40890e:	66 90                	xchg   %ax,%ax

0000000000408910 <__intel_avx_rep_memset>:
  408910:	f3 0f 1e fa          	endbr64
  408914:	49 89 f8             	mov    %rdi,%r8
  408917:	49 c7 c2 c0 10 41 00 	mov    $0x4110c0,%r10
  40891e:	49 89 fb             	mov    %rdi,%r11
  408921:	48 b8 01 01 01 01 01 	movabs $0x101010101010101,%rax
  408928:	01 01 01 
  40892b:	4c 0f b6 ce          	movzbq %sil,%r9
  40892f:	4c 0f af c8          	imul   %rax,%r9
  408933:	48 8d 35 86 0c 00 00 	lea    0xc86(%rip),%rsi        # 4095c0 <__intel_avx_rep_memset+0xcb0>
  40893a:	c4 c1 f9 6e c1       	vmovq  %r9,%xmm0
  40893f:	48 81 fa 80 00 00 00 	cmp    $0x80,%rdx
  408946:	77 18                	ja     408960 <__intel_avx_rep_memset+0x50>
  408948:	4c 89 df             	mov    %r11,%rdi
  40894b:	48 01 d7             	add    %rdx,%rdi
  40894e:	48 2b 34 d6          	sub    (%rsi,%rdx,8),%rsi
  408952:	3e ff e6             	notrack jmp *%rsi
  408955:	66 66 2e 0f 1f 84 00 	data16 cs nopw 0x0(%rax,%rax,1)
  40895c:	00 00 00 00 
  408960:	48 8d 35 59 03 00 00 	lea    0x359(%rip),%rsi        # 408cc0 <__intel_avx_rep_memset+0x3b0>
  408967:	4c 89 d9             	mov    %r11,%rcx
  40896a:	48 83 e1 1f          	and    $0x1f,%rcx
  40896e:	74 23                	je     408993 <__intel_avx_rep_memset+0x83>
  408970:	48 f7 d9             	neg    %rcx
  408973:	48 83 c1 20          	add    $0x20,%rcx
  408977:	48 29 ca             	sub    %rcx,%rdx
  40897a:	4c 89 df             	mov    %r11,%rdi
  40897d:	48 01 cf             	add    %rcx,%rdi
  408980:	48 2b 34 ce          	sub    (%rsi,%rcx,8),%rsi
  408984:	3e ff e6             	notrack jmp *%rsi
  408987:	66 0f 1f 84 00 00 00 	nopw   0x0(%rax,%rax,1)
  40898e:	00 00 
  408990:	49 01 cb             	add    %rcx,%r11
  408993:	48 81 fa 00 01 00 00 	cmp    $0x100,%rdx
  40899a:	0f 8c 30 01 00 00    	jl     408ad0 <__intel_avx_rep_memset+0x1c0>
  4089a0:	49 8b 0a             	mov    (%r10),%rcx
  4089a3:	48 89 cf             	mov    %rcx,%rdi
  4089a6:	48 c1 e9 04          	shr    $0x4,%rcx
  4089aa:	48 29 cf             	sub    %rcx,%rdi
  4089ad:	48 39 fa             	cmp    %rdi,%rdx
  4089b0:	73 5e                	jae    408a10 <__intel_avx_rep_memset+0x100>
  4089b2:	c4 e2 7d 58 c0       	vpbroadcastd %xmm0,%ymm0
  4089b7:	c4 c1 7d 7f 03       	vmovdqa %ymm0,(%r11)
  4089bc:	c4 c1 7d 7f 43 20    	vmovdqa %ymm0,0x20(%r11)
  4089c2:	c4 c1 7d 7f 43 40    	vmovdqa %ymm0,0x40(%r11)
  4089c8:	c4 c1 7d 7f 43 60    	vmovdqa %ymm0,0x60(%r11)
  4089ce:	49 81 c3 00 01 00 00 	add    $0x100,%r11
  4089d5:	48 81 ea 00 01 00 00 	sub    $0x100,%rdx
  4089dc:	c4 c1 7d 7f 43 80    	vmovdqa %ymm0,-0x80(%r11)
  4089e2:	c4 c1 7d 7f 43 a0    	vmovdqa %ymm0,-0x60(%r11)
  4089e8:	c4 c1 7d 7f 43 c0    	vmovdqa %ymm0,-0x40(%r11)
  4089ee:	c4 c1 7d 7f 43 e0    	vmovdqa %ymm0,-0x20(%r11)
  4089f4:	48 81 fa 00 01 00 00 	cmp    $0x100,%rdx
  4089fb:	7d ba                	jge    4089b7 <__intel_avx_rep_memset+0xa7>
  4089fd:	e9 de 00 00 00       	jmp    408ae0 <__intel_avx_rep_memset+0x1d0>
  408a02:	66 66 66 66 66 2e 0f 	data16 data16 data16 data16 cs nopw 0x0(%rax,%rax,1)
  408a09:	1f 84 00 00 00 00 00 
  408a10:	4c 89 df             	mov    %r11,%rdi
  408a13:	4c 89 c8             	mov    %r9,%rax
  408a16:	48 89 d1             	mov    %rdx,%rcx
  408a19:	fc                   	cld
  408a1a:	f3 aa                	rep stos %al,%es:(%rdi)
  408a1c:	e9 af 0f 00 00       	jmp    4099d0 <__intel_avx_rep_memset+0x10c0>
  408a21:	66 66 66 66 66 66 2e 	data16 data16 data16 data16 data16 cs nopw 0x0(%rax,%rax,1)
  408a28:	0f 1f 84 00 00 00 00 
  408a2f:	00 
  408a30:	45 88 0b             	mov    %r9b,(%r11)
  408a33:	e9 58 ff ff ff       	jmp    408990 <__intel_avx_rep_memset+0x80>
  408a38:	0f 1f 84 00 00 00 00 	nopl   0x0(%rax,%rax,1)
  408a3f:	00 
  408a40:	66 45 89 0b          	mov    %r9w,(%r11)
  408a44:	e9 47 ff ff ff       	jmp    408990 <__intel_avx_rep_memset+0x80>
  408a49:	0f 1f 80 00 00 00 00 	nopl   0x0(%rax)
  408a50:	66 45 89 0b          	mov    %r9w,(%r11)
  408a54:	45 88 4b 02          	mov    %r9b,0x2(%r11)
  408a58:	e9 33 ff ff ff       	jmp    408990 <__intel_avx_rep_memset+0x80>
  408a5d:	0f 1f 00             	nopl   (%rax)
  408a60:	45 89 0b             	mov    %r9d,(%r11)
  408a63:	e9 28 ff ff ff       	jmp    408990 <__intel_avx_rep_memset+0x80>
  408a68:	0f 1f 84 00 00 00 00 	nopl   0x0(%rax,%rax,1)
  408a6f:	00 
  408a70:	45 89 0b             	mov    %r9d,(%r11)
  408a73:	44 89 4f fc          	mov    %r9d,-0x4(%rdi)
  408a77:	e9 14 ff ff ff       	jmp    408990 <__intel_avx_rep_memset+0x80>
  408a7c:	0f 1f 40 00          	nopl   0x0(%rax)
  408a80:	4d 89 0b             	mov    %r9,(%r11)
  408a83:	e9 08 ff ff ff       	jmp    408990 <__intel_avx_rep_memset+0x80>
  408a88:	0f 1f 84 00 00 00 00 	nopl   0x0(%rax,%rax,1)
  408a8f:	00 
  408a90:	4d 89 0b             	mov    %r9,(%r11)
  408a93:	4c 89 4f f8          	mov    %r9,-0x8(%rdi)
  408a97:	e9 f4 fe ff ff       	jmp    408990 <__intel_avx_rep_memset+0x80>
  408a9c:	0f 1f 40 00          	nopl   0x0(%rax)
  408aa0:	4d 89 0b             	mov    %r9,(%r11)
  408aa3:	4d 89 4b 08          	mov    %r9,0x8(%r11)
  408aa7:	e9 e4 fe ff ff       	jmp    408990 <__intel_avx_rep_memset+0x80>
  408aac:	0f 1f 40 00          	nopl   0x0(%rax)
  408ab0:	4d 89 0b             	mov    %r9,(%r11)
  408ab3:	4d 89 4b 08          	mov    %r9,0x8(%r11)
  408ab7:	4c 89 4f f0          	mov    %r9,-0x10(%rdi)
  408abb:	4c 89 4f f8          	mov    %r9,-0x8(%rdi)
  408abf:	e9 cc fe ff ff       	jmp    408990 <__intel_avx_rep_memset+0x80>
  408ac4:	66 66 66 2e 0f 1f 84 	data16 data16 cs nopw 0x0(%rax,%rax,1)
  408acb:	00 00 00 00 00 
  408ad0:	c4 e2 7d 58 c0       	vpbroadcastd %xmm0,%ymm0
  408ad5:	66 66 2e 0f 1f 84 00 	data16 cs nopw 0x0(%rax,%rax,1)
  408adc:	00 00 00 00 
  408ae0:	49 01 d3             	add    %rdx,%r11
  408ae3:	4c 89 df             	mov    %r11,%rdi
  408ae6:	49 83 e3 e0          	and    $0xffffffffffffffe0,%r11
  408aea:	48 8d 35 cf 02 00 00 	lea    0x2cf(%rip),%rsi        # 408dc0 <__intel_avx_rep_memset+0x4b0>
  408af1:	48 2b 34 d6          	sub    (%rsi,%rdx,8),%rsi
  408af5:	3e ff e6             	notrack jmp *%rsi
  408af8:	0f 1f 84 00 00 00 00 	nopl   0x0(%rax,%rax,1)
  408aff:	00 
  408b00:	c4 c1 7c 29 83 20 ff 	vmovaps %ymm0,-0xe0(%r11)
  408b07:	ff ff 
  408b09:	c4 c1 7c 29 83 40 ff 	vmovaps %ymm0,-0xc0(%r11)
  408b10:	ff ff 
  408b12:	c4 c1 7c 29 83 60 ff 	vmovaps %ymm0,-0xa0(%r11)
  408b19:	ff ff 
  408b1b:	0f 1f 44 00 00       	nopl   0x0(%rax,%rax,1)
  408b20:	c4 c1 7c 29 43 80    	vmovaps %ymm0,-0x80(%r11)
  408b26:	c4 c1 7c 29 43 a0    	vmovaps %ymm0,-0x60(%r11)
  408b2c:	c4 c1 7c 29 43 c0    	vmovaps %ymm0,-0x40(%r11)
  408b32:	c4 c1 7c 29 43 e0    	vmovaps %ymm0,-0x20(%r11)
  408b38:	48 89 fa             	mov    %rdi,%rdx
  408b3b:	48 83 e2 1f          	and    $0x1f,%rdx
  408b3f:	48 8d 35 7a 02 00 00 	lea    0x27a(%rip),%rsi        # 408dc0 <__intel_avx_rep_memset+0x4b0>
  408b46:	48 2b 34 d6          	sub    (%rsi,%rdx,8),%rsi
  408b4a:	3e ff e6             	notrack jmp *%rsi
  408b4d:	0f 1f 00             	nopl   (%rax)
  408b50:	45 88 0b             	mov    %r9b,(%r11)
  408b53:	e9 78 0e 00 00       	jmp    4099d0 <__intel_avx_rep_memset+0x10c0>
  408b58:	0f 1f 84 00 00 00 00 	nopl   0x0(%rax,%rax,1)
  408b5f:	00 
  408b60:	e9 6b 0e 00 00       	jmp    4099d0 <__intel_avx_rep_memset+0x10c0>
  408b65:	66 66 2e 0f 1f 84 00 	data16 cs nopw 0x0(%rax,%rax,1)
  408b6c:	00 00 00 00 
  408b70:	66 45 89 0b          	mov    %r9w,(%r11)
  408b74:	e9 57 0e 00 00       	jmp    4099d0 <__intel_avx_rep_memset+0x10c0>
  408b79:	0f 1f 80 00 00 00 00 	nopl   0x0(%rax)
  408b80:	66 45 89 0b          	mov    %r9w,(%r11)
  408b84:	45 88 4b 02          	mov    %r9b,0x2(%r11)
  408b88:	e9 43 0e 00 00       	jmp    4099d0 <__intel_avx_rep_memset+0x10c0>
  408b8d:	0f 1f 00             	nopl   (%rax)
  408b90:	45 89 0b             	mov    %r9d,(%r11)
  408b93:	e9 38 0e 00 00       	jmp    4099d0 <__intel_avx_rep_memset+0x10c0>
  408b98:	0f 1f 84 00 00 00 00 	nopl   0x0(%rax,%rax,1)
  408b9f:	00 
  408ba0:	45 89 0b             	mov    %r9d,(%r11)
  408ba3:	44 89 4f fc          	mov    %r9d,-0x4(%rdi)
  408ba7:	e9 24 0e 00 00       	jmp    4099d0 <__intel_avx_rep_memset+0x10c0>
  408bac:	0f 1f 40 00          	nopl   0x0(%rax)
  408bb0:	4d 89 0b             	mov    %r9,(%r11)
  408bb3:	e9 18 0e 00 00       	jmp    4099d0 <__intel_avx_rep_memset+0x10c0>
  408bb8:	0f 1f 84 00 00 00 00 	nopl   0x0(%rax,%rax,1)
  408bbf:	00 
  408bc0:	4d 89 0b             	mov    %r9,(%r11)
  408bc3:	4c 89 4f f8          	mov    %r9,-0x8(%rdi)
  408bc7:	e9 04 0e 00 00       	jmp    4099d0 <__intel_avx_rep_memset+0x10c0>
  408bcc:	0f 1f 40 00          	nopl   0x0(%rax)
  408bd0:	c4 c1 78 11 03       	vmovups %xmm0,(%r11)
  408bd5:	e9 f6 0d 00 00       	jmp    4099d0 <__intel_avx_rep_memset+0x10c0>
  408bda:	66 0f 1f 44 00 00    	nopw   0x0(%rax,%rax,1)
  408be0:	c4 c1 78 11 03       	vmovups %xmm0,(%r11)
  408be5:	c5 f8 11 47 f0       	vmovups %xmm0,-0x10(%rdi)
  408bea:	e9 e1 0d 00 00       	jmp    4099d0 <__intel_avx_rep_memset+0x10c0>
  408bef:	90                   	nop
  408bf0:	c4 e2 7d 58 c0       	vpbroadcastd %xmm0,%ymm0
  408bf5:	c4 c1 7c 11 03       	vmovups %ymm0,(%r11)
  408bfa:	e9 d1 0d 00 00       	jmp    4099d0 <__intel_avx_rep_memset+0x10c0>
  408bff:	90                   	nop
  408c00:	c4 e2 7d 58 c0       	vpbroadcastd %xmm0,%ymm0
  408c05:	c4 c1 7c 11 03       	vmovups %ymm0,(%r11)
  408c0a:	c5 fc 11 47 e0       	vmovups %ymm0,-0x20(%rdi)
  408c0f:	e9 bc 0d 00 00       	jmp    4099d0 <__intel_avx_rep_memset+0x10c0>
  408c14:	66 66 66 2e 0f 1f 84 	data16 data16 cs nopw 0x0(%rax,%rax,1)
  408c1b:	00 00 00 00 00 
  408c20:	c4 e2 7d 58 c0       	vpbroadcastd %xmm0,%ymm0
  408c25:	c4 c1 7c 11 03       	vmovups %ymm0,(%r11)
  408c2a:	c4 c1 7c 11 43 20    	vmovups %ymm0,0x20(%r11)
  408c30:	e9 9b 0d 00 00       	jmp    4099d0 <__intel_avx_rep_memset+0x10c0>
  408c35:	66 66 2e 0f 1f 84 00 	data16 cs nopw 0x0(%rax,%rax,1)
  408c3c:	00 00 00 00 
  408c40:	c4 e2 7d 58 c0       	vpbroadcastd %xmm0,%ymm0
  408c45:	c4 c1 7c 11 03       	vmovups %ymm0,(%r11)
  408c4a:	c4 c1 7c 11 43 20    	vmovups %ymm0,0x20(%r11)
  408c50:	c5 fc 11 47 e0       	vmovups %ymm0,-0x20(%rdi)
  408c55:	c5 fc 11 47 c0       	vmovups %ymm0,-0x40(%rdi)
  408c5a:	e9 71 0d 00 00       	jmp    4099d0 <__intel_avx_rep_memset+0x10c0>
  408c5f:	90                   	nop
  408c60:	c4 e2 7d 58 c0       	vpbroadcastd %xmm0,%ymm0
  408c65:	c4 c1 7c 11 03       	vmovups %ymm0,(%r11)
  408c6a:	c4 c1 7c 11 43 20    	vmovups %ymm0,0x20(%r11)
  408c70:	c4 c1 7c 11 43 40    	vmovups %ymm0,0x40(%r11)
  408c76:	c4 c1 7c 11 43 60    	vmovups %ymm0,0x60(%r11)
  408c7c:	e9 4f 0d 00 00       	jmp    4099d0 <__intel_avx_rep_memset+0x10c0>
  408c81:	66 66 66 66 66 66 2e 	data16 data16 data16 data16 data16 cs nopw 0x0(%rax,%rax,1)
  408c88:	0f 1f 84 00 00 00 00 
  408c8f:	00 
  408c90:	66 0f 6c c0          	punpcklqdq %xmm0,%xmm0
  408c94:	c4 c1 78 11 03       	vmovups %xmm0,(%r11)
  408c99:	e9 32 0d 00 00       	jmp    4099d0 <__intel_avx_rep_memset+0x10c0>
  408c9e:	66 90                	xchg   %ax,%ax
  408ca0:	66 0f 6c c0          	punpcklqdq %xmm0,%xmm0
  408ca4:	c4 c1 78 11 03       	vmovups %xmm0,(%r11)
  408ca9:	c5 f8 11 47 f0       	vmovups %xmm0,-0x10(%rdi)
  408cae:	e9 1d 0d 00 00       	jmp    4099d0 <__intel_avx_rep_memset+0x10c0>
  408cb3:	66 66 66 66 2e 0f 1f 	data16 data16 data16 cs nopw 0x0(%rax,%rax,1)
  408cba:	84 00 00 00 00 00 
  408cc0:	8d 02                	lea    (%rdx),%eax
  408cc2:	00 00                	add    %al,(%rax)
  408cc4:	00 00                	add    %al,(%rax)
  408cc6:	00 00                	add    %al,(%rax)
  408cc8:	90                   	nop
  408cc9:	02 00                	add    (%rax),%al
  408ccb:	00 00                	add    %al,(%rax)
  408ccd:	00 00                	add    %al,(%rax)
  408ccf:	00 80 02 00 00 00    	add    %al,0x2(%rax)
  408cd5:	00 00                	add    %al,(%rax)
  408cd7:	00 70 02             	add    %dh,0x2(%rax)
  408cda:	00 00                	add    %al,(%rax)
  408cdc:	00 00                	add    %al,(%rax)
  408cde:	00 00                	add    %al,(%rax)
  408ce0:	60                   	(bad)
  408ce1:	02 00                	add    (%rax),%al
  408ce3:	00 00                	add    %al,(%rax)
  408ce5:	00 00                	add    %al,(%rax)
  408ce7:	00 50 02             	add    %dl,0x2(%rax)
  408cea:	00 00                	add    %al,(%rax)
  408cec:	00 00                	add    %al,(%rax)
  408cee:	00 00                	add    %al,(%rax)
  408cf0:	50                   	push   %rax
  408cf1:	02 00                	add    (%rax),%al
  408cf3:	00 00                	add    %al,(%rax)
  408cf5:	00 00                	add    %al,(%rax)
  408cf7:	00 50 02             	add    %dl,0x2(%rax)
  408cfa:	00 00                	add    %al,(%rax)
  408cfc:	00 00                	add    %al,(%rax)
  408cfe:	00 00                	add    %al,(%rax)
  408d00:	40 02 00             	rex add (%rax),%al
  408d03:	00 00                	add    %al,(%rax)
  408d05:	00 00                	add    %al,(%rax)
  408d07:	00 30                	add    %dh,(%rax)
  408d09:	02 00                	add    (%rax),%al
  408d0b:	00 00                	add    %al,(%rax)
  408d0d:	00 00                	add    %al,(%rax)
  408d0f:	00 30                	add    %dh,(%rax)
  408d11:	02 00                	add    (%rax),%al
  408d13:	00 00                	add    %al,(%rax)
  408d15:	00 00                	add    %al,(%rax)
  408d17:	00 30                	add    %dh,(%rax)
  408d19:	02 00                	add    (%rax),%al
  408d1b:	00 00                	add    %al,(%rax)
  408d1d:	00 00                	add    %al,(%rax)
  408d1f:	00 30                	add    %dh,(%rax)
  408d21:	02 00                	add    (%rax),%al
  408d23:	00 00                	add    %al,(%rax)
  408d25:	00 00                	add    %al,(%rax)
  408d27:	00 30                	add    %dh,(%rax)
  408d29:	02 00                	add    (%rax),%al
  408d2b:	00 00                	add    %al,(%rax)
  408d2d:	00 00                	add    %al,(%rax)
  408d2f:	00 30                	add    %dh,(%rax)
  408d31:	02 00                	add    (%rax),%al
  408d33:	00 00                	add    %al,(%rax)
  408d35:	00 00                	add    %al,(%rax)
  408d37:	00 30                	add    %dh,(%rax)
  408d39:	02 00                	add    (%rax),%al
  408d3b:	00 00                	add    %al,(%rax)
  408d3d:	00 00                	add    %al,(%rax)
  408d3f:	00 20                	add    %ah,(%rax)
  408d41:	02 00                	add    (%rax),%al
  408d43:	00 00                	add    %al,(%rax)
  408d45:	00 00                	add    %al,(%rax)
  408d47:	00 10                	add    %dl,(%rax)
  408d49:	02 00                	add    (%rax),%al
  408d4b:	00 00                	add    %al,(%rax)
  408d4d:	00 00                	add    %al,(%rax)
  408d4f:	00 10                	add    %dl,(%rax)
  408d51:	02 00                	add    (%rax),%al
  408d53:	00 00                	add    %al,(%rax)
  408d55:	00 00                	add    %al,(%rax)
  408d57:	00 10                	add    %dl,(%rax)
  408d59:	02 00                	add    (%rax),%al
  408d5b:	00 00                	add    %al,(%rax)
  408d5d:	00 00                	add    %al,(%rax)
  408d5f:	00 10                	add    %dl,(%rax)
  408d61:	02 00                	add    (%rax),%al
  408d63:	00 00                	add    %al,(%rax)
  408d65:	00 00                	add    %al,(%rax)
  408d67:	00 10                	add    %dl,(%rax)
  408d69:	02 00                	add    (%rax),%al
  408d6b:	00 00                	add    %al,(%rax)
  408d6d:	00 00                	add    %al,(%rax)
  408d6f:	00 10                	add    %dl,(%rax)
  408d71:	02 00                	add    (%rax),%al
  408d73:	00 00                	add    %al,(%rax)
  408d75:	00 00                	add    %al,(%rax)
  408d77:	00 10                	add    %dl,(%rax)
  408d79:	02 00                	add    (%rax),%al
  408d7b:	00 00                	add    %al,(%rax)
  408d7d:	00 00                	add    %al,(%rax)
  408d7f:	00 10                	add    %dl,(%rax)
  408d81:	02 00                	add    (%rax),%al
  408d83:	00 00                	add    %al,(%rax)
  408d85:	00 00                	add    %al,(%rax)
  408d87:	00 10                	add    %dl,(%rax)
  408d89:	02 00                	add    (%rax),%al
  408d8b:	00 00                	add    %al,(%rax)
  408d8d:	00 00                	add    %al,(%rax)
  408d8f:	00 10                	add    %dl,(%rax)
  408d91:	02 00                	add    (%rax),%al
  408d93:	00 00                	add    %al,(%rax)
  408d95:	00 00                	add    %al,(%rax)
  408d97:	00 10                	add    %dl,(%rax)
  408d99:	02 00                	add    (%rax),%al
  408d9b:	00 00                	add    %al,(%rax)
  408d9d:	00 00                	add    %al,(%rax)
  408d9f:	00 10                	add    %dl,(%rax)
  408da1:	02 00                	add    (%rax),%al
  408da3:	00 00                	add    %al,(%rax)
  408da5:	00 00                	add    %al,(%rax)
  408da7:	00 10                	add    %dl,(%rax)
  408da9:	02 00                	add    (%rax),%al
  408dab:	00 00                	add    %al,(%rax)
  408dad:	00 00                	add    %al,(%rax)
  408daf:	00 10                	add    %dl,(%rax)
  408db1:	02 00                	add    (%rax),%al
  408db3:	00 00                	add    %al,(%rax)
  408db5:	00 00                	add    %al,(%rax)
  408db7:	00 10                	add    %dl,(%rax)
  408db9:	02 00                	add    (%rax),%al
  408dbb:	00 00                	add    %al,(%rax)
  408dbd:	00 00                	add    %al,(%rax)
  408dbf:	00 60 02             	add    %ah,0x2(%rax)
  408dc2:	00 00                	add    %al,(%rax)
  408dc4:	00 00                	add    %al,(%rax)
  408dc6:	00 00                	add    %al,(%rax)
  408dc8:	70 02                	jo     408dcc <__intel_avx_rep_memset+0x4bc>
  408dca:	00 00                	add    %al,(%rax)
  408dcc:	00 00                	add    %al,(%rax)
  408dce:	00 00                	add    %al,(%rax)
  408dd0:	50                   	push   %rax
  408dd1:	02 00                	add    (%rax),%al
  408dd3:	00 00                	add    %al,(%rax)
  408dd5:	00 00                	add    %al,(%rax)
  408dd7:	00 40 02             	add    %al,0x2(%rax)
  408dda:	00 00                	add    %al,(%rax)
  408ddc:	00 00                	add    %al,(%rax)
  408dde:	00 00                	add    %al,(%rax)
  408de0:	30 02                	xor    %al,(%rdx)
  408de2:	00 00                	add    %al,(%rax)
  408de4:	00 00                	add    %al,(%rax)
  408de6:	00 00                	add    %al,(%rax)
  408de8:	20 02                	and    %al,(%rdx)
  408dea:	00 00                	add    %al,(%rax)
  408dec:	00 00                	add    %al,(%rax)
  408dee:	00 00                	add    %al,(%rax)
  408df0:	20 02                	and    %al,(%rdx)
  408df2:	00 00                	add    %al,(%rax)
  408df4:	00 00                	add    %al,(%rax)
  408df6:	00 00                	add    %al,(%rax)
  408df8:	20 02                	and    %al,(%rdx)
  408dfa:	00 00                	add    %al,(%rax)
  408dfc:	00 00                	add    %al,(%rax)
  408dfe:	00 00                	add    %al,(%rax)
  408e00:	10 02                	adc    %al,(%rdx)
  408e02:	00 00                	add    %al,(%rax)
  408e04:	00 00                	add    %al,(%rax)
  408e06:	00 00                	add    %al,(%rax)
  408e08:	00 02                	add    %al,(%rdx)
  408e0a:	00 00                	add    %al,(%rax)
  408e0c:	00 00                	add    %al,(%rax)
  408e0e:	00 00                	add    %al,(%rax)
  408e10:	00 02                	add    %al,(%rdx)
  408e12:	00 00                	add    %al,(%rax)
  408e14:	00 00                	add    %al,(%rax)
  408e16:	00 00                	add    %al,(%rax)
  408e18:	00 02                	add    %al,(%rdx)
  408e1a:	00 00                	add    %al,(%rax)
  408e1c:	00 00                	add    %al,(%rax)
  408e1e:	00 00                	add    %al,(%rax)
  408e20:	00 02                	add    %al,(%rdx)
  408e22:	00 00                	add    %al,(%rax)
  408e24:	00 00                	add    %al,(%rax)
  408e26:	00 00                	add    %al,(%rax)
  408e28:	00 02                	add    %al,(%rdx)
  408e2a:	00 00                	add    %al,(%rax)
  408e2c:	00 00                	add    %al,(%rax)
  408e2e:	00 00                	add    %al,(%rax)
  408e30:	00 02                	add    %al,(%rdx)
  408e32:	00 00                	add    %al,(%rax)
  408e34:	00 00                	add    %al,(%rax)
  408e36:	00 00                	add    %al,(%rax)
  408e38:	00 02                	add    %al,(%rdx)
  408e3a:	00 00                	add    %al,(%rax)
  408e3c:	00 00                	add    %al,(%rax)
  408e3e:	00 00                	add    %al,(%rax)
  408e40:	f0 01 00             	lock add %eax,(%rax)
  408e43:	00 00                	add    %al,(%rax)
  408e45:	00 00                	add    %al,(%rax)
  408e47:	00 e0                	add    %ah,%al
  408e49:	01 00                	add    %eax,(%rax)
  408e4b:	00 00                	add    %al,(%rax)
  408e4d:	00 00                	add    %al,(%rax)
  408e4f:	00 e0                	add    %ah,%al
  408e51:	01 00                	add    %eax,(%rax)
  408e53:	00 00                	add    %al,(%rax)
  408e55:	00 00                	add    %al,(%rax)
  408e57:	00 e0                	add    %ah,%al
  408e59:	01 00                	add    %eax,(%rax)
  408e5b:	00 00                	add    %al,(%rax)
  408e5d:	00 00                	add    %al,(%rax)
  408e5f:	00 e0                	add    %ah,%al
  408e61:	01 00                	add    %eax,(%rax)
  408e63:	00 00                	add    %al,(%rax)
  408e65:	00 00                	add    %al,(%rax)
  408e67:	00 e0                	add    %ah,%al
  408e69:	01 00                	add    %eax,(%rax)
  408e6b:	00 00                	add    %al,(%rax)
  408e6d:	00 00                	add    %al,(%rax)
  408e6f:	00 e0                	add    %ah,%al
  408e71:	01 00                	add    %eax,(%rax)
  408e73:	00 00                	add    %al,(%rax)
  408e75:	00 00                	add    %al,(%rax)
  408e77:	00 e0                	add    %ah,%al
  408e79:	01 00                	add    %eax,(%rax)
  408e7b:	00 00                	add    %al,(%rax)
  408e7d:	00 00                	add    %al,(%rax)
  408e7f:	00 e0                	add    %ah,%al
  408e81:	01 00                	add    %eax,(%rax)
  408e83:	00 00                	add    %al,(%rax)
  408e85:	00 00                	add    %al,(%rax)
  408e87:	00 e0                	add    %ah,%al
  408e89:	01 00                	add    %eax,(%rax)
  408e8b:	00 00                	add    %al,(%rax)
  408e8d:	00 00                	add    %al,(%rax)
  408e8f:	00 e0                	add    %ah,%al
  408e91:	01 00                	add    %eax,(%rax)
  408e93:	00 00                	add    %al,(%rax)
  408e95:	00 00                	add    %al,(%rax)
  408e97:	00 e0                	add    %ah,%al
  408e99:	01 00                	add    %eax,(%rax)
  408e9b:	00 00                	add    %al,(%rax)
  408e9d:	00 00                	add    %al,(%rax)
  408e9f:	00 e0                	add    %ah,%al
  408ea1:	01 00                	add    %eax,(%rax)
  408ea3:	00 00                	add    %al,(%rax)
  408ea5:	00 00                	add    %al,(%rax)
  408ea7:	00 e0                	add    %ah,%al
  408ea9:	01 00                	add    %eax,(%rax)
  408eab:	00 00                	add    %al,(%rax)
  408ead:	00 00                	add    %al,(%rax)
  408eaf:	00 e0                	add    %ah,%al
  408eb1:	01 00                	add    %eax,(%rax)
  408eb3:	00 00                	add    %al,(%rax)
  408eb5:	00 00                	add    %al,(%rax)
  408eb7:	00 e0                	add    %ah,%al
  408eb9:	01 00                	add    %eax,(%rax)
  408ebb:	00 00                	add    %al,(%rax)
  408ebd:	00 00                	add    %al,(%rax)
  408ebf:	00 8e 02 00 00 00    	add    %cl,0x2(%rsi)
  408ec5:	00 00                	add    %al,(%rax)
  408ec7:	00 8e 02 00 00 00    	add    %cl,0x2(%rsi)
  408ecd:	00 00                	add    %al,(%rax)
  408ecf:	00 8e 02 00 00 00    	add    %cl,0x2(%rsi)
  408ed5:	00 00                	add    %al,(%rax)
  408ed7:	00 8e 02 00 00 00    	add    %cl,0x2(%rsi)
  408edd:	00 00                	add    %al,(%rax)
  408edf:	00 8e 02 00 00 00    	add    %cl,0x2(%rsi)
  408ee5:	00 00                	add    %al,(%rax)
  408ee7:	00 8e 02 00 00 00    	add    %cl,0x2(%rsi)
  408eed:	00 00                	add    %al,(%rax)
  408eef:	00 8e 02 00 00 00    	add    %cl,0x2(%rsi)
  408ef5:	00 00                	add    %al,(%rax)
  408ef7:	00 8e 02 00 00 00    	add    %cl,0x2(%rsi)
  408efd:	00 00                	add    %al,(%rax)
  408eff:	00 8e 02 00 00 00    	add    %cl,0x2(%rsi)
  408f05:	00 00                	add    %al,(%rax)
  408f07:	00 8e 02 00 00 00    	add    %cl,0x2(%rsi)
  408f0d:	00 00                	add    %al,(%rax)
  408f0f:	00 8e 02 00 00 00    	add    %cl,0x2(%rsi)
  408f15:	00 00                	add    %al,(%rax)
  408f17:	00 8e 02 00 00 00    	add    %cl,0x2(%rsi)
  408f1d:	00 00                	add    %al,(%rax)
  408f1f:	00 8e 02 00 00 00    	add    %cl,0x2(%rsi)
  408f25:	00 00                	add    %al,(%rax)
  408f27:	00 8e 02 00 00 00    	add    %cl,0x2(%rsi)
  408f2d:	00 00                	add    %al,(%rax)
  408f2f:	00 8e 02 00 00 00    	add    %cl,0x2(%rsi)
  408f35:	00 00                	add    %al,(%rax)
  408f37:	00 8e 02 00 00 00    	add    %cl,0x2(%rsi)
  408f3d:	00 00                	add    %al,(%rax)
  408f3f:	00 8e 02 00 00 00    	add    %cl,0x2(%rsi)
  408f45:	00 00                	add    %al,(%rax)
  408f47:	00 8e 02 00 00 00    	add    %cl,0x2(%rsi)
  408f4d:	00 00                	add    %al,(%rax)
  408f4f:	00 8e 02 00 00 00    	add    %cl,0x2(%rsi)
  408f55:	00 00                	add    %al,(%rax)
  408f57:	00 8e 02 00 00 00    	add    %cl,0x2(%rsi)
  408f5d:	00 00                	add    %al,(%rax)
  408f5f:	00 8e 02 00 00 00    	add    %cl,0x2(%rsi)
  408f65:	00 00                	add    %al,(%rax)
  408f67:	00 8e 02 00 00 00    	add    %cl,0x2(%rsi)
  408f6d:	00 00                	add    %al,(%rax)
  408f6f:	00 8e 02 00 00 00    	add    %cl,0x2(%rsi)
  408f75:	00 00                	add    %al,(%rax)
  408f77:	00 8e 02 00 00 00    	add    %cl,0x2(%rsi)
  408f7d:	00 00                	add    %al,(%rax)
  408f7f:	00 8e 02 00 00 00    	add    %cl,0x2(%rsi)
  408f85:	00 00                	add    %al,(%rax)
  408f87:	00 8e 02 00 00 00    	add    %cl,0x2(%rsi)
  408f8d:	00 00                	add    %al,(%rax)
  408f8f:	00 8e 02 00 00 00    	add    %cl,0x2(%rsi)
  408f95:	00 00                	add    %al,(%rax)
  408f97:	00 8e 02 00 00 00    	add    %cl,0x2(%rsi)
  408f9d:	00 00                	add    %al,(%rax)
  408f9f:	00 8e 02 00 00 00    	add    %cl,0x2(%rsi)
  408fa5:	00 00                	add    %al,(%rax)
  408fa7:	00 8e 02 00 00 00    	add    %cl,0x2(%rsi)
  408fad:	00 00                	add    %al,(%rax)
  408faf:	00 8e 02 00 00 00    	add    %cl,0x2(%rsi)
  408fb5:	00 00                	add    %al,(%rax)
  408fb7:	00 8e 02 00 00 00    	add    %cl,0x2(%rsi)
  408fbd:	00 00                	add    %al,(%rax)
  408fbf:	00 94 02 00 00 00 00 	add    %dl,0x0(%rdx,%rax,1)
  408fc6:	00 00                	add    %al,(%rax)
  408fc8:	94                   	xchg   %eax,%esp
  408fc9:	02 00                	add    (%rax),%al
  408fcb:	00 00                	add    %al,(%rax)
  408fcd:	00 00                	add    %al,(%rax)
  408fcf:	00 94 02 00 00 00 00 	add    %dl,0x0(%rdx,%rax,1)
  408fd6:	00 00                	add    %al,(%rax)
  408fd8:	94                   	xchg   %eax,%esp
  408fd9:	02 00                	add    (%rax),%al
  408fdb:	00 00                	add    %al,(%rax)
  408fdd:	00 00                	add    %al,(%rax)
  408fdf:	00 94 02 00 00 00 00 	add    %dl,0x0(%rdx,%rax,1)
  408fe6:	00 00                	add    %al,(%rax)
  408fe8:	94                   	xchg   %eax,%esp
  408fe9:	02 00                	add    (%rax),%al
  408feb:	00 00                	add    %al,(%rax)
  408fed:	00 00                	add    %al,(%rax)
  408fef:	00 94 02 00 00 00 00 	add    %dl,0x0(%rdx,%rax,1)
  408ff6:	00 00                	add    %al,(%rax)
  408ff8:	94                   	xchg   %eax,%esp
  408ff9:	02 00                	add    (%rax),%al
  408ffb:	00 00                	add    %al,(%rax)
  408ffd:	00 00                	add    %al,(%rax)
  408fff:	00 94 02 00 00 00 00 	add    %dl,0x0(%rdx,%rax,1)
  409006:	00 00                	add    %al,(%rax)
  409008:	94                   	xchg   %eax,%esp
  409009:	02 00                	add    (%rax),%al
  40900b:	00 00                	add    %al,(%rax)
  40900d:	00 00                	add    %al,(%rax)
  40900f:	00 94 02 00 00 00 00 	add    %dl,0x0(%rdx,%rax,1)
  409016:	00 00                	add    %al,(%rax)
  409018:	94                   	xchg   %eax,%esp
  409019:	02 00                	add    (%rax),%al
  40901b:	00 00                	add    %al,(%rax)
  40901d:	00 00                	add    %al,(%rax)
  40901f:	00 94 02 00 00 00 00 	add    %dl,0x0(%rdx,%rax,1)
  409026:	00 00                	add    %al,(%rax)
  409028:	94                   	xchg   %eax,%esp
  409029:	02 00                	add    (%rax),%al
  40902b:	00 00                	add    %al,(%rax)
  40902d:	00 00                	add    %al,(%rax)
  40902f:	00 94 02 00 00 00 00 	add    %dl,0x0(%rdx,%rax,1)
  409036:	00 00                	add    %al,(%rax)
  409038:	94                   	xchg   %eax,%esp
  409039:	02 00                	add    (%rax),%al
  40903b:	00 00                	add    %al,(%rax)
  40903d:	00 00                	add    %al,(%rax)
  40903f:	00 94 02 00 00 00 00 	add    %dl,0x0(%rdx,%rax,1)
  409046:	00 00                	add    %al,(%rax)
  409048:	94                   	xchg   %eax,%esp
  409049:	02 00                	add    (%rax),%al
  40904b:	00 00                	add    %al,(%rax)
  40904d:	00 00                	add    %al,(%rax)
  40904f:	00 94 02 00 00 00 00 	add    %dl,0x0(%rdx,%rax,1)
  409056:	00 00                	add    %al,(%rax)
  409058:	94                   	xchg   %eax,%esp
  409059:	02 00                	add    (%rax),%al
  40905b:	00 00                	add    %al,(%rax)
  40905d:	00 00                	add    %al,(%rax)
  40905f:	00 94 02 00 00 00 00 	add    %dl,0x0(%rdx,%rax,1)
  409066:	00 00                	add    %al,(%rax)
  409068:	94                   	xchg   %eax,%esp
  409069:	02 00                	add    (%rax),%al
  40906b:	00 00                	add    %al,(%rax)
  40906d:	00 00                	add    %al,(%rax)
  40906f:	00 94 02 00 00 00 00 	add    %dl,0x0(%rdx,%rax,1)
  409076:	00 00                	add    %al,(%rax)
  409078:	94                   	xchg   %eax,%esp
  409079:	02 00                	add    (%rax),%al
  40907b:	00 00                	add    %al,(%rax)
  40907d:	00 00                	add    %al,(%rax)
  40907f:	00 94 02 00 00 00 00 	add    %dl,0x0(%rdx,%rax,1)
  409086:	00 00                	add    %al,(%rax)
  409088:	94                   	xchg   %eax,%esp
  409089:	02 00                	add    (%rax),%al
  40908b:	00 00                	add    %al,(%rax)
  40908d:	00 00                	add    %al,(%rax)
  40908f:	00 94 02 00 00 00 00 	add    %dl,0x0(%rdx,%rax,1)
  409096:	00 00                	add    %al,(%rax)
  409098:	94                   	xchg   %eax,%esp
  409099:	02 00                	add    (%rax),%al
  40909b:	00 00                	add    %al,(%rax)
  40909d:	00 00                	add    %al,(%rax)
  40909f:	00 94 02 00 00 00 00 	add    %dl,0x0(%rdx,%rax,1)
  4090a6:	00 00                	add    %al,(%rax)
  4090a8:	94                   	xchg   %eax,%esp
  4090a9:	02 00                	add    (%rax),%al
  4090ab:	00 00                	add    %al,(%rax)
  4090ad:	00 00                	add    %al,(%rax)
  4090af:	00 94 02 00 00 00 00 	add    %dl,0x0(%rdx,%rax,1)
  4090b6:	00 00                	add    %al,(%rax)
  4090b8:	94                   	xchg   %eax,%esp
  4090b9:	02 00                	add    (%rax),%al
  4090bb:	00 00                	add    %al,(%rax)
  4090bd:	00 00                	add    %al,(%rax)
  4090bf:	00 9a 02 00 00 00    	add    %bl,0x2(%rdx)
  4090c5:	00 00                	add    %al,(%rax)
  4090c7:	00 9a 02 00 00 00    	add    %bl,0x2(%rdx)
  4090cd:	00 00                	add    %al,(%rax)
  4090cf:	00 9a 02 00 00 00    	add    %bl,0x2(%rdx)
  4090d5:	00 00                	add    %al,(%rax)
  4090d7:	00 9a 02 00 00 00    	add    %bl,0x2(%rdx)
  4090dd:	00 00                	add    %al,(%rax)
  4090df:	00 9a 02 00 00 00    	add    %bl,0x2(%rdx)
  4090e5:	00 00                	add    %al,(%rax)
  4090e7:	00 9a 02 00 00 00    	add    %bl,0x2(%rdx)
  4090ed:	00 00                	add    %al,(%rax)
  4090ef:	00 9a 02 00 00 00    	add    %bl,0x2(%rdx)
  4090f5:	00 00                	add    %al,(%rax)
  4090f7:	00 9a 02 00 00 00    	add    %bl,0x2(%rdx)
  4090fd:	00 00                	add    %al,(%rax)
  4090ff:	00 9a 02 00 00 00    	add    %bl,0x2(%rdx)
  409105:	00 00                	add    %al,(%rax)
  409107:	00 9a 02 00 00 00    	add    %bl,0x2(%rdx)
  40910d:	00 00                	add    %al,(%rax)
  40910f:	00 9a 02 00 00 00    	add    %bl,0x2(%rdx)
  409115:	00 00                	add    %al,(%rax)
  409117:	00 9a 02 00 00 00    	add    %bl,0x2(%rdx)
  40911d:	00 00                	add    %al,(%rax)
  40911f:	00 9a 02 00 00 00    	add    %bl,0x2(%rdx)
  409125:	00 00                	add    %al,(%rax)
  409127:	00 9a 02 00 00 00    	add    %bl,0x2(%rdx)
  40912d:	00 00                	add    %al,(%rax)
  40912f:	00 9a 02 00 00 00    	add    %bl,0x2(%rdx)
  409135:	00 00                	add    %al,(%rax)
  409137:	00 9a 02 00 00 00    	add    %bl,0x2(%rdx)
  40913d:	00 00                	add    %al,(%rax)
  40913f:	00 9a 02 00 00 00    	add    %bl,0x2(%rdx)
  409145:	00 00                	add    %al,(%rax)
  409147:	00 9a 02 00 00 00    	add    %bl,0x2(%rdx)
  40914d:	00 00                	add    %al,(%rax)
  40914f:	00 9a 02 00 00 00    	add    %bl,0x2(%rdx)
  409155:	00 00                	add    %al,(%rax)
  409157:	00 9a 02 00 00 00    	add    %bl,0x2(%rdx)
  40915d:	00 00                	add    %al,(%rax)
  40915f:	00 9a 02 00 00 00    	add    %bl,0x2(%rdx)
  409165:	00 00                	add    %al,(%rax)
  409167:	00 9a 02 00 00 00    	add    %bl,0x2(%rdx)
  40916d:	00 00                	add    %al,(%rax)
  40916f:	00 9a 02 00 00 00    	add    %bl,0x2(%rdx)
  409175:	00 00                	add    %al,(%rax)
  409177:	00 9a 02 00 00 00    	add    %bl,0x2(%rdx)
  40917d:	00 00                	add    %al,(%rax)
  40917f:	00 9a 02 00 00 00    	add    %bl,0x2(%rdx)
  409185:	00 00                	add    %al,(%rax)
  409187:	00 9a 02 00 00 00    	add    %bl,0x2(%rdx)
  40918d:	00 00                	add    %al,(%rax)
  40918f:	00 9a 02 00 00 00    	add    %bl,0x2(%rdx)
  409195:	00 00                	add    %al,(%rax)
  409197:	00 9a 02 00 00 00    	add    %bl,0x2(%rdx)
  40919d:	00 00                	add    %al,(%rax)
  40919f:	00 9a 02 00 00 00    	add    %bl,0x2(%rdx)
  4091a5:	00 00                	add    %al,(%rax)
  4091a7:	00 9a 02 00 00 00    	add    %bl,0x2(%rdx)
  4091ad:	00 00                	add    %al,(%rax)
  4091af:	00 9a 02 00 00 00    	add    %bl,0x2(%rdx)
  4091b5:	00 00                	add    %al,(%rax)
  4091b7:	00 9a 02 00 00 00    	add    %bl,0x2(%rdx)
  4091bd:	00 00                	add    %al,(%rax)
  4091bf:	00 a0 02 00 00 00    	add    %ah,0x2(%rax)
  4091c5:	00 00                	add    %al,(%rax)
  4091c7:	00 a0 02 00 00 00    	add    %ah,0x2(%rax)
  4091cd:	00 00                	add    %al,(%rax)
  4091cf:	00 a0 02 00 00 00    	add    %ah,0x2(%rax)
  4091d5:	00 00                	add    %al,(%rax)
  4091d7:	00 a0 02 00 00 00    	add    %ah,0x2(%rax)
  4091dd:	00 00                	add    %al,(%rax)
  4091df:	00 a0 02 00 00 00    	add    %ah,0x2(%rax)
  4091e5:	00 00                	add    %al,(%rax)
  4091e7:	00 a0 02 00 00 00    	add    %ah,0x2(%rax)
  4091ed:	00 00                	add    %al,(%rax)
  4091ef:	00 a0 02 00 00 00    	add    %ah,0x2(%rax)
  4091f5:	00 00                	add    %al,(%rax)
  4091f7:	00 a0 02 00 00 00    	add    %ah,0x2(%rax)
  4091fd:	00 00                	add    %al,(%rax)
  4091ff:	00 a0 02 00 00 00    	add    %ah,0x2(%rax)
  409205:	00 00                	add    %al,(%rax)
  409207:	00 a0 02 00 00 00    	add    %ah,0x2(%rax)
  40920d:	00 00                	add    %al,(%rax)
  40920f:	00 a0 02 00 00 00    	add    %ah,0x2(%rax)
  409215:	00 00                	add    %al,(%rax)
  409217:	00 a0 02 00 00 00    	add    %ah,0x2(%rax)
  40921d:	00 00                	add    %al,(%rax)
  40921f:	00 a0 02 00 00 00    	add    %ah,0x2(%rax)
  409225:	00 00                	add    %al,(%rax)
  409227:	00 a0 02 00 00 00    	add    %ah,0x2(%rax)
  40922d:	00 00                	add    %al,(%rax)
  40922f:	00 a0 02 00 00 00    	add    %ah,0x2(%rax)
  409235:	00 00                	add    %al,(%rax)
  409237:	00 a0 02 00 00 00    	add    %ah,0x2(%rax)
  40923d:	00 00                	add    %al,(%rax)
  40923f:	00 a0 02 00 00 00    	add    %ah,0x2(%rax)
  409245:	00 00                	add    %al,(%rax)
  409247:	00 a0 02 00 00 00    	add    %ah,0x2(%rax)
  40924d:	00 00                	add    %al,(%rax)
  40924f:	00 a0 02 00 00 00    	add    %ah,0x2(%rax)
  409255:	00 00                	add    %al,(%rax)
  409257:	00 a0 02 00 00 00    	add    %ah,0x2(%rax)
  40925d:	00 00                	add    %al,(%rax)
  40925f:	00 a0 02 00 00 00    	add    %ah,0x2(%rax)
  409265:	00 00                	add    %al,(%rax)
  409267:	00 a0 02 00 00 00    	add    %ah,0x2(%rax)
  40926d:	00 00                	add    %al,(%rax)
  40926f:	00 a0 02 00 00 00    	add    %ah,0x2(%rax)
  409275:	00 00                	add    %al,(%rax)
  409277:	00 a0 02 00 00 00    	add    %ah,0x2(%rax)
  40927d:	00 00                	add    %al,(%rax)
  40927f:	00 a0 02 00 00 00    	add    %ah,0x2(%rax)
  409285:	00 00                	add    %al,(%rax)
  409287:	00 a0 02 00 00 00    	add    %ah,0x2(%rax)
  40928d:	00 00                	add    %al,(%rax)
  40928f:	00 a0 02 00 00 00    	add    %ah,0x2(%rax)
  409295:	00 00                	add    %al,(%rax)
  409297:	00 a0 02 00 00 00    	add    %ah,0x2(%rax)
  40929d:	00 00                	add    %al,(%rax)
  40929f:	00 a0 02 00 00 00    	add    %ah,0x2(%rax)
  4092a5:	00 00                	add    %al,(%rax)
  4092a7:	00 a0 02 00 00 00    	add    %ah,0x2(%rax)
  4092ad:	00 00                	add    %al,(%rax)
  4092af:	00 a0 02 00 00 00    	add    %ah,0x2(%rax)
  4092b5:	00 00                	add    %al,(%rax)
  4092b7:	00 a0 02 00 00 00    	add    %ah,0x2(%rax)
  4092bd:	00 00                	add    %al,(%rax)
  4092bf:	00 ae 02 00 00 00    	add    %ch,0x2(%rsi)
  4092c5:	00 00                	add    %al,(%rax)
  4092c7:	00 ae 02 00 00 00    	add    %ch,0x2(%rsi)
  4092cd:	00 00                	add    %al,(%rax)
  4092cf:	00 ae 02 00 00 00    	add    %ch,0x2(%rsi)
  4092d5:	00 00                	add    %al,(%rax)
  4092d7:	00 ae 02 00 00 00    	add    %ch,0x2(%rsi)
  4092dd:	00 00                	add    %al,(%rax)
  4092df:	00 ae 02 00 00 00    	add    %ch,0x2(%rsi)
  4092e5:	00 00                	add    %al,(%rax)
  4092e7:	00 ae 02 00 00 00    	add    %ch,0x2(%rsi)
  4092ed:	00 00                	add    %al,(%rax)
  4092ef:	00 ae 02 00 00 00    	add    %ch,0x2(%rsi)
  4092f5:	00 00                	add    %al,(%rax)
  4092f7:	00 ae 02 00 00 00    	add    %ch,0x2(%rsi)
  4092fd:	00 00                	add    %al,(%rax)
  4092ff:	00 ae 02 00 00 00    	add    %ch,0x2(%rsi)
  409305:	00 00                	add    %al,(%rax)
  409307:	00 ae 02 00 00 00    	add    %ch,0x2(%rsi)
  40930d:	00 00                	add    %al,(%rax)
  40930f:	00 ae 02 00 00 00    	add    %ch,0x2(%rsi)
  409315:	00 00                	add    %al,(%rax)
  409317:	00 ae 02 00 00 00    	add    %ch,0x2(%rsi)
  40931d:	00 00                	add    %al,(%rax)
  40931f:	00 ae 02 00 00 00    	add    %ch,0x2(%rsi)
  409325:	00 00                	add    %al,(%rax)
  409327:	00 ae 02 00 00 00    	add    %ch,0x2(%rsi)
  40932d:	00 00                	add    %al,(%rax)
  40932f:	00 ae 02 00 00 00    	add    %ch,0x2(%rsi)
  409335:	00 00                	add    %al,(%rax)
  409337:	00 ae 02 00 00 00    	add    %ch,0x2(%rsi)
  40933d:	00 00                	add    %al,(%rax)
  40933f:	00 ae 02 00 00 00    	add    %ch,0x2(%rsi)
  409345:	00 00                	add    %al,(%rax)
  409347:	00 ae 02 00 00 00    	add    %ch,0x2(%rsi)
  40934d:	00 00                	add    %al,(%rax)
  40934f:	00 ae 02 00 00 00    	add    %ch,0x2(%rsi)
  409355:	00 00                	add    %al,(%rax)
  409357:	00 ae 02 00 00 00    	add    %ch,0x2(%rsi)
  40935d:	00 00                	add    %al,(%rax)
  40935f:	00 ae 02 00 00 00    	add    %ch,0x2(%rsi)
  409365:	00 00                	add    %al,(%rax)
  409367:	00 ae 02 00 00 00    	add    %ch,0x2(%rsi)
  40936d:	00 00                	add    %al,(%rax)
  40936f:	00 ae 02 00 00 00    	add    %ch,0x2(%rsi)
  409375:	00 00                	add    %al,(%rax)
  409377:	00 ae 02 00 00 00    	add    %ch,0x2(%rsi)
  40937d:	00 00                	add    %al,(%rax)
  40937f:	00 ae 02 00 00 00    	add    %ch,0x2(%rsi)
  409385:	00 00                	add    %al,(%rax)
  409387:	00 ae 02 00 00 00    	add    %ch,0x2(%rsi)
  40938d:	00 00                	add    %al,(%rax)
  40938f:	00 ae 02 00 00 00    	add    %ch,0x2(%rsi)
  409395:	00 00                	add    %al,(%rax)
  409397:	00 ae 02 00 00 00    	add    %ch,0x2(%rsi)
  40939d:	00 00                	add    %al,(%rax)
  40939f:	00 ae 02 00 00 00    	add    %ch,0x2(%rsi)
  4093a5:	00 00                	add    %al,(%rax)
  4093a7:	00 ae 02 00 00 00    	add    %ch,0x2(%rsi)
  4093ad:	00 00                	add    %al,(%rax)
  4093af:	00 ae 02 00 00 00    	add    %ch,0x2(%rsi)
  4093b5:	00 00                	add    %al,(%rax)
  4093b7:	00 ae 02 00 00 00    	add    %ch,0x2(%rsi)
  4093bd:	00 00                	add    %al,(%rax)
  4093bf:	00 b7 02 00 00 00    	add    %dh,0x2(%rdi)
  4093c5:	00 00                	add    %al,(%rax)
  4093c7:	00 b7 02 00 00 00    	add    %dh,0x2(%rdi)
  4093cd:	00 00                	add    %al,(%rax)
  4093cf:	00 b7 02 00 00 00    	add    %dh,0x2(%rdi)
  4093d5:	00 00                	add    %al,(%rax)
  4093d7:	00 b7 02 00 00 00    	add    %dh,0x2(%rdi)
  4093dd:	00 00                	add    %al,(%rax)
  4093df:	00 b7 02 00 00 00    	add    %dh,0x2(%rdi)
  4093e5:	00 00                	add    %al,(%rax)
  4093e7:	00 b7 02 00 00 00    	add    %dh,0x2(%rdi)
  4093ed:	00 00                	add    %al,(%rax)
  4093ef:	00 b7 02 00 00 00    	add    %dh,0x2(%rdi)
  4093f5:	00 00                	add    %al,(%rax)
  4093f7:	00 b7 02 00 00 00    	add    %dh,0x2(%rdi)
  4093fd:	00 00                	add    %al,(%rax)
  4093ff:	00 b7 02 00 00 00    	add    %dh,0x2(%rdi)
  409405:	00 00                	add    %al,(%rax)
  409407:	00 b7 02 00 00 00    	add    %dh,0x2(%rdi)
  40940d:	00 00                	add    %al,(%rax)
  40940f:	00 b7 02 00 00 00    	add    %dh,0x2(%rdi)
  409415:	00 00                	add    %al,(%rax)
  409417:	00 b7 02 00 00 00    	add    %dh,0x2(%rdi)
  40941d:	00 00                	add    %al,(%rax)
  40941f:	00 b7 02 00 00 00    	add    %dh,0x2(%rdi)
  409425:	00 00                	add    %al,(%rax)
  409427:	00 b7 02 00 00 00    	add    %dh,0x2(%rdi)
  40942d:	00 00                	add    %al,(%rax)
  40942f:	00 b7 02 00 00 00    	add    %dh,0x2(%rdi)
  409435:	00 00                	add    %al,(%rax)
  409437:	00 b7 02 00 00 00    	add    %dh,0x2(%rdi)
  40943d:	00 00                	add    %al,(%rax)
  40943f:	00 b7 02 00 00 00    	add    %dh,0x2(%rdi)
  409445:	00 00                	add    %al,(%rax)
  409447:	00 b7 02 00 00 00    	add    %dh,0x2(%rdi)
  40944d:	00 00                	add    %al,(%rax)
  40944f:	00 b7 02 00 00 00    	add    %dh,0x2(%rdi)
  409455:	00 00                	add    %al,(%rax)
  409457:	00 b7 02 00 00 00    	add    %dh,0x2(%rdi)
  40945d:	00 00                	add    %al,(%rax)
  40945f:	00 b7 02 00 00 00    	add    %dh,0x2(%rdi)
  409465:	00 00                	add    %al,(%rax)
  409467:	00 b7 02 00 00 00    	add    %dh,0x2(%rdi)
  40946d:	00 00                	add    %al,(%rax)
  40946f:	00 b7 02 00 00 00    	add    %dh,0x2(%rdi)
  409475:	00 00                	add    %al,(%rax)
  409477:	00 b7 02 00 00 00    	add    %dh,0x2(%rdi)
  40947d:	00 00                	add    %al,(%rax)
  40947f:	00 b7 02 00 00 00    	add    %dh,0x2(%rdi)
  409485:	00 00                	add    %al,(%rax)
  409487:	00 b7 02 00 00 00    	add    %dh,0x2(%rdi)
  40948d:	00 00                	add    %al,(%rax)
  40948f:	00 b7 02 00 00 00    	add    %dh,0x2(%rdi)
  409495:	00 00                	add    %al,(%rax)
  409497:	00 b7 02 00 00 00    	add    %dh,0x2(%rdi)
  40949d:	00 00                	add    %al,(%rax)
  40949f:	00 b7 02 00 00 00    	add    %dh,0x2(%rdi)
  4094a5:	00 00                	add    %al,(%rax)
  4094a7:	00 b7 02 00 00 00    	add    %dh,0x2(%rdi)
  4094ad:	00 00                	add    %al,(%rax)
  4094af:	00 b7 02 00 00 00    	add    %dh,0x2(%rdi)
  4094b5:	00 00                	add    %al,(%rax)
  4094b7:	00 b7 02 00 00 00    	add    %dh,0x2(%rdi)
  4094bd:	00 00                	add    %al,(%rax)
  4094bf:	00 c0                	add    %al,%al
  4094c1:	02 00                	add    (%rax),%al
  4094c3:	00 00                	add    %al,(%rax)
  4094c5:	00 00                	add    %al,(%rax)
  4094c7:	00 c0                	add    %al,%al
  4094c9:	02 00                	add    (%rax),%al
  4094cb:	00 00                	add    %al,(%rax)
  4094cd:	00 00                	add    %al,(%rax)
  4094cf:	00 c0                	add    %al,%al
  4094d1:	02 00                	add    (%rax),%al
  4094d3:	00 00                	add    %al,(%rax)
  4094d5:	00 00                	add    %al,(%rax)
  4094d7:	00 c0                	add    %al,%al
  4094d9:	02 00                	add    (%rax),%al
  4094db:	00 00                	add    %al,(%rax)
  4094dd:	00 00                	add    %al,(%rax)
  4094df:	00 c0                	add    %al,%al
  4094e1:	02 00                	add    (%rax),%al
  4094e3:	00 00                	add    %al,(%rax)
  4094e5:	00 00                	add    %al,(%rax)
  4094e7:	00 c0                	add    %al,%al
  4094e9:	02 00                	add    (%rax),%al
  4094eb:	00 00                	add    %al,(%rax)
  4094ed:	00 00                	add    %al,(%rax)
  4094ef:	00 c0                	add    %al,%al
  4094f1:	02 00                	add    (%rax),%al
  4094f3:	00 00                	add    %al,(%rax)
  4094f5:	00 00                	add    %al,(%rax)
  4094f7:	00 c0                	add    %al,%al
  4094f9:	02 00                	add    (%rax),%al
  4094fb:	00 00                	add    %al,(%rax)
  4094fd:	00 00                	add    %al,(%rax)
  4094ff:	00 c0                	add    %al,%al
  409501:	02 00                	add    (%rax),%al
  409503:	00 00                	add    %al,(%rax)
  409505:	00 00                	add    %al,(%rax)
  409507:	00 c0                	add    %al,%al
  409509:	02 00                	add    (%rax),%al
  40950b:	00 00                	add    %al,(%rax)
  40950d:	00 00                	add    %al,(%rax)
  40950f:	00 c0                	add    %al,%al
  409511:	02 00                	add    (%rax),%al
  409513:	00 00                	add    %al,(%rax)
  409515:	00 00                	add    %al,(%rax)
  409517:	00 c0                	add    %al,%al
  409519:	02 00                	add    (%rax),%al
  40951b:	00 00                	add    %al,(%rax)
  40951d:	00 00                	add    %al,(%rax)
  40951f:	00 c0                	add    %al,%al
  409521:	02 00                	add    (%rax),%al
  409523:	00 00                	add    %al,(%rax)
  409525:	00 00                	add    %al,(%rax)
  409527:	00 c0                	add    %al,%al
  409529:	02 00                	add    (%rax),%al
  40952b:	00 00                	add    %al,(%rax)
  40952d:	00 00                	add    %al,(%rax)
  40952f:	00 c0                	add    %al,%al
  409531:	02 00                	add    (%rax),%al
  409533:	00 00                	add    %al,(%rax)
  409535:	00 00                	add    %al,(%rax)
  409537:	00 c0                	add    %al,%al
  409539:	02 00                	add    (%rax),%al
  40953b:	00 00                	add    %al,(%rax)
  40953d:	00 00                	add    %al,(%rax)
  40953f:	00 c0                	add    %al,%al
  409541:	02 00                	add    (%rax),%al
  409543:	00 00                	add    %al,(%rax)
  409545:	00 00                	add    %al,(%rax)
  409547:	00 c0                	add    %al,%al
  409549:	02 00                	add    (%rax),%al
  40954b:	00 00                	add    %al,(%rax)
  40954d:	00 00                	add    %al,(%rax)
  40954f:	00 c0                	add    %al,%al
  409551:	02 00                	add    (%rax),%al
  409553:	00 00                	add    %al,(%rax)
  409555:	00 00                	add    %al,(%rax)
  409557:	00 c0                	add    %al,%al
  409559:	02 00                	add    (%rax),%al
  40955b:	00 00                	add    %al,(%rax)
  40955d:	00 00                	add    %al,(%rax)
  40955f:	00 c0                	add    %al,%al
  409561:	02 00                	add    (%rax),%al
  409563:	00 00                	add    %al,(%rax)
  409565:	00 00                	add    %al,(%rax)
  409567:	00 c0                	add    %al,%al
  409569:	02 00                	add    (%rax),%al
  40956b:	00 00                	add    %al,(%rax)
  40956d:	00 00                	add    %al,(%rax)
  40956f:	00 c0                	add    %al,%al
  409571:	02 00                	add    (%rax),%al
  409573:	00 00                	add    %al,(%rax)
  409575:	00 00                	add    %al,(%rax)
  409577:	00 c0                	add    %al,%al
  409579:	02 00                	add    (%rax),%al
  40957b:	00 00                	add    %al,(%rax)
  40957d:	00 00                	add    %al,(%rax)
  40957f:	00 c0                	add    %al,%al
  409581:	02 00                	add    (%rax),%al
  409583:	00 00                	add    %al,(%rax)
  409585:	00 00                	add    %al,(%rax)
  409587:	00 c0                	add    %al,%al
  409589:	02 00                	add    (%rax),%al
  40958b:	00 00                	add    %al,(%rax)
  40958d:	00 00                	add    %al,(%rax)
  40958f:	00 c0                	add    %al,%al
  409591:	02 00                	add    (%rax),%al
  409593:	00 00                	add    %al,(%rax)
  409595:	00 00                	add    %al,(%rax)
  409597:	00 c0                	add    %al,%al
  409599:	02 00                	add    (%rax),%al
  40959b:	00 00                	add    %al,(%rax)
  40959d:	00 00                	add    %al,(%rax)
  40959f:	00 c0                	add    %al,%al
  4095a1:	02 00                	add    (%rax),%al
  4095a3:	00 00                	add    %al,(%rax)
  4095a5:	00 00                	add    %al,(%rax)
  4095a7:	00 c0                	add    %al,%al
  4095a9:	02 00                	add    (%rax),%al
  4095ab:	00 00                	add    %al,(%rax)
  4095ad:	00 00                	add    %al,(%rax)
  4095af:	00 c0                	add    %al,%al
  4095b1:	02 00                	add    (%rax),%al
  4095b3:	00 00                	add    %al,(%rax)
  4095b5:	00 00                	add    %al,(%rax)
  4095b7:	00 c0                	add    %al,%al
  4095b9:	02 00                	add    (%rax),%al
  4095bb:	00 00                	add    %al,(%rax)
  4095bd:	00 00                	add    %al,(%rax)
  4095bf:	00 60 0a             	add    %ah,0xa(%rax)
  4095c2:	00 00                	add    %al,(%rax)
  4095c4:	00 00                	add    %al,(%rax)
  4095c6:	00 00                	add    %al,(%rax)
  4095c8:	70 0a                	jo     4095d4 <__intel_avx_rep_memset+0xcc4>
  4095ca:	00 00                	add    %al,(%rax)
  4095cc:	00 00                	add    %al,(%rax)
  4095ce:	00 00                	add    %al,(%rax)
  4095d0:	50                   	push   %rax
  4095d1:	0a 00                	or     (%rax),%al
  4095d3:	00 00                	add    %al,(%rax)
  4095d5:	00 00                	add    %al,(%rax)
  4095d7:	00 40 0a             	add    %al,0xa(%rax)
  4095da:	00 00                	add    %al,(%rax)
  4095dc:	00 00                	add    %al,(%rax)
  4095de:	00 00                	add    %al,(%rax)
  4095e0:	30 0a                	xor    %cl,(%rdx)
  4095e2:	00 00                	add    %al,(%rax)
  4095e4:	00 00                	add    %al,(%rax)
  4095e6:	00 00                	add    %al,(%rax)
  4095e8:	20 0a                	and    %cl,(%rdx)
  4095ea:	00 00                	add    %al,(%rax)
  4095ec:	00 00                	add    %al,(%rax)
  4095ee:	00 00                	add    %al,(%rax)
  4095f0:	20 0a                	and    %cl,(%rdx)
  4095f2:	00 00                	add    %al,(%rax)
  4095f4:	00 00                	add    %al,(%rax)
  4095f6:	00 00                	add    %al,(%rax)
  4095f8:	20 0a                	and    %cl,(%rdx)
  4095fa:	00 00                	add    %al,(%rax)
  4095fc:	00 00                	add    %al,(%rax)
  4095fe:	00 00                	add    %al,(%rax)
  409600:	10 0a                	adc    %cl,(%rdx)
  409602:	00 00                	add    %al,(%rax)
  409604:	00 00                	add    %al,(%rax)
  409606:	00 00                	add    %al,(%rax)
  409608:	00 0a                	add    %cl,(%rdx)
  40960a:	00 00                	add    %al,(%rax)
  40960c:	00 00                	add    %al,(%rax)
  40960e:	00 00                	add    %al,(%rax)
  409610:	00 0a                	add    %cl,(%rdx)
  409612:	00 00                	add    %al,(%rax)
  409614:	00 00                	add    %al,(%rax)
  409616:	00 00                	add    %al,(%rax)
  409618:	00 0a                	add    %cl,(%rdx)
  40961a:	00 00                	add    %al,(%rax)
  40961c:	00 00                	add    %al,(%rax)
  40961e:	00 00                	add    %al,(%rax)
  409620:	00 0a                	add    %cl,(%rdx)
  409622:	00 00                	add    %al,(%rax)
  409624:	00 00                	add    %al,(%rax)
  409626:	00 00                	add    %al,(%rax)
  409628:	00 0a                	add    %cl,(%rdx)
  40962a:	00 00                	add    %al,(%rax)
  40962c:	00 00                	add    %al,(%rax)
  40962e:	00 00                	add    %al,(%rax)
  409630:	00 0a                	add    %cl,(%rdx)
  409632:	00 00                	add    %al,(%rax)
  409634:	00 00                	add    %al,(%rax)
  409636:	00 00                	add    %al,(%rax)
  409638:	00 0a                	add    %cl,(%rdx)
  40963a:	00 00                	add    %al,(%rax)
  40963c:	00 00                	add    %al,(%rax)
  40963e:	00 00                	add    %al,(%rax)
  409640:	30 09                	xor    %cl,(%rcx)
  409642:	00 00                	add    %al,(%rax)
  409644:	00 00                	add    %al,(%rax)
  409646:	00 00                	add    %al,(%rax)
  409648:	20 09                	and    %cl,(%rcx)
  40964a:	00 00                	add    %al,(%rax)
  40964c:	00 00                	add    %al,(%rax)
  40964e:	00 00                	add    %al,(%rax)
  409650:	20 09                	and    %cl,(%rcx)
  409652:	00 00                	add    %al,(%rax)
  409654:	00 00                	add    %al,(%rax)
  409656:	00 00                	add    %al,(%rax)
  409658:	20 09                	and    %cl,(%rcx)
  40965a:	00 00                	add    %al,(%rax)
  40965c:	00 00                	add    %al,(%rax)
  40965e:	00 00                	add    %al,(%rax)
  409660:	20 09                	and    %cl,(%rcx)
  409662:	00 00                	add    %al,(%rax)
  409664:	00 00                	add    %al,(%rax)
  409666:	00 00                	add    %al,(%rax)
  409668:	20 09                	and    %cl,(%rcx)
  40966a:	00 00                	add    %al,(%rax)
  40966c:	00 00                	add    %al,(%rax)
  40966e:	00 00                	add    %al,(%rax)
  409670:	20 09                	and    %cl,(%rcx)
  409672:	00 00                	add    %al,(%rax)
  409674:	00 00                	add    %al,(%rax)
  409676:	00 00                	add    %al,(%rax)
  409678:	20 09                	and    %cl,(%rcx)
  40967a:	00 00                	add    %al,(%rax)
  40967c:	00 00                	add    %al,(%rax)
  40967e:	00 00                	add    %al,(%rax)
  409680:	20 09                	and    %cl,(%rcx)
  409682:	00 00                	add    %al,(%rax)
  409684:	00 00                	add    %al,(%rax)
  409686:	00 00                	add    %al,(%rax)
  409688:	20 09                	and    %cl,(%rcx)
  40968a:	00 00                	add    %al,(%rax)
  40968c:	00 00                	add    %al,(%rax)
  40968e:	00 00                	add    %al,(%rax)
  409690:	20 09                	and    %cl,(%rcx)
  409692:	00 00                	add    %al,(%rax)
  409694:	00 00                	add    %al,(%rax)
  409696:	00 00                	add    %al,(%rax)
  409698:	20 09                	and    %cl,(%rcx)
  40969a:	00 00                	add    %al,(%rax)
  40969c:	00 00                	add    %al,(%rax)
  40969e:	00 00                	add    %al,(%rax)
  4096a0:	20 09                	and    %cl,(%rcx)
  4096a2:	00 00                	add    %al,(%rax)
  4096a4:	00 00                	add    %al,(%rax)
  4096a6:	00 00                	add    %al,(%rax)
  4096a8:	20 09                	and    %cl,(%rcx)
  4096aa:	00 00                	add    %al,(%rax)
  4096ac:	00 00                	add    %al,(%rax)
  4096ae:	00 00                	add    %al,(%rax)
  4096b0:	20 09                	and    %cl,(%rcx)
  4096b2:	00 00                	add    %al,(%rax)
  4096b4:	00 00                	add    %al,(%rax)
  4096b6:	00 00                	add    %al,(%rax)
  4096b8:	20 09                	and    %cl,(%rcx)
  4096ba:	00 00                	add    %al,(%rax)
  4096bc:	00 00                	add    %al,(%rax)
  4096be:	00 00                	add    %al,(%rax)
  4096c0:	d0 09                	rorb   $1,(%rcx)
  4096c2:	00 00                	add    %al,(%rax)
  4096c4:	00 00                	add    %al,(%rax)
  4096c6:	00 00                	add    %al,(%rax)
  4096c8:	c0 09 00             	rorb   $0x0,(%rcx)
  4096cb:	00 00                	add    %al,(%rax)
  4096cd:	00 00                	add    %al,(%rax)
  4096cf:	00 c0                	add    %al,%al
  4096d1:	09 00                	or     %eax,(%rax)
  4096d3:	00 00                	add    %al,(%rax)
  4096d5:	00 00                	add    %al,(%rax)
  4096d7:	00 c0                	add    %al,%al
  4096d9:	09 00                	or     %eax,(%rax)
  4096db:	00 00                	add    %al,(%rax)
  4096dd:	00 00                	add    %al,(%rax)
  4096df:	00 c0                	add    %al,%al
  4096e1:	09 00                	or     %eax,(%rax)
  4096e3:	00 00                	add    %al,(%rax)
  4096e5:	00 00                	add    %al,(%rax)
  4096e7:	00 c0                	add    %al,%al
  4096e9:	09 00                	or     %eax,(%rax)
  4096eb:	00 00                	add    %al,(%rax)
  4096ed:	00 00                	add    %al,(%rax)
  4096ef:	00 c0                	add    %al,%al
  4096f1:	09 00                	or     %eax,(%rax)
  4096f3:	00 00                	add    %al,(%rax)
  4096f5:	00 00                	add    %al,(%rax)
  4096f7:	00 c0                	add    %al,%al
  4096f9:	09 00                	or     %eax,(%rax)
  4096fb:	00 00                	add    %al,(%rax)
  4096fd:	00 00                	add    %al,(%rax)
  4096ff:	00 c0                	add    %al,%al
  409701:	09 00                	or     %eax,(%rax)
  409703:	00 00                	add    %al,(%rax)
  409705:	00 00                	add    %al,(%rax)
  409707:	00 c0                	add    %al,%al
  409709:	09 00                	or     %eax,(%rax)
  40970b:	00 00                	add    %al,(%rax)
  40970d:	00 00                	add    %al,(%rax)
  40970f:	00 c0                	add    %al,%al
  409711:	09 00                	or     %eax,(%rax)
  409713:	00 00                	add    %al,(%rax)
  409715:	00 00                	add    %al,(%rax)
  409717:	00 c0                	add    %al,%al
  409719:	09 00                	or     %eax,(%rax)
  40971b:	00 00                	add    %al,(%rax)
  40971d:	00 00                	add    %al,(%rax)
  40971f:	00 c0                	add    %al,%al
  409721:	09 00                	or     %eax,(%rax)
  409723:	00 00                	add    %al,(%rax)
  409725:	00 00                	add    %al,(%rax)
  409727:	00 c0                	add    %al,%al
  409729:	09 00                	or     %eax,(%rax)
  40972b:	00 00                	add    %al,(%rax)
  40972d:	00 00                	add    %al,(%rax)
  40972f:	00 c0                	add    %al,%al
  409731:	09 00                	or     %eax,(%rax)
  409733:	00 00                	add    %al,(%rax)
  409735:	00 00                	add    %al,(%rax)
  409737:	00 c0                	add    %al,%al
  409739:	09 00                	or     %eax,(%rax)
  40973b:	00 00                	add    %al,(%rax)
  40973d:	00 00                	add    %al,(%rax)
  40973f:	00 c0                	add    %al,%al
  409741:	09 00                	or     %eax,(%rax)
  409743:	00 00                	add    %al,(%rax)
  409745:	00 00                	add    %al,(%rax)
  409747:	00 c0                	add    %al,%al
  409749:	09 00                	or     %eax,(%rax)
  40974b:	00 00                	add    %al,(%rax)
  40974d:	00 00                	add    %al,(%rax)
  40974f:	00 c0                	add    %al,%al
  409751:	09 00                	or     %eax,(%rax)
  409753:	00 00                	add    %al,(%rax)
  409755:	00 00                	add    %al,(%rax)
  409757:	00 c0                	add    %al,%al
  409759:	09 00                	or     %eax,(%rax)
  40975b:	00 00                	add    %al,(%rax)
  40975d:	00 00                	add    %al,(%rax)
  40975f:	00 c0                	add    %al,%al
  409761:	09 00                	or     %eax,(%rax)
  409763:	00 00                	add    %al,(%rax)
  409765:	00 00                	add    %al,(%rax)
  409767:	00 c0                	add    %al,%al
  409769:	09 00                	or     %eax,(%rax)
  40976b:	00 00                	add    %al,(%rax)
  40976d:	00 00                	add    %al,(%rax)
  40976f:	00 c0                	add    %al,%al
  409771:	09 00                	or     %eax,(%rax)
  409773:	00 00                	add    %al,(%rax)
  409775:	00 00                	add    %al,(%rax)
  409777:	00 c0                	add    %al,%al
  409779:	09 00                	or     %eax,(%rax)
  40977b:	00 00                	add    %al,(%rax)
  40977d:	00 00                	add    %al,(%rax)
  40977f:	00 c0                	add    %al,%al
  409781:	09 00                	or     %eax,(%rax)
  409783:	00 00                	add    %al,(%rax)
  409785:	00 00                	add    %al,(%rax)
  409787:	00 c0                	add    %al,%al
  409789:	09 00                	or     %eax,(%rax)
  40978b:	00 00                	add    %al,(%rax)
  40978d:	00 00                	add    %al,(%rax)
  40978f:	00 c0                	add    %al,%al
  409791:	09 00                	or     %eax,(%rax)
  409793:	00 00                	add    %al,(%rax)
  409795:	00 00                	add    %al,(%rax)
  409797:	00 c0                	add    %al,%al
  409799:	09 00                	or     %eax,(%rax)
  40979b:	00 00                	add    %al,(%rax)
  40979d:	00 00                	add    %al,(%rax)
  40979f:	00 c0                	add    %al,%al
  4097a1:	09 00                	or     %eax,(%rax)
  4097a3:	00 00                	add    %al,(%rax)
  4097a5:	00 00                	add    %al,(%rax)
  4097a7:	00 c0                	add    %al,%al
  4097a9:	09 00                	or     %eax,(%rax)
  4097ab:	00 00                	add    %al,(%rax)
  4097ad:	00 00                	add    %al,(%rax)
  4097af:	00 c0                	add    %al,%al
  4097b1:	09 00                	or     %eax,(%rax)
  4097b3:	00 00                	add    %al,(%rax)
  4097b5:	00 00                	add    %al,(%rax)
  4097b7:	00 c0                	add    %al,%al
  4097b9:	09 00                	or     %eax,(%rax)
  4097bb:	00 00                	add    %al,(%rax)
  4097bd:	00 00                	add    %al,(%rax)
  4097bf:	00 a0 09 00 00 00    	add    %ah,0x9(%rax)
  4097c5:	00 00                	add    %al,(%rax)
  4097c7:	00 80 09 00 00 00    	add    %al,0x9(%rax)
  4097cd:	00 00                	add    %al,(%rax)
  4097cf:	00 80 09 00 00 00    	add    %al,0x9(%rax)
  4097d5:	00 00                	add    %al,(%rax)
  4097d7:	00 80 09 00 00 00    	add    %al,0x9(%rax)
  4097dd:	00 00                	add    %al,(%rax)
  4097df:	00 80 09 00 00 00    	add    %al,0x9(%rax)
  4097e5:	00 00                	add    %al,(%rax)
  4097e7:	00 80 09 00 00 00    	add    %al,0x9(%rax)
  4097ed:	00 00                	add    %al,(%rax)
  4097ef:	00 80 09 00 00 00    	add    %al,0x9(%rax)
  4097f5:	00 00                	add    %al,(%rax)
  4097f7:	00 80 09 00 00 00    	add    %al,0x9(%rax)
  4097fd:	00 00                	add    %al,(%rax)
  4097ff:	00 80 09 00 00 00    	add    %al,0x9(%rax)
  409805:	00 00                	add    %al,(%rax)
  409807:	00 80 09 00 00 00    	add    %al,0x9(%rax)
  40980d:	00 00                	add    %al,(%rax)
  40980f:	00 80 09 00 00 00    	add    %al,0x9(%rax)
  409815:	00 00                	add    %al,(%rax)
  409817:	00 80 09 00 00 00    	add    %al,0x9(%rax)
  40981d:	00 00                	add    %al,(%rax)
  40981f:	00 80 09 00 00 00    	add    %al,0x9(%rax)
  409825:	00 00                	add    %al,(%rax)
  409827:	00 80 09 00 00 00    	add    %al,0x9(%rax)
  40982d:	00 00                	add    %al,(%rax)
  40982f:	00 80 09 00 00 00    	add    %al,0x9(%rax)
  409835:	00 00                	add    %al,(%rax)
  409837:	00 80 09 00 00 00    	add    %al,0x9(%rax)
  40983d:	00 00                	add    %al,(%rax)
  40983f:	00 80 09 00 00 00    	add    %al,0x9(%rax)
  409845:	00 00                	add    %al,(%rax)
  409847:	00 80 09 00 00 00    	add    %al,0x9(%rax)
  40984d:	00 00                	add    %al,(%rax)
  40984f:	00 80 09 00 00 00    	add    %al,0x9(%rax)
  409855:	00 00                	add    %al,(%rax)
  409857:	00 80 09 00 00 00    	add    %al,0x9(%rax)
  40985d:	00 00                	add    %al,(%rax)
  40985f:	00 80 09 00 00 00    	add    %al,0x9(%rax)
  409865:	00 00                	add    %al,(%rax)
  409867:	00 80 09 00 00 00    	add    %al,0x9(%rax)
  40986d:	00 00                	add    %al,(%rax)
  40986f:	00 80 09 00 00 00    	add    %al,0x9(%rax)
  409875:	00 00                	add    %al,(%rax)
  409877:	00 80 09 00 00 00    	add    %al,0x9(%rax)
  40987d:	00 00                	add    %al,(%rax)
  40987f:	00 80 09 00 00 00    	add    %al,0x9(%rax)
  409885:	00 00                	add    %al,(%rax)
  409887:	00 80 09 00 00 00    	add    %al,0x9(%rax)
  40988d:	00 00                	add    %al,(%rax)
  40988f:	00 80 09 00 00 00    	add    %al,0x9(%rax)
  409895:	00 00                	add    %al,(%rax)
  409897:	00 80 09 00 00 00    	add    %al,0x9(%rax)
  40989d:	00 00                	add    %al,(%rax)
  40989f:	00 80 09 00 00 00    	add    %al,0x9(%rax)
  4098a5:	00 00                	add    %al,(%rax)
  4098a7:	00 80 09 00 00 00    	add    %al,0x9(%rax)
  4098ad:	00 00                	add    %al,(%rax)
  4098af:	00 80 09 00 00 00    	add    %al,0x9(%rax)
  4098b5:	00 00                	add    %al,(%rax)
  4098b7:	00 80 09 00 00 00    	add    %al,0x9(%rax)
  4098bd:	00 00                	add    %al,(%rax)
  4098bf:	00 80 09 00 00 00    	add    %al,0x9(%rax)
  4098c5:	00 00                	add    %al,(%rax)
  4098c7:	00 80 09 00 00 00    	add    %al,0x9(%rax)
  4098cd:	00 00                	add    %al,(%rax)
  4098cf:	00 80 09 00 00 00    	add    %al,0x9(%rax)
  4098d5:	00 00                	add    %al,(%rax)
  4098d7:	00 80 09 00 00 00    	add    %al,0x9(%rax)
  4098dd:	00 00                	add    %al,(%rax)
  4098df:	00 80 09 00 00 00    	add    %al,0x9(%rax)
  4098e5:	00 00                	add    %al,(%rax)
  4098e7:	00 80 09 00 00 00    	add    %al,0x9(%rax)
  4098ed:	00 00                	add    %al,(%rax)
  4098ef:	00 80 09 00 00 00    	add    %al,0x9(%rax)
  4098f5:	00 00                	add    %al,(%rax)
  4098f7:	00 80 09 00 00 00    	add    %al,0x9(%rax)
  4098fd:	00 00                	add    %al,(%rax)
  4098ff:	00 80 09 00 00 00    	add    %al,0x9(%rax)
  409905:	00 00                	add    %al,(%rax)
  409907:	00 80 09 00 00 00    	add    %al,0x9(%rax)
  40990d:	00 00                	add    %al,(%rax)
  40990f:	00 80 09 00 00 00    	add    %al,0x9(%rax)
  409915:	00 00                	add    %al,(%rax)
  409917:	00 80 09 00 00 00    	add    %al,0x9(%rax)
  40991d:	00 00                	add    %al,(%rax)
  40991f:	00 80 09 00 00 00    	add    %al,0x9(%rax)
  409925:	00 00                	add    %al,(%rax)
  409927:	00 80 09 00 00 00    	add    %al,0x9(%rax)
  40992d:	00 00                	add    %al,(%rax)
  40992f:	00 80 09 00 00 00    	add    %al,0x9(%rax)
  409935:	00 00                	add    %al,(%rax)
  409937:	00 80 09 00 00 00    	add    %al,0x9(%rax)
  40993d:	00 00                	add    %al,(%rax)
  40993f:	00 80 09 00 00 00    	add    %al,0x9(%rax)
  409945:	00 00                	add    %al,(%rax)
  409947:	00 80 09 00 00 00    	add    %al,0x9(%rax)
  40994d:	00 00                	add    %al,(%rax)
  40994f:	00 80 09 00 00 00    	add    %al,0x9(%rax)
  409955:	00 00                	add    %al,(%rax)
  409957:	00 80 09 00 00 00    	add    %al,0x9(%rax)
  40995d:	00 00                	add    %al,(%rax)
  40995f:	00 80 09 00 00 00    	add    %al,0x9(%rax)
  409965:	00 00                	add    %al,(%rax)
  409967:	00 80 09 00 00 00    	add    %al,0x9(%rax)
  40996d:	00 00                	add    %al,(%rax)
  40996f:	00 80 09 00 00 00    	add    %al,0x9(%rax)
  409975:	00 00                	add    %al,(%rax)
  409977:	00 80 09 00 00 00    	add    %al,0x9(%rax)
  40997d:	00 00                	add    %al,(%rax)
  40997f:	00 80 09 00 00 00    	add    %al,0x9(%rax)
  409985:	00 00                	add    %al,(%rax)
  409987:	00 80 09 00 00 00    	add    %al,0x9(%rax)
  40998d:	00 00                	add    %al,(%rax)
  40998f:	00 80 09 00 00 00    	add    %al,0x9(%rax)
  409995:	00 00                	add    %al,(%rax)
  409997:	00 80 09 00 00 00    	add    %al,0x9(%rax)
  40999d:	00 00                	add    %al,(%rax)
  40999f:	00 80 09 00 00 00    	add    %al,0x9(%rax)
  4099a5:	00 00                	add    %al,(%rax)
  4099a7:	00 80 09 00 00 00    	add    %al,0x9(%rax)
  4099ad:	00 00                	add    %al,(%rax)
  4099af:	00 80 09 00 00 00    	add    %al,0x9(%rax)
  4099b5:	00 00                	add    %al,(%rax)
  4099b7:	00 80 09 00 00 00    	add    %al,0x9(%rax)
  4099bd:	00 00                	add    %al,(%rax)
  4099bf:	00 60 09             	add    %ah,0x9(%rax)
  4099c2:	00 00                	add    %al,(%rax)
  4099c4:	00 00                	add    %al,(%rax)
  4099c6:	00 00                	add    %al,(%rax)
  4099c8:	60                   	(bad)
  4099c9:	09 00                	or     %eax,(%rax)
  4099cb:	00 00                	add    %al,(%rax)
  4099cd:	00 00                	add    %al,(%rax)
  4099cf:	00 c5                	add    %al,%ch
  4099d1:	f8                   	clc
  4099d2:	77 4c                	ja     409a20 <__intel_memset+0x40>
  4099d4:	89 c0                	mov    %eax,%eax
  4099d6:	c3                   	ret
  4099d7:	66 0f 1f 84 00 00 00 	nopw   0x0(%rax,%rax,1)
  4099de:	00 00 

00000000004099e0 <__intel_memset>:
  4099e0:	f3 0f 1e fa          	endbr64
  4099e4:	48 83 fa 01          	cmp    $0x1,%rdx
  4099e8:	48 89 f8             	mov    %rdi,%rax
  4099eb:	75 04                	jne    4099f1 <__intel_memset+0x11>
  4099ed:	40 88 37             	mov    %sil,(%rdi)
  4099f0:	c3                   	ret
  4099f1:	49 b9 01 01 01 01 01 	movabs $0x101010101010101,%r9
  4099f8:	01 01 01 
  4099fb:	49 89 d0             	mov    %rdx,%r8
  4099fe:	48 0f b6 d6          	movzbq %sil,%rdx
  409a02:	49 0f af d1          	imul   %r9,%rdx
  409a06:	49 83 f8 41          	cmp    $0x41,%r8
  409a0a:	0f 8d 00 04 00 00    	jge    409e10 <__intel_memset+0x430>
  409a10:	4c 8d 1d 19 00 00 00 	lea    0x19(%rip),%r11        # 409a30 <__intel_memset+0x50>
  409a17:	4c 01 c7             	add    %r8,%rdi
  409a1a:	4b 8b 0c c3          	mov    (%r11,%r8,8),%rcx
  409a1e:	4e 8d 1c 19          	lea    (%rcx,%r11,1),%r11
  409a22:	3e 41 ff e3          	notrack jmp *%r11
  409a26:	c2 00 00             	ret    $0x0
  409a29:	0f 1f 80 00 00 00 00 	nopl   0x0(%rax)
  409a30:	f6 ff                	idiv   %bh
  409a32:	ff                   	(bad)
  409a33:	ff                   	(bad)
  409a34:	ff                   	(bad)
  409a35:	ff                   	(bad)
  409a36:	ff                   	(bad)
  409a37:	ff a4 02 00 00 00 00 	jmp    *0x0(%rdx,%rax,1)
  409a3e:	00 00                	add    %al,(%rax)
  409a40:	f5                   	cmc
  409a41:	02 00                	add    (%rax),%al
  409a43:	00 00                	add    %al,(%rax)
  409a45:	00 00                	add    %al,(%rax)
  409a47:	00 20                	add    %ah,(%rax)
  409a49:	03 00                	add    (%rax),%eax
  409a4b:	00 00                	add    %al,(%rax)
  409a4d:	00 00                	add    %al,(%rax)
  409a4f:	00 4e 03             	add    %cl,0x3(%rsi)
  409a52:	00 00                	add    %al,(%rax)
  409a54:	00 00                	add    %al,(%rax)
  409a56:	00 00                	add    %al,(%rax)
  409a58:	78 03                	js     409a5d <__intel_memset+0x7d>
  409a5a:	00 00                	add    %al,(%rax)
  409a5c:	00 00                	add    %al,(%rax)
  409a5e:	00 00                	add    %al,(%rax)
  409a60:	a5                   	movsl  %ds:(%rsi),%es:(%rdi)
  409a61:	03 00                	add    (%rax),%eax
  409a63:	00 00                	add    %al,(%rax)
  409a65:	00 00                	add    %al,(%rax)
  409a67:	00 d3                	add    %dl,%bl
  409a69:	03 00                	add    (%rax),%eax
  409a6b:	00 00                	add    %al,(%rax)
  409a6d:	00 00                	add    %al,(%rax)
  409a6f:	00 ca                	add    %cl,%dl
  409a71:	02 00                	add    (%rax),%al
  409a73:	00 00                	add    %al,(%rax)
  409a75:	00 00                	add    %al,(%rax)
  409a77:	00 a0 02 00 00 00    	add    %ah,0x2(%rax)
  409a7d:	00 00                	add    %al,(%rax)
  409a7f:	00 f1                	add    %dh,%cl
  409a81:	02 00                	add    (%rax),%al
  409a83:	00 00                	add    %al,(%rax)
  409a85:	00 00                	add    %al,(%rax)
  409a87:	00 1c 03             	add    %bl,(%rbx,%rax,1)
  409a8a:	00 00                	add    %al,(%rax)
  409a8c:	00 00                	add    %al,(%rax)
  409a8e:	00 00                	add    %al,(%rax)
  409a90:	4a 03 00             	rex.WX add (%rax),%rax
  409a93:	00 00                	add    %al,(%rax)
  409a95:	00 00                	add    %al,(%rax)
  409a97:	00 74 03 00          	add    %dh,0x0(%rbx,%rax,1)
  409a9b:	00 00                	add    %al,(%rax)
  409a9d:	00 00                	add    %al,(%rax)
  409a9f:	00 a1 03 00 00 00    	add    %ah,0x3(%rcx)
  409aa5:	00 00                	add    %al,(%rax)
  409aa7:	00 cf                	add    %cl,%bh
  409aa9:	03 00                	add    (%rax),%eax
  409aab:	00 00                	add    %al,(%rax)
  409aad:	00 00                	add    %al,(%rax)
  409aaf:	00 c6                	add    %al,%dh
  409ab1:	02 00                	add    (%rax),%al
  409ab3:	00 00                	add    %al,(%rax)
  409ab5:	00 00                	add    %al,(%rax)
  409ab7:	00 9c 02 00 00 00 00 	add    %bl,0x0(%rdx,%rax,1)
  409abe:	00 00                	add    %al,(%rax)
  409ac0:	ed                   	in     (%dx),%eax
  409ac1:	02 00                	add    (%rax),%al
  409ac3:	00 00                	add    %al,(%rax)
  409ac5:	00 00                	add    %al,(%rax)
  409ac7:	00 18                	add    %bl,(%rax)
  409ac9:	03 00                	add    (%rax),%eax
  409acb:	00 00                	add    %al,(%rax)
  409acd:	00 00                	add    %al,(%rax)
  409acf:	00 46 03             	add    %al,0x3(%rsi)
  409ad2:	00 00                	add    %al,(%rax)
  409ad4:	00 00                	add    %al,(%rax)
  409ad6:	00 00                	add    %al,(%rax)
  409ad8:	70 03                	jo     409add <__intel_memset+0xfd>
  409ada:	00 00                	add    %al,(%rax)
  409adc:	00 00                	add    %al,(%rax)
  409ade:	00 00                	add    %al,(%rax)
  409ae0:	9d                   	popf
  409ae1:	03 00                	add    (%rax),%eax
  409ae3:	00 00                	add    %al,(%rax)
  409ae5:	00 00                	add    %al,(%rax)
  409ae7:	00 cb                	add    %cl,%bl
  409ae9:	03 00                	add    (%rax),%eax
  409aeb:	00 00                	add    %al,(%rax)
  409aed:	00 00                	add    %al,(%rax)
  409aef:	00 c2                	add    %al,%dl
  409af1:	02 00                	add    (%rax),%al
  409af3:	00 00                	add    %al,(%rax)
  409af5:	00 00                	add    %al,(%rax)
  409af7:	00 98 02 00 00 00    	add    %bl,0x2(%rax)
  409afd:	00 00                	add    %al,(%rax)
  409aff:	00 e9                	add    %ch,%cl
  409b01:	02 00                	add    (%rax),%al
  409b03:	00 00                	add    %al,(%rax)
  409b05:	00 00                	add    %al,(%rax)
  409b07:	00 14 03             	add    %dl,(%rbx,%rax,1)
  409b0a:	00 00                	add    %al,(%rax)
  409b0c:	00 00                	add    %al,(%rax)
  409b0e:	00 00                	add    %al,(%rax)
  409b10:	42 03 00             	rex.X add (%rax),%eax
  409b13:	00 00                	add    %al,(%rax)
  409b15:	00 00                	add    %al,(%rax)
  409b17:	00 6c 03 00          	add    %ch,0x0(%rbx,%rax,1)
  409b1b:	00 00                	add    %al,(%rax)
  409b1d:	00 00                	add    %al,(%rax)
  409b1f:	00 99 03 00 00 00    	add    %bl,0x3(%rcx)
  409b25:	00 00                	add    %al,(%rax)
  409b27:	00 c7                	add    %al,%bh
  409b29:	03 00                	add    (%rax),%eax
  409b2b:	00 00                	add    %al,(%rax)
  409b2d:	00 00                	add    %al,(%rax)
  409b2f:	00 be 02 00 00 00    	add    %bh,0x2(%rsi)
  409b35:	00 00                	add    %al,(%rax)
  409b37:	00 94 02 00 00 00 00 	add    %dl,0x0(%rdx,%rax,1)
  409b3e:	00 00                	add    %al,(%rax)
  409b40:	e5 02                	in     $0x2,%eax
  409b42:	00 00                	add    %al,(%rax)
  409b44:	00 00                	add    %al,(%rax)
  409b46:	00 00                	add    %al,(%rax)
  409b48:	10 03                	adc    %al,(%rbx)
  409b4a:	00 00                	add    %al,(%rax)
  409b4c:	00 00                	add    %al,(%rax)
  409b4e:	00 00                	add    %al,(%rax)
  409b50:	3e 03 00             	ds add (%rax),%eax
  409b53:	00 00                	add    %al,(%rax)
  409b55:	00 00                	add    %al,(%rax)
  409b57:	00 68 03             	add    %ch,0x3(%rax)
  409b5a:	00 00                	add    %al,(%rax)
  409b5c:	00 00                	add    %al,(%rax)
  409b5e:	00 00                	add    %al,(%rax)
  409b60:	95                   	xchg   %eax,%ebp
  409b61:	03 00                	add    (%rax),%eax
  409b63:	00 00                	add    %al,(%rax)
  409b65:	00 00                	add    %al,(%rax)
  409b67:	00 c3                	add    %al,%bl
  409b69:	03 00                	add    (%rax),%eax
  409b6b:	00 00                	add    %al,(%rax)
  409b6d:	00 00                	add    %al,(%rax)
  409b6f:	00 ba 02 00 00 00    	add    %bh,0x2(%rdx)
  409b75:	00 00                	add    %al,(%rax)
  409b77:	00 90 02 00 00 00    	add    %dl,0x2(%rax)
  409b7d:	00 00                	add    %al,(%rax)
  409b7f:	00 e1                	add    %ah,%cl
  409b81:	02 00                	add    (%rax),%al
  409b83:	00 00                	add    %al,(%rax)
  409b85:	00 00                	add    %al,(%rax)
  409b87:	00 0c 03             	add    %cl,(%rbx,%rax,1)
  409b8a:	00 00                	add    %al,(%rax)
  409b8c:	00 00                	add    %al,(%rax)
  409b8e:	00 00                	add    %al,(%rax)
  409b90:	3a 03                	cmp    (%rbx),%al
  409b92:	00 00                	add    %al,(%rax)
  409b94:	00 00                	add    %al,(%rax)
  409b96:	00 00                	add    %al,(%rax)
  409b98:	64 03 00             	add    %fs:(%rax),%eax
  409b9b:	00 00                	add    %al,(%rax)
  409b9d:	00 00                	add    %al,(%rax)
  409b9f:	00 91 03 00 00 00    	add    %dl,0x3(%rcx)
  409ba5:	00 00                	add    %al,(%rax)
  409ba7:	00 bf 03 00 00 00    	add    %bh,0x3(%rdi)
  409bad:	00 00                	add    %al,(%rax)
  409baf:	00 b6 02 00 00 00    	add    %dh,0x2(%rsi)
  409bb5:	00 00                	add    %al,(%rax)
  409bb7:	00 8c 02 00 00 00 00 	add    %cl,0x0(%rdx,%rax,1)
  409bbe:	00 00                	add    %al,(%rax)
  409bc0:	dd 02                	fldl   (%rdx)
  409bc2:	00 00                	add    %al,(%rax)
  409bc4:	00 00                	add    %al,(%rax)
  409bc6:	00 00                	add    %al,(%rax)
  409bc8:	08 03                	or     %al,(%rbx)
  409bca:	00 00                	add    %al,(%rax)
  409bcc:	00 00                	add    %al,(%rax)
  409bce:	00 00                	add    %al,(%rax)
  409bd0:	36 03 00             	ss add (%rax),%eax
  409bd3:	00 00                	add    %al,(%rax)
  409bd5:	00 00                	add    %al,(%rax)
  409bd7:	00 60 03             	add    %ah,0x3(%rax)
  409bda:	00 00                	add    %al,(%rax)
  409bdc:	00 00                	add    %al,(%rax)
  409bde:	00 00                	add    %al,(%rax)
  409be0:	8d 03                	lea    (%rbx),%eax
  409be2:	00 00                	add    %al,(%rax)
  409be4:	00 00                	add    %al,(%rax)
  409be6:	00 00                	add    %al,(%rax)
  409be8:	bb 03 00 00 00       	mov    $0x3,%ebx
  409bed:	00 00                	add    %al,(%rax)
  409bef:	00 b2 02 00 00 00    	add    %dh,0x2(%rdx)
  409bf5:	00 00                	add    %al,(%rax)
  409bf7:	00 88 02 00 00 00    	add    %cl,0x2(%rax)
  409bfd:	00 00                	add    %al,(%rax)
  409bff:	00 d9                	add    %bl,%cl
  409c01:	02 00                	add    (%rax),%al
  409c03:	00 00                	add    %al,(%rax)
  409c05:	00 00                	add    %al,(%rax)
  409c07:	00 04 03             	add    %al,(%rbx,%rax,1)
  409c0a:	00 00                	add    %al,(%rax)
  409c0c:	00 00                	add    %al,(%rax)
  409c0e:	00 00                	add    %al,(%rax)
  409c10:	32 03                	xor    (%rbx),%al
  409c12:	00 00                	add    %al,(%rax)
  409c14:	00 00                	add    %al,(%rax)
  409c16:	00 00                	add    %al,(%rax)
  409c18:	5c                   	pop    %rsp
  409c19:	03 00                	add    (%rax),%eax
  409c1b:	00 00                	add    %al,(%rax)
  409c1d:	00 00                	add    %al,(%rax)
  409c1f:	00 89 03 00 00 00    	add    %cl,0x3(%rcx)
  409c25:	00 00                	add    %al,(%rax)
  409c27:	00 b7 03 00 00 00    	add    %dh,0x3(%rdi)
  409c2d:	00 00                	add    %al,(%rax)
  409c2f:	00 ae 02 00 00 00    	add    %ch,0x2(%rsi)
  409c35:	00 00                	add    %al,(%rax)
  409c37:	00 84 02 00 00 00 00 	add    %al,0x0(%rdx,%rax,1)
  409c3e:	00 00                	add    %al,(%rax)
  409c40:	d5 02 00 00          	{rex2 0x2} add %al,(%rax)
  409c44:	00 00                	add    %al,(%rax)
  409c46:	00 00                	add    %al,(%rax)
  409c48:	00 03                	add    %al,(%rbx)
  409c4a:	00 00                	add    %al,(%rax)
  409c4c:	00 00                	add    %al,(%rax)
  409c4e:	00 00                	add    %al,(%rax)
  409c50:	2e 03 00             	cs add (%rax),%eax
  409c53:	00 00                	add    %al,(%rax)
  409c55:	00 00                	add    %al,(%rax)
  409c57:	00 58 03             	add    %bl,0x3(%rax)
  409c5a:	00 00                	add    %al,(%rax)
  409c5c:	00 00                	add    %al,(%rax)
  409c5e:	00 00                	add    %al,(%rax)
  409c60:	85 03                	test   %eax,(%rbx)
  409c62:	00 00                	add    %al,(%rax)
  409c64:	00 00                	add    %al,(%rax)
  409c66:	00 00                	add    %al,(%rax)
  409c68:	b3 03                	mov    $0x3,%bl
  409c6a:	00 00                	add    %al,(%rax)
  409c6c:	00 00                	add    %al,(%rax)
  409c6e:	00 00                	add    %al,(%rax)
  409c70:	aa                   	stos   %al,%es:(%rdi)
  409c71:	02 00                	add    (%rax),%al
  409c73:	00 00                	add    %al,(%rax)
  409c75:	00 00                	add    %al,(%rax)
  409c77:	00 80 02 00 00 00    	add    %al,0x2(%rax)
  409c7d:	00 00                	add    %al,(%rax)
  409c7f:	00 d1                	add    %dl,%cl
  409c81:	02 00                	add    (%rax),%al
  409c83:	00 00                	add    %al,(%rax)
  409c85:	00 00                	add    %al,(%rax)
  409c87:	00 fc                	add    %bh,%ah
  409c89:	02 00                	add    (%rax),%al
  409c8b:	00 00                	add    %al,(%rax)
  409c8d:	00 00                	add    %al,(%rax)
  409c8f:	00 2a                	add    %ch,(%rdx)
  409c91:	03 00                	add    (%rax),%eax
  409c93:	00 00                	add    %al,(%rax)
  409c95:	00 00                	add    %al,(%rax)
  409c97:	00 54 03 00          	add    %dl,0x0(%rbx,%rax,1)
  409c9b:	00 00                	add    %al,(%rax)
  409c9d:	00 00                	add    %al,(%rax)
  409c9f:	00 81 03 00 00 00    	add    %al,0x3(%rcx)
  409ca5:	00 00                	add    %al,(%rax)
  409ca7:	00 af 03 00 00 00    	add    %ch,0x3(%rdi)
  409cad:	00 00                	add    %al,(%rax)
  409caf:	00 48 89             	add    %cl,-0x77(%rax)
  409cb2:	57                   	push   %rdi
  409cb3:	b7 48                	mov    $0x48,%bh
  409cb5:	89 57 bf             	mov    %edx,-0x41(%rdi)
  409cb8:	48 89 57 c7          	mov    %rdx,-0x39(%rdi)
  409cbc:	48 89 57 cf          	mov    %rdx,-0x31(%rdi)
  409cc0:	48 89 57 d7          	mov    %rdx,-0x29(%rdi)
  409cc4:	48 89 57 df          	mov    %rdx,-0x21(%rdi)
  409cc8:	48 89 57 e7          	mov    %rdx,-0x19(%rdi)
  409ccc:	48 89 57 ef          	mov    %rdx,-0x11(%rdi)
  409cd0:	48 89 57 f7          	mov    %rdx,-0x9(%rdi)
  409cd4:	88 57 ff             	mov    %dl,-0x1(%rdi)
  409cd7:	c2 00 00             	ret    $0x0
  409cda:	48 89 57 b8          	mov    %rdx,-0x48(%rdi)
  409cde:	48 89 57 c0          	mov    %rdx,-0x40(%rdi)
  409ce2:	48 89 57 c8          	mov    %rdx,-0x38(%rdi)
  409ce6:	48 89 57 d0          	mov    %rdx,-0x30(%rdi)
  409cea:	48 89 57 d8          	mov    %rdx,-0x28(%rdi)
  409cee:	48 89 57 e0          	mov    %rdx,-0x20(%rdi)
  409cf2:	48 89 57 e8          	mov    %rdx,-0x18(%rdi)
  409cf6:	48 89 57 f0          	mov    %rdx,-0x10(%rdi)
  409cfa:	48 89 57 f8          	mov    %rdx,-0x8(%rdi)
  409cfe:	c2 00 00             	ret    $0x0
  409d01:	48 89 57 b6          	mov    %rdx,-0x4a(%rdi)
  409d05:	48 89 57 be          	mov    %rdx,-0x42(%rdi)
  409d09:	48 89 57 c6          	mov    %rdx,-0x3a(%rdi)
  409d0d:	48 89 57 ce          	mov    %rdx,-0x32(%rdi)
  409d11:	48 89 57 d6          	mov    %rdx,-0x2a(%rdi)
  409d15:	48 89 57 de          	mov    %rdx,-0x22(%rdi)
  409d19:	48 89 57 e6          	mov    %rdx,-0x1a(%rdi)
  409d1d:	48 89 57 ee          	mov    %rdx,-0x12(%rdi)
  409d21:	48 89 57 f6          	mov    %rdx,-0xa(%rdi)
  409d25:	66 89 57 fe          	mov    %dx,-0x2(%rdi)
  409d29:	c2 00 00             	ret    $0x0
  409d2c:	48 89 57 b5          	mov    %rdx,-0x4b(%rdi)
  409d30:	48 89 57 bd          	mov    %rdx,-0x43(%rdi)
  409d34:	48 89 57 c5          	mov    %rdx,-0x3b(%rdi)
  409d38:	48 89 57 cd          	mov    %rdx,-0x33(%rdi)
  409d3c:	48 89 57 d5          	mov    %rdx,-0x2b(%rdi)
  409d40:	48 89 57 dd          	mov    %rdx,-0x23(%rdi)
  409d44:	48 89 57 e5          	mov    %rdx,-0x1b(%rdi)
  409d48:	48 89 57 ed          	mov    %rdx,-0x13(%rdi)
  409d4c:	48 89 57 f5          	mov    %rdx,-0xb(%rdi)
  409d50:	66 89 57 fd          	mov    %dx,-0x3(%rdi)
  409d54:	88 57 ff             	mov    %dl,-0x1(%rdi)
  409d57:	c2 00 00             	ret    $0x0
  409d5a:	48 89 57 b4          	mov    %rdx,-0x4c(%rdi)
  409d5e:	48 89 57 bc          	mov    %rdx,-0x44(%rdi)
  409d62:	48 89 57 c4          	mov    %rdx,-0x3c(%rdi)
  409d66:	48 89 57 cc          	mov    %rdx,-0x34(%rdi)
  409d6a:	48 89 57 d4          	mov    %rdx,-0x2c(%rdi)
  409d6e:	48 89 57 dc          	mov    %rdx,-0x24(%rdi)
  409d72:	48 89 57 e4          	mov    %rdx,-0x1c(%rdi)
  409d76:	48 89 57 ec          	mov    %rdx,-0x14(%rdi)
  409d7a:	48 89 57 f4          	mov    %rdx,-0xc(%rdi)
  409d7e:	89 57 fc             	mov    %edx,-0x4(%rdi)
  409d81:	c2 00 00             	ret    $0x0
  409d84:	48 89 57 b3          	mov    %rdx,-0x4d(%rdi)
  409d88:	48 89 57 bb          	mov    %rdx,-0x45(%rdi)
  409d8c:	48 89 57 c3          	mov    %rdx,-0x3d(%rdi)
  409d90:	48 89 57 cb          	mov    %rdx,-0x35(%rdi)
  409d94:	48 89 57 d3          	mov    %rdx,-0x2d(%rdi)
  409d98:	48 89 57 db          	mov    %rdx,-0x25(%rdi)
  409d9c:	48 89 57 e3          	mov    %rdx,-0x1d(%rdi)
  409da0:	48 89 57 eb          	mov    %rdx,-0x15(%rdi)
  409da4:	48 89 57 f3          	mov    %rdx,-0xd(%rdi)
  409da8:	89 57 fb             	mov    %edx,-0x5(%rdi)
  409dab:	88 57 ff             	mov    %dl,-0x1(%rdi)
  409dae:	c2 00 00             	ret    $0x0
  409db1:	48 89 57 b2          	mov    %rdx,-0x4e(%rdi)
  409db5:	48 89 57 ba          	mov    %rdx,-0x46(%rdi)
  409db9:	48 89 57 c2          	mov    %rdx,-0x3e(%rdi)
  409dbd:	48 89 57 ca          	mov    %rdx,-0x36(%rdi)
  409dc1:	48 89 57 d2          	mov    %rdx,-0x2e(%rdi)
  409dc5:	48 89 57 da          	mov    %rdx,-0x26(%rdi)
  409dc9:	48 89 57 e2          	mov    %rdx,-0x1e(%rdi)
  409dcd:	48 89 57 ea          	mov    %rdx,-0x16(%rdi)
  409dd1:	48 89 57 f2          	mov    %rdx,-0xe(%rdi)
  409dd5:	89 57 fa             	mov    %edx,-0x6(%rdi)
  409dd8:	66 89 57 fe          	mov    %dx,-0x2(%rdi)
  409ddc:	c2 00 00             	ret    $0x0
  409ddf:	48 89 57 b1          	mov    %rdx,-0x4f(%rdi)
  409de3:	48 89 57 b9          	mov    %rdx,-0x47(%rdi)
  409de7:	48 89 57 c1          	mov    %rdx,-0x3f(%rdi)
  409deb:	48 89 57 c9          	mov    %rdx,-0x37(%rdi)
  409def:	48 89 57 d1          	mov    %rdx,-0x2f(%rdi)
  409df3:	48 89 57 d9          	mov    %rdx,-0x27(%rdi)
  409df7:	48 89 57 e1          	mov    %rdx,-0x1f(%rdi)
  409dfb:	48 89 57 e9          	mov    %rdx,-0x17(%rdi)
  409dff:	48 89 57 f1          	mov    %rdx,-0xf(%rdi)
  409e03:	89 57 f9             	mov    %edx,-0x7(%rdi)
  409e06:	66 89 57 fd          	mov    %dx,-0x3(%rdi)
  409e0a:	88 57 ff             	mov    %dl,-0x1(%rdi)
  409e0d:	c2 00 00             	ret    $0x0
  409e10:	83 3d 99 7a 00 00 02 	cmpl   $0x2,0x7a99(%rip)        # 4118b0 <__libirc_mem_ops_method>
  409e17:	0f 8c e3 06 00 00    	jl     40a500 <__intel_memset+0xb20>
  409e1d:	66 48 0f 6e c2       	movq   %rdx,%xmm0
  409e22:	4c 8d 1d 37 00 00 00 	lea    0x37(%rip),%r11        # 409e60 <__intel_memset+0x480>
  409e29:	66 0f 6c c0          	punpcklqdq %xmm0,%xmm0
  409e2d:	49 c7 c2 10 00 00 00 	mov    $0x10,%r10
  409e34:	49 89 f9             	mov    %rdi,%r9
  409e37:	49 83 e1 0f          	and    $0xf,%r9
  409e3b:	4d 29 ca             	sub    %r9,%r10
  409e3e:	49 83 e2 0f          	and    $0xf,%r10
  409e42:	4c 01 d7             	add    %r10,%rdi
  409e45:	4d 29 d0             	sub    %r10,%r8
  409e48:	4b 8b 0c d3          	mov    (%r11,%r10,8),%rcx
  409e4c:	4e 8d 1c 19          	lea    (%rcx,%r11,1),%r11
  409e50:	3e 41 ff e3          	notrack jmp *%r11
  409e54:	66 2e 0f 1f 84 00 00 	cs nopw 0x0(%rax,%rax,1)
  409e5b:	00 00 00 
  409e5e:	66 90                	xchg   %ax,%ax
  409e60:	92                   	xchg   %eax,%edx
  409e61:	00 00                	add    %al,(%rax)
  409e63:	00 00                	add    %al,(%rax)
  409e65:	00 00                	add    %al,(%rax)
  409e67:	00 9d 00 00 00 00    	add    %bl,0x0(%rbp)
  409e6d:	00 00                	add    %al,(%rax)
  409e6f:	00 b2 00 00 00 00    	add    %dh,0x0(%rdx)
  409e75:	00 00                	add    %al,(%rax)
  409e77:	00 af 00 00 00 00    	add    %ch,0x0(%rdi)
  409e7d:	00 00                	add    %al,(%rax)
  409e7f:	00 bb 00 00 00 00    	add    %bh,0x0(%rbx)
  409e85:	00 00                	add    %al,(%rax)
  409e87:	00 b8 00 00 00 00    	add    %bh,0x0(%rax)
  409e8d:	00 00                	add    %al,(%rax)
  409e8f:	00 d3                	add    %dl,%bl
  409e91:	00 00                	add    %al,(%rax)
  409e93:	00 00                	add    %al,(%rax)
  409e95:	00 00                	add    %al,(%rax)
  409e97:	00 d0                	add    %dl,%al
  409e99:	00 00                	add    %al,(%rax)
  409e9b:	00 00                	add    %al,(%rax)
  409e9d:	00 00                	add    %al,(%rax)
  409e9f:	00 8e 00 00 00 00    	add    %cl,0x0(%rsi)
  409ea5:	00 00                	add    %al,(%rax)
  409ea7:	00 94 00 00 00 00 00 	add    %dl,0x0(%rax,%rax,1)
  409eae:	00 00                	add    %al,(%rax)
  409eb0:	a5                   	movsl  %ds:(%rsi),%es:(%rdi)
  409eb1:	00 00                	add    %al,(%rax)
  409eb3:	00 00                	add    %al,(%rax)
  409eb5:	00 00                	add    %al,(%rax)
  409eb7:	00 a2 00 00 00 00    	add    %ah,0x0(%rdx)
  409ebd:	00 00                	add    %al,(%rax)
  409ebf:	00 8b 00 00 00 00    	add    %cl,0x0(%rbx)
  409ec5:	00 00                	add    %al,(%rax)
  409ec7:	00 88 00 00 00 00    	add    %cl,0x0(%rax)
  409ecd:	00 00                	add    %al,(%rax)
  409ecf:	00 c3                	add    %al,%bl
  409ed1:	00 00                	add    %al,(%rax)
  409ed3:	00 00                	add    %al,(%rax)
  409ed5:	00 00                	add    %al,(%rax)
  409ed7:	00 c0                	add    %al,%al
  409ed9:	00 00                	add    %al,(%rax)
  409edb:	00 00                	add    %al,(%rax)
  409edd:	00 00                	add    %al,(%rax)
  409edf:	00 92 00 00 00 00    	add    %dl,0x0(%rdx)
  409ee5:	00 00                	add    %al,(%rax)
  409ee7:	00 88 57 f3 89 57    	add    %cl,0x5789f357(%rax)
  409eed:	f4                   	hlt
  409eee:	48 89 57 f8          	mov    %rdx,-0x8(%rdi)
  409ef2:	eb 48                	jmp    409f3c <__intel_memset+0x55c>
  409ef4:	88 57 f7             	mov    %dl,-0x9(%rdi)
  409ef7:	48 89 57 f8          	mov    %rdx,-0x8(%rdi)
  409efb:	eb 3f                	jmp    409f3c <__intel_memset+0x55c>
  409efd:	88 57 ff             	mov    %dl,-0x1(%rdi)
  409f00:	eb 3a                	jmp    409f3c <__intel_memset+0x55c>
  409f02:	88 57 f5             	mov    %dl,-0xb(%rdi)
  409f05:	66 89 57 f6          	mov    %dx,-0xa(%rdi)
  409f09:	48 89 57 f8          	mov    %rdx,-0x8(%rdi)
  409f0d:	eb 2d                	jmp    409f3c <__intel_memset+0x55c>
  409f0f:	88 57 fd             	mov    %dl,-0x3(%rdi)
  409f12:	66 89 57 fe          	mov    %dx,-0x2(%rdi)
  409f16:	eb 24                	jmp    409f3c <__intel_memset+0x55c>
  409f18:	88 57 fb             	mov    %dl,-0x5(%rdi)
  409f1b:	89 57 fc             	mov    %edx,-0x4(%rdi)
  409f1e:	eb 1c                	jmp    409f3c <__intel_memset+0x55c>
  409f20:	88 57 f1             	mov    %dl,-0xf(%rdi)
  409f23:	66 89 57 f2          	mov    %dx,-0xe(%rdi)
  409f27:	89 57 f4             	mov    %edx,-0xc(%rdi)
  409f2a:	48 89 57 f8          	mov    %rdx,-0x8(%rdi)
  409f2e:	eb 0c                	jmp    409f3c <__intel_memset+0x55c>
  409f30:	88 57 f9             	mov    %dl,-0x7(%rdi)
  409f33:	66 89 57 fa          	mov    %dx,-0x6(%rdi)
  409f37:	89 57 fc             	mov    %edx,-0x4(%rdi)
  409f3a:	eb 00                	jmp    409f3c <__intel_memset+0x55c>
  409f3c:	4c 8d 0d 7d 06 00 00 	lea    0x67d(%rip),%r9        # 40a5c0 <__intel_memset+0xbe0>
  409f43:	49 81 f8 b0 00 00 00 	cmp    $0xb0,%r8
  409f4a:	0f 8d d9 04 00 00    	jge    40a429 <__intel_memset+0xa49>
  409f50:	4c 01 c7             	add    %r8,%rdi
  409f53:	4b 8b 0c c1          	mov    (%r9,%r8,8),%rcx
  409f57:	4e 8d 0c 09          	lea    (%rcx,%r9,1),%r9
  409f5b:	3e 41 ff e1          	notrack jmp *%r9
  409f5f:	90                   	nop
  409f60:	66 0f 7f 87 50 ff ff 	movdqa %xmm0,-0xb0(%rdi)
  409f67:	ff 
  409f68:	66 0f 7f 87 60 ff ff 	movdqa %xmm0,-0xa0(%rdi)
  409f6f:	ff 
  409f70:	66 0f 7f 87 70 ff ff 	movdqa %xmm0,-0x90(%rdi)
  409f77:	ff 
  409f78:	66 0f 7f 47 80       	movdqa %xmm0,-0x80(%rdi)
  409f7d:	66 0f 7f 47 90       	movdqa %xmm0,-0x70(%rdi)
  409f82:	66 0f 7f 47 a0       	movdqa %xmm0,-0x60(%rdi)
  409f87:	66 0f 7f 47 b0       	movdqa %xmm0,-0x50(%rdi)
  409f8c:	66 0f 7f 47 c0       	movdqa %xmm0,-0x40(%rdi)
  409f91:	66 0f 7f 47 d0       	movdqa %xmm0,-0x30(%rdi)
  409f96:	66 0f 7f 47 e0       	movdqa %xmm0,-0x20(%rdi)
  409f9b:	66 0f 7f 47 f0       	movdqa %xmm0,-0x10(%rdi)
  409fa0:	c3                   	ret
  409fa1:	66 0f 7f 87 4f ff ff 	movdqa %xmm0,-0xb1(%rdi)
  409fa8:	ff 
  409fa9:	66 0f 7f 87 5f ff ff 	movdqa %xmm0,-0xa1(%rdi)
  409fb0:	ff 
  409fb1:	66 0f 7f 87 6f ff ff 	movdqa %xmm0,-0x91(%rdi)
  409fb8:	ff 
  409fb9:	66 0f 7f 87 7f ff ff 	movdqa %xmm0,-0x81(%rdi)
  409fc0:	ff 
  409fc1:	66 0f 7f 47 8f       	movdqa %xmm0,-0x71(%rdi)
  409fc6:	66 0f 7f 47 9f       	movdqa %xmm0,-0x61(%rdi)
  409fcb:	66 0f 7f 47 af       	movdqa %xmm0,-0x51(%rdi)
  409fd0:	66 0f 7f 47 bf       	movdqa %xmm0,-0x41(%rdi)
  409fd5:	66 0f 7f 47 cf       	movdqa %xmm0,-0x31(%rdi)
  409fda:	66 0f 7f 47 df       	movdqa %xmm0,-0x21(%rdi)
  409fdf:	66 0f 7f 47 ef       	movdqa %xmm0,-0x11(%rdi)
  409fe4:	88 57 ff             	mov    %dl,-0x1(%rdi)
  409fe7:	c3                   	ret
  409fe8:	66 0f 7f 87 4e ff ff 	movdqa %xmm0,-0xb2(%rdi)
  409fef:	ff 
  409ff0:	66 0f 7f 87 5e ff ff 	movdqa %xmm0,-0xa2(%rdi)
  409ff7:	ff 
  409ff8:	66 0f 7f 87 6e ff ff 	movdqa %xmm0,-0x92(%rdi)
  409fff:	ff 
  40a000:	66 0f 7f 87 7e ff ff 	movdqa %xmm0,-0x82(%rdi)
  40a007:	ff 
  40a008:	66 0f 7f 47 8e       	movdqa %xmm0,-0x72(%rdi)
  40a00d:	66 0f 7f 47 9e       	movdqa %xmm0,-0x62(%rdi)
  40a012:	66 0f 7f 47 ae       	movdqa %xmm0,-0x52(%rdi)
  40a017:	66 0f 7f 47 be       	movdqa %xmm0,-0x42(%rdi)
  40a01c:	66 0f 7f 47 ce       	movdqa %xmm0,-0x32(%rdi)
  40a021:	66 0f 7f 47 de       	movdqa %xmm0,-0x22(%rdi)
  40a026:	66 0f 7f 47 ee       	movdqa %xmm0,-0x12(%rdi)
  40a02b:	66 89 57 fe          	mov    %dx,-0x2(%rdi)
  40a02f:	c2 00 00             	ret    $0x0
  40a032:	66 0f 7f 87 4d ff ff 	movdqa %xmm0,-0xb3(%rdi)
  40a039:	ff 
  40a03a:	66 0f 7f 87 5d ff ff 	movdqa %xmm0,-0xa3(%rdi)
  40a041:	ff 
  40a042:	66 0f 7f 87 6d ff ff 	movdqa %xmm0,-0x93(%rdi)
  40a049:	ff 
  40a04a:	66 0f 7f 87 7d ff ff 	movdqa %xmm0,-0x83(%rdi)
  40a051:	ff 
  40a052:	66 0f 7f 47 8d       	movdqa %xmm0,-0x73(%rdi)
  40a057:	66 0f 7f 47 9d       	movdqa %xmm0,-0x63(%rdi)
  40a05c:	66 0f 7f 47 ad       	movdqa %xmm0,-0x53(%rdi)
  40a061:	66 0f 7f 47 bd       	movdqa %xmm0,-0x43(%rdi)
  40a066:	66 0f 7f 47 cd       	movdqa %xmm0,-0x33(%rdi)
  40a06b:	66 0f 7f 47 dd       	movdqa %xmm0,-0x23(%rdi)
  40a070:	66 0f 7f 47 ed       	movdqa %xmm0,-0x13(%rdi)
  40a075:	66 89 57 fd          	mov    %dx,-0x3(%rdi)
  40a079:	88 57 ff             	mov    %dl,-0x1(%rdi)
  40a07c:	c2 00 00             	ret    $0x0
  40a07f:	66 0f 7f 87 4c ff ff 	movdqa %xmm0,-0xb4(%rdi)
  40a086:	ff 
  40a087:	66 0f 7f 87 5c ff ff 	movdqa %xmm0,-0xa4(%rdi)
  40a08e:	ff 
  40a08f:	66 0f 7f 87 6c ff ff 	movdqa %xmm0,-0x94(%rdi)
  40a096:	ff 
  40a097:	66 0f 7f 87 7c ff ff 	movdqa %xmm0,-0x84(%rdi)
  40a09e:	ff 
  40a09f:	66 0f 7f 47 8c       	movdqa %xmm0,-0x74(%rdi)
  40a0a4:	66 0f 7f 47 9c       	movdqa %xmm0,-0x64(%rdi)
  40a0a9:	66 0f 7f 47 ac       	movdqa %xmm0,-0x54(%rdi)
  40a0ae:	66 0f 7f 47 bc       	movdqa %xmm0,-0x44(%rdi)
  40a0b3:	66 0f 7f 47 cc       	movdqa %xmm0,-0x34(%rdi)
  40a0b8:	66 0f 7f 47 dc       	movdqa %xmm0,-0x24(%rdi)
  40a0bd:	66 0f 7f 47 ec       	movdqa %xmm0,-0x14(%rdi)
  40a0c2:	89 57 fc             	mov    %edx,-0x4(%rdi)
  40a0c5:	c2 00 00             	ret    $0x0
  40a0c8:	66 0f 7f 87 4b ff ff 	movdqa %xmm0,-0xb5(%rdi)
  40a0cf:	ff 
  40a0d0:	66 0f 7f 87 5b ff ff 	movdqa %xmm0,-0xa5(%rdi)
  40a0d7:	ff 
  40a0d8:	66 0f 7f 87 6b ff ff 	movdqa %xmm0,-0x95(%rdi)
  40a0df:	ff 
  40a0e0:	66 0f 7f 87 7b ff ff 	movdqa %xmm0,-0x85(%rdi)
  40a0e7:	ff 
  40a0e8:	66 0f 7f 47 8b       	movdqa %xmm0,-0x75(%rdi)
  40a0ed:	66 0f 7f 47 9b       	movdqa %xmm0,-0x65(%rdi)
  40a0f2:	66 0f 7f 47 ab       	movdqa %xmm0,-0x55(%rdi)
  40a0f7:	66 0f 7f 47 bb       	movdqa %xmm0,-0x45(%rdi)
  40a0fc:	66 0f 7f 47 cb       	movdqa %xmm0,-0x35(%rdi)
  40a101:	66 0f 7f 47 db       	movdqa %xmm0,-0x25(%rdi)
  40a106:	66 0f 7f 47 eb       	movdqa %xmm0,-0x15(%rdi)
  40a10b:	89 57 fb             	mov    %edx,-0x5(%rdi)
  40a10e:	88 57 ff             	mov    %dl,-0x1(%rdi)
  40a111:	c2 00 00             	ret    $0x0
  40a114:	66 0f 7f 87 4a ff ff 	movdqa %xmm0,-0xb6(%rdi)
  40a11b:	ff 
  40a11c:	66 0f 7f 87 5a ff ff 	movdqa %xmm0,-0xa6(%rdi)
  40a123:	ff 
  40a124:	66 0f 7f 87 6a ff ff 	movdqa %xmm0,-0x96(%rdi)
  40a12b:	ff 
  40a12c:	66 0f 7f 87 7a ff ff 	movdqa %xmm0,-0x86(%rdi)
  40a133:	ff 
  40a134:	66 0f 7f 47 8a       	movdqa %xmm0,-0x76(%rdi)
  40a139:	66 0f 7f 47 9a       	movdqa %xmm0,-0x66(%rdi)
  40a13e:	66 0f 7f 47 aa       	movdqa %xmm0,-0x56(%rdi)
  40a143:	66 0f 7f 47 ba       	movdqa %xmm0,-0x46(%rdi)
  40a148:	66 0f 7f 47 ca       	movdqa %xmm0,-0x36(%rdi)
  40a14d:	66 0f 7f 47 da       	movdqa %xmm0,-0x26(%rdi)
  40a152:	66 0f 7f 47 ea       	movdqa %xmm0,-0x16(%rdi)
  40a157:	89 57 fa             	mov    %edx,-0x6(%rdi)
  40a15a:	66 89 57 fe          	mov    %dx,-0x2(%rdi)
  40a15e:	c2 00 00             	ret    $0x0
  40a161:	66 0f 7f 87 49 ff ff 	movdqa %xmm0,-0xb7(%rdi)
  40a168:	ff 
  40a169:	66 0f 7f 87 59 ff ff 	movdqa %xmm0,-0xa7(%rdi)
  40a170:	ff 
  40a171:	66 0f 7f 87 69 ff ff 	movdqa %xmm0,-0x97(%rdi)
  40a178:	ff 
  40a179:	66 0f 7f 87 79 ff ff 	movdqa %xmm0,-0x87(%rdi)
  40a180:	ff 
  40a181:	66 0f 7f 47 89       	movdqa %xmm0,-0x77(%rdi)
  40a186:	66 0f 7f 47 99       	movdqa %xmm0,-0x67(%rdi)
  40a18b:	66 0f 7f 47 a9       	movdqa %xmm0,-0x57(%rdi)
  40a190:	66 0f 7f 47 b9       	movdqa %xmm0,-0x47(%rdi)
  40a195:	66 0f 7f 47 c9       	movdqa %xmm0,-0x37(%rdi)
  40a19a:	66 0f 7f 47 d9       	movdqa %xmm0,-0x27(%rdi)
  40a19f:	66 0f 7f 47 e9       	movdqa %xmm0,-0x17(%rdi)
  40a1a4:	89 57 f9             	mov    %edx,-0x7(%rdi)
  40a1a7:	66 89 57 fd          	mov    %dx,-0x3(%rdi)
  40a1ab:	88 57 ff             	mov    %dl,-0x1(%rdi)
  40a1ae:	c2 00 00             	ret    $0x0
  40a1b1:	66 0f 7f 87 48 ff ff 	movdqa %xmm0,-0xb8(%rdi)
  40a1b8:	ff 
  40a1b9:	66 0f 7f 87 58 ff ff 	movdqa %xmm0,-0xa8(%rdi)
  40a1c0:	ff 
  40a1c1:	66 0f 7f 87 68 ff ff 	movdqa %xmm0,-0x98(%rdi)
  40a1c8:	ff 
  40a1c9:	66 0f 7f 87 78 ff ff 	movdqa %xmm0,-0x88(%rdi)
  40a1d0:	ff 
  40a1d1:	66 0f 7f 47 88       	movdqa %xmm0,-0x78(%rdi)
  40a1d6:	66 0f 7f 47 98       	movdqa %xmm0,-0x68(%rdi)
  40a1db:	66 0f 7f 47 a8       	movdqa %xmm0,-0x58(%rdi)
  40a1e0:	66 0f 7f 47 b8       	movdqa %xmm0,-0x48(%rdi)
  40a1e5:	66 0f 7f 47 c8       	movdqa %xmm0,-0x38(%rdi)
  40a1ea:	66 0f 7f 47 d8       	movdqa %xmm0,-0x28(%rdi)
  40a1ef:	66 0f 7f 47 e8       	movdqa %xmm0,-0x18(%rdi)
  40a1f4:	48 89 57 f8          	mov    %rdx,-0x8(%rdi)
  40a1f8:	c2 00 00             	ret    $0x0
  40a1fb:	66 0f 7f 87 47 ff ff 	movdqa %xmm0,-0xb9(%rdi)
  40a202:	ff 
  40a203:	66 0f 7f 87 57 ff ff 	movdqa %xmm0,-0xa9(%rdi)
  40a20a:	ff 
  40a20b:	66 0f 7f 87 67 ff ff 	movdqa %xmm0,-0x99(%rdi)
  40a212:	ff 
  40a213:	66 0f 7f 87 77 ff ff 	movdqa %xmm0,-0x89(%rdi)
  40a21a:	ff 
  40a21b:	66 0f 7f 47 87       	movdqa %xmm0,-0x79(%rdi)
  40a220:	66 0f 7f 47 97       	movdqa %xmm0,-0x69(%rdi)
  40a225:	66 0f 7f 47 a7       	movdqa %xmm0,-0x59(%rdi)
  40a22a:	66 0f 7f 47 b7       	movdqa %xmm0,-0x49(%rdi)
  40a22f:	66 0f 7f 47 c7       	movdqa %xmm0,-0x39(%rdi)
  40a234:	66 0f 7f 47 d7       	movdqa %xmm0,-0x29(%rdi)
  40a239:	66 0f 7f 47 e7       	movdqa %xmm0,-0x19(%rdi)
  40a23e:	48 89 57 f7          	mov    %rdx,-0x9(%rdi)
  40a242:	88 57 ff             	mov    %dl,-0x1(%rdi)
  40a245:	c2 00 00             	ret    $0x0
  40a248:	66 0f 7f 87 46 ff ff 	movdqa %xmm0,-0xba(%rdi)
  40a24f:	ff 
  40a250:	66 0f 7f 87 56 ff ff 	movdqa %xmm0,-0xaa(%rdi)
  40a257:	ff 
  40a258:	66 0f 7f 87 66 ff ff 	movdqa %xmm0,-0x9a(%rdi)
  40a25f:	ff 
  40a260:	66 0f 7f 87 76 ff ff 	movdqa %xmm0,-0x8a(%rdi)
  40a267:	ff 
  40a268:	66 0f 7f 47 86       	movdqa %xmm0,-0x7a(%rdi)
  40a26d:	66 0f 7f 47 96       	movdqa %xmm0,-0x6a(%rdi)
  40a272:	66 0f 7f 47 a6       	movdqa %xmm0,-0x5a(%rdi)
  40a277:	66 0f 7f 47 b6       	movdqa %xmm0,-0x4a(%rdi)
  40a27c:	66 0f 7f 47 c6       	movdqa %xmm0,-0x3a(%rdi)
  40a281:	66 0f 7f 47 d6       	movdqa %xmm0,-0x2a(%rdi)
  40a286:	66 0f 7f 47 e6       	movdqa %xmm0,-0x1a(%rdi)
  40a28b:	48 89 57 f6          	mov    %rdx,-0xa(%rdi)
  40a28f:	66 89 57 fe          	mov    %dx,-0x2(%rdi)
  40a293:	c2 00 00             	ret    $0x0
  40a296:	66 0f 7f 87 45 ff ff 	movdqa %xmm0,-0xbb(%rdi)
  40a29d:	ff 
  40a29e:	66 0f 7f 87 55 ff ff 	movdqa %xmm0,-0xab(%rdi)
  40a2a5:	ff 
  40a2a6:	66 0f 7f 87 65 ff ff 	movdqa %xmm0,-0x9b(%rdi)
  40a2ad:	ff 
  40a2ae:	66 0f 7f 87 75 ff ff 	movdqa %xmm0,-0x8b(%rdi)
  40a2b5:	ff 
  40a2b6:	66 0f 7f 47 85       	movdqa %xmm0,-0x7b(%rdi)
  40a2bb:	66 0f 7f 47 95       	movdqa %xmm0,-0x6b(%rdi)
  40a2c0:	66 0f 7f 47 a5       	movdqa %xmm0,-0x5b(%rdi)
  40a2c5:	66 0f 7f 47 b5       	movdqa %xmm0,-0x4b(%rdi)
  40a2ca:	66 0f 7f 47 c5       	movdqa %xmm0,-0x3b(%rdi)
  40a2cf:	66 0f 7f 47 d5       	movdqa %xmm0,-0x2b(%rdi)
  40a2d4:	66 0f 7f 47 e5       	movdqa %xmm0,-0x1b(%rdi)
  40a2d9:	48 89 57 f5          	mov    %rdx,-0xb(%rdi)
  40a2dd:	66 89 57 fd          	mov    %dx,-0x3(%rdi)
  40a2e1:	88 57 ff             	mov    %dl,-0x1(%rdi)
  40a2e4:	c2 00 00             	ret    $0x0
  40a2e7:	66 0f 7f 87 44 ff ff 	movdqa %xmm0,-0xbc(%rdi)
  40a2ee:	ff 
  40a2ef:	66 0f 7f 87 54 ff ff 	movdqa %xmm0,-0xac(%rdi)
  40a2f6:	ff 
  40a2f7:	66 0f 7f 87 64 ff ff 	movdqa %xmm0,-0x9c(%rdi)
  40a2fe:	ff 
  40a2ff:	66 0f 7f 87 74 ff ff 	movdqa %xmm0,-0x8c(%rdi)
  40a306:	ff 
  40a307:	66 0f 7f 47 84       	movdqa %xmm0,-0x7c(%rdi)
  40a30c:	66 0f 7f 47 94       	movdqa %xmm0,-0x6c(%rdi)
  40a311:	66 0f 7f 47 a4       	movdqa %xmm0,-0x5c(%rdi)
  40a316:	66 0f 7f 47 b4       	movdqa %xmm0,-0x4c(%rdi)
  40a31b:	66 0f 7f 47 c4       	movdqa %xmm0,-0x3c(%rdi)
  40a320:	66 0f 7f 47 d4       	movdqa %xmm0,-0x2c(%rdi)
  40a325:	66 0f 7f 47 e4       	movdqa %xmm0,-0x1c(%rdi)
  40a32a:	48 89 57 f4          	mov    %rdx,-0xc(%rdi)
  40a32e:	89 57 fc             	mov    %edx,-0x4(%rdi)
  40a331:	c2 00 00             	ret    $0x0
  40a334:	66 0f 7f 87 43 ff ff 	movdqa %xmm0,-0xbd(%rdi)
  40a33b:	ff 
  40a33c:	66 0f 7f 87 53 ff ff 	movdqa %xmm0,-0xad(%rdi)
  40a343:	ff 
  40a344:	66 0f 7f 87 63 ff ff 	movdqa %xmm0,-0x9d(%rdi)
  40a34b:	ff 
  40a34c:	66 0f 7f 87 73 ff ff 	movdqa %xmm0,-0x8d(%rdi)
  40a353:	ff 
  40a354:	66 0f 7f 47 83       	movdqa %xmm0,-0x7d(%rdi)
  40a359:	66 0f 7f 47 93       	movdqa %xmm0,-0x6d(%rdi)
  40a35e:	66 0f 7f 47 a3       	movdqa %xmm0,-0x5d(%rdi)
  40a363:	66 0f 7f 47 b3       	movdqa %xmm0,-0x4d(%rdi)
  40a368:	66 0f 7f 47 c3       	movdqa %xmm0,-0x3d(%rdi)
  40a36d:	66 0f 7f 47 d3       	movdqa %xmm0,-0x2d(%rdi)
  40a372:	66 0f 7f 47 e3       	movdqa %xmm0,-0x1d(%rdi)
  40a377:	48 89 57 f3          	mov    %rdx,-0xd(%rdi)
  40a37b:	89 57 fb             	mov    %edx,-0x5(%rdi)
  40a37e:	88 57 ff             	mov    %dl,-0x1(%rdi)
  40a381:	c2 00 00             	ret    $0x0
  40a384:	66 0f 7f 87 42 ff ff 	movdqa %xmm0,-0xbe(%rdi)
  40a38b:	ff 
  40a38c:	66 0f 7f 87 52 ff ff 	movdqa %xmm0,-0xae(%rdi)
  40a393:	ff 
  40a394:	66 0f 7f 87 62 ff ff 	movdqa %xmm0,-0x9e(%rdi)
  40a39b:	ff 
  40a39c:	66 0f 7f 87 72 ff ff 	movdqa %xmm0,-0x8e(%rdi)
  40a3a3:	ff 
  40a3a4:	66 0f 7f 47 82       	movdqa %xmm0,-0x7e(%rdi)
  40a3a9:	66 0f 7f 47 92       	movdqa %xmm0,-0x6e(%rdi)
  40a3ae:	66 0f 7f 47 a2       	movdqa %xmm0,-0x5e(%rdi)
  40a3b3:	66 0f 7f 47 b2       	movdqa %xmm0,-0x4e(%rdi)
  40a3b8:	66 0f 7f 47 c2       	movdqa %xmm0,-0x3e(%rdi)
  40a3bd:	66 0f 7f 47 d2       	movdqa %xmm0,-0x2e(%rdi)
  40a3c2:	66 0f 7f 47 e2       	movdqa %xmm0,-0x1e(%rdi)
  40a3c7:	48 89 57 f2          	mov    %rdx,-0xe(%rdi)
  40a3cb:	89 57 fa             	mov    %edx,-0x6(%rdi)
  40a3ce:	66 89 57 fe          	mov    %dx,-0x2(%rdi)
  40a3d2:	c2 00 00             	ret    $0x0
  40a3d5:	66 0f 7f 87 41 ff ff 	movdqa %xmm0,-0xbf(%rdi)
  40a3dc:	ff 
  40a3dd:	66 0f 7f 87 51 ff ff 	movdqa %xmm0,-0xaf(%rdi)
  40a3e4:	ff 
  40a3e5:	66 0f 7f 87 61 ff ff 	movdqa %xmm0,-0x9f(%rdi)
  40a3ec:	ff 
  40a3ed:	66 0f 7f 87 71 ff ff 	movdqa %xmm0,-0x8f(%rdi)
  40a3f4:	ff 
  40a3f5:	66 0f 7f 47 81       	movdqa %xmm0,-0x7f(%rdi)
  40a3fa:	66 0f 7f 47 91       	movdqa %xmm0,-0x6f(%rdi)
  40a3ff:	66 0f 7f 47 a1       	movdqa %xmm0,-0x5f(%rdi)
  40a404:	66 0f 7f 47 b1       	movdqa %xmm0,-0x4f(%rdi)
  40a409:	66 0f 7f 47 c1       	movdqa %xmm0,-0x3f(%rdi)
  40a40e:	66 0f 7f 47 d1       	movdqa %xmm0,-0x2f(%rdi)
  40a413:	66 0f 7f 47 e1       	movdqa %xmm0,-0x1f(%rdi)
  40a418:	48 89 57 f1          	mov    %rdx,-0xf(%rdi)
  40a41c:	89 57 f9             	mov    %edx,-0x7(%rdi)
  40a41f:	66 89 57 fd          	mov    %dx,-0x3(%rdi)
  40a423:	88 57 ff             	mov    %dl,-0x1(%rdi)
  40a426:	c2 00 00             	ret    $0x0
  40a429:	4c 3b 05 80 6c 00 00 	cmp    0x6c80(%rip),%r8        # 4110b0 <__libirc_largest_cache_size>
  40a430:	7f 5f                	jg     40a491 <__intel_memset+0xab1>
  40a432:	eb 0c                	jmp    40a440 <__intel_memset+0xa60>
  40a434:	66 2e 0f 1f 84 00 00 	cs nopw 0x0(%rax,%rax,1)
  40a43b:	00 00 00 
  40a43e:	66 90                	xchg   %ax,%ax
  40a440:	4d 8d 40 80          	lea    -0x80(%r8),%r8
  40a444:	66 0f 7f 07          	movdqa %xmm0,(%rdi)
  40a448:	66 0f 7f 47 10       	movdqa %xmm0,0x10(%rdi)
  40a44d:	66 0f 7f 47 20       	movdqa %xmm0,0x20(%rdi)
  40a452:	66 0f 7f 47 30       	movdqa %xmm0,0x30(%rdi)
  40a457:	49 81 f8 80 00 00 00 	cmp    $0x80,%r8
  40a45e:	66 0f 7f 47 40       	movdqa %xmm0,0x40(%rdi)
  40a463:	66 0f 7f 47 50       	movdqa %xmm0,0x50(%rdi)
  40a468:	66 0f 7f 47 60       	movdqa %xmm0,0x60(%rdi)
  40a46d:	66 0f 7f 47 70       	movdqa %xmm0,0x70(%rdi)
  40a472:	48 8d bf 80 00 00 00 	lea    0x80(%rdi),%rdi
  40a479:	7d c5                	jge    40a440 <__intel_memset+0xa60>
  40a47b:	4c 8d 1d 3e 01 00 00 	lea    0x13e(%rip),%r11        # 40a5c0 <__intel_memset+0xbe0>
  40a482:	4c 01 c7             	add    %r8,%rdi
  40a485:	4b 8b 0c c3          	mov    (%r11,%r8,8),%rcx
  40a489:	4e 8d 1c 19          	lea    (%rcx,%r11,1),%r11
  40a48d:	3e 41 ff e3          	notrack jmp *%r11
  40a491:	49 83 f9 00          	cmp    $0x0,%r9
  40a495:	74 a9                	je     40a440 <__intel_memset+0xa60>
  40a497:	eb 07                	jmp    40a4a0 <__intel_memset+0xac0>
  40a499:	0f 1f 80 00 00 00 00 	nopl   0x0(%rax)
  40a4a0:	49 81 e8 80 00 00 00 	sub    $0x80,%r8
  40a4a7:	66 0f e7 07          	movntdq %xmm0,(%rdi)
  40a4ab:	66 0f e7 47 10       	movntdq %xmm0,0x10(%rdi)
  40a4b0:	66 0f e7 47 20       	movntdq %xmm0,0x20(%rdi)
  40a4b5:	66 0f e7 47 30       	movntdq %xmm0,0x30(%rdi)
  40a4ba:	66 0f e7 47 40       	movntdq %xmm0,0x40(%rdi)
  40a4bf:	66 0f e7 47 50       	movntdq %xmm0,0x50(%rdi)
  40a4c4:	66 0f e7 47 60       	movntdq %xmm0,0x60(%rdi)
  40a4c9:	66 0f e7 47 70       	movntdq %xmm0,0x70(%rdi)
  40a4ce:	48 81 c7 80 00 00 00 	add    $0x80,%rdi
  40a4d5:	49 81 f8 80 00 00 00 	cmp    $0x80,%r8
  40a4dc:	7d c2                	jge    40a4a0 <__intel_memset+0xac0>
  40a4de:	0f ae f8             	sfence
  40a4e1:	4c 8d 1d d8 00 00 00 	lea    0xd8(%rip),%r11        # 40a5c0 <__intel_memset+0xbe0>
  40a4e8:	4c 01 c7             	add    %r8,%rdi
  40a4eb:	4b 8b 0c c3          	mov    (%r11,%r8,8),%rcx
  40a4ef:	4e 8d 1c 19          	lea    (%rcx,%r11,1),%r11
  40a4f3:	3e 41 ff e3          	notrack jmp *%r11
  40a4f7:	66 0f 1f 84 00 00 00 	nopw   0x0(%rax,%rax,1)
  40a4fe:	00 00 
  40a500:	4c 3b 05 a9 6b 00 00 	cmp    0x6ba9(%rip),%r8        # 4110b0 <__libirc_largest_cache_size>
  40a507:	7f 57                	jg     40a560 <__intel_memset+0xb80>
  40a509:	eb 05                	jmp    40a510 <__intel_memset+0xb30>
  40a50b:	0f 1f 44 00 00       	nopl   0x0(%rax,%rax,1)
  40a510:	48 89 17             	mov    %rdx,(%rdi)
  40a513:	48 89 57 08          	mov    %rdx,0x8(%rdi)
  40a517:	4d 8d 40 c0          	lea    -0x40(%r8),%r8
  40a51b:	48 89 57 10          	mov    %rdx,0x10(%rdi)
  40a51f:	48 89 57 18          	mov    %rdx,0x18(%rdi)
  40a523:	49 83 f8 40          	cmp    $0x40,%r8
  40a527:	48 89 57 20          	mov    %rdx,0x20(%rdi)
  40a52b:	48 89 57 28          	mov    %rdx,0x28(%rdi)
  40a52f:	48 89 57 30          	mov    %rdx,0x30(%rdi)
  40a533:	48 89 57 38          	mov    %rdx,0x38(%rdi)
  40a537:	48 8d 7f 40          	lea    0x40(%rdi),%rdi
  40a53b:	7f d3                	jg     40a510 <__intel_memset+0xb30>
  40a53d:	4c 8d 1d ec f4 ff ff 	lea    -0xb14(%rip),%r11        # 409a30 <__intel_memset+0x50>
  40a544:	4a 8d 3c 07          	lea    (%rdi,%r8,1),%rdi
  40a548:	4b 8b 0c c3          	mov    (%r11,%r8,8),%rcx
  40a54c:	4e 8d 1c 19          	lea    (%rcx,%r11,1),%r11
  40a550:	3e 41 ff e3          	notrack jmp *%r11
  40a554:	66 2e 0f 1f 84 00 00 	cs nopw 0x0(%rax,%rax,1)
  40a55b:	00 00 00 
  40a55e:	66 90                	xchg   %ax,%ax
  40a560:	49 83 f9 00          	cmp    $0x0,%r9
  40a564:	74 aa                	je     40a510 <__intel_memset+0xb30>
  40a566:	eb 08                	jmp    40a570 <__intel_memset+0xb90>
  40a568:	0f 1f 84 00 00 00 00 	nopl   0x0(%rax,%rax,1)
  40a56f:	00 
  40a570:	48 0f c3 17          	movnti %rdx,(%rdi)
  40a574:	48 0f c3 57 08       	movnti %rdx,0x8(%rdi)
  40a579:	4d 8d 40 c0          	lea    -0x40(%r8),%r8
  40a57d:	48 0f c3 57 10       	movnti %rdx,0x10(%rdi)
  40a582:	48 0f c3 57 18       	movnti %rdx,0x18(%rdi)
  40a587:	48 0f c3 57 20       	movnti %rdx,0x20(%rdi)
  40a58c:	49 83 f8 40          	cmp    $0x40,%r8
  40a590:	48 0f c3 57 28       	movnti %rdx,0x28(%rdi)
  40a595:	48 0f c3 57 30       	movnti %rdx,0x30(%rdi)
  40a59a:	48 0f c3 57 38       	movnti %rdx,0x38(%rdi)
  40a59f:	48 8d 7f 40          	lea    0x40(%rdi),%rdi
  40a5a3:	7d cb                	jge    40a570 <__intel_memset+0xb90>
  40a5a5:	4c 8d 1d 84 f4 ff ff 	lea    -0xb7c(%rip),%r11        # 409a30 <__intel_memset+0x50>
  40a5ac:	4a 8d 3c 07          	lea    (%rdi,%r8,1),%rdi
  40a5b0:	4b 8b 0c c3          	mov    (%r11,%r8,8),%rcx
  40a5b4:	4e 8d 1c 19          	lea    (%rcx,%r11,1),%r11
  40a5b8:	3e 41 ff e3          	notrack jmp *%r11
  40a5bc:	0f 1f 40 00          	nopl   0x0(%rax)
  40a5c0:	e0 f9                	loopne 40a5bb <__intel_memset+0xbdb>
  40a5c2:	ff                   	(bad)
  40a5c3:	ff                   	(bad)
  40a5c4:	ff                   	(bad)
  40a5c5:	ff                   	(bad)
  40a5c6:	ff                   	(bad)
  40a5c7:	ff 24 fa             	jmp    *(%rdx,%rdi,8)
  40a5ca:	ff                   	(bad)
  40a5cb:	ff                   	(bad)
  40a5cc:	ff                   	(bad)
  40a5cd:	ff                   	(bad)
  40a5ce:	ff                   	(bad)
  40a5cf:	ff 6b fa             	ljmp   *-0x6(%rbx)
  40a5d2:	ff                   	(bad)
  40a5d3:	ff                   	(bad)
  40a5d4:	ff                   	(bad)
  40a5d5:	ff                   	(bad)
  40a5d6:	ff                   	(bad)
  40a5d7:	ff b5 fa ff ff ff    	push   -0x6(%rbp)
  40a5dd:	ff                   	(bad)
  40a5de:	ff                   	(bad)
  40a5df:	ff 02                	incl   (%rdx)
  40a5e1:	fb                   	sti
  40a5e2:	ff                   	(bad)
  40a5e3:	ff                   	(bad)
  40a5e4:	ff                   	(bad)
  40a5e5:	ff                   	(bad)
  40a5e6:	ff                   	(bad)
  40a5e7:	ff 4b fb             	decl   -0x5(%rbx)
  40a5ea:	ff                   	(bad)
  40a5eb:	ff                   	(bad)
  40a5ec:	ff                   	(bad)
  40a5ed:	ff                   	(bad)
  40a5ee:	ff                   	(bad)
  40a5ef:	ff 97 fb ff ff ff    	call   *-0x5(%rdi)
  40a5f5:	ff                   	(bad)
  40a5f6:	ff                   	(bad)
  40a5f7:	ff e4                	jmp    *%rsp
  40a5f9:	fb                   	sti
  40a5fa:	ff                   	(bad)
  40a5fb:	ff                   	(bad)
  40a5fc:	ff                   	(bad)
  40a5fd:	ff                   	(bad)
  40a5fe:	ff                   	(bad)
  40a5ff:	ff 34 fc             	push   (%rsp,%rdi,8)
  40a602:	ff                   	(bad)
  40a603:	ff                   	(bad)
  40a604:	ff                   	(bad)
  40a605:	ff                   	(bad)
  40a606:	ff                   	(bad)
  40a607:	ff                   	(bad)
  40a608:	7e fc                	jle    40a606 <__intel_memset+0xc26>
  40a60a:	ff                   	(bad)
  40a60b:	ff                   	(bad)
  40a60c:	ff                   	(bad)
  40a60d:	ff                   	(bad)
  40a60e:	ff                   	(bad)
  40a60f:	ff cb                	dec    %ebx
  40a611:	fc                   	cld
  40a612:	ff                   	(bad)
  40a613:	ff                   	(bad)
  40a614:	ff                   	(bad)
  40a615:	ff                   	(bad)
  40a616:	ff                   	(bad)
  40a617:	ff 19                	lcall  *(%rcx)
  40a619:	fd                   	std
  40a61a:	ff                   	(bad)
  40a61b:	ff                   	(bad)
  40a61c:	ff                   	(bad)
  40a61d:	ff                   	(bad)
  40a61e:	ff                   	(bad)
  40a61f:	ff 6a fd             	ljmp   *-0x3(%rdx)
  40a622:	ff                   	(bad)
  40a623:	ff                   	(bad)
  40a624:	ff                   	(bad)
  40a625:	ff                   	(bad)
  40a626:	ff                   	(bad)
  40a627:	ff b7 fd ff ff ff    	push   -0x3(%rdi)
  40a62d:	ff                   	(bad)
  40a62e:	ff                   	(bad)
  40a62f:	ff 07                	incl   (%rdi)
  40a631:	fe                   	(bad)
  40a632:	ff                   	(bad)
  40a633:	ff                   	(bad)
  40a634:	ff                   	(bad)
  40a635:	ff                   	(bad)
  40a636:	ff                   	(bad)
  40a637:	ff 58 fe             	lcall  *-0x2(%rax)
  40a63a:	ff                   	(bad)
  40a63b:	ff                   	(bad)
  40a63c:	ff                   	(bad)
  40a63d:	ff                   	(bad)
  40a63e:	ff                   	(bad)
  40a63f:	ff                   	lcall  (bad)
  40a640:	db f9                	(bad)
  40a642:	ff                   	(bad)
  40a643:	ff                   	(bad)
  40a644:	ff                   	(bad)
  40a645:	ff                   	(bad)
  40a646:	ff                   	(bad)
  40a647:	ff 1f                	lcall  *(%rdi)
  40a649:	fa                   	cli
  40a64a:	ff                   	(bad)
  40a64b:	ff                   	(bad)
  40a64c:	ff                   	(bad)
  40a64d:	ff                   	(bad)
  40a64e:	ff                   	(bad)
  40a64f:	ff 66 fa             	jmp    *-0x6(%rsi)
  40a652:	ff                   	(bad)
  40a653:	ff                   	(bad)
  40a654:	ff                   	(bad)
  40a655:	ff                   	(bad)
  40a656:	ff                   	(bad)
  40a657:	ff b0 fa ff ff ff    	push   -0x6(%rax)
  40a65d:	ff                   	(bad)
  40a65e:	ff                   	(bad)
  40a65f:	ff                   	(bad)
  40a660:	fd                   	std
  40a661:	fa                   	cli
  40a662:	ff                   	(bad)
  40a663:	ff                   	(bad)
  40a664:	ff                   	(bad)
  40a665:	ff                   	(bad)
  40a666:	ff                   	(bad)
  40a667:	ff 46 fb             	incl   -0x5(%rsi)
  40a66a:	ff                   	(bad)
  40a66b:	ff                   	(bad)
  40a66c:	ff                   	(bad)
  40a66d:	ff                   	(bad)
  40a66e:	ff                   	(bad)
  40a66f:	ff 92 fb ff ff ff    	call   *-0x5(%rdx)
  40a675:	ff                   	(bad)
  40a676:	ff                   	(bad)
  40a677:	ff                   	lcall  (bad)
  40a678:	df fb                	(bad)
  40a67a:	ff                   	(bad)
  40a67b:	ff                   	(bad)
  40a67c:	ff                   	(bad)
  40a67d:	ff                   	(bad)
  40a67e:	ff                   	(bad)
  40a67f:	ff 2f                	ljmp   *(%rdi)
  40a681:	fc                   	cld
  40a682:	ff                   	(bad)
  40a683:	ff                   	(bad)
  40a684:	ff                   	(bad)
  40a685:	ff                   	(bad)
  40a686:	ff                   	(bad)
  40a687:	ff                   	(bad)
  40a688:	79 fc                	jns    40a686 <__intel_memset+0xca6>
  40a68a:	ff                   	(bad)
  40a68b:	ff                   	(bad)
  40a68c:	ff                   	(bad)
  40a68d:	ff                   	(bad)
  40a68e:	ff                   	(bad)
  40a68f:	ff c6                	inc    %esi
  40a691:	fc                   	cld
  40a692:	ff                   	(bad)
  40a693:	ff                   	(bad)
  40a694:	ff                   	(bad)
  40a695:	ff                   	(bad)
  40a696:	ff                   	(bad)
  40a697:	ff 14 fd ff ff ff ff 	call   *-0x1(,%rdi,8)
  40a69e:	ff                   	(bad)
  40a69f:	ff 65 fd             	jmp    *-0x3(%rbp)
  40a6a2:	ff                   	(bad)
  40a6a3:	ff                   	(bad)
  40a6a4:	ff                   	(bad)
  40a6a5:	ff                   	(bad)
  40a6a6:	ff                   	(bad)
  40a6a7:	ff b2 fd ff ff ff    	push   -0x3(%rdx)
  40a6ad:	ff                   	(bad)
  40a6ae:	ff                   	(bad)
  40a6af:	ff 02                	incl   (%rdx)
  40a6b1:	fe                   	(bad)
  40a6b2:	ff                   	(bad)
  40a6b3:	ff                   	(bad)
  40a6b4:	ff                   	(bad)
  40a6b5:	ff                   	(bad)
  40a6b6:	ff                   	(bad)
  40a6b7:	ff 53 fe             	call   *-0x2(%rbx)
  40a6ba:	ff                   	(bad)
  40a6bb:	ff                   	(bad)
  40a6bc:	ff                   	(bad)
  40a6bd:	ff                   	(bad)
  40a6be:	ff                   	(bad)
  40a6bf:	ff d6                	call   *%rsi
  40a6c1:	f9                   	stc
  40a6c2:	ff                   	(bad)
  40a6c3:	ff                   	(bad)
  40a6c4:	ff                   	(bad)
  40a6c5:	ff                   	(bad)
  40a6c6:	ff                   	(bad)
  40a6c7:	ff 1a                	lcall  *(%rdx)
  40a6c9:	fa                   	cli
  40a6ca:	ff                   	(bad)
  40a6cb:	ff                   	(bad)
  40a6cc:	ff                   	(bad)
  40a6cd:	ff                   	(bad)
  40a6ce:	ff                   	(bad)
  40a6cf:	ff 61 fa             	jmp    *-0x6(%rcx)
  40a6d2:	ff                   	(bad)
  40a6d3:	ff                   	(bad)
  40a6d4:	ff                   	(bad)
  40a6d5:	ff                   	(bad)
  40a6d6:	ff                   	(bad)
  40a6d7:	ff ab fa ff ff ff    	ljmp   *-0x6(%rbx)
  40a6dd:	ff                   	(bad)
  40a6de:	ff                   	(bad)
  40a6df:	ff                   	(bad)
  40a6e0:	f8                   	clc
  40a6e1:	fa                   	cli
  40a6e2:	ff                   	(bad)
  40a6e3:	ff                   	(bad)
  40a6e4:	ff                   	(bad)
  40a6e5:	ff                   	(bad)
  40a6e6:	ff                   	(bad)
  40a6e7:	ff 41 fb             	incl   -0x5(%rcx)
  40a6ea:	ff                   	(bad)
  40a6eb:	ff                   	(bad)
  40a6ec:	ff                   	(bad)
  40a6ed:	ff                   	(bad)
  40a6ee:	ff                   	(bad)
  40a6ef:	ff 8d fb ff ff ff    	decl   -0x5(%rbp)
  40a6f5:	ff                   	(bad)
  40a6f6:	ff                   	(bad)
  40a6f7:	ff                   	lcall  (bad)
  40a6f8:	da fb                	(bad)
  40a6fa:	ff                   	(bad)
  40a6fb:	ff                   	(bad)
  40a6fc:	ff                   	(bad)
  40a6fd:	ff                   	(bad)
  40a6fe:	ff                   	(bad)
  40a6ff:	ff 2a                	ljmp   *(%rdx)
  40a701:	fc                   	cld
  40a702:	ff                   	(bad)
  40a703:	ff                   	(bad)
  40a704:	ff                   	(bad)
  40a705:	ff                   	(bad)
  40a706:	ff                   	(bad)
  40a707:	ff 74 fc ff          	push   -0x1(%rsp,%rdi,8)
  40a70b:	ff                   	(bad)
  40a70c:	ff                   	(bad)
  40a70d:	ff                   	(bad)
  40a70e:	ff                   	(bad)
  40a70f:	ff c1                	inc    %ecx
  40a711:	fc                   	cld
  40a712:	ff                   	(bad)
  40a713:	ff                   	(bad)
  40a714:	ff                   	(bad)
  40a715:	ff                   	(bad)
  40a716:	ff                   	(bad)
  40a717:	ff 0f                	decl   (%rdi)
  40a719:	fd                   	std
  40a71a:	ff                   	(bad)
  40a71b:	ff                   	(bad)
  40a71c:	ff                   	(bad)
  40a71d:	ff                   	(bad)
  40a71e:	ff                   	(bad)
  40a71f:	ff 60 fd             	jmp    *-0x3(%rax)
  40a722:	ff                   	(bad)
  40a723:	ff                   	(bad)
  40a724:	ff                   	(bad)
  40a725:	ff                   	(bad)
  40a726:	ff                   	(bad)
  40a727:	ff ad fd ff ff ff    	ljmp   *-0x3(%rbp)
  40a72d:	ff                   	(bad)
  40a72e:	ff                   	(bad)
  40a72f:	ff                   	(bad)
  40a730:	fd                   	std
  40a731:	fd                   	std
  40a732:	ff                   	(bad)
  40a733:	ff                   	(bad)
  40a734:	ff                   	(bad)
  40a735:	ff                   	(bad)
  40a736:	ff                   	(bad)
  40a737:	ff 4e fe             	decl   -0x2(%rsi)
  40a73a:	ff                   	(bad)
  40a73b:	ff                   	(bad)
  40a73c:	ff                   	(bad)
  40a73d:	ff                   	(bad)
  40a73e:	ff                   	(bad)
  40a73f:	ff d1                	call   *%rcx
  40a741:	f9                   	stc
  40a742:	ff                   	(bad)
  40a743:	ff                   	(bad)
  40a744:	ff                   	(bad)
  40a745:	ff                   	(bad)
  40a746:	ff                   	(bad)
  40a747:	ff 15 fa ff ff ff    	call   *-0x6(%rip)        # 40a747 <__intel_memset+0xd67>
  40a74d:	ff                   	(bad)
  40a74e:	ff                   	(bad)
  40a74f:	ff 5c fa ff          	lcall  *-0x1(%rdx,%rdi,8)
  40a753:	ff                   	(bad)
  40a754:	ff                   	(bad)
  40a755:	ff                   	(bad)
  40a756:	ff                   	(bad)
  40a757:	ff a6 fa ff ff ff    	jmp    *-0x6(%rsi)
  40a75d:	ff                   	(bad)
  40a75e:	ff                   	(bad)
  40a75f:	ff f3                	push   %rbx
  40a761:	fa                   	cli
  40a762:	ff                   	(bad)
  40a763:	ff                   	(bad)
  40a764:	ff                   	(bad)
  40a765:	ff                   	(bad)
  40a766:	ff                   	(bad)
  40a767:	ff                   	(bad)
  40a768:	3c fb                	cmp    $0xfb,%al
  40a76a:	ff                   	(bad)
  40a76b:	ff                   	(bad)
  40a76c:	ff                   	(bad)
  40a76d:	ff                   	(bad)
  40a76e:	ff                   	(bad)
  40a76f:	ff 88 fb ff ff ff    	decl   -0x5(%rax)
  40a775:	ff                   	(bad)
  40a776:	ff                   	(bad)
  40a777:	ff d5                	call   *%rbp
  40a779:	fb                   	sti
  40a77a:	ff                   	(bad)
  40a77b:	ff                   	(bad)
  40a77c:	ff                   	(bad)
  40a77d:	ff                   	(bad)
  40a77e:	ff                   	(bad)
  40a77f:	ff 25 fc ff ff ff    	jmp    *-0x4(%rip)        # 40a781 <__intel_memset+0xda1>
  40a785:	ff                   	(bad)
  40a786:	ff                   	(bad)
  40a787:	ff 6f fc             	ljmp   *-0x4(%rdi)
  40a78a:	ff                   	(bad)
  40a78b:	ff                   	(bad)
  40a78c:	ff                   	(bad)
  40a78d:	ff                   	(bad)
  40a78e:	ff                   	(bad)
  40a78f:	ff                   	(bad)
  40a790:	bc fc ff ff ff       	mov    $0xfffffffc,%esp
  40a795:	ff                   	(bad)
  40a796:	ff                   	(bad)
  40a797:	ff 0a                	decl   (%rdx)
  40a799:	fd                   	std
  40a79a:	ff                   	(bad)
  40a79b:	ff                   	(bad)
  40a79c:	ff                   	(bad)
  40a79d:	ff                   	(bad)
  40a79e:	ff                   	(bad)
  40a79f:	ff 5b fd             	lcall  *-0x3(%rbx)
  40a7a2:	ff                   	(bad)
  40a7a3:	ff                   	(bad)
  40a7a4:	ff                   	(bad)
  40a7a5:	ff                   	(bad)
  40a7a6:	ff                   	(bad)
  40a7a7:	ff a8 fd ff ff ff    	ljmp   *-0x3(%rax)
  40a7ad:	ff                   	(bad)
  40a7ae:	ff                   	(bad)
  40a7af:	ff                   	(bad)
  40a7b0:	f8                   	clc
  40a7b1:	fd                   	std
  40a7b2:	ff                   	(bad)
  40a7b3:	ff                   	(bad)
  40a7b4:	ff                   	(bad)
  40a7b5:	ff                   	(bad)
  40a7b6:	ff                   	(bad)
  40a7b7:	ff 49 fe             	decl   -0x2(%rcx)
  40a7ba:	ff                   	(bad)
  40a7bb:	ff                   	(bad)
  40a7bc:	ff                   	(bad)
  40a7bd:	ff                   	(bad)
  40a7be:	ff                   	(bad)
  40a7bf:	ff cc                	dec    %esp
  40a7c1:	f9                   	stc
  40a7c2:	ff                   	(bad)
  40a7c3:	ff                   	(bad)
  40a7c4:	ff                   	(bad)
  40a7c5:	ff                   	(bad)
  40a7c6:	ff                   	(bad)
  40a7c7:	ff 10                	call   *(%rax)
  40a7c9:	fa                   	cli
  40a7ca:	ff                   	(bad)
  40a7cb:	ff                   	(bad)
  40a7cc:	ff                   	(bad)
  40a7cd:	ff                   	(bad)
  40a7ce:	ff                   	(bad)
  40a7cf:	ff 57 fa             	call   *-0x6(%rdi)
  40a7d2:	ff                   	(bad)
  40a7d3:	ff                   	(bad)
  40a7d4:	ff                   	(bad)
  40a7d5:	ff                   	(bad)
  40a7d6:	ff                   	(bad)
  40a7d7:	ff a1 fa ff ff ff    	jmp    *-0x6(%rcx)
  40a7dd:	ff                   	(bad)
  40a7de:	ff                   	(bad)
  40a7df:	ff                   	ljmp   (bad)
  40a7e0:	ee                   	out    %al,(%dx)
  40a7e1:	fa                   	cli
  40a7e2:	ff                   	(bad)
  40a7e3:	ff                   	(bad)
  40a7e4:	ff                   	(bad)
  40a7e5:	ff                   	(bad)
  40a7e6:	ff                   	(bad)
  40a7e7:	ff 37                	push   (%rdi)
  40a7e9:	fb                   	sti
  40a7ea:	ff                   	(bad)
  40a7eb:	ff                   	(bad)
  40a7ec:	ff                   	(bad)
  40a7ed:	ff                   	(bad)
  40a7ee:	ff                   	(bad)
  40a7ef:	ff 83 fb ff ff ff    	incl   -0x5(%rbx)
  40a7f5:	ff                   	(bad)
  40a7f6:	ff                   	(bad)
  40a7f7:	ff d0                	call   *%rax
  40a7f9:	fb                   	sti
  40a7fa:	ff                   	(bad)
  40a7fb:	ff                   	(bad)
  40a7fc:	ff                   	(bad)
  40a7fd:	ff                   	(bad)
  40a7fe:	ff                   	(bad)
  40a7ff:	ff 20                	jmp    *(%rax)
  40a801:	fc                   	cld
  40a802:	ff                   	(bad)
  40a803:	ff                   	(bad)
  40a804:	ff                   	(bad)
  40a805:	ff                   	(bad)
  40a806:	ff                   	(bad)
  40a807:	ff 6a fc             	ljmp   *-0x4(%rdx)
  40a80a:	ff                   	(bad)
  40a80b:	ff                   	(bad)
  40a80c:	ff                   	(bad)
  40a80d:	ff                   	(bad)
  40a80e:	ff                   	(bad)
  40a80f:	ff b7 fc ff ff ff    	push   -0x4(%rdi)
  40a815:	ff                   	(bad)
  40a816:	ff                   	(bad)
  40a817:	ff 05 fd ff ff ff    	incl   -0x3(%rip)        # 40a81a <__intel_memset+0xe3a>
  40a81d:	ff                   	(bad)
  40a81e:	ff                   	(bad)
  40a81f:	ff 56 fd             	call   *-0x3(%rsi)
  40a822:	ff                   	(bad)
  40a823:	ff                   	(bad)
  40a824:	ff                   	(bad)
  40a825:	ff                   	(bad)
  40a826:	ff                   	(bad)
  40a827:	ff a3 fd ff ff ff    	jmp    *-0x3(%rbx)
  40a82d:	ff                   	(bad)
  40a82e:	ff                   	(bad)
  40a82f:	ff f3                	push   %rbx
  40a831:	fd                   	std
  40a832:	ff                   	(bad)
  40a833:	ff                   	(bad)
  40a834:	ff                   	(bad)
  40a835:	ff                   	(bad)
  40a836:	ff                   	(bad)
  40a837:	ff 44 fe ff          	incl   -0x1(%rsi,%rdi,8)
  40a83b:	ff                   	(bad)
  40a83c:	ff                   	(bad)
  40a83d:	ff                   	(bad)
  40a83e:	ff                   	(bad)
  40a83f:	ff c7                	inc    %edi
  40a841:	f9                   	stc
  40a842:	ff                   	(bad)
  40a843:	ff                   	(bad)
  40a844:	ff                   	(bad)
  40a845:	ff                   	(bad)
  40a846:	ff                   	(bad)
  40a847:	ff 0b                	decl   (%rbx)
  40a849:	fa                   	cli
  40a84a:	ff                   	(bad)
  40a84b:	ff                   	(bad)
  40a84c:	ff                   	(bad)
  40a84d:	ff                   	(bad)
  40a84e:	ff                   	(bad)
  40a84f:	ff 52 fa             	call   *-0x6(%rdx)
  40a852:	ff                   	(bad)
  40a853:	ff                   	(bad)
  40a854:	ff                   	(bad)
  40a855:	ff                   	(bad)
  40a856:	ff                   	(bad)
  40a857:	ff 9c fa ff ff ff ff 	lcall  *-0x1(%rdx,%rdi,8)
  40a85e:	ff                   	(bad)
  40a85f:	ff                   	ljmp   (bad)
  40a860:	e9 fa ff ff ff       	jmp    40a85f <__intel_memset+0xe7f>
  40a865:	ff                   	(bad)
  40a866:	ff                   	(bad)
  40a867:	ff 32                	push   (%rdx)
  40a869:	fb                   	sti
  40a86a:	ff                   	(bad)
  40a86b:	ff                   	(bad)
  40a86c:	ff                   	(bad)
  40a86d:	ff                   	(bad)
  40a86e:	ff                   	(bad)
  40a86f:	ff                   	(bad)
  40a870:	7e fb                	jle    40a86d <__intel_memset+0xe8d>
  40a872:	ff                   	(bad)
  40a873:	ff                   	(bad)
  40a874:	ff                   	(bad)
  40a875:	ff                   	(bad)
  40a876:	ff                   	(bad)
  40a877:	ff cb                	dec    %ebx
  40a879:	fb                   	sti
  40a87a:	ff                   	(bad)
  40a87b:	ff                   	(bad)
  40a87c:	ff                   	(bad)
  40a87d:	ff                   	(bad)
  40a87e:	ff                   	(bad)
  40a87f:	ff 1b                	lcall  *(%rbx)
  40a881:	fc                   	cld
  40a882:	ff                   	(bad)
  40a883:	ff                   	(bad)
  40a884:	ff                   	(bad)
  40a885:	ff                   	(bad)
  40a886:	ff                   	(bad)
  40a887:	ff 65 fc             	jmp    *-0x4(%rbp)
  40a88a:	ff                   	(bad)
  40a88b:	ff                   	(bad)
  40a88c:	ff                   	(bad)
  40a88d:	ff                   	(bad)
  40a88e:	ff                   	(bad)
  40a88f:	ff b2 fc ff ff ff    	push   -0x4(%rdx)
  40a895:	ff                   	(bad)
  40a896:	ff                   	(bad)
  40a897:	ff 00                	incl   (%rax)
  40a899:	fd                   	std
  40a89a:	ff                   	(bad)
  40a89b:	ff                   	(bad)
  40a89c:	ff                   	(bad)
  40a89d:	ff                   	(bad)
  40a89e:	ff                   	(bad)
  40a89f:	ff 51 fd             	call   *-0x3(%rcx)
  40a8a2:	ff                   	(bad)
  40a8a3:	ff                   	(bad)
  40a8a4:	ff                   	(bad)
  40a8a5:	ff                   	(bad)
  40a8a6:	ff                   	(bad)
  40a8a7:	ff 9e fd ff ff ff    	lcall  *-0x3(%rsi)
  40a8ad:	ff                   	(bad)
  40a8ae:	ff                   	(bad)
  40a8af:	ff                   	ljmp   (bad)
  40a8b0:	ee                   	out    %al,(%dx)
  40a8b1:	fd                   	std
  40a8b2:	ff                   	(bad)
  40a8b3:	ff                   	(bad)
  40a8b4:	ff                   	(bad)
  40a8b5:	ff                   	(bad)
  40a8b6:	ff                   	(bad)
  40a8b7:	ff                   	(bad)
  40a8b8:	3f                   	(bad)
  40a8b9:	fe                   	(bad)
  40a8ba:	ff                   	(bad)
  40a8bb:	ff                   	(bad)
  40a8bc:	ff                   	(bad)
  40a8bd:	ff                   	(bad)
  40a8be:	ff                   	(bad)
  40a8bf:	ff c2                	inc    %edx
  40a8c1:	f9                   	stc
  40a8c2:	ff                   	(bad)
  40a8c3:	ff                   	(bad)
  40a8c4:	ff                   	(bad)
  40a8c5:	ff                   	(bad)
  40a8c6:	ff                   	(bad)
  40a8c7:	ff 06                	incl   (%rsi)
  40a8c9:	fa                   	cli
  40a8ca:	ff                   	(bad)
  40a8cb:	ff                   	(bad)
  40a8cc:	ff                   	(bad)
  40a8cd:	ff                   	(bad)
  40a8ce:	ff                   	(bad)
  40a8cf:	ff 4d fa             	decl   -0x6(%rbp)
  40a8d2:	ff                   	(bad)
  40a8d3:	ff                   	(bad)
  40a8d4:	ff                   	(bad)
  40a8d5:	ff                   	(bad)
  40a8d6:	ff                   	(bad)
  40a8d7:	ff 97 fa ff ff ff    	call   *-0x6(%rdi)
  40a8dd:	ff                   	(bad)
  40a8de:	ff                   	(bad)
  40a8df:	ff e4                	jmp    *%rsp
  40a8e1:	fa                   	cli
  40a8e2:	ff                   	(bad)
  40a8e3:	ff                   	(bad)
  40a8e4:	ff                   	(bad)
  40a8e5:	ff                   	(bad)
  40a8e6:	ff                   	(bad)
  40a8e7:	ff 2d fb ff ff ff    	ljmp   *-0x5(%rip)        # 40a8e8 <__intel_memset+0xf08>
  40a8ed:	ff                   	(bad)
  40a8ee:	ff                   	(bad)
  40a8ef:	ff                   	(bad)
  40a8f0:	79 fb                	jns    40a8ed <__intel_memset+0xf0d>
  40a8f2:	ff                   	(bad)
  40a8f3:	ff                   	(bad)
  40a8f4:	ff                   	(bad)
  40a8f5:	ff                   	(bad)
  40a8f6:	ff                   	(bad)
  40a8f7:	ff c6                	inc    %esi
  40a8f9:	fb                   	sti
  40a8fa:	ff                   	(bad)
  40a8fb:	ff                   	(bad)
  40a8fc:	ff                   	(bad)
  40a8fd:	ff                   	(bad)
  40a8fe:	ff                   	(bad)
  40a8ff:	ff 16                	call   *(%rsi)
  40a901:	fc                   	cld
  40a902:	ff                   	(bad)
  40a903:	ff                   	(bad)
  40a904:	ff                   	(bad)
  40a905:	ff                   	(bad)
  40a906:	ff                   	(bad)
  40a907:	ff 60 fc             	jmp    *-0x4(%rax)
  40a90a:	ff                   	(bad)
  40a90b:	ff                   	(bad)
  40a90c:	ff                   	(bad)
  40a90d:	ff                   	(bad)
  40a90e:	ff                   	(bad)
  40a90f:	ff ad fc ff ff ff    	ljmp   *-0x4(%rbp)
  40a915:	ff                   	(bad)
  40a916:	ff                   	(bad)
  40a917:	ff                   	(bad)
  40a918:	fb                   	sti
  40a919:	fc                   	cld
  40a91a:	ff                   	(bad)
  40a91b:	ff                   	(bad)
  40a91c:	ff                   	(bad)
  40a91d:	ff                   	(bad)
  40a91e:	ff                   	(bad)
  40a91f:	ff 4c fd ff          	decl   -0x1(%rbp,%rdi,8)
  40a923:	ff                   	(bad)
  40a924:	ff                   	(bad)
  40a925:	ff                   	(bad)
  40a926:	ff                   	(bad)
  40a927:	ff 99 fd ff ff ff    	lcall  *-0x3(%rcx)
  40a92d:	ff                   	(bad)
  40a92e:	ff                   	(bad)
  40a92f:	ff                   	ljmp   (bad)
  40a930:	e9 fd ff ff ff       	jmp    40a932 <__intel_memset+0xf52>
  40a935:	ff                   	(bad)
  40a936:	ff                   	(bad)
  40a937:	ff                   	(bad)
  40a938:	3a fe                	cmp    %dh,%bh
  40a93a:	ff                   	(bad)
  40a93b:	ff                   	(bad)
  40a93c:	ff                   	(bad)
  40a93d:	ff                   	(bad)
  40a93e:	ff                   	(bad)
  40a93f:	ff                   	(bad)
  40a940:	bd f9 ff ff ff       	mov    $0xfffffff9,%ebp
  40a945:	ff                   	(bad)
  40a946:	ff                   	(bad)
  40a947:	ff 01                	incl   (%rcx)
  40a949:	fa                   	cli
  40a94a:	ff                   	(bad)
  40a94b:	ff                   	(bad)
  40a94c:	ff                   	(bad)
  40a94d:	ff                   	(bad)
  40a94e:	ff                   	(bad)
  40a94f:	ff 48 fa             	decl   -0x6(%rax)
  40a952:	ff                   	(bad)
  40a953:	ff                   	(bad)
  40a954:	ff                   	(bad)
  40a955:	ff                   	(bad)
  40a956:	ff                   	(bad)
  40a957:	ff 92 fa ff ff ff    	call   *-0x6(%rdx)
  40a95d:	ff                   	(bad)
  40a95e:	ff                   	(bad)
  40a95f:	ff                   	lcall  (bad)
  40a960:	df fa                	(bad)
  40a962:	ff                   	(bad)
  40a963:	ff                   	(bad)
  40a964:	ff                   	(bad)
  40a965:	ff                   	(bad)
  40a966:	ff                   	(bad)
  40a967:	ff 28                	ljmp   *(%rax)
  40a969:	fb                   	sti
  40a96a:	ff                   	(bad)
  40a96b:	ff                   	(bad)
  40a96c:	ff                   	(bad)
  40a96d:	ff                   	(bad)
  40a96e:	ff                   	(bad)
  40a96f:	ff 74 fb ff          	push   -0x1(%rbx,%rdi,8)
  40a973:	ff                   	(bad)
  40a974:	ff                   	(bad)
  40a975:	ff                   	(bad)
  40a976:	ff                   	(bad)
  40a977:	ff c1                	inc    %ecx
  40a979:	fb                   	sti
  40a97a:	ff                   	(bad)
  40a97b:	ff                   	(bad)
  40a97c:	ff                   	(bad)
  40a97d:	ff                   	(bad)
  40a97e:	ff                   	(bad)
  40a97f:	ff 11                	call   *(%rcx)
  40a981:	fc                   	cld
  40a982:	ff                   	(bad)
  40a983:	ff                   	(bad)
  40a984:	ff                   	(bad)
  40a985:	ff                   	(bad)
  40a986:	ff                   	(bad)
  40a987:	ff 5b fc             	lcall  *-0x4(%rbx)
  40a98a:	ff                   	(bad)
  40a98b:	ff                   	(bad)
  40a98c:	ff                   	(bad)
  40a98d:	ff                   	(bad)
  40a98e:	ff                   	(bad)
  40a98f:	ff a8 fc ff ff ff    	ljmp   *-0x4(%rax)
  40a995:	ff                   	(bad)
  40a996:	ff                   	(bad)
  40a997:	ff f6                	push   %rsi
  40a999:	fc                   	cld
  40a99a:	ff                   	(bad)
  40a99b:	ff                   	(bad)
  40a99c:	ff                   	(bad)
  40a99d:	ff                   	(bad)
  40a99e:	ff                   	(bad)
  40a99f:	ff 47 fd             	incl   -0x3(%rdi)
  40a9a2:	ff                   	(bad)
  40a9a3:	ff                   	(bad)
  40a9a4:	ff                   	(bad)
  40a9a5:	ff                   	(bad)
  40a9a6:	ff                   	(bad)
  40a9a7:	ff 94 fd ff ff ff ff 	call   *-0x1(%rbp,%rdi,8)
  40a9ae:	ff                   	(bad)
  40a9af:	ff e4                	jmp    *%rsp
  40a9b1:	fd                   	std
  40a9b2:	ff                   	(bad)
  40a9b3:	ff                   	(bad)
  40a9b4:	ff                   	(bad)
  40a9b5:	ff                   	(bad)
  40a9b6:	ff                   	(bad)
  40a9b7:	ff 35 fe ff ff ff    	push   -0x2(%rip)        # 40a9bb <__intel_memset+0xfdb>
  40a9bd:	ff                   	(bad)
  40a9be:	ff                   	(bad)
  40a9bf:	ff                   	(bad)
  40a9c0:	b8 f9 ff ff ff       	mov    $0xfffffff9,%eax
  40a9c5:	ff                   	(bad)
  40a9c6:	ff                   	(bad)
  40a9c7:	ff                   	(bad)
  40a9c8:	f9                   	stc
  40a9c9:	f9                   	stc
  40a9ca:	ff                   	(bad)
  40a9cb:	ff                   	(bad)
  40a9cc:	ff                   	(bad)
  40a9cd:	ff                   	(bad)
  40a9ce:	ff                   	(bad)
  40a9cf:	ff 40 fa             	incl   -0x6(%rax)
  40a9d2:	ff                   	(bad)
  40a9d3:	ff                   	(bad)
  40a9d4:	ff                   	(bad)
  40a9d5:	ff                   	(bad)
  40a9d6:	ff                   	(bad)
  40a9d7:	ff 8a fa ff ff ff    	decl   -0x6(%rdx)
  40a9dd:	ff                   	(bad)
  40a9de:	ff                   	(bad)
  40a9df:	ff d7                	call   *%rdi
  40a9e1:	fa                   	cli
  40a9e2:	ff                   	(bad)
  40a9e3:	ff                   	(bad)
  40a9e4:	ff                   	(bad)
  40a9e5:	ff                   	(bad)
  40a9e6:	ff                   	(bad)
  40a9e7:	ff 20                	jmp    *(%rax)
  40a9e9:	fb                   	sti
  40a9ea:	ff                   	(bad)
  40a9eb:	ff                   	(bad)
  40a9ec:	ff                   	(bad)
  40a9ed:	ff                   	(bad)
  40a9ee:	ff                   	(bad)
  40a9ef:	ff 6c fb ff          	ljmp   *-0x1(%rbx,%rdi,8)
  40a9f3:	ff                   	(bad)
  40a9f4:	ff                   	(bad)
  40a9f5:	ff                   	(bad)
  40a9f6:	ff                   	(bad)
  40a9f7:	ff                   	(bad)
  40a9f8:	b9 fb ff ff ff       	mov    $0xfffffffb,%ecx
  40a9fd:	ff                   	(bad)
  40a9fe:	ff                   	(bad)
  40a9ff:	ff 09                	decl   (%rcx)
  40aa01:	fc                   	cld
  40aa02:	ff                   	(bad)
  40aa03:	ff                   	(bad)
  40aa04:	ff                   	(bad)
  40aa05:	ff                   	(bad)
  40aa06:	ff                   	(bad)
  40aa07:	ff 53 fc             	call   *-0x4(%rbx)
  40aa0a:	ff                   	(bad)
  40aa0b:	ff                   	(bad)
  40aa0c:	ff                   	(bad)
  40aa0d:	ff                   	(bad)
  40aa0e:	ff                   	(bad)
  40aa0f:	ff a0 fc ff ff ff    	jmp    *-0x4(%rax)
  40aa15:	ff                   	(bad)
  40aa16:	ff                   	(bad)
  40aa17:	ff                   	ljmp   (bad)
  40aa18:	ee                   	out    %al,(%dx)
  40aa19:	fc                   	cld
  40aa1a:	ff                   	(bad)
  40aa1b:	ff                   	(bad)
  40aa1c:	ff                   	(bad)
  40aa1d:	ff                   	(bad)
  40aa1e:	ff                   	(bad)
  40aa1f:	ff                   	(bad)
  40aa20:	3f                   	(bad)
  40aa21:	fd                   	std
  40aa22:	ff                   	(bad)
  40aa23:	ff                   	(bad)
  40aa24:	ff                   	(bad)
  40aa25:	ff                   	(bad)
  40aa26:	ff                   	(bad)
  40aa27:	ff 8c fd ff ff ff ff 	decl   -0x1(%rbp,%rdi,8)
  40aa2e:	ff                   	(bad)
  40aa2f:	ff                   	lcall  (bad)
  40aa30:	dc fd                	fdivr  %st,%st(5)
  40aa32:	ff                   	(bad)
  40aa33:	ff                   	(bad)
  40aa34:	ff                   	(bad)
  40aa35:	ff                   	(bad)
  40aa36:	ff                   	(bad)
  40aa37:	ff 2d fe ff ff ff    	ljmp   *-0x2(%rip)        # 40aa3b <__intel_memset+0x105b>
  40aa3d:	ff                   	(bad)
  40aa3e:	ff                   	(bad)
  40aa3f:	ff b0 f9 ff ff ff    	push   -0x7(%rax)
  40aa45:	ff                   	(bad)
  40aa46:	ff                   	(bad)
  40aa47:	ff f1                	push   %rcx
  40aa49:	f9                   	stc
  40aa4a:	ff                   	(bad)
  40aa4b:	ff                   	(bad)
  40aa4c:	ff                   	(bad)
  40aa4d:	ff                   	(bad)
  40aa4e:	ff                   	(bad)
  40aa4f:	ff                   	(bad)
  40aa50:	38 fa                	cmp    %bh,%dl
  40aa52:	ff                   	(bad)
  40aa53:	ff                   	(bad)
  40aa54:	ff                   	(bad)
  40aa55:	ff                   	(bad)
  40aa56:	ff                   	(bad)
  40aa57:	ff 82 fa ff ff ff    	incl   -0x6(%rdx)
  40aa5d:	ff                   	(bad)
  40aa5e:	ff                   	(bad)
  40aa5f:	ff cf                	dec    %edi
  40aa61:	fa                   	cli
  40aa62:	ff                   	(bad)
  40aa63:	ff                   	(bad)
  40aa64:	ff                   	(bad)
  40aa65:	ff                   	(bad)
  40aa66:	ff                   	(bad)
  40aa67:	ff 18                	lcall  *(%rax)
  40aa69:	fb                   	sti
  40aa6a:	ff                   	(bad)
  40aa6b:	ff                   	(bad)
  40aa6c:	ff                   	(bad)
  40aa6d:	ff                   	(bad)
  40aa6e:	ff                   	(bad)
  40aa6f:	ff 64 fb ff          	jmp    *-0x1(%rbx,%rdi,8)
  40aa73:	ff                   	(bad)
  40aa74:	ff                   	(bad)
  40aa75:	ff                   	(bad)
  40aa76:	ff                   	(bad)
  40aa77:	ff b1 fb ff ff ff    	push   -0x5(%rcx)
  40aa7d:	ff                   	(bad)
  40aa7e:	ff                   	(bad)
  40aa7f:	ff 01                	incl   (%rcx)
  40aa81:	fc                   	cld
  40aa82:	ff                   	(bad)
  40aa83:	ff                   	(bad)
  40aa84:	ff                   	(bad)
  40aa85:	ff                   	(bad)
  40aa86:	ff                   	(bad)
  40aa87:	ff 4b fc             	decl   -0x4(%rbx)
  40aa8a:	ff                   	(bad)
  40aa8b:	ff                   	(bad)
  40aa8c:	ff                   	(bad)
  40aa8d:	ff                   	(bad)
  40aa8e:	ff                   	(bad)
  40aa8f:	ff 98 fc ff ff ff    	lcall  *-0x4(%rax)
  40aa95:	ff                   	(bad)
  40aa96:	ff                   	(bad)
  40aa97:	ff e6                	jmp    *%rsi
  40aa99:	fc                   	cld
  40aa9a:	ff                   	(bad)
  40aa9b:	ff                   	(bad)
  40aa9c:	ff                   	(bad)
  40aa9d:	ff                   	(bad)
  40aa9e:	ff                   	(bad)
  40aa9f:	ff 37                	push   (%rdi)
  40aaa1:	fd                   	std
  40aaa2:	ff                   	(bad)
  40aaa3:	ff                   	(bad)
  40aaa4:	ff                   	(bad)
  40aaa5:	ff                   	(bad)
  40aaa6:	ff                   	(bad)
  40aaa7:	ff 84 fd ff ff ff ff 	incl   -0x1(%rbp,%rdi,8)
  40aaae:	ff                   	(bad)
  40aaaf:	ff d4                	call   *%rsp
  40aab1:	fd                   	std
  40aab2:	ff                   	(bad)
  40aab3:	ff                   	(bad)
  40aab4:	ff                   	(bad)
  40aab5:	ff                   	(bad)
  40aab6:	ff                   	(bad)
  40aab7:	ff 25 fe ff ff ff    	jmp    *-0x2(%rip)        # 40aabb <__intel_memset+0x10db>
  40aabd:	ff                   	(bad)
  40aabe:	ff                   	(bad)
  40aabf:	ff a8 f9 ff ff ff    	ljmp   *-0x7(%rax)
  40aac5:	ff                   	(bad)
  40aac6:	ff                   	(bad)
  40aac7:	ff                   	ljmp   (bad)
  40aac8:	e9 f9 ff ff ff       	jmp    40aac6 <__intel_memset+0x10e6>
  40aacd:	ff                   	(bad)
  40aace:	ff                   	(bad)
  40aacf:	ff 30                	push   (%rax)
  40aad1:	fa                   	cli
  40aad2:	ff                   	(bad)
  40aad3:	ff                   	(bad)
  40aad4:	ff                   	(bad)
  40aad5:	ff                   	(bad)
  40aad6:	ff                   	(bad)
  40aad7:	ff                   	(bad)
  40aad8:	7a fa                	jp     40aad4 <__intel_memset+0x10f4>
  40aada:	ff                   	(bad)
  40aadb:	ff                   	(bad)
  40aadc:	ff                   	(bad)
  40aadd:	ff                   	(bad)
  40aade:	ff                   	(bad)
  40aadf:	ff c7                	inc    %edi
  40aae1:	fa                   	cli
  40aae2:	ff                   	(bad)
  40aae3:	ff                   	(bad)
  40aae4:	ff                   	(bad)
  40aae5:	ff                   	(bad)
  40aae6:	ff                   	(bad)
  40aae7:	ff 10                	call   *(%rax)
  40aae9:	fb                   	sti
  40aaea:	ff                   	(bad)
  40aaeb:	ff                   	(bad)
  40aaec:	ff                   	(bad)
  40aaed:	ff                   	(bad)
  40aaee:	ff                   	(bad)
  40aaef:	ff 5c fb ff          	lcall  *-0x1(%rbx,%rdi,8)
  40aaf3:	ff                   	(bad)
  40aaf4:	ff                   	(bad)
  40aaf5:	ff                   	(bad)
  40aaf6:	ff                   	(bad)
  40aaf7:	ff a9 fb ff ff ff    	ljmp   *-0x5(%rcx)
  40aafd:	ff                   	(bad)
  40aafe:	ff                   	(bad)
  40aaff:	ff                   	(bad)
  40ab00:	f9                   	stc
  40ab01:	fb                   	sti
  40ab02:	ff                   	(bad)
  40ab03:	ff                   	(bad)
  40ab04:	ff                   	(bad)
  40ab05:	ff                   	(bad)
  40ab06:	ff                   	(bad)
  40ab07:	ff 43 fc             	incl   -0x4(%rbx)
  40ab0a:	ff                   	(bad)
  40ab0b:	ff                   	(bad)
  40ab0c:	ff                   	(bad)
  40ab0d:	ff                   	(bad)
  40ab0e:	ff                   	(bad)
  40ab0f:	ff 90 fc ff ff ff    	call   *-0x4(%rax)
  40ab15:	ff                   	(bad)
  40ab16:	ff                   	(bad)
  40ab17:	ff                   	lcall  (bad)
  40ab18:	de fc                	fdivrp %st,%st(4)
  40ab1a:	ff                   	(bad)
  40ab1b:	ff                   	(bad)
  40ab1c:	ff                   	(bad)
  40ab1d:	ff                   	(bad)
  40ab1e:	ff                   	(bad)
  40ab1f:	ff 2f                	ljmp   *(%rdi)
  40ab21:	fd                   	std
  40ab22:	ff                   	(bad)
  40ab23:	ff                   	(bad)
  40ab24:	ff                   	(bad)
  40ab25:	ff                   	(bad)
  40ab26:	ff                   	(bad)
  40ab27:	ff                   	(bad)
  40ab28:	7c fd                	jl     40ab27 <__intel_memset+0x1147>
  40ab2a:	ff                   	(bad)
  40ab2b:	ff                   	(bad)
  40ab2c:	ff                   	(bad)
  40ab2d:	ff                   	(bad)
  40ab2e:	ff                   	(bad)
  40ab2f:	ff cc                	dec    %esp
  40ab31:	fd                   	std
  40ab32:	ff                   	(bad)
  40ab33:	ff                   	(bad)
  40ab34:	ff                   	(bad)
  40ab35:	ff                   	(bad)
  40ab36:	ff                   	(bad)
  40ab37:	ff 1d fe ff ff ff    	lcall  *-0x2(%rip)        # 40ab3b <__intel_memset+0x115b>
  40ab3d:	ff                   	(bad)
  40ab3e:	ff                   	(bad)
  40ab3f:	ff a0 f9 ff ff ff    	jmp    *-0x7(%rax)
  40ab45:	ff                   	(bad)
  40ab46:	ff                   	(bad)
  40ab47:	ff e1                	jmp    *%rcx
  40ab49:	f9                   	stc
  40ab4a:	ff                   	(bad)
  40ab4b:	ff                   	(bad)
  40ab4c:	ff                   	(bad)
  40ab4d:	ff                   	(bad)
  40ab4e:	ff                   	(bad)
  40ab4f:	ff 28                	ljmp   *(%rax)
  40ab51:	fa                   	cli
  40ab52:	ff                   	(bad)
  40ab53:	ff                   	(bad)
  40ab54:	ff                   	(bad)
  40ab55:	ff                   	(bad)
  40ab56:	ff                   	(bad)
  40ab57:	ff 72 fa             	push   -0x6(%rdx)
  40ab5a:	ff                   	(bad)
  40ab5b:	ff                   	(bad)
  40ab5c:	ff                   	(bad)
  40ab5d:	ff                   	(bad)
  40ab5e:	ff                   	(bad)
  40ab5f:	ff                   	(bad)
  40ab60:	bf fa ff ff ff       	mov    $0xfffffffa,%edi
  40ab65:	ff                   	(bad)
  40ab66:	ff                   	(bad)
  40ab67:	ff 08                	decl   (%rax)
  40ab69:	fb                   	sti
  40ab6a:	ff                   	(bad)
  40ab6b:	ff                   	(bad)
  40ab6c:	ff                   	(bad)
  40ab6d:	ff                   	(bad)
  40ab6e:	ff                   	(bad)
  40ab6f:	ff 54 fb ff          	call   *-0x1(%rbx,%rdi,8)
  40ab73:	ff                   	(bad)
  40ab74:	ff                   	(bad)
  40ab75:	ff                   	(bad)
  40ab76:	ff                   	(bad)
  40ab77:	ff a1 fb ff ff ff    	jmp    *-0x5(%rcx)
  40ab7d:	ff                   	(bad)
  40ab7e:	ff                   	(bad)
  40ab7f:	ff f1                	push   %rcx
  40ab81:	fb                   	sti
  40ab82:	ff                   	(bad)
  40ab83:	ff                   	(bad)
  40ab84:	ff                   	(bad)
  40ab85:	ff                   	(bad)
  40ab86:	ff                   	(bad)
  40ab87:	ff                   	(bad)
  40ab88:	3b fc                	cmp    %esp,%edi
  40ab8a:	ff                   	(bad)
  40ab8b:	ff                   	(bad)
  40ab8c:	ff                   	(bad)
  40ab8d:	ff                   	(bad)
  40ab8e:	ff                   	(bad)
  40ab8f:	ff 88 fc ff ff ff    	decl   -0x4(%rax)
  40ab95:	ff                   	(bad)
  40ab96:	ff                   	(bad)
  40ab97:	ff d6                	call   *%rsi
  40ab99:	fc                   	cld
  40ab9a:	ff                   	(bad)
  40ab9b:	ff                   	(bad)
  40ab9c:	ff                   	(bad)
  40ab9d:	ff                   	(bad)
  40ab9e:	ff                   	(bad)
  40ab9f:	ff 27                	jmp    *(%rdi)
  40aba1:	fd                   	std
  40aba2:	ff                   	(bad)
  40aba3:	ff                   	(bad)
  40aba4:	ff                   	(bad)
  40aba5:	ff                   	(bad)
  40aba6:	ff                   	(bad)
  40aba7:	ff 74 fd ff          	push   -0x1(%rbp,%rdi,8)
  40abab:	ff                   	(bad)
  40abac:	ff                   	(bad)
  40abad:	ff                   	(bad)
  40abae:	ff                   	(bad)
  40abaf:	ff c4                	inc    %esp
  40abb1:	fd                   	std
  40abb2:	ff                   	(bad)
  40abb3:	ff                   	(bad)
  40abb4:	ff                   	(bad)
  40abb5:	ff                   	(bad)
  40abb6:	ff                   	(bad)
  40abb7:	ff 15 fe ff ff ff    	call   *-0x2(%rip)        # 40abbb <__intel_memset+0x11db>
  40abbd:	ff                   	(bad)
  40abbe:	ff                   	(bad)
  40abbf:	ff                   	.byte 0xff

000000000040abc0 <__intel_cpu_features_init>:
  40abc0:	f3 0f 1e fa          	endbr64
  40abc4:	50                   	push   %rax
  40abc5:	b8 01 00 00 00       	mov    $0x1,%eax
  40abca:	e8 11 00 00 00       	call   40abe0 <__intel_cpu_features_init_body>
  40abcf:	48 83 c4 08          	add    $0x8,%rsp
  40abd3:	c3                   	ret
  40abd4:	66 2e 0f 1f 84 00 00 	cs nopw 0x0(%rax,%rax,1)
  40abdb:	00 00 00 
  40abde:	66 90                	xchg   %ax,%ax

000000000040abe0 <__intel_cpu_features_init_body>:
  40abe0:	41 53                	push   %r11
  40abe2:	41 52                	push   %r10
  40abe4:	41 51                	push   %r9
  40abe6:	41 50                	push   %r8
  40abe8:	52                   	push   %rdx
  40abe9:	51                   	push   %rcx
  40abea:	56                   	push   %rsi
  40abeb:	57                   	push   %rdi
  40abec:	55                   	push   %rbp
  40abed:	53                   	push   %rbx
  40abee:	48 81 ec 38 01 00 00 	sub    $0x138,%rsp
  40abf5:	44 0f 29 bc 24 20 01 	movaps %xmm15,0x120(%rsp)
  40abfc:	00 00 
  40abfe:	44 0f 29 b4 24 10 01 	movaps %xmm14,0x110(%rsp)
  40ac05:	00 00 
  40ac07:	44 0f 29 ac 24 00 01 	movaps %xmm13,0x100(%rsp)
  40ac0e:	00 00 
  40ac10:	44 0f 29 a4 24 f0 00 	movaps %xmm12,0xf0(%rsp)
  40ac17:	00 00 
  40ac19:	44 0f 29 9c 24 e0 00 	movaps %xmm11,0xe0(%rsp)
  40ac20:	00 00 
  40ac22:	44 0f 29 94 24 d0 00 	movaps %xmm10,0xd0(%rsp)
  40ac29:	00 00 
  40ac2b:	44 0f 29 8c 24 c0 00 	movaps %xmm9,0xc0(%rsp)
  40ac32:	00 00 
  40ac34:	44 0f 29 84 24 b0 00 	movaps %xmm8,0xb0(%rsp)
  40ac3b:	00 00 
  40ac3d:	0f 29 bc 24 a0 00 00 	movaps %xmm7,0xa0(%rsp)
  40ac44:	00 
  40ac45:	0f 29 b4 24 90 00 00 	movaps %xmm6,0x90(%rsp)
  40ac4c:	00 
  40ac4d:	0f 29 ac 24 80 00 00 	movaps %xmm5,0x80(%rsp)
  40ac54:	00 
  40ac55:	0f 29 64 24 70       	movaps %xmm4,0x70(%rsp)
  40ac5a:	0f 29 5c 24 60       	movaps %xmm3,0x60(%rsp)
  40ac5f:	0f 29 54 24 50       	movaps %xmm2,0x50(%rsp)
  40ac64:	0f 29 4c 24 40       	movaps %xmm1,0x40(%rsp)
  40ac69:	0f 29 44 24 30       	movaps %xmm0,0x30(%rsp)
  40ac6e:	89 c5                	mov    %eax,%ebp
  40ac70:	0f 57 c0             	xorps  %xmm0,%xmm0
  40ac73:	0f 29 04 24          	movaps %xmm0,(%rsp)
  40ac77:	0f 29 44 24 20       	movaps %xmm0,0x20(%rsp)
  40ac7c:	48 89 e0             	mov    %rsp,%rax
  40ac7f:	b9 01 00 00 00       	mov    $0x1,%ecx
  40ac84:	e8 b7 15 00 00       	call   40c240 <__libirc_set_cpu_feature>
  40ac89:	85 c0                	test   %eax,%eax
  40ac8b:	0f 85 81 03 00 00    	jne    40b012 <__intel_cpu_features_init_body+0x432>
  40ac91:	31 c0                	xor    %eax,%eax
  40ac93:	0f a2                	cpuid
  40ac95:	89 44 24 1c          	mov    %eax,0x1c(%rsp)
  40ac99:	89 5c 24 18          	mov    %ebx,0x18(%rsp)
  40ac9d:	89 4c 24 14          	mov    %ecx,0x14(%rsp)
  40aca1:	89 54 24 10          	mov    %edx,0x10(%rsp)
  40aca5:	83 7c 24 1c 00       	cmpl   $0x0,0x1c(%rsp)
  40acaa:	0f 84 55 03 00 00    	je     40b005 <__intel_cpu_features_init_body+0x425>
  40acb0:	83 fd 01             	cmp    $0x1,%ebp
  40acb3:	75 2a                	jne    40acdf <__intel_cpu_features_init_body+0xff>
  40acb5:	81 7c 24 18 47 65 6e 	cmpl   $0x756e6547,0x18(%rsp)
  40acbc:	75 
  40acbd:	0f 85 42 03 00 00    	jne    40b005 <__intel_cpu_features_init_body+0x425>
  40acc3:	81 7c 24 10 69 6e 65 	cmpl   $0x49656e69,0x10(%rsp)
  40acca:	49 
  40accb:	0f 85 34 03 00 00    	jne    40b005 <__intel_cpu_features_init_body+0x425>
  40acd1:	81 7c 24 14 6e 74 65 	cmpl   $0x6c65746e,0x14(%rsp)
  40acd8:	6c 
  40acd9:	0f 85 26 03 00 00    	jne    40b005 <__intel_cpu_features_init_body+0x425>
  40acdf:	b8 01 00 00 00       	mov    $0x1,%eax
  40ace4:	0f a2                	cpuid
  40ace6:	41 89 d2             	mov    %edx,%r10d
  40ace9:	41 89 c8             	mov    %ecx,%r8d
  40acec:	41 f6 c2 01          	test   $0x1,%r10b
  40acf0:	74 15                	je     40ad07 <__intel_cpu_features_init_body+0x127>
  40acf2:	48 89 e0             	mov    %rsp,%rax
  40acf5:	b9 02 00 00 00       	mov    $0x2,%ecx
  40acfa:	e8 41 15 00 00       	call   40c240 <__libirc_set_cpu_feature>
  40acff:	85 c0                	test   %eax,%eax
  40ad01:	0f 85 0b 03 00 00    	jne    40b012 <__intel_cpu_features_init_body+0x432>
  40ad07:	66 45 85 d2          	test   %r10w,%r10w
  40ad0b:	79 15                	jns    40ad22 <__intel_cpu_features_init_body+0x142>
  40ad0d:	48 89 e0             	mov    %rsp,%rax
  40ad10:	b9 03 00 00 00       	mov    $0x3,%ecx
  40ad15:	e8 26 15 00 00       	call   40c240 <__libirc_set_cpu_feature>
  40ad1a:	85 c0                	test   %eax,%eax
  40ad1c:	0f 85 f0 02 00 00    	jne    40b012 <__intel_cpu_features_init_body+0x432>
  40ad22:	41 f7 c2 00 00 80 00 	test   $0x800000,%r10d
  40ad29:	74 15                	je     40ad40 <__intel_cpu_features_init_body+0x160>
  40ad2b:	48 89 e0             	mov    %rsp,%rax
  40ad2e:	b9 04 00 00 00       	mov    $0x4,%ecx
  40ad33:	e8 08 15 00 00       	call   40c240 <__libirc_set_cpu_feature>
  40ad38:	85 c0                	test   %eax,%eax
  40ad3a:	0f 85 d2 02 00 00    	jne    40b012 <__intel_cpu_features_init_body+0x432>
  40ad40:	41 f7 c2 00 00 00 01 	test   $0x1000000,%r10d
  40ad47:	0f 85 54 03 00 00    	jne    40b0a1 <__intel_cpu_features_init_body+0x4c1>
  40ad4d:	41 f7 c0 00 00 00 40 	test   $0x40000000,%r8d
  40ad54:	74 15                	je     40ad6b <__intel_cpu_features_init_body+0x18b>
  40ad56:	48 89 e0             	mov    %rsp,%rax
  40ad59:	b9 12 00 00 00       	mov    $0x12,%ecx
  40ad5e:	e8 dd 14 00 00       	call   40c240 <__libirc_set_cpu_feature>
  40ad63:	85 c0                	test   %eax,%eax
  40ad65:	0f 85 a7 02 00 00    	jne    40b012 <__intel_cpu_features_init_body+0x432>
  40ad6b:	41 f7 c2 00 00 00 01 	test   $0x1000000,%r10d
  40ad72:	75 10                	jne    40ad84 <__intel_cpu_features_init_body+0x1a4>
  40ad74:	b8 07 00 00 00       	mov    $0x7,%eax
  40ad79:	31 c9                	xor    %ecx,%ecx
  40ad7b:	0f a2                	cpuid
  40ad7d:	89 cf                	mov    %ecx,%edi
  40ad7f:	89 d6                	mov    %edx,%esi
  40ad81:	41 89 d9             	mov    %ebx,%r9d
  40ad84:	44 89 c8             	mov    %r9d,%eax
  40ad87:	f7 d0                	not    %eax
  40ad89:	a9 08 01 00 00       	test   $0x108,%eax
  40ad8e:	75 15                	jne    40ada5 <__intel_cpu_features_init_body+0x1c5>
  40ad90:	48 89 e0             	mov    %rsp,%rax
  40ad93:	b9 14 00 00 00       	mov    $0x14,%ecx
  40ad98:	e8 a3 14 00 00       	call   40c240 <__libirc_set_cpu_feature>
  40ad9d:	85 c0                	test   %eax,%eax
  40ad9f:	0f 85 6d 02 00 00    	jne    40b012 <__intel_cpu_features_init_body+0x432>
  40ada5:	41 f6 c1 04          	test   $0x4,%r9b
  40ada9:	74 15                	je     40adc0 <__intel_cpu_features_init_body+0x1e0>
  40adab:	48 89 e0             	mov    %rsp,%rax
  40adae:	b9 36 00 00 00       	mov    $0x36,%ecx
  40adb3:	e8 88 14 00 00       	call   40c240 <__libirc_set_cpu_feature>
  40adb8:	85 c0                	test   %eax,%eax
  40adba:	0f 85 52 02 00 00    	jne    40b012 <__intel_cpu_features_init_body+0x432>
  40adc0:	41 f6 c1 10          	test   $0x10,%r9b
  40adc4:	74 15                	je     40addb <__intel_cpu_features_init_body+0x1fb>
  40adc6:	48 89 e0             	mov    %rsp,%rax
  40adc9:	b9 16 00 00 00       	mov    $0x16,%ecx
  40adce:	e8 6d 14 00 00       	call   40c240 <__libirc_set_cpu_feature>
  40add3:	85 c0                	test   %eax,%eax
  40add5:	0f 85 37 02 00 00    	jne    40b012 <__intel_cpu_features_init_body+0x432>
  40addb:	41 f7 c1 00 08 00 00 	test   $0x800,%r9d
  40ade2:	74 15                	je     40adf9 <__intel_cpu_features_init_body+0x219>
  40ade4:	48 89 e0             	mov    %rsp,%rax
  40ade7:	b9 17 00 00 00       	mov    $0x17,%ecx
  40adec:	e8 4f 14 00 00       	call   40c240 <__libirc_set_cpu_feature>
  40adf1:	85 c0                	test   %eax,%eax
  40adf3:	0f 85 19 02 00 00    	jne    40b012 <__intel_cpu_features_init_body+0x432>
  40adf9:	41 f7 c1 00 00 08 00 	test   $0x80000,%r9d
  40ae00:	74 15                	je     40ae17 <__intel_cpu_features_init_body+0x237>
  40ae02:	48 89 e0             	mov    %rsp,%rax
  40ae05:	b9 1d 00 00 00       	mov    $0x1d,%ecx
  40ae0a:	e8 31 14 00 00       	call   40c240 <__libirc_set_cpu_feature>
  40ae0f:	85 c0                	test   %eax,%eax
  40ae11:	0f 85 fb 01 00 00    	jne    40b012 <__intel_cpu_features_init_body+0x432>
  40ae17:	41 f7 c1 00 00 04 00 	test   $0x40000,%r9d
  40ae1e:	74 15                	je     40ae35 <__intel_cpu_features_init_body+0x255>
  40ae20:	48 89 e0             	mov    %rsp,%rax
  40ae23:	b9 1e 00 00 00       	mov    $0x1e,%ecx
  40ae28:	e8 13 14 00 00       	call   40c240 <__libirc_set_cpu_feature>
  40ae2d:	85 c0                	test   %eax,%eax
  40ae2f:	0f 85 dd 01 00 00    	jne    40b012 <__intel_cpu_features_init_body+0x432>
  40ae35:	41 f7 c1 00 00 00 01 	test   $0x1000000,%r9d
  40ae3c:	74 15                	je     40ae53 <__intel_cpu_features_init_body+0x273>
  40ae3e:	48 89 e0             	mov    %rsp,%rax
  40ae41:	b9 32 00 00 00       	mov    $0x32,%ecx
  40ae46:	e8 f5 13 00 00       	call   40c240 <__libirc_set_cpu_feature>
  40ae4b:	85 c0                	test   %eax,%eax
  40ae4d:	0f 85 bf 01 00 00    	jne    40b012 <__intel_cpu_features_init_body+0x432>
  40ae53:	b8 01 00 00 80       	mov    $0x80000001,%eax
  40ae58:	0f a2                	cpuid
  40ae5a:	f6 c1 20             	test   $0x20,%cl
  40ae5d:	74 15                	je     40ae74 <__intel_cpu_features_init_body+0x294>
  40ae5f:	48 89 e0             	mov    %rsp,%rax
  40ae62:	b9 15 00 00 00       	mov    $0x15,%ecx
  40ae67:	e8 d4 13 00 00       	call   40c240 <__libirc_set_cpu_feature>
  40ae6c:	85 c0                	test   %eax,%eax
  40ae6e:	0f 85 9e 01 00 00    	jne    40b012 <__intel_cpu_features_init_body+0x432>
  40ae74:	b8 08 00 00 80       	mov    $0x80000008,%eax
  40ae79:	0f a2                	cpuid
  40ae7b:	f7 c3 00 02 00 00    	test   $0x200,%ebx
  40ae81:	74 15                	je     40ae98 <__intel_cpu_features_init_body+0x2b8>
  40ae83:	48 89 e0             	mov    %rsp,%rax
  40ae86:	b9 37 00 00 00       	mov    $0x37,%ecx
  40ae8b:	e8 b0 13 00 00       	call   40c240 <__libirc_set_cpu_feature>
  40ae90:	85 c0                	test   %eax,%eax
  40ae92:	0f 85 7a 01 00 00    	jne    40b012 <__intel_cpu_features_init_body+0x432>
  40ae98:	40 f6 c7 20          	test   $0x20,%dil
  40ae9c:	74 15                	je     40aeb3 <__intel_cpu_features_init_body+0x2d3>
  40ae9e:	48 89 e0             	mov    %rsp,%rax
  40aea1:	b9 3e 00 00 00       	mov    $0x3e,%ecx
  40aea6:	e8 95 13 00 00       	call   40c240 <__libirc_set_cpu_feature>
  40aeab:	85 c0                	test   %eax,%eax
  40aead:	0f 85 5f 01 00 00    	jne    40b012 <__intel_cpu_features_init_body+0x432>
  40aeb3:	40 84 ff             	test   %dil,%dil
  40aeb6:	79 15                	jns    40aecd <__intel_cpu_features_init_body+0x2ed>
  40aeb8:	48 89 e0             	mov    %rsp,%rax
  40aebb:	b9 35 00 00 00       	mov    $0x35,%ecx
  40aec0:	e8 7b 13 00 00       	call   40c240 <__libirc_set_cpu_feature>
  40aec5:	85 c0                	test   %eax,%eax
  40aec7:	0f 85 45 01 00 00    	jne    40b012 <__intel_cpu_features_init_body+0x432>
  40aecd:	f7 c7 00 01 00 00    	test   $0x100,%edi
  40aed3:	74 15                	je     40aeea <__intel_cpu_features_init_body+0x30a>
  40aed5:	48 89 e0             	mov    %rsp,%rax
  40aed8:	b9 2e 00 00 00       	mov    $0x2e,%ecx
  40aedd:	e8 5e 13 00 00       	call   40c240 <__libirc_set_cpu_feature>
  40aee2:	85 c0                	test   %eax,%eax
  40aee4:	0f 85 28 01 00 00    	jne    40b012 <__intel_cpu_features_init_body+0x432>
  40aeea:	f7 c7 00 00 40 00    	test   $0x400000,%edi
  40aef0:	74 15                	je     40af07 <__intel_cpu_features_init_body+0x327>
  40aef2:	48 89 e0             	mov    %rsp,%rax
  40aef5:	b9 33 00 00 00       	mov    $0x33,%ecx
  40aefa:	e8 41 13 00 00       	call   40c240 <__libirc_set_cpu_feature>
  40aeff:	85 c0                	test   %eax,%eax
  40af01:	0f 85 0b 01 00 00    	jne    40b012 <__intel_cpu_features_init_body+0x432>
  40af07:	f7 c7 00 00 00 01    	test   $0x1000000,%edi
  40af0d:	74 15                	je     40af24 <__intel_cpu_features_init_body+0x344>
  40af0f:	48 89 e0             	mov    %rsp,%rax
  40af12:	b9 3b 00 00 00       	mov    $0x3b,%ecx
  40af17:	e8 24 13 00 00       	call   40c240 <__libirc_set_cpu_feature>
  40af1c:	85 c0                	test   %eax,%eax
  40af1e:	0f 85 ee 00 00 00    	jne    40b012 <__intel_cpu_features_init_body+0x432>
  40af24:	f7 c7 00 00 00 08    	test   $0x8000000,%edi
  40af2a:	74 15                	je     40af41 <__intel_cpu_features_init_body+0x361>
  40af2c:	48 89 e0             	mov    %rsp,%rax
  40af2f:	b9 3c 00 00 00       	mov    $0x3c,%ecx
  40af34:	e8 07 13 00 00       	call   40c240 <__libirc_set_cpu_feature>
  40af39:	85 c0                	test   %eax,%eax
  40af3b:	0f 85 d1 00 00 00    	jne    40b012 <__intel_cpu_features_init_body+0x432>
  40af41:	f7 c7 00 00 00 10    	test   $0x10000000,%edi
  40af47:	74 15                	je     40af5e <__intel_cpu_features_init_body+0x37e>
  40af49:	48 89 e0             	mov    %rsp,%rax
  40af4c:	b9 3d 00 00 00       	mov    $0x3d,%ecx
  40af51:	e8 ea 12 00 00       	call   40c240 <__libirc_set_cpu_feature>
  40af56:	85 c0                	test   %eax,%eax
  40af58:	0f 85 b4 00 00 00    	jne    40b012 <__intel_cpu_features_init_body+0x432>
  40af5e:	f7 c7 00 00 00 20    	test   $0x20000000,%edi
  40af64:	74 15                	je     40af7b <__intel_cpu_features_init_body+0x39b>
  40af66:	48 89 e0             	mov    %rsp,%rax
  40af69:	b9 40 00 00 00       	mov    $0x40,%ecx
  40af6e:	e8 cd 12 00 00       	call   40c240 <__libirc_set_cpu_feature>
  40af73:	85 c0                	test   %eax,%eax
  40af75:	0f 85 97 00 00 00    	jne    40b012 <__intel_cpu_features_init_body+0x432>
  40af7b:	f7 c6 00 00 10 00    	test   $0x100000,%esi
  40af81:	74 11                	je     40af94 <__intel_cpu_features_init_body+0x3b4>
  40af83:	48 89 e0             	mov    %rsp,%rax
  40af86:	b9 34 00 00 00       	mov    $0x34,%ecx
  40af8b:	e8 b0 12 00 00       	call   40c240 <__libirc_set_cpu_feature>
  40af90:	85 c0                	test   %eax,%eax
  40af92:	75 7e                	jne    40b012 <__intel_cpu_features_init_body+0x432>
  40af94:	f7 c6 00 00 04 00    	test   $0x40000,%esi
  40af9a:	74 11                	je     40afad <__intel_cpu_features_init_body+0x3cd>
  40af9c:	48 89 e0             	mov    %rsp,%rax
  40af9f:	b9 38 00 00 00       	mov    $0x38,%ecx
  40afa4:	e8 97 12 00 00       	call   40c240 <__libirc_set_cpu_feature>
  40afa9:	85 c0                	test   %eax,%eax
  40afab:	75 65                	jne    40b012 <__intel_cpu_features_init_body+0x432>
  40afad:	b8 14 00 00 00       	mov    $0x14,%eax
  40afb2:	31 c9                	xor    %ecx,%ecx
  40afb4:	0f a2                	cpuid
  40afb6:	f6 c3 10             	test   $0x10,%bl
  40afb9:	74 11                	je     40afcc <__intel_cpu_features_init_body+0x3ec>
  40afbb:	48 89 e0             	mov    %rsp,%rax
  40afbe:	b9 1b 00 00 00       	mov    $0x1b,%ecx
  40afc3:	e8 78 12 00 00       	call   40c240 <__libirc_set_cpu_feature>
  40afc8:	85 c0                	test   %eax,%eax
  40afca:	75 46                	jne    40b012 <__intel_cpu_features_init_body+0x432>
  40afcc:	f7 c7 00 00 80 00    	test   $0x800000,%edi
  40afd2:	0f 85 3a 02 00 00    	jne    40b212 <__intel_cpu_features_init_body+0x632>
  40afd8:	41 f7 c0 00 00 00 08 	test   $0x8000000,%r8d
  40afdf:	0f 85 88 02 00 00    	jne    40b26d <__intel_cpu_features_init_body+0x68d>
  40afe5:	48 8d 7c 24 20       	lea    0x20(%rsp),%rdi
  40afea:	e8 b1 12 00 00       	call   40c2a0 <__libirc_handle_intel_isa_disable>
  40afef:	85 c0                	test   %eax,%eax
  40aff1:	0f 8e 09 06 00 00    	jle    40b600 <__intel_cpu_features_init_body+0xa20>
  40aff7:	0f 28 44 24 20       	movaps 0x20(%rsp),%xmm0
  40affc:	0f 55 04 24          	andnps (%rsp),%xmm0
  40b000:	e9 ff 05 00 00       	jmp    40b604 <__intel_cpu_features_init_body+0xa24>
  40b005:	0f 28 04 24          	movaps (%rsp),%xmm0
  40b009:	0f 29 05 80 61 00 00 	movaps %xmm0,0x6180(%rip)        # 411190 <__intel_cpu_feature_indicator>
  40b010:	31 c0                	xor    %eax,%eax
  40b012:	0f 28 44 24 30       	movaps 0x30(%rsp),%xmm0
  40b017:	0f 28 4c 24 40       	movaps 0x40(%rsp),%xmm1
  40b01c:	0f 28 54 24 50       	movaps 0x50(%rsp),%xmm2
  40b021:	0f 28 5c 24 60       	movaps 0x60(%rsp),%xmm3
  40b026:	0f 28 64 24 70       	movaps 0x70(%rsp),%xmm4
  40b02b:	0f 28 ac 24 80 00 00 	movaps 0x80(%rsp),%xmm5
  40b032:	00 
  40b033:	0f 28 b4 24 90 00 00 	movaps 0x90(%rsp),%xmm6
  40b03a:	00 
  40b03b:	0f 28 bc 24 a0 00 00 	movaps 0xa0(%rsp),%xmm7
  40b042:	00 
  40b043:	44 0f 28 84 24 b0 00 	movaps 0xb0(%rsp),%xmm8
  40b04a:	00 00 
  40b04c:	44 0f 28 8c 24 c0 00 	movaps 0xc0(%rsp),%xmm9
  40b053:	00 00 
  40b055:	44 0f 28 94 24 d0 00 	movaps 0xd0(%rsp),%xmm10
  40b05c:	00 00 
  40b05e:	44 0f 28 9c 24 e0 00 	movaps 0xe0(%rsp),%xmm11
  40b065:	00 00 
  40b067:	44 0f 28 a4 24 f0 00 	movaps 0xf0(%rsp),%xmm12
  40b06e:	00 00 
  40b070:	44 0f 28 ac 24 00 01 	movaps 0x100(%rsp),%xmm13
  40b077:	00 00 
  40b079:	44 0f 28 b4 24 10 01 	movaps 0x110(%rsp),%xmm14
  40b080:	00 00 
  40b082:	44 0f 28 bc 24 20 01 	movaps 0x120(%rsp),%xmm15
  40b089:	00 00 
  40b08b:	48 81 c4 38 01 00 00 	add    $0x138,%rsp
  40b092:	5b                   	pop    %rbx
  40b093:	5d                   	pop    %rbp
  40b094:	5f                   	pop    %rdi
  40b095:	5e                   	pop    %rsi
  40b096:	59                   	pop    %rcx
  40b097:	5a                   	pop    %rdx
  40b098:	41 58                	pop    %r8
  40b09a:	41 59                	pop    %r9
  40b09c:	41 5a                	pop    %r10
  40b09e:	41 5b                	pop    %r11
  40b0a0:	c3                   	ret
  40b0a1:	48 89 e0             	mov    %rsp,%rax
  40b0a4:	b9 05 00 00 00       	mov    $0x5,%ecx
  40b0a9:	e8 92 11 00 00       	call   40c240 <__libirc_set_cpu_feature>
  40b0ae:	85 c0                	test   %eax,%eax
  40b0b0:	0f 85 5c ff ff ff    	jne    40b012 <__intel_cpu_features_init_body+0x432>
  40b0b6:	41 f7 c2 00 00 00 02 	test   $0x2000000,%r10d
  40b0bd:	74 15                	je     40b0d4 <__intel_cpu_features_init_body+0x4f4>
  40b0bf:	48 89 e0             	mov    %rsp,%rax
  40b0c2:	b9 06 00 00 00       	mov    $0x6,%ecx
  40b0c7:	e8 74 11 00 00       	call   40c240 <__libirc_set_cpu_feature>
  40b0cc:	85 c0                	test   %eax,%eax
  40b0ce:	0f 85 3e ff ff ff    	jne    40b012 <__intel_cpu_features_init_body+0x432>
  40b0d4:	41 f7 c2 00 00 00 04 	test   $0x4000000,%r10d
  40b0db:	74 15                	je     40b0f2 <__intel_cpu_features_init_body+0x512>
  40b0dd:	48 89 e0             	mov    %rsp,%rax
  40b0e0:	b9 07 00 00 00       	mov    $0x7,%ecx
  40b0e5:	e8 56 11 00 00       	call   40c240 <__libirc_set_cpu_feature>
  40b0ea:	85 c0                	test   %eax,%eax
  40b0ec:	0f 85 20 ff ff ff    	jne    40b012 <__intel_cpu_features_init_body+0x432>
  40b0f2:	41 f6 c0 01          	test   $0x1,%r8b
  40b0f6:	74 15                	je     40b10d <__intel_cpu_features_init_body+0x52d>
  40b0f8:	48 89 e0             	mov    %rsp,%rax
  40b0fb:	b9 08 00 00 00       	mov    $0x8,%ecx
  40b100:	e8 3b 11 00 00       	call   40c240 <__libirc_set_cpu_feature>
  40b105:	85 c0                	test   %eax,%eax
  40b107:	0f 85 05 ff ff ff    	jne    40b012 <__intel_cpu_features_init_body+0x432>
  40b10d:	41 f7 c0 00 02 00 00 	test   $0x200,%r8d
  40b114:	74 15                	je     40b12b <__intel_cpu_features_init_body+0x54b>
  40b116:	48 89 e0             	mov    %rsp,%rax
  40b119:	b9 09 00 00 00       	mov    $0x9,%ecx
  40b11e:	e8 1d 11 00 00       	call   40c240 <__libirc_set_cpu_feature>
  40b123:	85 c0                	test   %eax,%eax
  40b125:	0f 85 e7 fe ff ff    	jne    40b012 <__intel_cpu_features_init_body+0x432>
  40b12b:	41 f7 c0 00 00 40 00 	test   $0x400000,%r8d
  40b132:	74 15                	je     40b149 <__intel_cpu_features_init_body+0x569>
  40b134:	48 89 e0             	mov    %rsp,%rax
  40b137:	b9 0c 00 00 00       	mov    $0xc,%ecx
  40b13c:	e8 ff 10 00 00       	call   40c240 <__libirc_set_cpu_feature>
  40b141:	85 c0                	test   %eax,%eax
  40b143:	0f 85 c9 fe ff ff    	jne    40b012 <__intel_cpu_features_init_body+0x432>
  40b149:	41 f7 c0 00 00 08 00 	test   $0x80000,%r8d
  40b150:	74 15                	je     40b167 <__intel_cpu_features_init_body+0x587>
  40b152:	48 89 e0             	mov    %rsp,%rax
  40b155:	b9 0a 00 00 00       	mov    $0xa,%ecx
  40b15a:	e8 e1 10 00 00       	call   40c240 <__libirc_set_cpu_feature>
  40b15f:	85 c0                	test   %eax,%eax
  40b161:	0f 85 ab fe ff ff    	jne    40b012 <__intel_cpu_features_init_body+0x432>
  40b167:	41 f7 c0 00 00 10 00 	test   $0x100000,%r8d
  40b16e:	74 15                	je     40b185 <__intel_cpu_features_init_body+0x5a5>
  40b170:	48 89 e0             	mov    %rsp,%rax
  40b173:	b9 0b 00 00 00       	mov    $0xb,%ecx
  40b178:	e8 c3 10 00 00       	call   40c240 <__libirc_set_cpu_feature>
  40b17d:	85 c0                	test   %eax,%eax
  40b17f:	0f 85 8d fe ff ff    	jne    40b012 <__intel_cpu_features_init_body+0x432>
  40b185:	41 f7 c0 00 00 80 00 	test   $0x800000,%r8d
  40b18c:	74 15                	je     40b1a3 <__intel_cpu_features_init_body+0x5c3>
  40b18e:	48 89 e0             	mov    %rsp,%rax
  40b191:	b9 0d 00 00 00       	mov    $0xd,%ecx
  40b196:	e8 a5 10 00 00       	call   40c240 <__libirc_set_cpu_feature>
  40b19b:	85 c0                	test   %eax,%eax
  40b19d:	0f 85 6f fe ff ff    	jne    40b012 <__intel_cpu_features_init_body+0x432>
  40b1a3:	41 f6 c0 02          	test   $0x2,%r8b
  40b1a7:	74 15                	je     40b1be <__intel_cpu_features_init_body+0x5de>
  40b1a9:	48 89 e0             	mov    %rsp,%rax
  40b1ac:	b9 0e 00 00 00       	mov    $0xe,%ecx
  40b1b1:	e8 8a 10 00 00       	call   40c240 <__libirc_set_cpu_feature>
  40b1b6:	85 c0                	test   %eax,%eax
  40b1b8:	0f 85 54 fe ff ff    	jne    40b012 <__intel_cpu_features_init_body+0x432>
  40b1be:	41 f7 c0 00 00 00 02 	test   $0x2000000,%r8d
  40b1c5:	74 15                	je     40b1dc <__intel_cpu_features_init_body+0x5fc>
  40b1c7:	48 89 e0             	mov    %rsp,%rax
  40b1ca:	b9 0f 00 00 00       	mov    $0xf,%ecx
  40b1cf:	e8 6c 10 00 00       	call   40c240 <__libirc_set_cpu_feature>
  40b1d4:	85 c0                	test   %eax,%eax
  40b1d6:	0f 85 36 fe ff ff    	jne    40b012 <__intel_cpu_features_init_body+0x432>
  40b1dc:	b8 07 00 00 00       	mov    $0x7,%eax
  40b1e1:	31 c9                	xor    %ecx,%ecx
  40b1e3:	0f a2                	cpuid
  40b1e5:	89 cf                	mov    %ecx,%edi
  40b1e7:	89 d6                	mov    %edx,%esi
  40b1e9:	41 89 d9             	mov    %ebx,%r9d
  40b1ec:	f7 c3 00 00 00 20    	test   $0x20000000,%ebx
  40b1f2:	0f 84 55 fb ff ff    	je     40ad4d <__intel_cpu_features_init_body+0x16d>
  40b1f8:	48 89 e0             	mov    %rsp,%rax
  40b1fb:	b9 24 00 00 00       	mov    $0x24,%ecx
  40b200:	e8 3b 10 00 00       	call   40c240 <__libirc_set_cpu_feature>
  40b205:	85 c0                	test   %eax,%eax
  40b207:	0f 85 05 fe ff ff    	jne    40b012 <__intel_cpu_features_init_body+0x432>
  40b20d:	e9 3b fb ff ff       	jmp    40ad4d <__intel_cpu_features_init_body+0x16d>
  40b212:	48 89 e0             	mov    %rsp,%rax
  40b215:	b9 01 00 00 00       	mov    $0x1,%ecx
  40b21a:	e8 21 10 00 00       	call   40c240 <__libirc_set_cpu_feature>
  40b21f:	85 c0                	test   %eax,%eax
  40b221:	0f 85 eb fd ff ff    	jne    40b012 <__intel_cpu_features_init_body+0x432>
  40b227:	b8 19 00 00 00       	mov    $0x19,%eax
  40b22c:	31 c9                	xor    %ecx,%ecx
  40b22e:	0f a2                	cpuid
  40b230:	f6 c3 01             	test   $0x1,%bl
  40b233:	74 15                	je     40b24a <__intel_cpu_features_init_body+0x66a>
  40b235:	48 89 e0             	mov    %rsp,%rax
  40b238:	b9 45 00 00 00       	mov    $0x45,%ecx
  40b23d:	e8 fe 0f 00 00       	call   40c240 <__libirc_set_cpu_feature>
  40b242:	85 c0                	test   %eax,%eax
  40b244:	0f 85 c8 fd ff ff    	jne    40b012 <__intel_cpu_features_init_body+0x432>
  40b24a:	f6 c3 04             	test   $0x4,%bl
  40b24d:	0f 84 85 fd ff ff    	je     40afd8 <__intel_cpu_features_init_body+0x3f8>
  40b253:	48 89 e0             	mov    %rsp,%rax
  40b256:	b9 46 00 00 00       	mov    $0x46,%ecx
  40b25b:	e8 e0 0f 00 00       	call   40c240 <__libirc_set_cpu_feature>
  40b260:	85 c0                	test   %eax,%eax
  40b262:	0f 85 aa fd ff ff    	jne    40b012 <__intel_cpu_features_init_body+0x432>
  40b268:	e9 6b fd ff ff       	jmp    40afd8 <__intel_cpu_features_init_body+0x3f8>
  40b26d:	48 89 e0             	mov    %rsp,%rax
  40b270:	b9 01 00 00 00       	mov    $0x1,%ecx
  40b275:	e8 c6 0f 00 00       	call   40c240 <__libirc_set_cpu_feature>
  40b27a:	85 c0                	test   %eax,%eax
  40b27c:	0f 85 90 fd ff ff    	jne    40b012 <__intel_cpu_features_init_body+0x432>
  40b282:	31 c9                	xor    %ecx,%ecx
  40b284:	0f 01 d0             	xgetbv
  40b287:	41 89 c2             	mov    %eax,%r10d
  40b28a:	41 f7 d2             	not    %r10d
  40b28d:	41 f7 c2 00 00 06 00 	test   $0x60000,%r10d
  40b294:	75 6c                	jne    40b302 <__intel_cpu_features_init_body+0x722>
  40b296:	48 89 e0             	mov    %rsp,%rax
  40b299:	b9 01 00 00 00       	mov    $0x1,%ecx
  40b29e:	e8 9d 0f 00 00       	call   40c240 <__libirc_set_cpu_feature>
  40b2a3:	85 c0                	test   %eax,%eax
  40b2a5:	0f 85 67 fd ff ff    	jne    40b012 <__intel_cpu_features_init_body+0x432>
  40b2ab:	f7 c6 00 00 00 01    	test   $0x1000000,%esi
  40b2b1:	74 15                	je     40b2c8 <__intel_cpu_features_init_body+0x6e8>
  40b2b3:	48 89 e0             	mov    %rsp,%rax
  40b2b6:	b9 42 00 00 00       	mov    $0x42,%ecx
  40b2bb:	e8 80 0f 00 00       	call   40c240 <__libirc_set_cpu_feature>
  40b2c0:	85 c0                	test   %eax,%eax
  40b2c2:	0f 85 4a fd ff ff    	jne    40b012 <__intel_cpu_features_init_body+0x432>
  40b2c8:	f7 c6 00 00 00 02    	test   $0x2000000,%esi
  40b2ce:	74 15                	je     40b2e5 <__intel_cpu_features_init_body+0x705>
  40b2d0:	48 89 e0             	mov    %rsp,%rax
  40b2d3:	b9 43 00 00 00       	mov    $0x43,%ecx
  40b2d8:	e8 63 0f 00 00       	call   40c240 <__libirc_set_cpu_feature>
  40b2dd:	85 c0                	test   %eax,%eax
  40b2df:	0f 85 2d fd ff ff    	jne    40b012 <__intel_cpu_features_init_body+0x432>
  40b2e5:	f7 c6 00 00 40 00    	test   $0x400000,%esi
  40b2eb:	74 15                	je     40b302 <__intel_cpu_features_init_body+0x722>
  40b2ed:	48 89 e0             	mov    %rsp,%rax
  40b2f0:	b9 44 00 00 00       	mov    $0x44,%ecx
  40b2f5:	e8 46 0f 00 00       	call   40c240 <__libirc_set_cpu_feature>
  40b2fa:	85 c0                	test   %eax,%eax
  40b2fc:	0f 85 10 fd ff ff    	jne    40b012 <__intel_cpu_features_init_body+0x432>
  40b302:	41 f6 c2 06          	test   $0x6,%r10b
  40b306:	0f 85 d9 fc ff ff    	jne    40afe5 <__intel_cpu_features_init_body+0x405>
  40b30c:	48 89 e0             	mov    %rsp,%rax
  40b30f:	b9 01 00 00 00       	mov    $0x1,%ecx
  40b314:	e8 27 0f 00 00       	call   40c240 <__libirc_set_cpu_feature>
  40b319:	85 c0                	test   %eax,%eax
  40b31b:	0f 85 f1 fc ff ff    	jne    40b012 <__intel_cpu_features_init_body+0x432>
  40b321:	41 f7 c0 00 00 00 10 	test   $0x10000000,%r8d
  40b328:	0f 85 f1 02 00 00    	jne    40b61f <__intel_cpu_features_init_body+0xa3f>
  40b32e:	41 f7 c0 00 00 00 20 	test   $0x20000000,%r8d
  40b335:	74 15                	je     40b34c <__intel_cpu_features_init_body+0x76c>
  40b337:	48 89 e0             	mov    %rsp,%rax
  40b33a:	b9 11 00 00 00       	mov    $0x11,%ecx
  40b33f:	e8 fc 0e 00 00       	call   40c240 <__libirc_set_cpu_feature>
  40b344:	85 c0                	test   %eax,%eax
  40b346:	0f 85 c6 fc ff ff    	jne    40b012 <__intel_cpu_features_init_body+0x432>
  40b34c:	41 f6 c1 20          	test   $0x20,%r9b
  40b350:	74 15                	je     40b367 <__intel_cpu_features_init_body+0x787>
  40b352:	48 89 e0             	mov    %rsp,%rax
  40b355:	b9 18 00 00 00       	mov    $0x18,%ecx
  40b35a:	e8 e1 0e 00 00       	call   40c240 <__libirc_set_cpu_feature>
  40b35f:	85 c0                	test   %eax,%eax
  40b361:	0f 85 ab fc ff ff    	jne    40b012 <__intel_cpu_features_init_body+0x432>
  40b367:	41 f7 c0 00 10 00 00 	test   $0x1000,%r8d
  40b36e:	74 15                	je     40b385 <__intel_cpu_features_init_body+0x7a5>
  40b370:	48 89 e0             	mov    %rsp,%rax
  40b373:	b9 13 00 00 00       	mov    $0x13,%ecx
  40b378:	e8 c3 0e 00 00       	call   40c240 <__libirc_set_cpu_feature>
  40b37d:	85 c0                	test   %eax,%eax
  40b37f:	0f 85 8d fc ff ff    	jne    40b012 <__intel_cpu_features_init_body+0x432>
  40b385:	41 f6 c2 18          	test   $0x18,%r10b
  40b389:	75 33                	jne    40b3be <__intel_cpu_features_init_body+0x7de>
  40b38b:	48 89 e0             	mov    %rsp,%rax
  40b38e:	b9 01 00 00 00       	mov    $0x1,%ecx
  40b393:	e8 a8 0e 00 00       	call   40c240 <__libirc_set_cpu_feature>
  40b398:	85 c0                	test   %eax,%eax
  40b39a:	0f 85 72 fc ff ff    	jne    40b012 <__intel_cpu_features_init_body+0x432>
  40b3a0:	41 f7 c1 00 40 00 00 	test   $0x4000,%r9d
  40b3a7:	74 15                	je     40b3be <__intel_cpu_features_init_body+0x7de>
  40b3a9:	48 89 e0             	mov    %rsp,%rax
  40b3ac:	b9 25 00 00 00       	mov    $0x25,%ecx
  40b3b1:	e8 8a 0e 00 00       	call   40c240 <__libirc_set_cpu_feature>
  40b3b6:	85 c0                	test   %eax,%eax
  40b3b8:	0f 85 54 fc ff ff    	jne    40b012 <__intel_cpu_features_init_body+0x432>
  40b3be:	b8 07 00 00 00       	mov    $0x7,%eax
  40b3c3:	b9 01 00 00 00       	mov    $0x1,%ecx
  40b3c8:	0f a2                	cpuid
  40b3ca:	89 c2                	mov    %eax,%edx
  40b3cc:	f6 c2 10             	test   $0x10,%dl
  40b3cf:	74 15                	je     40b3e6 <__intel_cpu_features_init_body+0x806>
  40b3d1:	48 89 e0             	mov    %rsp,%rax
  40b3d4:	b9 41 00 00 00       	mov    $0x41,%ecx
  40b3d9:	e8 62 0e 00 00       	call   40c240 <__libirc_set_cpu_feature>
  40b3de:	85 c0                	test   %eax,%eax
  40b3e0:	0f 85 2c fc ff ff    	jne    40b012 <__intel_cpu_features_init_body+0x432>
  40b3e6:	41 f6 c2 e0          	test   $0xe0,%r10b
  40b3ea:	0f 85 f5 fb ff ff    	jne    40afe5 <__intel_cpu_features_init_body+0x405>
  40b3f0:	48 89 e0             	mov    %rsp,%rax
  40b3f3:	b9 01 00 00 00       	mov    $0x1,%ecx
  40b3f8:	e8 43 0e 00 00       	call   40c240 <__libirc_set_cpu_feature>
  40b3fd:	85 c0                	test   %eax,%eax
  40b3ff:	0f 85 0d fc ff ff    	jne    40b012 <__intel_cpu_features_init_body+0x432>
  40b405:	41 f7 c1 00 00 01 00 	test   $0x10000,%r9d
  40b40c:	74 15                	je     40b423 <__intel_cpu_features_init_body+0x843>
  40b40e:	48 89 e0             	mov    %rsp,%rax
  40b411:	b9 19 00 00 00       	mov    $0x19,%ecx
  40b416:	e8 25 0e 00 00       	call   40c240 <__libirc_set_cpu_feature>
  40b41b:	85 c0                	test   %eax,%eax
  40b41d:	0f 85 ef fb ff ff    	jne    40b012 <__intel_cpu_features_init_body+0x432>
  40b423:	41 f7 c1 00 00 00 10 	test   $0x10000000,%r9d
  40b42a:	74 15                	je     40b441 <__intel_cpu_features_init_body+0x861>
  40b42c:	48 89 e0             	mov    %rsp,%rax
  40b42f:	b9 23 00 00 00       	mov    $0x23,%ecx
  40b434:	e8 07 0e 00 00       	call   40c240 <__libirc_set_cpu_feature>
  40b439:	85 c0                	test   %eax,%eax
  40b43b:	0f 85 d1 fb ff ff    	jne    40b012 <__intel_cpu_features_init_body+0x432>
  40b441:	41 f7 c1 00 00 00 08 	test   $0x8000000,%r9d
  40b448:	74 15                	je     40b45f <__intel_cpu_features_init_body+0x87f>
  40b44a:	48 89 e0             	mov    %rsp,%rax
  40b44d:	b9 21 00 00 00       	mov    $0x21,%ecx
  40b452:	e8 e9 0d 00 00       	call   40c240 <__libirc_set_cpu_feature>
  40b457:	85 c0                	test   %eax,%eax
  40b459:	0f 85 b3 fb ff ff    	jne    40b012 <__intel_cpu_features_init_body+0x432>
  40b45f:	41 f7 c1 00 00 00 04 	test   $0x4000000,%r9d
  40b466:	74 15                	je     40b47d <__intel_cpu_features_init_body+0x89d>
  40b468:	48 89 e0             	mov    %rsp,%rax
  40b46b:	b9 22 00 00 00       	mov    $0x22,%ecx
  40b470:	e8 cb 0d 00 00       	call   40c240 <__libirc_set_cpu_feature>
  40b475:	85 c0                	test   %eax,%eax
  40b477:	0f 85 95 fb ff ff    	jne    40b012 <__intel_cpu_features_init_body+0x432>
  40b47d:	41 f7 c1 00 00 02 00 	test   $0x20000,%r9d
  40b484:	74 15                	je     40b49b <__intel_cpu_features_init_body+0x8bb>
  40b486:	48 89 e0             	mov    %rsp,%rax
  40b489:	b9 1a 00 00 00       	mov    $0x1a,%ecx
  40b48e:	e8 ad 0d 00 00       	call   40c240 <__libirc_set_cpu_feature>
  40b493:	85 c0                	test   %eax,%eax
  40b495:	0f 85 77 fb ff ff    	jne    40b012 <__intel_cpu_features_init_body+0x432>
  40b49b:	41 f7 c1 00 00 00 40 	test   $0x40000000,%r9d
  40b4a2:	74 15                	je     40b4b9 <__intel_cpu_features_init_body+0x8d9>
  40b4a4:	48 89 e0             	mov    %rsp,%rax
  40b4a7:	b9 26 00 00 00       	mov    $0x26,%ecx
  40b4ac:	e8 8f 0d 00 00       	call   40c240 <__libirc_set_cpu_feature>
  40b4b1:	85 c0                	test   %eax,%eax
  40b4b3:	0f 85 59 fb ff ff    	jne    40b012 <__intel_cpu_features_init_body+0x432>
  40b4b9:	45 85 c9             	test   %r9d,%r9d
  40b4bc:	0f 88 b5 01 00 00    	js     40b677 <__intel_cpu_features_init_body+0xa97>
  40b4c2:	41 f7 c1 00 00 20 00 	test   $0x200000,%r9d
  40b4c9:	74 15                	je     40b4e0 <__intel_cpu_features_init_body+0x900>
  40b4cb:	48 89 e0             	mov    %rsp,%rax
  40b4ce:	b9 1f 00 00 00       	mov    $0x1f,%ecx
  40b4d3:	e8 68 0d 00 00       	call   40c240 <__libirc_set_cpu_feature>
  40b4d8:	85 c0                	test   %eax,%eax
  40b4da:	0f 85 32 fb ff ff    	jne    40b012 <__intel_cpu_features_init_body+0x432>
  40b4e0:	40 f6 c7 02          	test   $0x2,%dil
  40b4e4:	74 15                	je     40b4fb <__intel_cpu_features_init_body+0x91b>
  40b4e6:	48 89 e0             	mov    %rsp,%rax
  40b4e9:	b9 28 00 00 00       	mov    $0x28,%ecx
  40b4ee:	e8 4d 0d 00 00       	call   40c240 <__libirc_set_cpu_feature>
  40b4f3:	85 c0                	test   %eax,%eax
  40b4f5:	0f 85 17 fb ff ff    	jne    40b012 <__intel_cpu_features_init_body+0x432>
  40b4fb:	f7 c7 00 40 00 00    	test   $0x4000,%edi
  40b501:	74 15                	je     40b518 <__intel_cpu_features_init_body+0x938>
  40b503:	48 89 e0             	mov    %rsp,%rax
  40b506:	b9 2b 00 00 00       	mov    $0x2b,%ecx
  40b50b:	e8 30 0d 00 00       	call   40c240 <__libirc_set_cpu_feature>
  40b510:	85 c0                	test   %eax,%eax
  40b512:	0f 85 fa fa ff ff    	jne    40b012 <__intel_cpu_features_init_body+0x432>
  40b518:	40 f6 c6 04          	test   $0x4,%sil
  40b51c:	74 15                	je     40b533 <__intel_cpu_features_init_body+0x953>
  40b51e:	48 89 e0             	mov    %rsp,%rax
  40b521:	b9 2a 00 00 00       	mov    $0x2a,%ecx
  40b526:	e8 15 0d 00 00       	call   40c240 <__libirc_set_cpu_feature>
  40b52b:	85 c0                	test   %eax,%eax
  40b52d:	0f 85 df fa ff ff    	jne    40b012 <__intel_cpu_features_init_body+0x432>
  40b533:	40 f6 c6 08          	test   $0x8,%sil
  40b537:	74 15                	je     40b54e <__intel_cpu_features_init_body+0x96e>
  40b539:	48 89 e0             	mov    %rsp,%rax
  40b53c:	b9 29 00 00 00       	mov    $0x29,%ecx
  40b541:	e8 fa 0c 00 00       	call   40c240 <__libirc_set_cpu_feature>
  40b546:	85 c0                	test   %eax,%eax
  40b548:	0f 85 c4 fa ff ff    	jne    40b012 <__intel_cpu_features_init_body+0x432>
  40b54e:	f7 c7 00 10 00 00    	test   $0x1000,%edi
  40b554:	74 15                	je     40b56b <__intel_cpu_features_init_body+0x98b>
  40b556:	48 89 e0             	mov    %rsp,%rax
  40b559:	b9 2c 00 00 00       	mov    $0x2c,%ecx
  40b55e:	e8 dd 0c 00 00       	call   40c240 <__libirc_set_cpu_feature>
  40b563:	85 c0                	test   %eax,%eax
  40b565:	0f 85 a7 fa ff ff    	jne    40b012 <__intel_cpu_features_init_body+0x432>
  40b56b:	40 f6 c7 40          	test   $0x40,%dil
  40b56f:	74 15                	je     40b586 <__intel_cpu_features_init_body+0x9a6>
  40b571:	48 89 e0             	mov    %rsp,%rax
  40b574:	b9 2d 00 00 00       	mov    $0x2d,%ecx
  40b579:	e8 c2 0c 00 00       	call   40c240 <__libirc_set_cpu_feature>
  40b57e:	85 c0                	test   %eax,%eax
  40b580:	0f 85 8c fa ff ff    	jne    40b012 <__intel_cpu_features_init_body+0x432>
  40b586:	f7 c7 00 08 00 00    	test   $0x800,%edi
  40b58c:	74 15                	je     40b5a3 <__intel_cpu_features_init_body+0x9c3>
  40b58e:	48 89 e0             	mov    %rsp,%rax
  40b591:	b9 31 00 00 00       	mov    $0x31,%ecx
  40b596:	e8 a5 0c 00 00       	call   40c240 <__libirc_set_cpu_feature>
  40b59b:	85 c0                	test   %eax,%eax
  40b59d:	0f 85 6f fa ff ff    	jne    40b012 <__intel_cpu_features_init_body+0x432>
  40b5a3:	f6 c2 20             	test   $0x20,%dl
  40b5a6:	74 15                	je     40b5bd <__intel_cpu_features_init_body+0x9dd>
  40b5a8:	48 89 e0             	mov    %rsp,%rax
  40b5ab:	b9 3f 00 00 00       	mov    $0x3f,%ecx
  40b5b0:	e8 8b 0c 00 00       	call   40c240 <__libirc_set_cpu_feature>
  40b5b5:	85 c0                	test   %eax,%eax
  40b5b7:	0f 85 55 fa ff ff    	jne    40b012 <__intel_cpu_features_init_body+0x432>
  40b5bd:	f7 c6 00 00 80 00    	test   $0x800000,%esi
  40b5c3:	74 15                	je     40b5da <__intel_cpu_features_init_body+0x9fa>
  40b5c5:	48 89 e0             	mov    %rsp,%rax
  40b5c8:	b9 3a 00 00 00       	mov    $0x3a,%ecx
  40b5cd:	e8 6e 0c 00 00       	call   40c240 <__libirc_set_cpu_feature>
  40b5d2:	85 c0                	test   %eax,%eax
  40b5d4:	0f 85 38 fa ff ff    	jne    40b012 <__intel_cpu_features_init_body+0x432>
  40b5da:	f7 c6 00 01 00 00    	test   $0x100,%esi
  40b5e0:	0f 84 ff f9 ff ff    	je     40afe5 <__intel_cpu_features_init_body+0x405>
  40b5e6:	48 89 e0             	mov    %rsp,%rax
  40b5e9:	b9 39 00 00 00       	mov    $0x39,%ecx
  40b5ee:	e8 4d 0c 00 00       	call   40c240 <__libirc_set_cpu_feature>
  40b5f3:	85 c0                	test   %eax,%eax
  40b5f5:	0f 85 17 fa ff ff    	jne    40b012 <__intel_cpu_features_init_body+0x432>
  40b5fb:	e9 e5 f9 ff ff       	jmp    40afe5 <__intel_cpu_features_init_body+0x405>
  40b600:	0f 28 04 24          	movaps (%rsp),%xmm0
  40b604:	83 fd 01             	cmp    $0x1,%ebp
  40b607:	75 07                	jne    40b610 <__intel_cpu_features_init_body+0xa30>
  40b609:	0f 29 05 80 5b 00 00 	movaps %xmm0,0x5b80(%rip)        # 411190 <__intel_cpu_feature_indicator>
  40b610:	48 c7 c0 a0 11 41 00 	mov    $0x4111a0,%rax
  40b617:	0f 29 00             	movaps %xmm0,(%rax)
  40b61a:	e9 f1 f9 ff ff       	jmp    40b010 <__intel_cpu_features_init_body+0x430>
  40b61f:	48 89 e0             	mov    %rsp,%rax
  40b622:	b9 10 00 00 00       	mov    $0x10,%ecx
  40b627:	e8 14 0c 00 00       	call   40c240 <__libirc_set_cpu_feature>
  40b62c:	85 c0                	test   %eax,%eax
  40b62e:	0f 85 de f9 ff ff    	jne    40b012 <__intel_cpu_features_init_body+0x432>
  40b634:	f7 c7 00 02 00 00    	test   $0x200,%edi
  40b63a:	74 15                	je     40b651 <__intel_cpu_features_init_body+0xa71>
  40b63c:	48 89 e0             	mov    %rsp,%rax
  40b63f:	b9 2f 00 00 00       	mov    $0x2f,%ecx
  40b644:	e8 f7 0b 00 00       	call   40c240 <__libirc_set_cpu_feature>
  40b649:	85 c0                	test   %eax,%eax
  40b64b:	0f 85 c1 f9 ff ff    	jne    40b012 <__intel_cpu_features_init_body+0x432>
  40b651:	f7 c7 00 04 00 00    	test   $0x400,%edi
  40b657:	0f 84 d1 fc ff ff    	je     40b32e <__intel_cpu_features_init_body+0x74e>
  40b65d:	48 89 e0             	mov    %rsp,%rax
  40b660:	b9 30 00 00 00       	mov    $0x30,%ecx
  40b665:	e8 d6 0b 00 00       	call   40c240 <__libirc_set_cpu_feature>
  40b66a:	85 c0                	test   %eax,%eax
  40b66c:	0f 85 a0 f9 ff ff    	jne    40b012 <__intel_cpu_features_init_body+0x432>
  40b672:	e9 b7 fc ff ff       	jmp    40b32e <__intel_cpu_features_init_body+0x74e>
  40b677:	48 89 e0             	mov    %rsp,%rax
  40b67a:	b9 27 00 00 00       	mov    $0x27,%ecx
  40b67f:	e8 bc 0b 00 00       	call   40c240 <__libirc_set_cpu_feature>
  40b684:	85 c0                	test   %eax,%eax
  40b686:	0f 85 86 f9 ff ff    	jne    40b012 <__intel_cpu_features_init_body+0x432>
  40b68c:	e9 31 fe ff ff       	jmp    40b4c2 <__intel_cpu_features_init_body+0x8e2>
  40b691:	66 2e 0f 1f 84 00 00 	cs nopw 0x0(%rax,%rax,1)
  40b698:	00 00 00 
  40b69b:	0f 1f 44 00 00       	nopl   0x0(%rax,%rax,1)

000000000040b6a0 <__intel_cpu_features_init_x>:
  40b6a0:	f3 0f 1e fa          	endbr64
  40b6a4:	50                   	push   %rax
  40b6a5:	31 c0                	xor    %eax,%eax
  40b6a7:	e8 34 f5 ff ff       	call   40abe0 <__intel_cpu_features_init_body>
  40b6ac:	48 83 c4 08          	add    $0x8,%rsp
  40b6b0:	c3                   	ret
  40b6b1:	66 2e 0f 1f 84 00 00 	cs nopw 0x0(%rax,%rax,1)
  40b6b8:	00 00 00 
  40b6bb:	0f 1f 44 00 00       	nopl   0x0(%rax,%rax,1)

000000000040b6c0 <__libirc_get_feature_name>:
  40b6c0:	f3 0f 1e fa          	endbr64
  40b6c4:	50                   	push   %rax
  40b6c5:	80 3d e4 5a 00 00 00 	cmpb   $0x0,0x5ae4(%rip)        # 4111b0 <__libirc_isa_info_initialized>
  40b6cc:	75 05                	jne    40b6d3 <__libirc_get_feature_name+0x13>
  40b6ce:	e8 1d 00 00 00       	call   40b6f0 <__libirc_isa_init_once>
  40b6d3:	89 f8                	mov    %edi,%eax
  40b6d5:	48 8d 04 40          	lea    (%rax,%rax,2),%rax
  40b6d9:	48 8d 0d e0 5a 00 00 	lea    0x5ae0(%rip),%rcx        # 4111c0 <proc_info_features>
  40b6e0:	48 8b 04 c1          	mov    (%rcx,%rax,8),%rax
  40b6e4:	59                   	pop    %rcx
  40b6e5:	c3                   	ret
  40b6e6:	66 2e 0f 1f 84 00 00 	cs nopw 0x0(%rax,%rax,1)
  40b6ed:	00 00 00 

000000000040b6f0 <__libirc_isa_init_once>:
  40b6f0:	51                   	push   %rcx
  40b6f1:	80 3d b8 5a 00 00 00 	cmpb   $0x0,0x5ab8(%rip)        # 4111b0 <__libirc_isa_info_initialized>
  40b6f8:	0f 85 aa 0a 00 00    	jne    40c1a8 <__libirc_isa_init_once+0xab8>
  40b6fe:	b8 c8 00 00 00       	mov    $0xc8,%eax
  40b703:	48 8d 0d b6 5a 00 00 	lea    0x5ab6(%rip),%rcx        # 4111c0 <proc_info_features>
  40b70a:	66 0f 1f 44 00 00    	nopw   0x0(%rax,%rax,1)
  40b710:	c7 84 08 58 ff ff ff 	movl   $0xffffffff,-0xa8(%rax,%rcx,1)
  40b717:	ff ff ff ff 
  40b71b:	c7 84 08 70 ff ff ff 	movl   $0xffffffff,-0x90(%rax,%rcx,1)
  40b722:	ff ff ff ff 
  40b726:	c7 44 08 88 ff ff ff 	movl   $0xffffffff,-0x78(%rax,%rcx,1)
  40b72d:	ff 
  40b72e:	c7 44 08 a0 ff ff ff 	movl   $0xffffffff,-0x60(%rax,%rcx,1)
  40b735:	ff 
  40b736:	c7 44 08 b8 ff ff ff 	movl   $0xffffffff,-0x48(%rax,%rcx,1)
  40b73d:	ff 
  40b73e:	c7 44 08 d0 ff ff ff 	movl   $0xffffffff,-0x30(%rax,%rcx,1)
  40b745:	ff 
  40b746:	c7 44 08 e8 ff ff ff 	movl   $0xffffffff,-0x18(%rax,%rcx,1)
  40b74d:	ff 
  40b74e:	c7 04 08 ff ff ff ff 	movl   $0xffffffff,(%rax,%rcx,1)
  40b755:	48 05 c0 00 00 00    	add    $0xc0,%rax
  40b75b:	48 3d c8 06 00 00    	cmp    $0x6c8,%rax
  40b761:	75 ad                	jne    40b710 <__libirc_isa_init_once+0x20>
  40b763:	c7 05 73 60 00 00 ff 	movl   $0xffffffff,0x6073(%rip)        # 4117e0 <proc_info_features+0x620>
  40b76a:	ff ff ff 
  40b76d:	c7 05 81 60 00 00 ff 	movl   $0xffffffff,0x6081(%rip)        # 4117f8 <proc_info_features+0x638>
  40b774:	ff ff ff 
  40b777:	c7 05 8f 60 00 00 ff 	movl   $0xffffffff,0x608f(%rip)        # 411810 <proc_info_features+0x650>
  40b77e:	ff ff ff 
  40b781:	c7 05 9d 60 00 00 ff 	movl   $0xffffffff,0x609d(%rip)        # 411828 <proc_info_features+0x668>
  40b788:	ff ff ff 
  40b78b:	c7 05 ab 60 00 00 ff 	movl   $0xffffffff,0x60ab(%rip)        # 411840 <proc_info_features+0x680>
  40b792:	ff ff ff 
  40b795:	c7 05 b9 60 00 00 ff 	movl   $0xffffffff,0x60b9(%rip)        # 411858 <proc_info_features+0x698>
  40b79c:	ff ff ff 
  40b79f:	48 8d 05 50 1a 00 00 	lea    0x1a50(%rip),%rax        # 40d1f6 <_IO_stdin_used+0x1f6>
  40b7a6:	48 89 05 2b 5a 00 00 	mov    %rax,0x5a2b(%rip)        # 4111d8 <proc_info_features+0x18>
  40b7ad:	c7 05 29 5a 00 00 00 	movl   $0x0,0x5a29(%rip)        # 4111e0 <proc_info_features+0x20>
  40b7b4:	00 00 00 
  40b7b7:	48 8d 05 45 1a 00 00 	lea    0x1a45(%rip),%rax        # 40d203 <_IO_stdin_used+0x203>
  40b7be:	48 89 05 2b 5a 00 00 	mov    %rax,0x5a2b(%rip)        # 4111f0 <proc_info_features+0x30>
  40b7c5:	c7 05 29 5a 00 00 01 	movl   $0x1,0x5a29(%rip)        # 4111f8 <proc_info_features+0x38>
  40b7cc:	00 00 00 
  40b7cf:	48 8d 05 31 1a 00 00 	lea    0x1a31(%rip),%rax        # 40d207 <_IO_stdin_used+0x207>
  40b7d6:	48 89 05 2b 5a 00 00 	mov    %rax,0x5a2b(%rip)        # 411208 <proc_info_features+0x48>
  40b7dd:	c7 05 29 5a 00 00 02 	movl   $0x2,0x5a29(%rip)        # 411210 <proc_info_features+0x50>
  40b7e4:	00 00 00 
  40b7e7:	c7 05 37 5a 00 00 03 	movl   $0x3,0x5a37(%rip)        # 411228 <proc_info_features+0x68>
  40b7ee:	00 00 00 
  40b7f1:	48 8d 05 14 1a 00 00 	lea    0x1a14(%rip),%rax        # 40d20c <_IO_stdin_used+0x20c>
  40b7f8:	48 89 05 31 5a 00 00 	mov    %rax,0x5a31(%rip)        # 411230 <proc_info_features+0x70>
  40b7ff:	48 8d 05 0a 1a 00 00 	lea    0x1a0a(%rip),%rax        # 40d210 <_IO_stdin_used+0x210>
  40b806:	48 89 05 13 5a 00 00 	mov    %rax,0x5a13(%rip)        # 411220 <proc_info_features+0x60>
  40b80d:	48 8d 05 00 1a 00 00 	lea    0x1a00(%rip),%rax        # 40d214 <_IO_stdin_used+0x214>
  40b814:	48 89 05 1d 5a 00 00 	mov    %rax,0x5a1d(%rip)        # 411238 <proc_info_features+0x78>
  40b81b:	c7 05 1b 5a 00 00 04 	movl   $0x4,0x5a1b(%rip)        # 411240 <proc_info_features+0x80>
  40b822:	00 00 00 
  40b825:	c7 05 29 5a 00 00 05 	movl   $0x5,0x5a29(%rip)        # 411258 <proc_info_features+0x98>
  40b82c:	00 00 00 
  40b82f:	48 8d 05 e5 19 00 00 	lea    0x19e5(%rip),%rax        # 40d21b <_IO_stdin_used+0x21b>
  40b836:	48 89 05 23 5a 00 00 	mov    %rax,0x5a23(%rip)        # 411260 <proc_info_features+0xa0>
  40b83d:	48 8d 05 db 19 00 00 	lea    0x19db(%rip),%rax        # 40d21f <_IO_stdin_used+0x21f>
  40b844:	48 89 05 05 5a 00 00 	mov    %rax,0x5a05(%rip)        # 411250 <proc_info_features+0x90>
  40b84b:	c7 05 1b 5a 00 00 06 	movl   $0x6,0x5a1b(%rip)        # 411270 <proc_info_features+0xb0>
  40b852:	00 00 00 
  40b855:	48 8d 05 c7 19 00 00 	lea    0x19c7(%rip),%rax        # 40d223 <_IO_stdin_used+0x223>
  40b85c:	48 89 05 15 5a 00 00 	mov    %rax,0x5a15(%rip)        # 411278 <proc_info_features+0xb8>
  40b863:	48 8d 05 be 19 00 00 	lea    0x19be(%rip),%rax        # 40d228 <_IO_stdin_used+0x228>
  40b86a:	48 89 05 f7 59 00 00 	mov    %rax,0x59f7(%rip)        # 411268 <proc_info_features+0xa8>
  40b871:	c7 05 0d 5a 00 00 07 	movl   $0x7,0x5a0d(%rip)        # 411288 <proc_info_features+0xc8>
  40b878:	00 00 00 
  40b87b:	48 8d 05 ac 19 00 00 	lea    0x19ac(%rip),%rax        # 40d22e <_IO_stdin_used+0x22e>
  40b882:	48 89 05 07 5a 00 00 	mov    %rax,0x5a07(%rip)        # 411290 <proc_info_features+0xd0>
  40b889:	48 8d 05 a4 19 00 00 	lea    0x19a4(%rip),%rax        # 40d234 <_IO_stdin_used+0x234>
  40b890:	48 89 05 e9 59 00 00 	mov    %rax,0x59e9(%rip)        # 411280 <proc_info_features+0xc0>
  40b897:	c7 05 ff 59 00 00 08 	movl   $0x8,0x59ff(%rip)        # 4112a0 <proc_info_features+0xe0>
  40b89e:	00 00 00 
  40b8a1:	48 8d 05 85 19 00 00 	lea    0x1985(%rip),%rax        # 40d22d <_IO_stdin_used+0x22d>
  40b8a8:	48 89 05 f9 59 00 00 	mov    %rax,0x59f9(%rip)        # 4112a8 <proc_info_features+0xe8>
  40b8af:	48 8d 05 7d 19 00 00 	lea    0x197d(%rip),%rax        # 40d233 <_IO_stdin_used+0x233>
  40b8b6:	48 89 05 db 59 00 00 	mov    %rax,0x59db(%rip)        # 411298 <proc_info_features+0xd8>
  40b8bd:	c7 05 f1 59 00 00 09 	movl   $0x9,0x59f1(%rip)        # 4112b8 <proc_info_features+0xf8>
  40b8c4:	00 00 00 
  40b8c7:	48 8d 05 6b 19 00 00 	lea    0x196b(%rip),%rax        # 40d239 <_IO_stdin_used+0x239>
  40b8ce:	48 89 05 eb 59 00 00 	mov    %rax,0x59eb(%rip)        # 4112c0 <proc_info_features+0x100>
  40b8d5:	48 8d 05 64 19 00 00 	lea    0x1964(%rip),%rax        # 40d240 <_IO_stdin_used+0x240>
  40b8dc:	48 89 05 cd 59 00 00 	mov    %rax,0x59cd(%rip)        # 4112b0 <proc_info_features+0xf0>
  40b8e3:	c7 05 e3 59 00 00 0a 	movl   $0xa,0x59e3(%rip)        # 4112d0 <proc_info_features+0x110>
  40b8ea:	00 00 00 
  40b8ed:	48 8d 05 53 19 00 00 	lea    0x1953(%rip),%rax        # 40d247 <_IO_stdin_used+0x247>
  40b8f4:	48 89 05 dd 59 00 00 	mov    %rax,0x59dd(%rip)        # 4112d8 <proc_info_features+0x118>
  40b8fb:	48 8d 05 4a 19 00 00 	lea    0x194a(%rip),%rax        # 40d24c <_IO_stdin_used+0x24c>
  40b902:	48 89 05 bf 59 00 00 	mov    %rax,0x59bf(%rip)        # 4112c8 <proc_info_features+0x108>
  40b909:	c7 05 d5 59 00 00 0b 	movl   $0xb,0x59d5(%rip)        # 4112e8 <proc_info_features+0x128>
  40b910:	00 00 00 
  40b913:	48 8d 05 39 19 00 00 	lea    0x1939(%rip),%rax        # 40d253 <_IO_stdin_used+0x253>
  40b91a:	48 89 05 cf 59 00 00 	mov    %rax,0x59cf(%rip)        # 4112f0 <proc_info_features+0x130>
  40b921:	48 8d 05 31 19 00 00 	lea    0x1931(%rip),%rax        # 40d259 <_IO_stdin_used+0x259>
  40b928:	48 89 05 b1 59 00 00 	mov    %rax,0x59b1(%rip)        # 4112e0 <proc_info_features+0x120>
  40b92f:	c7 05 c7 59 00 00 0c 	movl   $0xc,0x59c7(%rip)        # 411300 <proc_info_features+0x140>
  40b936:	00 00 00 
  40b939:	48 8d 05 1f 19 00 00 	lea    0x191f(%rip),%rax        # 40d25f <_IO_stdin_used+0x25f>
  40b940:	48 89 05 c1 59 00 00 	mov    %rax,0x59c1(%rip)        # 411308 <proc_info_features+0x148>
  40b947:	48 8d 05 18 19 00 00 	lea    0x1918(%rip),%rax        # 40d266 <_IO_stdin_used+0x266>
  40b94e:	48 89 05 a3 59 00 00 	mov    %rax,0x59a3(%rip)        # 4112f8 <proc_info_features+0x138>
  40b955:	c7 05 b9 59 00 00 0d 	movl   $0xd,0x59b9(%rip)        # 411318 <proc_info_features+0x158>
  40b95c:	00 00 00 
  40b95f:	48 8d 05 07 19 00 00 	lea    0x1907(%rip),%rax        # 40d26d <_IO_stdin_used+0x26d>
  40b966:	48 89 05 b3 59 00 00 	mov    %rax,0x59b3(%rip)        # 411320 <proc_info_features+0x160>
  40b96d:	48 8d 05 d9 1a 00 00 	lea    0x1ad9(%rip),%rax        # 40d44d <_IO_stdin_used+0x44d>
  40b974:	48 89 05 95 59 00 00 	mov    %rax,0x5995(%rip)        # 411310 <proc_info_features+0x150>
  40b97b:	c7 05 ab 59 00 00 0e 	movl   $0xe,0x59ab(%rip)        # 411330 <proc_info_features+0x170>
  40b982:	00 00 00 
  40b985:	48 8d 05 ac 1a 00 00 	lea    0x1aac(%rip),%rax        # 40d438 <_IO_stdin_used+0x438>
  40b98c:	48 89 05 a5 59 00 00 	mov    %rax,0x59a5(%rip)        # 411338 <proc_info_features+0x178>
  40b993:	48 8d 05 a3 1a 00 00 	lea    0x1aa3(%rip),%rax        # 40d43d <_IO_stdin_used+0x43d>
  40b99a:	48 89 05 87 59 00 00 	mov    %rax,0x5987(%rip)        # 411328 <proc_info_features+0x168>
  40b9a1:	c7 05 9d 59 00 00 10 	movl   $0x10,0x599d(%rip)        # 411348 <proc_info_features+0x188>
  40b9a8:	00 00 00 
  40b9ab:	48 8d 05 c2 18 00 00 	lea    0x18c2(%rip),%rax        # 40d274 <_IO_stdin_used+0x274>
  40b9b2:	48 89 05 97 59 00 00 	mov    %rax,0x5997(%rip)        # 411350 <proc_info_features+0x190>
  40b9b9:	48 8d 05 b8 18 00 00 	lea    0x18b8(%rip),%rax        # 40d278 <_IO_stdin_used+0x278>
  40b9c0:	48 89 05 79 59 00 00 	mov    %rax,0x5979(%rip)        # 411340 <proc_info_features+0x180>
  40b9c7:	c7 05 8f 59 00 00 0f 	movl   $0xf,0x598f(%rip)        # 411360 <proc_info_features+0x1a0>
  40b9ce:	00 00 00 
  40b9d1:	48 8d 05 a4 18 00 00 	lea    0x18a4(%rip),%rax        # 40d27c <_IO_stdin_used+0x27c>
  40b9d8:	48 89 05 89 59 00 00 	mov    %rax,0x5989(%rip)        # 411368 <proc_info_features+0x1a8>
  40b9df:	48 8d 05 9b 18 00 00 	lea    0x189b(%rip),%rax        # 40d281 <_IO_stdin_used+0x281>
  40b9e6:	48 89 05 6b 59 00 00 	mov    %rax,0x596b(%rip)        # 411358 <proc_info_features+0x198>
  40b9ed:	c7 05 81 59 00 00 11 	movl   $0x11,0x5981(%rip)        # 411378 <proc_info_features+0x1b8>
  40b9f4:	00 00 00 
  40b9f7:	48 8d 05 88 18 00 00 	lea    0x1888(%rip),%rax        # 40d286 <_IO_stdin_used+0x286>
  40b9fe:	48 89 05 7b 59 00 00 	mov    %rax,0x597b(%rip)        # 411380 <proc_info_features+0x1c0>
  40ba05:	48 8d 05 80 18 00 00 	lea    0x1880(%rip),%rax        # 40d28c <_IO_stdin_used+0x28c>
  40ba0c:	48 89 05 5d 59 00 00 	mov    %rax,0x595d(%rip)        # 411370 <proc_info_features+0x1b0>
  40ba13:	c7 05 73 59 00 00 12 	movl   $0x12,0x5973(%rip)        # 411390 <proc_info_features+0x1d0>
  40ba1a:	00 00 00 
  40ba1d:	48 8d 05 ed 18 00 00 	lea    0x18ed(%rip),%rax        # 40d311 <_IO_stdin_used+0x311>
  40ba24:	48 89 05 6d 59 00 00 	mov    %rax,0x596d(%rip)        # 411398 <proc_info_features+0x1d8>
  40ba2b:	48 8d 05 60 18 00 00 	lea    0x1860(%rip),%rax        # 40d292 <_IO_stdin_used+0x292>
  40ba32:	48 89 05 4f 59 00 00 	mov    %rax,0x594f(%rip)        # 411388 <proc_info_features+0x1c8>
  40ba39:	c7 05 65 59 00 00 13 	movl   $0x13,0x5965(%rip)        # 4113a8 <proc_info_features+0x1e8>
  40ba40:	00 00 00 
  40ba43:	48 8d 05 49 19 00 00 	lea    0x1949(%rip),%rax        # 40d393 <_IO_stdin_used+0x393>
  40ba4a:	48 89 05 5f 59 00 00 	mov    %rax,0x595f(%rip)        # 4113b0 <proc_info_features+0x1f0>
  40ba51:	48 8d 05 46 19 00 00 	lea    0x1946(%rip),%rax        # 40d39e <_IO_stdin_used+0x39e>
  40ba58:	48 89 05 41 59 00 00 	mov    %rax,0x5941(%rip)        # 4113a0 <proc_info_features+0x1e0>
  40ba5f:	c7 05 57 59 00 00 14 	movl   $0x14,0x5957(%rip)        # 4113c0 <proc_info_features+0x200>
  40ba66:	00 00 00 
  40ba69:	48 8d 05 26 18 00 00 	lea    0x1826(%rip),%rax        # 40d296 <_IO_stdin_used+0x296>
  40ba70:	48 89 05 51 59 00 00 	mov    %rax,0x5951(%rip)        # 4113c8 <proc_info_features+0x208>
  40ba77:	48 8d 05 1e 18 00 00 	lea    0x181e(%rip),%rax        # 40d29c <_IO_stdin_used+0x29c>
  40ba7e:	48 89 05 33 59 00 00 	mov    %rax,0x5933(%rip)        # 4113b8 <proc_info_features+0x1f8>
  40ba85:	c7 05 49 59 00 00 15 	movl   $0x15,0x5949(%rip)        # 4113d8 <proc_info_features+0x218>
  40ba8c:	00 00 00 
  40ba8f:	48 8d 05 0c 18 00 00 	lea    0x180c(%rip),%rax        # 40d2a2 <_IO_stdin_used+0x2a2>
  40ba96:	48 89 05 43 59 00 00 	mov    %rax,0x5943(%rip)        # 4113e0 <proc_info_features+0x220>
  40ba9d:	48 8d 05 02 18 00 00 	lea    0x1802(%rip),%rax        # 40d2a6 <_IO_stdin_used+0x2a6>
  40baa4:	48 89 05 25 59 00 00 	mov    %rax,0x5925(%rip)        # 4113d0 <proc_info_features+0x210>
  40baab:	c7 05 3b 59 00 00 16 	movl   $0x16,0x593b(%rip)        # 4113f0 <proc_info_features+0x230>
  40bab2:	00 00 00 
  40bab5:	48 8d 05 ee 17 00 00 	lea    0x17ee(%rip),%rax        # 40d2aa <_IO_stdin_used+0x2aa>
  40babc:	48 89 05 35 59 00 00 	mov    %rax,0x5935(%rip)        # 4113f8 <proc_info_features+0x238>
  40bac3:	48 8d 05 e4 17 00 00 	lea    0x17e4(%rip),%rax        # 40d2ae <_IO_stdin_used+0x2ae>
  40baca:	48 89 05 17 59 00 00 	mov    %rax,0x5917(%rip)        # 4113e8 <proc_info_features+0x228>
  40bad1:	c7 05 2d 59 00 00 17 	movl   $0x17,0x592d(%rip)        # 411408 <proc_info_features+0x248>
  40bad8:	00 00 00 
  40badb:	48 8d 05 d0 17 00 00 	lea    0x17d0(%rip),%rax        # 40d2b2 <_IO_stdin_used+0x2b2>
  40bae2:	48 89 05 27 59 00 00 	mov    %rax,0x5927(%rip)        # 411410 <proc_info_features+0x250>
  40bae9:	48 8d 05 c7 17 00 00 	lea    0x17c7(%rip),%rax        # 40d2b7 <_IO_stdin_used+0x2b7>
  40baf0:	48 89 05 09 59 00 00 	mov    %rax,0x5909(%rip)        # 411400 <proc_info_features+0x240>
  40baf7:	c7 05 1f 59 00 00 1b 	movl   $0x1b,0x591f(%rip)        # 411420 <proc_info_features+0x260>
  40bafe:	00 00 00 
  40bb01:	48 8d 05 b4 17 00 00 	lea    0x17b4(%rip),%rax        # 40d2bc <_IO_stdin_used+0x2bc>
  40bb08:	48 89 05 19 59 00 00 	mov    %rax,0x5919(%rip)        # 411428 <proc_info_features+0x268>
  40bb0f:	48 8d 05 ae 17 00 00 	lea    0x17ae(%rip),%rax        # 40d2c4 <_IO_stdin_used+0x2c4>
  40bb16:	48 89 05 fb 58 00 00 	mov    %rax,0x58fb(%rip)        # 411418 <proc_info_features+0x258>
  40bb1d:	c7 05 11 59 00 00 18 	movl   $0x18,0x5911(%rip)        # 411438 <proc_info_features+0x278>
  40bb24:	00 00 00 
  40bb27:	48 8d 05 9e 17 00 00 	lea    0x179e(%rip),%rax        # 40d2cc <_IO_stdin_used+0x2cc>
  40bb2e:	48 89 05 0b 59 00 00 	mov    %rax,0x590b(%rip)        # 411440 <proc_info_features+0x280>
  40bb35:	48 8d 05 99 17 00 00 	lea    0x1799(%rip),%rax        # 40d2d5 <_IO_stdin_used+0x2d5>
  40bb3c:	48 89 05 ed 58 00 00 	mov    %rax,0x58ed(%rip)        # 411430 <proc_info_features+0x270>
  40bb43:	c7 05 03 59 00 00 19 	movl   $0x19,0x5903(%rip)        # 411450 <proc_info_features+0x290>
  40bb4a:	00 00 00 
  40bb4d:	48 8d 05 8a 17 00 00 	lea    0x178a(%rip),%rax        # 40d2de <_IO_stdin_used+0x2de>
  40bb54:	48 89 05 fd 58 00 00 	mov    %rax,0x58fd(%rip)        # 411458 <proc_info_features+0x298>
  40bb5b:	48 8d 05 84 17 00 00 	lea    0x1784(%rip),%rax        # 40d2e6 <_IO_stdin_used+0x2e6>
  40bb62:	48 89 05 df 58 00 00 	mov    %rax,0x58df(%rip)        # 411448 <proc_info_features+0x288>
  40bb69:	48 8d 05 7e 17 00 00 	lea    0x177e(%rip),%rax        # 40d2ee <_IO_stdin_used+0x2ee>
  40bb70:	48 89 05 e9 58 00 00 	mov    %rax,0x58e9(%rip)        # 411460 <proc_info_features+0x2a0>
  40bb77:	c7 05 e7 58 00 00 1a 	movl   $0x1a,0x58e7(%rip)        # 411468 <proc_info_features+0x2a8>
  40bb7e:	00 00 00 
  40bb81:	c7 05 f5 58 00 00 1c 	movl   $0x1c,0x58f5(%rip)        # 411480 <proc_info_features+0x2c0>
  40bb88:	00 00 00 
  40bb8b:	48 8d 05 62 17 00 00 	lea    0x1762(%rip),%rax        # 40d2f4 <_IO_stdin_used+0x2f4>
  40bb92:	48 89 05 ef 58 00 00 	mov    %rax,0x58ef(%rip)        # 411488 <proc_info_features+0x2c8>
  40bb99:	48 8d 05 58 17 00 00 	lea    0x1758(%rip),%rax        # 40d2f8 <_IO_stdin_used+0x2f8>
  40bba0:	48 89 05 d1 58 00 00 	mov    %rax,0x58d1(%rip)        # 411478 <proc_info_features+0x2b8>
  40bba7:	c7 05 e7 58 00 00 1d 	movl   $0x1d,0x58e7(%rip)        # 411498 <proc_info_features+0x2d8>
  40bbae:	00 00 00 
  40bbb1:	48 8d 05 44 17 00 00 	lea    0x1744(%rip),%rax        # 40d2fc <_IO_stdin_used+0x2fc>
  40bbb8:	48 89 05 e1 58 00 00 	mov    %rax,0x58e1(%rip)        # 4114a0 <proc_info_features+0x2e0>
  40bbbf:	48 8d 05 3d 17 00 00 	lea    0x173d(%rip),%rax        # 40d303 <_IO_stdin_used+0x303>
  40bbc6:	48 89 05 c3 58 00 00 	mov    %rax,0x58c3(%rip)        # 411490 <proc_info_features+0x2d0>
  40bbcd:	c7 05 d9 58 00 00 1e 	movl   $0x1e,0x58d9(%rip)        # 4114b0 <proc_info_features+0x2f0>
  40bbd4:	00 00 00 
  40bbd7:	48 8d 05 2c 17 00 00 	lea    0x172c(%rip),%rax        # 40d30a <_IO_stdin_used+0x30a>
  40bbde:	48 89 05 d3 58 00 00 	mov    %rax,0x58d3(%rip)        # 4114b8 <proc_info_features+0x2f8>
  40bbe5:	48 8d 05 29 17 00 00 	lea    0x1729(%rip),%rax        # 40d315 <_IO_stdin_used+0x315>
  40bbec:	48 89 05 b5 58 00 00 	mov    %rax,0x58b5(%rip)        # 4114a8 <proc_info_features+0x2e8>
  40bbf3:	c7 05 cb 58 00 00 ff 	movl   $0xffffffff,0x58cb(%rip)        # 4114c8 <proc_info_features+0x308>
  40bbfa:	ff ff ff 
  40bbfd:	c7 05 d9 58 00 00 20 	movl   $0x20,0x58d9(%rip)        # 4114e0 <proc_info_features+0x320>
  40bc04:	00 00 00 
  40bc07:	48 8d 05 14 17 00 00 	lea    0x1714(%rip),%rax        # 40d322 <_IO_stdin_used+0x322>
  40bc0e:	48 89 05 d3 58 00 00 	mov    %rax,0x58d3(%rip)        # 4114e8 <proc_info_features+0x328>
  40bc15:	48 8d 05 0f 17 00 00 	lea    0x170f(%rip),%rax        # 40d32b <_IO_stdin_used+0x32b>
  40bc1c:	48 89 05 b5 58 00 00 	mov    %rax,0x58b5(%rip)        # 4114d8 <proc_info_features+0x318>
  40bc23:	c7 05 cb 58 00 00 21 	movl   $0x21,0x58cb(%rip)        # 4114f8 <proc_info_features+0x338>
  40bc2a:	00 00 00 
  40bc2d:	48 8d 05 00 17 00 00 	lea    0x1700(%rip),%rax        # 40d334 <_IO_stdin_used+0x334>
  40bc34:	48 89 05 c5 58 00 00 	mov    %rax,0x58c5(%rip)        # 411500 <proc_info_features+0x340>
  40bc3b:	48 8d 05 fb 16 00 00 	lea    0x16fb(%rip),%rax        # 40d33d <_IO_stdin_used+0x33d>
  40bc42:	48 89 05 a7 58 00 00 	mov    %rax,0x58a7(%rip)        # 4114f0 <proc_info_features+0x330>
  40bc49:	c7 05 bd 58 00 00 22 	movl   $0x22,0x58bd(%rip)        # 411510 <proc_info_features+0x350>
  40bc50:	00 00 00 
  40bc53:	48 8d 05 ec 16 00 00 	lea    0x16ec(%rip),%rax        # 40d346 <_IO_stdin_used+0x346>
  40bc5a:	48 89 05 b7 58 00 00 	mov    %rax,0x58b7(%rip)        # 411518 <proc_info_features+0x358>
  40bc61:	48 8d 05 e7 16 00 00 	lea    0x16e7(%rip),%rax        # 40d34f <_IO_stdin_used+0x34f>
  40bc68:	48 89 05 99 58 00 00 	mov    %rax,0x5899(%rip)        # 411508 <proc_info_features+0x348>
  40bc6f:	c7 05 af 58 00 00 23 	movl   $0x23,0x58af(%rip)        # 411528 <proc_info_features+0x368>
  40bc76:	00 00 00 
  40bc79:	48 8d 05 d8 16 00 00 	lea    0x16d8(%rip),%rax        # 40d358 <_IO_stdin_used+0x358>
  40bc80:	48 89 05 a9 58 00 00 	mov    %rax,0x58a9(%rip)        # 411530 <proc_info_features+0x370>
  40bc87:	48 8d 05 ce 16 00 00 	lea    0x16ce(%rip),%rax        # 40d35c <_IO_stdin_used+0x35c>
  40bc8e:	48 89 05 8b 58 00 00 	mov    %rax,0x588b(%rip)        # 411520 <proc_info_features+0x360>
  40bc95:	c7 05 a1 58 00 00 24 	movl   $0x24,0x58a1(%rip)        # 411540 <proc_info_features+0x380>
  40bc9c:	00 00 00 
  40bc9f:	48 8d 05 ba 16 00 00 	lea    0x16ba(%rip),%rax        # 40d360 <_IO_stdin_used+0x360>
  40bca6:	48 89 05 9b 58 00 00 	mov    %rax,0x589b(%rip)        # 411548 <proc_info_features+0x388>
  40bcad:	48 8d 05 b0 16 00 00 	lea    0x16b0(%rip),%rax        # 40d364 <_IO_stdin_used+0x364>
  40bcb4:	48 89 05 7d 58 00 00 	mov    %rax,0x587d(%rip)        # 411538 <proc_info_features+0x378>
  40bcbb:	c7 05 93 58 00 00 25 	movl   $0x25,0x5893(%rip)        # 411558 <proc_info_features+0x398>
  40bcc2:	00 00 00 
  40bcc5:	48 8d 05 9c 16 00 00 	lea    0x169c(%rip),%rax        # 40d368 <_IO_stdin_used+0x368>
  40bccc:	48 89 05 8d 58 00 00 	mov    %rax,0x588d(%rip)        # 411560 <proc_info_features+0x3a0>
  40bcd3:	48 8d 05 97 16 00 00 	lea    0x1697(%rip),%rax        # 40d371 <_IO_stdin_used+0x371>
  40bcda:	48 89 05 6f 58 00 00 	mov    %rax,0x586f(%rip)        # 411550 <proc_info_features+0x390>
  40bce1:	c7 05 85 58 00 00 26 	movl   $0x26,0x5885(%rip)        # 411570 <proc_info_features+0x3b0>
  40bce8:	00 00 00 
  40bceb:	48 8d 05 88 16 00 00 	lea    0x1688(%rip),%rax        # 40d37a <_IO_stdin_used+0x37a>
  40bcf2:	48 89 05 7f 58 00 00 	mov    %rax,0x587f(%rip)        # 411578 <proc_info_features+0x3b8>
  40bcf9:	48 8d 05 83 16 00 00 	lea    0x1683(%rip),%rax        # 40d383 <_IO_stdin_used+0x383>
  40bd00:	48 89 05 61 58 00 00 	mov    %rax,0x5861(%rip)        # 411568 <proc_info_features+0x3a8>
  40bd07:	c7 05 77 58 00 00 27 	movl   $0x27,0x5877(%rip)        # 411588 <proc_info_features+0x3c8>
  40bd0e:	00 00 00 
  40bd11:	48 8d 05 74 16 00 00 	lea    0x1674(%rip),%rax        # 40d38c <_IO_stdin_used+0x38c>
  40bd18:	48 89 05 71 58 00 00 	mov    %rax,0x5871(%rip)        # 411590 <proc_info_features+0x3d0>
  40bd1f:	48 8d 05 71 16 00 00 	lea    0x1671(%rip),%rax        # 40d397 <_IO_stdin_used+0x397>
  40bd26:	48 89 05 53 58 00 00 	mov    %rax,0x5853(%rip)        # 411580 <proc_info_features+0x3c0>
  40bd2d:	c7 05 69 58 00 00 28 	movl   $0x28,0x5869(%rip)        # 4115a0 <proc_info_features+0x3e0>
  40bd34:	00 00 00 
  40bd37:	48 8d 05 64 16 00 00 	lea    0x1664(%rip),%rax        # 40d3a2 <_IO_stdin_used+0x3a2>
  40bd3e:	48 89 05 63 58 00 00 	mov    %rax,0x5863(%rip)        # 4115a8 <proc_info_features+0x3e8>
  40bd45:	48 8d 05 63 16 00 00 	lea    0x1663(%rip),%rax        # 40d3af <_IO_stdin_used+0x3af>
  40bd4c:	48 89 05 45 58 00 00 	mov    %rax,0x5845(%rip)        # 411598 <proc_info_features+0x3d8>
  40bd53:	c7 05 5b 58 00 00 29 	movl   $0x29,0x585b(%rip)        # 4115b8 <proc_info_features+0x3f8>
  40bd5a:	00 00 00 
  40bd5d:	48 8d 05 59 16 00 00 	lea    0x1659(%rip),%rax        # 40d3bd <_IO_stdin_used+0x3bd>
  40bd64:	48 89 05 55 58 00 00 	mov    %rax,0x5855(%rip)        # 4115c0 <proc_info_features+0x400>
  40bd6b:	48 8d 05 58 16 00 00 	lea    0x1658(%rip),%rax        # 40d3ca <_IO_stdin_used+0x3ca>
  40bd72:	48 89 05 37 58 00 00 	mov    %rax,0x5837(%rip)        # 4115b0 <proc_info_features+0x3f0>
  40bd79:	c7 05 4d 58 00 00 2a 	movl   $0x2a,0x584d(%rip)        # 4115d0 <proc_info_features+0x410>
  40bd80:	00 00 00 
  40bd83:	48 8d 05 4e 16 00 00 	lea    0x164e(%rip),%rax        # 40d3d8 <_IO_stdin_used+0x3d8>
  40bd8a:	48 89 05 47 58 00 00 	mov    %rax,0x5847(%rip)        # 4115d8 <proc_info_features+0x418>
  40bd91:	48 8d 05 50 16 00 00 	lea    0x1650(%rip),%rax        # 40d3e8 <_IO_stdin_used+0x3e8>
  40bd98:	48 89 05 29 58 00 00 	mov    %rax,0x5829(%rip)        # 4115c8 <proc_info_features+0x408>
  40bd9f:	c7 05 3f 58 00 00 2b 	movl   $0x2b,0x583f(%rip)        # 4115e8 <proc_info_features+0x428>
  40bda6:	00 00 00 
  40bda9:	48 8d 05 49 16 00 00 	lea    0x1649(%rip),%rax        # 40d3f9 <_IO_stdin_used+0x3f9>
  40bdb0:	48 89 05 39 58 00 00 	mov    %rax,0x5839(%rip)        # 4115f0 <proc_info_features+0x430>
  40bdb7:	48 8d 05 48 16 00 00 	lea    0x1648(%rip),%rax        # 40d406 <_IO_stdin_used+0x406>
  40bdbe:	48 89 05 1b 58 00 00 	mov    %rax,0x581b(%rip)        # 4115e0 <proc_info_features+0x420>
  40bdc5:	c7 05 31 58 00 00 2c 	movl   $0x2c,0x5831(%rip)        # 411600 <proc_info_features+0x440>
  40bdcc:	00 00 00 
  40bdcf:	48 8d 05 3e 16 00 00 	lea    0x163e(%rip),%rax        # 40d414 <_IO_stdin_used+0x414>
  40bdd6:	48 89 05 2b 58 00 00 	mov    %rax,0x582b(%rip)        # 411608 <proc_info_features+0x448>
  40bddd:	48 8d 05 3c 16 00 00 	lea    0x163c(%rip),%rax        # 40d420 <_IO_stdin_used+0x420>
  40bde4:	48 89 05 0d 58 00 00 	mov    %rax,0x580d(%rip)        # 4115f8 <proc_info_features+0x438>
  40bdeb:	c7 05 23 58 00 00 2d 	movl   $0x2d,0x5823(%rip)        # 411618 <proc_info_features+0x458>
  40bdf2:	00 00 00 
  40bdf5:	48 8d 05 31 16 00 00 	lea    0x1631(%rip),%rax        # 40d42d <_IO_stdin_used+0x42d>
  40bdfc:	48 89 05 1d 58 00 00 	mov    %rax,0x581d(%rip)        # 411620 <proc_info_features+0x460>
  40be03:	48 8d 05 28 16 00 00 	lea    0x1628(%rip),%rax        # 40d432 <_IO_stdin_used+0x432>
  40be0a:	48 89 05 ff 57 00 00 	mov    %rax,0x57ff(%rip)        # 411610 <proc_info_features+0x450>
  40be11:	c7 05 15 58 00 00 2e 	movl   $0x2e,0x5815(%rip)        # 411630 <proc_info_features+0x470>
  40be18:	00 00 00 
  40be1b:	48 8d 05 15 16 00 00 	lea    0x1615(%rip),%rax        # 40d437 <_IO_stdin_used+0x437>
  40be22:	48 89 05 0f 58 00 00 	mov    %rax,0x580f(%rip)        # 411638 <proc_info_features+0x478>
  40be29:	48 8d 05 0c 16 00 00 	lea    0x160c(%rip),%rax        # 40d43c <_IO_stdin_used+0x43c>
  40be30:	48 89 05 f1 57 00 00 	mov    %rax,0x57f1(%rip)        # 411628 <proc_info_features+0x468>
  40be37:	c7 05 07 58 00 00 2f 	movl   $0x2f,0x5807(%rip)        # 411648 <proc_info_features+0x488>
  40be3e:	00 00 00 
  40be41:	48 8d 05 f9 15 00 00 	lea    0x15f9(%rip),%rax        # 40d441 <_IO_stdin_used+0x441>
  40be48:	48 89 05 01 58 00 00 	mov    %rax,0x5801(%rip)        # 411650 <proc_info_features+0x490>
  40be4f:	48 8d 05 f6 15 00 00 	lea    0x15f6(%rip),%rax        # 40d44c <_IO_stdin_used+0x44c>
  40be56:	48 89 05 e3 57 00 00 	mov    %rax,0x57e3(%rip)        # 411640 <proc_info_features+0x480>
  40be5d:	c7 05 f9 57 00 00 30 	movl   $0x30,0x57f9(%rip)        # 411660 <proc_info_features+0x4a0>
  40be64:	00 00 00 
  40be67:	48 8d 05 e9 15 00 00 	lea    0x15e9(%rip),%rax        # 40d457 <_IO_stdin_used+0x457>
  40be6e:	48 89 05 f3 57 00 00 	mov    %rax,0x57f3(%rip)        # 411668 <proc_info_features+0x4a8>
  40be75:	48 8d 05 e6 15 00 00 	lea    0x15e6(%rip),%rax        # 40d462 <_IO_stdin_used+0x462>
  40be7c:	48 89 05 d5 57 00 00 	mov    %rax,0x57d5(%rip)        # 411658 <proc_info_features+0x498>
  40be83:	c7 05 eb 57 00 00 31 	movl   $0x31,0x57eb(%rip)        # 411678 <proc_info_features+0x4b8>
  40be8a:	00 00 00 
  40be8d:	48 8d 05 da 15 00 00 	lea    0x15da(%rip),%rax        # 40d46e <_IO_stdin_used+0x46e>
  40be94:	48 89 05 e5 57 00 00 	mov    %rax,0x57e5(%rip)        # 411680 <proc_info_features+0x4c0>
  40be9b:	48 8d 05 d1 15 00 00 	lea    0x15d1(%rip),%rax        # 40d473 <_IO_stdin_used+0x473>
  40bea2:	48 89 05 c7 57 00 00 	mov    %rax,0x57c7(%rip)        # 411670 <proc_info_features+0x4b0>
  40bea9:	c7 05 dd 57 00 00 32 	movl   $0x32,0x57dd(%rip)        # 411690 <proc_info_features+0x4d0>
  40beb0:	00 00 00 
  40beb3:	48 8d 05 be 15 00 00 	lea    0x15be(%rip),%rax        # 40d478 <_IO_stdin_used+0x478>
  40beba:	48 89 05 d7 57 00 00 	mov    %rax,0x57d7(%rip)        # 411698 <proc_info_features+0x4d8>
  40bec1:	48 8d 05 b6 15 00 00 	lea    0x15b6(%rip),%rax        # 40d47e <_IO_stdin_used+0x47e>
  40bec8:	48 89 05 b9 57 00 00 	mov    %rax,0x57b9(%rip)        # 411688 <proc_info_features+0x4c8>
  40becf:	c7 05 cf 57 00 00 33 	movl   $0x33,0x57cf(%rip)        # 4116a8 <proc_info_features+0x4e8>
  40bed6:	00 00 00 
  40bed9:	48 8d 05 a4 15 00 00 	lea    0x15a4(%rip),%rax        # 40d484 <_IO_stdin_used+0x484>
  40bee0:	48 89 05 c9 57 00 00 	mov    %rax,0x57c9(%rip)        # 4116b0 <proc_info_features+0x4f0>
  40bee7:	48 8d 05 9a 15 00 00 	lea    0x159a(%rip),%rax        # 40d488 <_IO_stdin_used+0x488>
  40beee:	48 89 05 ab 57 00 00 	mov    %rax,0x57ab(%rip)        # 4116a0 <proc_info_features+0x4e0>
  40bef5:	c7 05 c1 57 00 00 34 	movl   $0x34,0x57c1(%rip)        # 4116c0 <proc_info_features+0x500>
  40befc:	00 00 00 
  40beff:	48 8d 05 86 15 00 00 	lea    0x1586(%rip),%rax        # 40d48c <_IO_stdin_used+0x48c>
  40bf06:	48 89 05 bb 57 00 00 	mov    %rax,0x57bb(%rip)        # 4116c8 <proc_info_features+0x508>
  40bf0d:	48 8d 05 7e 15 00 00 	lea    0x157e(%rip),%rax        # 40d492 <_IO_stdin_used+0x492>
  40bf14:	48 89 05 9d 57 00 00 	mov    %rax,0x579d(%rip)        # 4116b8 <proc_info_features+0x4f8>
  40bf1b:	c7 05 b3 57 00 00 35 	movl   $0x35,0x57b3(%rip)        # 4116d8 <proc_info_features+0x518>
  40bf22:	00 00 00 
  40bf25:	48 8d 05 6c 15 00 00 	lea    0x156c(%rip),%rax        # 40d498 <_IO_stdin_used+0x498>
  40bf2c:	48 89 05 ad 57 00 00 	mov    %rax,0x57ad(%rip)        # 4116e0 <proc_info_features+0x520>
  40bf33:	48 8d 05 62 15 00 00 	lea    0x1562(%rip),%rax        # 40d49c <_IO_stdin_used+0x49c>
  40bf3a:	48 89 05 8f 57 00 00 	mov    %rax,0x578f(%rip)        # 4116d0 <proc_info_features+0x510>
  40bf41:	c7 05 a5 57 00 00 36 	movl   $0x36,0x57a5(%rip)        # 4116f0 <proc_info_features+0x530>
  40bf48:	00 00 00 
  40bf4b:	48 8d 05 4e 15 00 00 	lea    0x154e(%rip),%rax        # 40d4a0 <_IO_stdin_used+0x4a0>
  40bf52:	48 89 05 9f 57 00 00 	mov    %rax,0x579f(%rip)        # 4116f8 <proc_info_features+0x538>
  40bf59:	48 8d 05 49 15 00 00 	lea    0x1549(%rip),%rax        # 40d4a9 <_IO_stdin_used+0x4a9>
  40bf60:	48 89 05 81 57 00 00 	mov    %rax,0x5781(%rip)        # 4116e8 <proc_info_features+0x528>
  40bf67:	c7 05 97 57 00 00 37 	movl   $0x37,0x5797(%rip)        # 411708 <proc_info_features+0x548>
  40bf6e:	00 00 00 
  40bf71:	48 8d 05 3a 15 00 00 	lea    0x153a(%rip),%rax        # 40d4b2 <_IO_stdin_used+0x4b2>
  40bf78:	48 89 05 91 57 00 00 	mov    %rax,0x5791(%rip)        # 411710 <proc_info_features+0x550>
  40bf7f:	48 8d 05 34 15 00 00 	lea    0x1534(%rip),%rax        # 40d4ba <_IO_stdin_used+0x4ba>
  40bf86:	48 89 05 73 57 00 00 	mov    %rax,0x5773(%rip)        # 411700 <proc_info_features+0x540>
  40bf8d:	c7 05 89 57 00 00 38 	movl   $0x38,0x5789(%rip)        # 411720 <proc_info_features+0x560>
  40bf94:	00 00 00 
  40bf97:	48 8d 05 24 15 00 00 	lea    0x1524(%rip),%rax        # 40d4c2 <_IO_stdin_used+0x4c2>
  40bf9e:	48 89 05 83 57 00 00 	mov    %rax,0x5783(%rip)        # 411728 <proc_info_features+0x568>
  40bfa5:	48 8d 05 29 15 00 00 	lea    0x1529(%rip),%rax        # 40d4d5 <_IO_stdin_used+0x4d5>
  40bfac:	48 89 05 65 57 00 00 	mov    %rax,0x5765(%rip)        # 411718 <proc_info_features+0x558>
  40bfb3:	c7 05 7b 57 00 00 3c 	movl   $0x3c,0x577b(%rip)        # 411738 <proc_info_features+0x578>
  40bfba:	00 00 00 
  40bfbd:	48 8d 05 25 15 00 00 	lea    0x1525(%rip),%rax        # 40d4e9 <_IO_stdin_used+0x4e9>
  40bfc4:	48 89 05 75 57 00 00 	mov    %rax,0x5775(%rip)        # 411740 <proc_info_features+0x580>
  40bfcb:	48 8d 05 22 15 00 00 	lea    0x1522(%rip),%rax        # 40d4f4 <_IO_stdin_used+0x4f4>
  40bfd2:	48 89 05 57 57 00 00 	mov    %rax,0x5757(%rip)        # 411730 <proc_info_features+0x570>
  40bfd9:	c7 05 6d 57 00 00 40 	movl   $0x40,0x576d(%rip)        # 411750 <proc_info_features+0x590>
  40bfe0:	00 00 00 
  40bfe3:	48 8d 05 16 15 00 00 	lea    0x1516(%rip),%rax        # 40d500 <_IO_stdin_used+0x500>
  40bfea:	48 89 05 67 57 00 00 	mov    %rax,0x5767(%rip)        # 411758 <proc_info_features+0x598>
  40bff1:	48 8d 05 11 15 00 00 	lea    0x1511(%rip),%rax        # 40d509 <_IO_stdin_used+0x509>
  40bff8:	48 89 05 49 57 00 00 	mov    %rax,0x5749(%rip)        # 411748 <proc_info_features+0x588>
  40bfff:	c7 05 5f 57 00 00 41 	movl   $0x41,0x575f(%rip)        # 411768 <proc_info_features+0x5a8>
  40c006:	00 00 00 
  40c009:	48 8d 05 02 15 00 00 	lea    0x1502(%rip),%rax        # 40d512 <_IO_stdin_used+0x512>
  40c010:	48 89 05 59 57 00 00 	mov    %rax,0x5759(%rip)        # 411770 <proc_info_features+0x5b0>
  40c017:	48 8d 05 fc 14 00 00 	lea    0x14fc(%rip),%rax        # 40d51a <_IO_stdin_used+0x51a>
  40c01e:	48 89 05 3b 57 00 00 	mov    %rax,0x573b(%rip)        # 411760 <proc_info_features+0x5a0>
  40c025:	c7 05 51 57 00 00 42 	movl   $0x42,0x5751(%rip)        # 411780 <proc_info_features+0x5c0>
  40c02c:	00 00 00 
  40c02f:	48 8d 05 ec 14 00 00 	lea    0x14ec(%rip),%rax        # 40d522 <_IO_stdin_used+0x522>
  40c036:	48 89 05 4b 57 00 00 	mov    %rax,0x574b(%rip)        # 411788 <proc_info_features+0x5c8>
  40c03d:	48 8d 05 e8 14 00 00 	lea    0x14e8(%rip),%rax        # 40d52c <_IO_stdin_used+0x52c>
  40c044:	48 89 05 2d 57 00 00 	mov    %rax,0x572d(%rip)        # 411778 <proc_info_features+0x5b8>
  40c04b:	c7 05 43 57 00 00 43 	movl   $0x43,0x5743(%rip)        # 411798 <proc_info_features+0x5d8>
  40c052:	00 00 00 
  40c055:	48 8d 05 da 14 00 00 	lea    0x14da(%rip),%rax        # 40d536 <_IO_stdin_used+0x536>
  40c05c:	48 89 05 3d 57 00 00 	mov    %rax,0x573d(%rip)        # 4117a0 <proc_info_features+0x5e0>
  40c063:	48 8d 05 d4 14 00 00 	lea    0x14d4(%rip),%rax        # 40d53e <_IO_stdin_used+0x53e>
  40c06a:	48 89 05 1f 57 00 00 	mov    %rax,0x571f(%rip)        # 411790 <proc_info_features+0x5d0>
  40c071:	c7 05 35 57 00 00 44 	movl   $0x44,0x5735(%rip)        # 4117b0 <proc_info_features+0x5f0>
  40c078:	00 00 00 
  40c07b:	48 8d 05 c4 14 00 00 	lea    0x14c4(%rip),%rax        # 40d546 <_IO_stdin_used+0x546>
  40c082:	48 89 05 2f 57 00 00 	mov    %rax,0x572f(%rip)        # 4117b8 <proc_info_features+0x5f8>
  40c089:	48 8d 05 c1 14 00 00 	lea    0x14c1(%rip),%rax        # 40d551 <_IO_stdin_used+0x551>
  40c090:	48 89 05 11 57 00 00 	mov    %rax,0x5711(%rip)        # 4117a8 <proc_info_features+0x5e8>
  40c097:	c7 05 27 57 00 00 45 	movl   $0x45,0x5727(%rip)        # 4117c8 <proc_info_features+0x608>
  40c09e:	00 00 00 
  40c0a1:	48 8d 05 b5 14 00 00 	lea    0x14b5(%rip),%rax        # 40d55d <_IO_stdin_used+0x55d>
  40c0a8:	48 89 05 21 57 00 00 	mov    %rax,0x5721(%rip)        # 4117d0 <proc_info_features+0x610>
  40c0af:	48 8d 05 ae 14 00 00 	lea    0x14ae(%rip),%rax        # 40d564 <_IO_stdin_used+0x564>
  40c0b6:	48 89 05 03 57 00 00 	mov    %rax,0x5703(%rip)        # 4117c0 <proc_info_features+0x600>
  40c0bd:	c7 05 19 57 00 00 46 	movl   $0x46,0x5719(%rip)        # 4117e0 <proc_info_features+0x620>
  40c0c4:	00 00 00 
  40c0c7:	48 8d 05 9d 14 00 00 	lea    0x149d(%rip),%rax        # 40d56b <_IO_stdin_used+0x56b>
  40c0ce:	48 89 05 13 57 00 00 	mov    %rax,0x5713(%rip)        # 4117e8 <proc_info_features+0x628>
  40c0d5:	48 8d 05 97 14 00 00 	lea    0x1497(%rip),%rax        # 40d573 <_IO_stdin_used+0x573>
  40c0dc:	48 89 05 f5 56 00 00 	mov    %rax,0x56f5(%rip)        # 4117d8 <proc_info_features+0x618>
  40c0e3:	c7 05 0b 57 00 00 47 	movl   $0x47,0x570b(%rip)        # 4117f8 <proc_info_features+0x638>
  40c0ea:	00 00 00 
  40c0ed:	48 8d 05 88 14 00 00 	lea    0x1488(%rip),%rax        # 40d57c <_IO_stdin_used+0x57c>
  40c0f4:	48 89 05 05 57 00 00 	mov    %rax,0x5705(%rip)        # 411800 <proc_info_features+0x640>
  40c0fb:	48 8d 05 83 14 00 00 	lea    0x1483(%rip),%rax        # 40d585 <_IO_stdin_used+0x585>
  40c102:	48 89 05 e7 56 00 00 	mov    %rax,0x56e7(%rip)        # 4117f0 <proc_info_features+0x630>
  40c109:	c7 05 fd 56 00 00 48 	movl   $0x48,0x56fd(%rip)        # 411810 <proc_info_features+0x650>
  40c110:	00 00 00 
  40c113:	48 8d 05 74 14 00 00 	lea    0x1474(%rip),%rax        # 40d58e <_IO_stdin_used+0x58e>
  40c11a:	48 89 05 f7 56 00 00 	mov    %rax,0x56f7(%rip)        # 411818 <proc_info_features+0x658>
  40c121:	48 8d 05 6f 14 00 00 	lea    0x146f(%rip),%rax        # 40d597 <_IO_stdin_used+0x597>
  40c128:	48 89 05 d9 56 00 00 	mov    %rax,0x56d9(%rip)        # 411808 <proc_info_features+0x648>
  40c12f:	c7 05 ef 56 00 00 49 	movl   $0x49,0x56ef(%rip)        # 411828 <proc_info_features+0x668>
  40c136:	00 00 00 
  40c139:	48 8d 05 60 14 00 00 	lea    0x1460(%rip),%rax        # 40d5a0 <_IO_stdin_used+0x5a0>
  40c140:	48 89 05 e9 56 00 00 	mov    %rax,0x56e9(%rip)        # 411830 <proc_info_features+0x670>
  40c147:	48 8d 05 5b 14 00 00 	lea    0x145b(%rip),%rax        # 40d5a9 <_IO_stdin_used+0x5a9>
  40c14e:	48 89 05 cb 56 00 00 	mov    %rax,0x56cb(%rip)        # 411820 <proc_info_features+0x660>
  40c155:	c7 05 e1 56 00 00 4a 	movl   $0x4a,0x56e1(%rip)        # 411840 <proc_info_features+0x680>
  40c15c:	00 00 00 
  40c15f:	48 8d 05 51 14 00 00 	lea    0x1451(%rip),%rax        # 40d5b7 <_IO_stdin_used+0x5b7>
  40c166:	48 89 05 db 56 00 00 	mov    %rax,0x56db(%rip)        # 411848 <proc_info_features+0x688>
  40c16d:	48 8d 05 4b 14 00 00 	lea    0x144b(%rip),%rax        # 40d5bf <_IO_stdin_used+0x5bf>
  40c174:	48 89 05 bd 56 00 00 	mov    %rax,0x56bd(%rip)        # 411838 <proc_info_features+0x678>
  40c17b:	c7 05 d3 56 00 00 4b 	movl   $0x4b,0x56d3(%rip)        # 411858 <proc_info_features+0x698>
  40c182:	00 00 00 
  40c185:	48 8d 05 26 14 00 00 	lea    0x1426(%rip),%rax        # 40d5b2 <_IO_stdin_used+0x5b2>
  40c18c:	48 89 05 cd 56 00 00 	mov    %rax,0x56cd(%rip)        # 411860 <proc_info_features+0x6a0>
  40c193:	48 8d 05 20 14 00 00 	lea    0x1420(%rip),%rax        # 40d5ba <_IO_stdin_used+0x5ba>
  40c19a:	48 89 05 af 56 00 00 	mov    %rax,0x56af(%rip)        # 411850 <proc_info_features+0x690>
  40c1a1:	c6 05 08 50 00 00 01 	movb   $0x1,0x5008(%rip)        # 4111b0 <__libirc_isa_info_initialized>
  40c1a8:	59                   	pop    %rcx
  40c1a9:	c3                   	ret
  40c1aa:	66 0f 1f 44 00 00    	nopw   0x0(%rax,%rax,1)

000000000040c1b0 <__libirc_get_feature_bitpos>:
  40c1b0:	f3 0f 1e fa          	endbr64
  40c1b4:	51                   	push   %rcx
  40c1b5:	89 c1                	mov    %eax,%ecx
  40c1b7:	80 3d f2 4f 00 00 00 	cmpb   $0x0,0x4ff2(%rip)        # 4111b0 <__libirc_isa_info_initialized>
  40c1be:	75 05                	jne    40c1c5 <__libirc_get_feature_bitpos+0x15>
  40c1c0:	e8 2b f5 ff ff       	call   40b6f0 <__libirc_isa_init_once>
  40c1c5:	89 c8                	mov    %ecx,%eax
  40c1c7:	48 8d 04 40          	lea    (%rax,%rax,2),%rax
  40c1cb:	48 8d 0d ee 4f 00 00 	lea    0x4fee(%rip),%rcx        # 4111c0 <proc_info_features>
  40c1d2:	8b 4c c1 08          	mov    0x8(%rcx,%rax,8),%ecx
  40c1d6:	8d 41 80             	lea    -0x80(%rcx),%eax
  40c1d9:	3d 7f ff ff ff       	cmp    $0xffffff7f,%eax
  40c1de:	b8 fd ff ff ff       	mov    $0xfffffffd,%eax
  40c1e3:	0f 43 c1             	cmovae %ecx,%eax
  40c1e6:	59                   	pop    %rcx
  40c1e7:	c3                   	ret
  40c1e8:	0f 1f 84 00 00 00 00 	nopl   0x0(%rax,%rax,1)
  40c1ef:	00 

000000000040c1f0 <__libirc_get_cpu_feature>:
  40c1f0:	f3 0f 1e fa          	endbr64
  40c1f4:	50                   	push   %rax
  40c1f5:	80 3d b4 4f 00 00 00 	cmpb   $0x0,0x4fb4(%rip)        # 4111b0 <__libirc_isa_info_initialized>
  40c1fc:	75 05                	jne    40c203 <__libirc_get_cpu_feature+0x13>
  40c1fe:	e8 ed f4 ff ff       	call   40b6f0 <__libirc_isa_init_once>
  40c203:	89 f0                	mov    %esi,%eax
  40c205:	48 8d 04 40          	lea    (%rax,%rax,2),%rax
  40c209:	48 8d 0d b0 4f 00 00 	lea    0x4fb0(%rip),%rcx        # 4111c0 <proc_info_features>
  40c210:	8b 4c c1 08          	mov    0x8(%rcx,%rax,8),%ecx
  40c214:	8d 41 80             	lea    -0x80(%rcx),%eax
  40c217:	3d 7f ff ff ff       	cmp    $0xffffff7f,%eax
  40c21c:	b8 fd ff ff ff       	mov    $0xfffffffd,%eax
  40c221:	0f 43 c1             	cmovae %ecx,%eax
  40c224:	85 c0                	test   %eax,%eax
  40c226:	78 14                	js     40c23c <__libirc_get_cpu_feature+0x4c>
  40c228:	89 c1                	mov    %eax,%ecx
  40c22a:	c1 e9 06             	shr    $0x6,%ecx
  40c22d:	48 8b 0c cf          	mov    (%rdi,%rcx,8),%rcx
  40c231:	31 d2                	xor    %edx,%edx
  40c233:	48 0f a3 c1          	bt     %rax,%rcx
  40c237:	0f 92 c2             	setb   %dl
  40c23a:	89 d0                	mov    %edx,%eax
  40c23c:	59                   	pop    %rcx
  40c23d:	c3                   	ret
  40c23e:	66 90                	xchg   %ax,%ax

000000000040c240 <__libirc_set_cpu_feature>:
  40c240:	52                   	push   %rdx
  40c241:	56                   	push   %rsi
  40c242:	57                   	push   %rdi
  40c243:	48 89 c2             	mov    %rax,%rdx
  40c246:	80 3d 63 4f 00 00 00 	cmpb   $0x0,0x4f63(%rip)        # 4111b0 <__libirc_isa_info_initialized>
  40c24d:	75 05                	jne    40c254 <__libirc_set_cpu_feature+0x14>
  40c24f:	e8 9c f4 ff ff       	call   40b6f0 <__libirc_isa_init_once>
  40c254:	89 c8                	mov    %ecx,%eax
  40c256:	48 8d 04 40          	lea    (%rax,%rax,2),%rax
  40c25a:	48 8d 0d 5f 4f 00 00 	lea    0x4f5f(%rip),%rcx        # 4111c0 <proc_info_features>
  40c261:	8b 4c c1 08          	mov    0x8(%rcx,%rax,8),%ecx
  40c265:	8d 41 80             	lea    -0x80(%rcx),%eax
  40c268:	3d 7f ff ff ff       	cmp    $0xffffff7f,%eax
  40c26d:	b8 fd ff ff ff       	mov    $0xfffffffd,%eax
  40c272:	0f 43 c1             	cmovae %ecx,%eax
  40c275:	85 c0                	test   %eax,%eax
  40c277:	78 18                	js     40c291 <__libirc_set_cpu_feature+0x51>
  40c279:	89 c6                	mov    %eax,%esi
  40c27b:	c1 ee 06             	shr    $0x6,%esi
  40c27e:	83 e0 3f             	and    $0x3f,%eax
  40c281:	bf 01 00 00 00       	mov    $0x1,%edi
  40c286:	89 c1                	mov    %eax,%ecx
  40c288:	48 d3 e7             	shl    %cl,%rdi
  40c28b:	48 09 3c f2          	or     %rdi,(%rdx,%rsi,8)
  40c28f:	31 c0                	xor    %eax,%eax
  40c291:	5f                   	pop    %rdi
  40c292:	5e                   	pop    %rsi
  40c293:	5a                   	pop    %rdx
  40c294:	c3                   	ret
  40c295:	66 2e 0f 1f 84 00 00 	cs nopw 0x0(%rax,%rax,1)
  40c29c:	00 00 00 
  40c29f:	90                   	nop

000000000040c2a0 <__libirc_handle_intel_isa_disable>:
  40c2a0:	55                   	push   %rbp
  40c2a1:	41 57                	push   %r15
  40c2a3:	41 56                	push   %r14
  40c2a5:	41 54                	push   %r12
  40c2a7:	53                   	push   %rbx
  40c2a8:	31 db                	xor    %ebx,%ebx
  40c2aa:	48 85 ff             	test   %rdi,%rdi
  40c2ad:	0f 84 4b 01 00 00    	je     40c3fe <__libirc_handle_intel_isa_disable+0x15e>
  40c2b3:	49 89 fe             	mov    %rdi,%r14
  40c2b6:	48 8d 3d 27 0f 00 00 	lea    0xf27(%rip),%rdi        # 40d1e4 <_IO_stdin_used+0x1e4>
  40c2bd:	e8 6e 4d ff ff       	call   401030 <getenv@plt>
  40c2c2:	48 85 c0             	test   %rax,%rax
  40c2c5:	0f 84 33 01 00 00    	je     40c3fe <__libirc_handle_intel_isa_disable+0x15e>
  40c2cb:	48 89 c2             	mov    %rax,%rdx
  40c2ce:	0f b6 00             	movzbl (%rax),%eax
  40c2d1:	84 c0                	test   %al,%al
  40c2d3:	0f 84 25 01 00 00    	je     40c3fe <__libirc_handle_intel_isa_disable+0x15e>
  40c2d9:	31 db                	xor    %ebx,%ebx
  40c2db:	48 8d 35 de 4e 00 00 	lea    0x4ede(%rip),%rsi        # 4111c0 <proc_info_features>
  40c2e2:	31 ff                	xor    %edi,%edi
  40c2e4:	4c 8d 42 01          	lea    0x1(%rdx),%r8
  40c2e8:	41 b9 01 00 00 00    	mov    $0x1,%r9d
  40c2ee:	49 29 d1             	sub    %rdx,%r9
  40c2f1:	49 89 d2             	mov    %rdx,%r10
  40c2f4:	3c 2c                	cmp    $0x2c,%al
  40c2f6:	75 1a                	jne    40c312 <__libirc_handle_intel_isa_disable+0x72>
  40c2f8:	0f 1f 84 00 00 00 00 	nopl   0x0(%rax,%rax,1)
  40c2ff:	00 
  40c300:	41 0f b6 42 01       	movzbl 0x1(%r10),%eax
  40c305:	49 ff c2             	inc    %r10
  40c308:	49 ff c0             	inc    %r8
  40c30b:	49 ff c9             	dec    %r9
  40c30e:	3c 2c                	cmp    $0x2c,%al
  40c310:	74 ee                	je     40c300 <__libirc_handle_intel_isa_disable+0x60>
  40c312:	0f b6 c0             	movzbl %al,%eax
  40c315:	85 c0                	test   %eax,%eax
  40c317:	0f 84 e1 00 00 00    	je     40c3fe <__libirc_handle_intel_isa_disable+0x15e>
  40c31d:	4c 89 c2             	mov    %r8,%rdx
  40c320:	48 89 d0             	mov    %rdx,%rax
  40c323:	0f b6 0a             	movzbl (%rdx),%ecx
  40c326:	48 ff c2             	inc    %rdx
  40c329:	83 f9 2c             	cmp    $0x2c,%ecx
  40c32c:	74 12                	je     40c340 <__libirc_handle_intel_isa_disable+0xa0>
  40c32e:	85 c9                	test   %ecx,%ecx
  40c330:	74 0e                	je     40c340 <__libirc_handle_intel_isa_disable+0xa0>
  40c332:	48 89 c7             	mov    %rax,%rdi
  40c335:	eb e9                	jmp    40c320 <__libirc_handle_intel_isa_disable+0x80>
  40c337:	66 0f 1f 84 00 00 00 	nopw   0x0(%rax,%rax,1)
  40c33e:	00 00 
  40c340:	49 89 fb             	mov    %rdi,%r11
  40c343:	4d 29 d3             	sub    %r10,%r11
  40c346:	48 ff ca             	dec    %rdx
  40c349:	49 ff c3             	inc    %r11
  40c34c:	75 0c                	jne    40c35a <__libirc_handle_intel_isa_disable+0xba>
  40c34e:	0f b6 02             	movzbl (%rdx),%eax
  40c351:	84 c0                	test   %al,%al
  40c353:	75 8f                	jne    40c2e4 <__libirc_handle_intel_isa_disable+0x44>
  40c355:	e9 a4 00 00 00       	jmp    40c3fe <__libirc_handle_intel_isa_disable+0x15e>
  40c35a:	80 3d 4f 4e 00 00 00 	cmpb   $0x0,0x4e4f(%rip)        # 4111b0 <__libirc_isa_info_initialized>
  40c361:	75 05                	jne    40c368 <__libirc_handle_intel_isa_disable+0xc8>
  40c363:	e8 88 f3 ff ff       	call   40b6f0 <__libirc_isa_init_once>
  40c368:	4c 89 d8             	mov    %r11,%rax
  40c36b:	48 83 e0 fe          	and    $0xfffffffffffffffe,%rax
  40c36f:	49 01 f9             	add    %rdi,%r9
  40c372:	49 d1 e9             	shr    $1,%r9
  40c375:	b9 01 00 00 00       	mov    $0x1,%ecx
  40c37a:	eb 14                	jmp    40c390 <__libirc_handle_intel_isa_disable+0xf0>
  40c37c:	0f 1f 40 00          	nopl   0x0(%rax)
  40c380:	43 80 3c 1f 00       	cmpb   $0x0,(%r15,%r11,1)
  40c385:	74 5b                	je     40c3e2 <__libirc_handle_intel_isa_disable+0x142>
  40c387:	48 ff c1             	inc    %rcx
  40c38a:	48 83 f9 47          	cmp    $0x47,%rcx
  40c38e:	74 be                	je     40c34e <__libirc_handle_intel_isa_disable+0xae>
  40c390:	4c 8d 3c 49          	lea    (%rcx,%rcx,2),%r15
  40c394:	4e 8b 7c fe 10       	mov    0x10(%rsi,%r15,8),%r15
  40c399:	4d 85 ff             	test   %r15,%r15
  40c39c:	74 e9                	je     40c387 <__libirc_handle_intel_isa_disable+0xe7>
  40c39e:	49 83 fb 02          	cmp    $0x2,%r11
  40c3a2:	72 2c                	jb     40c3d0 <__libirc_handle_intel_isa_disable+0x130>
  40c3a4:	45 31 e4             	xor    %r12d,%r12d
  40c3a7:	66 0f 1f 84 00 00 00 	nopw   0x0(%rax,%rax,1)
  40c3ae:	00 00 
  40c3b0:	43 0f b6 6c 60 ff    	movzbl -0x1(%r8,%r12,2),%ebp
  40c3b6:	43 3a 2c 67          	cmp    (%r15,%r12,2),%bpl
  40c3ba:	75 cb                	jne    40c387 <__libirc_handle_intel_isa_disable+0xe7>
  40c3bc:	43 0f b6 2c 60       	movzbl (%r8,%r12,2),%ebp
  40c3c1:	43 3a 6c 67 01       	cmp    0x1(%r15,%r12,2),%bpl
  40c3c6:	75 bf                	jne    40c387 <__libirc_handle_intel_isa_disable+0xe7>
  40c3c8:	49 ff c4             	inc    %r12
  40c3cb:	4d 39 e1             	cmp    %r12,%r9
  40c3ce:	75 e0                	jne    40c3b0 <__libirc_handle_intel_isa_disable+0x110>
  40c3d0:	4c 39 d8             	cmp    %r11,%rax
  40c3d3:	73 ab                	jae    40c380 <__libirc_handle_intel_isa_disable+0xe0>
  40c3d5:	41 0f b6 2c 02       	movzbl (%r10,%rax,1),%ebp
  40c3da:	41 3a 2c 07          	cmp    (%r15,%rax,1),%bpl
  40c3de:	74 a0                	je     40c380 <__libirc_handle_intel_isa_disable+0xe0>
  40c3e0:	eb a5                	jmp    40c387 <__libirc_handle_intel_isa_disable+0xe7>
  40c3e2:	83 f9 02             	cmp    $0x2,%ecx
  40c3e5:	0f 82 63 ff ff ff    	jb     40c34e <__libirc_handle_intel_isa_disable+0xae>
  40c3eb:	4c 89 f0             	mov    %r14,%rax
  40c3ee:	e8 4d fe ff ff       	call   40c240 <__libirc_set_cpu_feature>
  40c3f3:	83 f8 01             	cmp    $0x1,%eax
  40c3f6:	83 d3 00             	adc    $0x0,%ebx
  40c3f9:	e9 50 ff ff ff       	jmp    40c34e <__libirc_handle_intel_isa_disable+0xae>
  40c3fe:	89 d8                	mov    %ebx,%eax
  40c400:	5b                   	pop    %rbx
  40c401:	41 5c                	pop    %r12
  40c403:	41 5e                	pop    %r14
  40c405:	41 5f                	pop    %r15
  40c407:	5d                   	pop    %rbp
  40c408:	c3                   	ret
  40c409:	0f 1f 00             	nopl   (%rax)
  40c40c:	0f 1f 40 00          	nopl   0x0(%rax)

000000000040c410 <__cacheSize>:
  40c410:	f3 0f 1e fa          	endbr64
  40c414:	53                   	push   %rbx
  40c415:	89 fb                	mov    %edi,%ebx
  40c417:	8d 4b fc             	lea    -0x4(%rbx),%ecx
  40c41a:	31 c0                	xor    %eax,%eax
  40c41c:	83 f9 fd             	cmp    $0xfffffffd,%ecx
  40c41f:	72 1b                	jb     40c43c <__cacheSize+0x2c>
  40c421:	83 3d 54 54 00 00 00 	cmpl   $0x0,0x5454(%rip)        # 41187c <_ZL18__libirc_cache_tbl+0xc>
  40c428:	75 05                	jne    40c42f <__cacheSize+0x1f>
  40c42a:	e8 11 00 00 00       	call   40c440 <_ZL23__libirc_init_cache_tblv>
  40c42f:	c1 e3 02             	shl    $0x2,%ebx
  40c432:	48 8d 05 37 54 00 00 	lea    0x5437(%rip),%rax        # 411870 <_ZL18__libirc_cache_tbl>
  40c439:	8b 04 98             	mov    (%rax,%rbx,4),%eax
  40c43c:	5b                   	pop    %rbx
  40c43d:	c3                   	ret
  40c43e:	66 90                	xchg   %ax,%ax

000000000040c440 <_ZL23__libirc_init_cache_tblv>:
  40c440:	55                   	push   %rbp
  40c441:	48 89 e5             	mov    %rsp,%rbp
  40c444:	41 57                	push   %r15
  40c446:	41 56                	push   %r14
  40c448:	53                   	push   %rbx
  40c449:	48 81 ec b8 00 00 00 	sub    $0xb8,%rsp
  40c450:	64 48 8b 04 25 28 00 	mov    %fs:0x28,%rax
  40c457:	00 00 
  40c459:	48 89 45 e0          	mov    %rax,-0x20(%rbp)
  40c45d:	c7 85 60 ff ff ff 00 	movl   $0x0,-0xa0(%rbp)
  40c464:	00 00 00 
  40c467:	50                   	push   %rax
  40c468:	51                   	push   %rcx
  40c469:	9c                   	pushf
  40c46a:	58                   	pop    %rax
  40c46b:	89 c1                	mov    %eax,%ecx
  40c46d:	35 00 00 20 00       	xor    $0x200000,%eax
  40c472:	50                   	push   %rax
  40c473:	9d                   	popf
  40c474:	9c                   	pushf
  40c475:	58                   	pop    %rax
  40c476:	39 c8                	cmp    %ecx,%eax
  40c478:	74 0b                	je     40c485 <_ZL23__libirc_init_cache_tblv+0x45>
  40c47a:	c7 85 60 ff ff ff 01 	movl   $0x1,-0xa0(%rbp)
  40c481:	00 00 00 
  40c484:	51                   	push   %rcx
  40c485:	9d                   	popf
  40c486:	59                   	pop    %rcx
  40c487:	58                   	pop    %rax
  40c488:	83 bd 60 ff ff ff 00 	cmpl   $0x0,-0xa0(%rbp)
  40c48f:	0f 84 62 06 00 00    	je     40caf7 <_ZL23__libirc_init_cache_tblv+0x6b7>
  40c495:	48 8d 85 4c ff ff ff 	lea    -0xb4(%rbp),%rax
  40c49c:	48 89 85 30 ff ff ff 	mov    %rax,-0xd0(%rbp)
  40c4a3:	0f 28 05 66 1c 00 00 	movaps 0x1c66(%rip),%xmm0        # 40e110 <_IO_stdin_used+0x1110>
  40c4aa:	0f 29 85 60 ff ff ff 	movaps %xmm0,-0xa0(%rbp)
  40c4b1:	c7 85 50 ff ff ff 00 	movl   $0x0,-0xb0(%rbp)
  40c4b8:	00 00 00 
  40c4bb:	c7 85 4c ff ff ff 00 	movl   $0x0,-0xb4(%rbp)
  40c4c2:	00 00 00 
  40c4c5:	50                   	push   %rax
  40c4c6:	53                   	push   %rbx
  40c4c7:	51                   	push   %rcx
  40c4c8:	52                   	push   %rdx
  40c4c9:	b8 00 00 00 00       	mov    $0x0,%eax
  40c4ce:	0f a2                	cpuid
  40c4d0:	39 9d 60 ff ff ff    	cmp    %ebx,-0xa0(%rbp)
  40c4d6:	75 23                	jne    40c4fb <_ZL23__libirc_init_cache_tblv+0xbb>
  40c4d8:	39 95 64 ff ff ff    	cmp    %edx,-0x9c(%rbp)
  40c4de:	75 1b                	jne    40c4fb <_ZL23__libirc_init_cache_tblv+0xbb>
  40c4e0:	39 8d 68 ff ff ff    	cmp    %ecx,-0x98(%rbp)
  40c4e6:	75 13                	jne    40c4fb <_ZL23__libirc_init_cache_tblv+0xbb>
  40c4e8:	c7 85 50 ff ff ff 01 	movl   $0x1,-0xb0(%rbp)
  40c4ef:	00 00 00 
  40c4f2:	48 8b 95 30 ff ff ff 	mov    -0xd0(%rbp),%rdx
  40c4f9:	89 02                	mov    %eax,(%rdx)
  40c4fb:	5a                   	pop    %rdx
  40c4fc:	59                   	pop    %rcx
  40c4fd:	5b                   	pop    %rbx
  40c4fe:	58                   	pop    %rax
  40c4ff:	8b 85 50 ff ff ff    	mov    -0xb0(%rbp),%eax
  40c505:	89 05 65 53 00 00    	mov    %eax,0x5365(%rip)        # 411870 <_ZL18__libirc_cache_tbl>
  40c50b:	8b 85 4c ff ff ff    	mov    -0xb4(%rbp),%eax
  40c511:	89 05 5d 53 00 00    	mov    %eax,0x535d(%rip)        # 411874 <_ZL18__libirc_cache_tbl+0x4>
  40c517:	83 f8 04             	cmp    $0x4,%eax
  40c51a:	0f 8c 15 01 00 00    	jl     40c635 <_ZL23__libirc_init_cache_tblv+0x1f5>
  40c520:	48 8d 85 60 ff ff ff 	lea    -0xa0(%rbp),%rax
  40c527:	48 89 85 30 ff ff ff 	mov    %rax,-0xd0(%rbp)
  40c52e:	c7 85 50 ff ff ff 00 	movl   $0x0,-0xb0(%rbp)
  40c535:	00 00 00 
  40c538:	50                   	push   %rax
  40c539:	53                   	push   %rbx
  40c53a:	51                   	push   %rcx
  40c53b:	52                   	push   %rdx
  40c53c:	57                   	push   %rdi
  40c53d:	4c 8b 85 30 ff ff ff 	mov    -0xd0(%rbp),%r8
  40c544:	bf 00 00 00 00       	mov    $0x0,%edi
  40c549:	89 f9                	mov    %edi,%ecx
  40c54b:	b8 04 00 00 00       	mov    $0x4,%eax
  40c550:	0f a2                	cpuid
  40c552:	a9 1f 00 00 00       	test   $0x1f,%eax
  40c557:	74 1d                	je     40c576 <_ZL23__libirc_init_cache_tblv+0x136>
  40c559:	41 89 00             	mov    %eax,(%r8)
  40c55c:	41 89 58 04          	mov    %ebx,0x4(%r8)
  40c560:	41 89 48 08          	mov    %ecx,0x8(%r8)
  40c564:	41 89 50 0c          	mov    %edx,0xc(%r8)
  40c568:	83 c7 01             	add    $0x1,%edi
  40c56b:	83 ff 08             	cmp    $0x8,%edi
  40c56e:	7d 06                	jge    40c576 <_ZL23__libirc_init_cache_tblv+0x136>
  40c570:	49 83 c0 10          	add    $0x10,%r8
  40c574:	eb d3                	jmp    40c549 <_ZL23__libirc_init_cache_tblv+0x109>
  40c576:	89 bd 50 ff ff ff    	mov    %edi,-0xb0(%rbp)
  40c57c:	5f                   	pop    %rdi
  40c57d:	5a                   	pop    %rdx
  40c57e:	59                   	pop    %rcx
  40c57f:	5b                   	pop    %rbx
  40c580:	58                   	pop    %rax
  40c581:	8b 85 50 ff ff ff    	mov    -0xb0(%rbp),%eax
  40c587:	85 c0                	test   %eax,%eax
  40c589:	0f 8e a0 00 00 00    	jle    40c62f <_ZL23__libirc_init_cache_tblv+0x1ef>
  40c58f:	48 c1 e0 04          	shl    $0x4,%rax
  40c593:	31 c9                	xor    %ecx,%ecx
  40c595:	48 8d 15 d4 52 00 00 	lea    0x52d4(%rip),%rdx        # 411870 <_ZL18__libirc_cache_tbl>
  40c59c:	eb 0f                	jmp    40c5ad <_ZL23__libirc_init_cache_tblv+0x16d>
  40c59e:	66 90                	xchg   %ax,%ax
  40c5a0:	48 83 c1 10          	add    $0x10,%rcx
  40c5a4:	48 39 c8             	cmp    %rcx,%rax
  40c5a7:	0f 84 82 00 00 00    	je     40c62f <_ZL23__libirc_init_cache_tblv+0x1ef>
  40c5ad:	48 8b b4 0d 60 ff ff 	mov    -0xa0(%rbp,%rcx,1),%rsi
  40c5b4:	ff 
  40c5b5:	89 f7                	mov    %esi,%edi
  40c5b7:	83 cf 02             	or     $0x2,%edi
  40c5ba:	83 e7 1f             	and    $0x1f,%edi
  40c5bd:	83 ff 03             	cmp    $0x3,%edi
  40c5c0:	75 de                	jne    40c5a0 <_ZL23__libirc_init_cache_tblv+0x160>
  40c5c2:	48 89 f7             	mov    %rsi,%rdi
  40c5c5:	48 c1 ef 20          	shr    $0x20,%rdi
  40c5c9:	81 e7 ff 0f 00 00    	and    $0xfff,%edi
  40c5cf:	ff c7                	inc    %edi
  40c5d1:	41 89 f0             	mov    %esi,%r8d
  40c5d4:	41 c1 e8 03          	shr    $0x3,%r8d
  40c5d8:	41 83 e0 1c          	and    $0x1c,%r8d
  40c5dc:	45 8d 48 01          	lea    0x1(%r8),%r9d
  40c5e0:	42 89 3c 8a          	mov    %edi,(%rdx,%r9,4)
  40c5e4:	49 89 f1             	mov    %rsi,%r9
  40c5e7:	49 c1 e9 2c          	shr    $0x2c,%r9
  40c5eb:	41 81 e1 ff 03 00 00 	and    $0x3ff,%r9d
  40c5f2:	41 ff c1             	inc    %r9d
  40c5f5:	45 8d 50 02          	lea    0x2(%r8),%r10d
  40c5f9:	46 89 0c 92          	mov    %r9d,(%rdx,%r10,4)
  40c5fd:	48 c1 ee 36          	shr    $0x36,%rsi
  40c601:	ff c6                	inc    %esi
  40c603:	45 8d 50 03          	lea    0x3(%r8),%r10d
  40c607:	42 89 34 92          	mov    %esi,(%rdx,%r10,4)
  40c60b:	44 8b 94 0d 68 ff ff 	mov    -0x98(%rbp,%rcx,1),%r10d
  40c612:	ff 
  40c613:	41 ff c2             	inc    %r10d
  40c616:	41 0f af f1          	imul   %r9d,%esi
  40c61a:	44 0f af d7          	imul   %edi,%r10d
  40c61e:	44 0f af d6          	imul   %esi,%r10d
  40c622:	41 c1 ea 0a          	shr    $0xa,%r10d
  40c626:	46 89 14 82          	mov    %r10d,(%rdx,%r8,4)
  40c62a:	e9 71 ff ff ff       	jmp    40c5a0 <_ZL23__libirc_init_cache_tblv+0x160>
  40c62f:	8b 85 4c ff ff ff    	mov    -0xb4(%rbp),%eax
  40c635:	83 3d 44 52 00 00 00 	cmpl   $0x0,0x5244(%rip)        # 411880 <_ZL18__libirc_cache_tbl+0x10>
  40c63c:	0f 85 b5 04 00 00    	jne    40caf7 <_ZL23__libirc_init_cache_tblv+0x6b7>
  40c642:	83 f8 02             	cmp    $0x2,%eax
  40c645:	0f 8c ac 04 00 00    	jl     40caf7 <_ZL23__libirc_init_cache_tblv+0x6b7>
  40c64b:	48 8d 85 60 ff ff ff 	lea    -0xa0(%rbp),%rax
  40c652:	48 89 85 30 ff ff ff 	mov    %rax,-0xd0(%rbp)
  40c659:	50                   	push   %rax
  40c65a:	53                   	push   %rbx
  40c65b:	51                   	push   %rcx
  40c65c:	52                   	push   %rdx
  40c65d:	4c 8b 85 30 ff ff ff 	mov    -0xd0(%rbp),%r8
  40c664:	b8 02 00 00 00       	mov    $0x2,%eax
  40c669:	0f a2                	cpuid
  40c66b:	41 89 00             	mov    %eax,(%r8)
  40c66e:	41 89 58 04          	mov    %ebx,0x4(%r8)
  40c672:	41 89 48 08          	mov    %ecx,0x8(%r8)
  40c676:	41 89 50 0c          	mov    %edx,0xc(%r8)
  40c67a:	3c 01                	cmp    $0x1,%al
  40c67c:	7e 4d                	jle    40c6cb <_ZL23__libirc_init_cache_tblv+0x28b>
  40c67e:	3c 02                	cmp    $0x2,%al
  40c680:	7e 32                	jle    40c6b4 <_ZL23__libirc_init_cache_tblv+0x274>
  40c682:	3c 03                	cmp    $0x3,%al
  40c684:	7e 17                	jle    40c69d <_ZL23__libirc_init_cache_tblv+0x25d>
  40c686:	b8 02 00 00 00       	mov    $0x2,%eax
  40c68b:	0f a2                	cpuid
  40c68d:	41 89 40 30          	mov    %eax,0x30(%r8)
  40c691:	41 89 58 34          	mov    %ebx,0x34(%r8)
  40c695:	41 89 48 38          	mov    %ecx,0x38(%r8)
  40c699:	41 89 50 3c          	mov    %edx,0x3c(%r8)
  40c69d:	b8 02 00 00 00       	mov    $0x2,%eax
  40c6a2:	0f a2                	cpuid
  40c6a4:	41 89 40 20          	mov    %eax,0x20(%r8)
  40c6a8:	41 89 58 24          	mov    %ebx,0x24(%r8)
  40c6ac:	41 89 48 28          	mov    %ecx,0x28(%r8)
  40c6b0:	41 89 50 2c          	mov    %edx,0x2c(%r8)
  40c6b4:	b8 02 00 00 00       	mov    $0x2,%eax
  40c6b9:	0f a2                	cpuid
  40c6bb:	41 89 40 10          	mov    %eax,0x10(%r8)
  40c6bf:	41 89 58 14          	mov    %ebx,0x14(%r8)
  40c6c3:	41 89 48 18          	mov    %ecx,0x18(%r8)
  40c6c7:	41 89 50 1c          	mov    %edx,0x1c(%r8)
  40c6cb:	5a                   	pop    %rdx
  40c6cc:	59                   	pop    %rcx
  40c6cd:	5b                   	pop    %rbx
  40c6ce:	58                   	pop    %rax
  40c6cf:	0f b6 85 60 ff ff ff 	movzbl -0xa0(%rbp),%eax
  40c6d6:	8d 0c 85 00 00 00 00 	lea    0x0(,%rax,4),%ecx
  40c6dd:	83 f8 05             	cmp    $0x5,%eax
  40c6e0:	b8 10 00 00 00       	mov    $0x10,%eax
  40c6e5:	0f 42 c1             	cmovb  %ecx,%eax
  40c6e8:	85 c0                	test   %eax,%eax
  40c6ea:	0f 84 07 04 00 00    	je     40caf7 <_ZL23__libirc_init_cache_tblv+0x6b7>
  40c6f0:	89 c6                	mov    %eax,%esi
  40c6f2:	31 ff                	xor    %edi,%edi
  40c6f4:	4c 8d 0d 25 1a 00 00 	lea    0x1a25(%rip),%r9        # 40e120 <_ZL16cpuid2_cache_tbl>
  40c6fb:	4c 8d 95 30 ff ff ff 	lea    -0xd0(%rbp),%r10
  40c702:	4c 8d 1d 67 51 00 00 	lea    0x5167(%rip),%r11        # 411870 <_ZL18__libirc_cache_tbl>
  40c709:	eb 5b                	jmp    40c766 <_ZL23__libirc_init_cache_tblv+0x326>
  40c70b:	0f 1f 44 00 00       	nopl   0x0(%rax,%rax,1)
  40c710:	44 89 f9             	mov    %r15d,%ecx
  40c713:	c1 e9 03             	shr    $0x3,%ecx
  40c716:	81 e1 ff 0f 00 00    	and    $0xfff,%ecx
  40c71c:	89 c2                	mov    %eax,%edx
  40c71e:	c1 e2 02             	shl    $0x2,%edx
  40c721:	44 8d 04 85 01 00 00 	lea    0x1(,%rax,4),%r8d
  40c728:	00 
  40c729:	43 89 0c 83          	mov    %ecx,(%r11,%r8,4)
  40c72d:	44 89 f9             	mov    %r15d,%ecx
  40c730:	c1 e9 0f             	shr    $0xf,%ecx
  40c733:	83 e1 7f             	and    $0x7f,%ecx
  40c736:	44 8d 04 85 02 00 00 	lea    0x2(,%rax,4),%r8d
  40c73d:	00 
  40c73e:	43 89 0c 83          	mov    %ecx,(%r11,%r8,4)
  40c742:	41 c1 ef 16          	shr    $0x16,%r15d
  40c746:	8d 04 85 03 00 00 00 	lea    0x3(,%rax,4),%eax
  40c74d:	45 89 3c 83          	mov    %r15d,(%r11,%rax,4)
  40c751:	43 8b 44 f1 04       	mov    0x4(%r9,%r14,8),%eax
  40c756:	41 89 04 93          	mov    %eax,(%r11,%rdx,4)
  40c75a:	48 ff c7             	inc    %rdi
  40c75d:	48 39 fe             	cmp    %rdi,%rsi
  40c760:	0f 84 91 03 00 00    	je     40caf7 <_ZL23__libirc_init_cache_tblv+0x6b7>
  40c766:	80 bc bd 63 ff ff ff 	cmpb   $0x0,-0x9d(%rbp,%rdi,4)
  40c76d:	00 
  40c76e:	78 ea                	js     40c75a <_ZL23__libirc_init_cache_tblv+0x31a>
  40c770:	44 0f b6 b4 bd 60 ff 	movzbl -0xa0(%rbp,%rdi,4),%r14d
  40c777:	ff ff 
  40c779:	49 81 fe ff 00 00 00 	cmp    $0xff,%r14
  40c780:	0f 84 59 03 00 00    	je     40cadf <_ZL23__libirc_init_cache_tblv+0x69f>
  40c786:	47 8b 3c f1          	mov    (%r9,%r14,8),%r15d
  40c78a:	44 89 f8             	mov    %r15d,%eax
  40c78d:	83 e0 07             	and    $0x7,%eax
  40c790:	0f 84 c4 00 00 00    	je     40c85a <_ZL23__libirc_init_cache_tblv+0x41a>
  40c796:	83 f8 02             	cmp    $0x2,%eax
  40c799:	75 75                	jne    40c810 <_ZL23__libirc_init_cache_tblv+0x3d0>
  40c79b:	41 80 fe 49          	cmp    $0x49,%r14b
  40c79f:	75 6f                	jne    40c810 <_ZL23__libirc_init_cache_tblv+0x3d0>
  40c7a1:	c7 85 5c ff ff ff 01 	movl   $0x1,-0xa4(%rbp)
  40c7a8:	00 00 00 
  40c7ab:	4c 89 95 50 ff ff ff 	mov    %r10,-0xb0(%rbp)
  40c7b2:	50                   	push   %rax
  40c7b3:	53                   	push   %rbx
  40c7b4:	51                   	push   %rcx
  40c7b5:	52                   	push   %rdx
  40c7b6:	4c 8b 85 50 ff ff ff 	mov    -0xb0(%rbp),%r8
  40c7bd:	8b 85 5c ff ff ff    	mov    -0xa4(%rbp),%eax
  40c7c3:	0f a2                	cpuid
  40c7c5:	41 89 00             	mov    %eax,(%r8)
  40c7c8:	41 89 58 04          	mov    %ebx,0x4(%r8)
  40c7cc:	41 89 48 08          	mov    %ecx,0x8(%r8)
  40c7d0:	41 89 50 0c          	mov    %edx,0xc(%r8)
  40c7d4:	5a                   	pop    %rdx
  40c7d5:	59                   	pop    %rcx
  40c7d6:	5b                   	pop    %rbx
  40c7d7:	58                   	pop    %rax
  40c7d8:	8b 8d 30 ff ff ff    	mov    -0xd0(%rbp),%ecx
  40c7de:	89 ca                	mov    %ecx,%edx
  40c7e0:	81 e2 00 0f 00 0f    	and    $0xf000f00,%edx
  40c7e6:	b8 02 00 00 00       	mov    $0x2,%eax
  40c7eb:	81 fa 00 0f 00 00    	cmp    $0xf00,%edx
  40c7f1:	75 1d                	jne    40c810 <_ZL23__libirc_init_cache_tblv+0x3d0>
  40c7f3:	89 c8                	mov    %ecx,%eax
  40c7f5:	c1 e8 0c             	shr    $0xc,%eax
  40c7f8:	25 f0 00 00 00       	and    $0xf0,%eax
  40c7fd:	c1 e9 04             	shr    $0x4,%ecx
  40c800:	83 e1 0f             	and    $0xf,%ecx
  40c803:	09 c1                	or     %eax,%ecx
  40c805:	31 c0                	xor    %eax,%eax
  40c807:	83 f9 06             	cmp    $0x6,%ecx
  40c80a:	0f 94 c0             	sete   %al
  40c80d:	83 c8 02             	or     $0x2,%eax
  40c810:	44 89 f9             	mov    %r15d,%ecx
  40c813:	c1 e9 03             	shr    $0x3,%ecx
  40c816:	81 e1 ff 0f 00 00    	and    $0xfff,%ecx
  40c81c:	89 c2                	mov    %eax,%edx
  40c81e:	c1 e2 02             	shl    $0x2,%edx
  40c821:	44 8d 04 85 01 00 00 	lea    0x1(,%rax,4),%r8d
  40c828:	00 
  40c829:	43 89 0c 83          	mov    %ecx,(%r11,%r8,4)
  40c82d:	44 89 f9             	mov    %r15d,%ecx
  40c830:	c1 e9 0f             	shr    $0xf,%ecx
  40c833:	83 e1 7f             	and    $0x7f,%ecx
  40c836:	44 8d 04 85 02 00 00 	lea    0x2(,%rax,4),%r8d
  40c83d:	00 
  40c83e:	43 89 0c 83          	mov    %ecx,(%r11,%r8,4)
  40c842:	41 c1 ef 16          	shr    $0x16,%r15d
  40c846:	8d 04 85 03 00 00 00 	lea    0x3(,%rax,4),%eax
  40c84d:	45 89 3c 83          	mov    %r15d,(%r11,%rax,4)
  40c851:	43 8b 44 f1 04       	mov    0x4(%r9,%r14,8),%eax
  40c856:	41 89 04 93          	mov    %eax,(%r11,%rdx,4)
  40c85a:	44 0f b6 b4 bd 61 ff 	movzbl -0x9f(%rbp,%rdi,4),%r14d
  40c861:	ff ff 
  40c863:	49 81 fe ff 00 00 00 	cmp    $0xff,%r14
  40c86a:	0f 84 6f 02 00 00    	je     40cadf <_ZL23__libirc_init_cache_tblv+0x69f>
  40c870:	47 8b 3c f1          	mov    (%r9,%r14,8),%r15d
  40c874:	44 89 f8             	mov    %r15d,%eax
  40c877:	83 e0 07             	and    $0x7,%eax
  40c87a:	0f 84 c4 00 00 00    	je     40c944 <_ZL23__libirc_init_cache_tblv+0x504>
  40c880:	83 f8 02             	cmp    $0x2,%eax
  40c883:	75 75                	jne    40c8fa <_ZL23__libirc_init_cache_tblv+0x4ba>
  40c885:	41 80 fe 49          	cmp    $0x49,%r14b
  40c889:	75 6f                	jne    40c8fa <_ZL23__libirc_init_cache_tblv+0x4ba>
  40c88b:	c7 85 5c ff ff ff 01 	movl   $0x1,-0xa4(%rbp)
  40c892:	00 00 00 
  40c895:	4c 89 95 50 ff ff ff 	mov    %r10,-0xb0(%rbp)
  40c89c:	50                   	push   %rax
  40c89d:	53                   	push   %rbx
  40c89e:	51                   	push   %rcx
  40c89f:	52                   	push   %rdx
  40c8a0:	4c 8b 85 50 ff ff ff 	mov    -0xb0(%rbp),%r8
  40c8a7:	8b 85 5c ff ff ff    	mov    -0xa4(%rbp),%eax
  40c8ad:	0f a2                	cpuid
  40c8af:	41 89 00             	mov    %eax,(%r8)
  40c8b2:	41 89 58 04          	mov    %ebx,0x4(%r8)
  40c8b6:	41 89 48 08          	mov    %ecx,0x8(%r8)
  40c8ba:	41 89 50 0c          	mov    %edx,0xc(%r8)
  40c8be:	5a                   	pop    %rdx
  40c8bf:	59                   	pop    %rcx
  40c8c0:	5b                   	pop    %rbx
  40c8c1:	58                   	pop    %rax
  40c8c2:	8b 8d 30 ff ff ff    	mov    -0xd0(%rbp),%ecx
  40c8c8:	89 ca                	mov    %ecx,%edx
  40c8ca:	81 e2 00 0f 00 0f    	and    $0xf000f00,%edx
  40c8d0:	b8 02 00 00 00       	mov    $0x2,%eax
  40c8d5:	81 fa 00 0f 00 00    	cmp    $0xf00,%edx
  40c8db:	75 1d                	jne    40c8fa <_ZL23__libirc_init_cache_tblv+0x4ba>
  40c8dd:	89 c8                	mov    %ecx,%eax
  40c8df:	c1 e8 0c             	shr    $0xc,%eax
  40c8e2:	25 f0 00 00 00       	and    $0xf0,%eax
  40c8e7:	c1 e9 04             	shr    $0x4,%ecx
  40c8ea:	83 e1 0f             	and    $0xf,%ecx
  40c8ed:	09 c1                	or     %eax,%ecx
  40c8ef:	31 c0                	xor    %eax,%eax
  40c8f1:	83 f9 06             	cmp    $0x6,%ecx
  40c8f4:	0f 94 c0             	sete   %al
  40c8f7:	83 c8 02             	or     $0x2,%eax
  40c8fa:	44 89 f9             	mov    %r15d,%ecx
  40c8fd:	c1 e9 03             	shr    $0x3,%ecx
  40c900:	81 e1 ff 0f 00 00    	and    $0xfff,%ecx
  40c906:	89 c2                	mov    %eax,%edx
  40c908:	c1 e2 02             	shl    $0x2,%edx
  40c90b:	44 8d 04 85 01 00 00 	lea    0x1(,%rax,4),%r8d
  40c912:	00 
  40c913:	43 89 0c 83          	mov    %ecx,(%r11,%r8,4)
  40c917:	44 89 f9             	mov    %r15d,%ecx
  40c91a:	c1 e9 0f             	shr    $0xf,%ecx
  40c91d:	83 e1 7f             	and    $0x7f,%ecx
  40c920:	44 8d 04 85 02 00 00 	lea    0x2(,%rax,4),%r8d
  40c927:	00 
  40c928:	43 89 0c 83          	mov    %ecx,(%r11,%r8,4)
  40c92c:	41 c1 ef 16          	shr    $0x16,%r15d
  40c930:	8d 04 85 03 00 00 00 	lea    0x3(,%rax,4),%eax
  40c937:	45 89 3c 83          	mov    %r15d,(%r11,%rax,4)
  40c93b:	43 8b 44 f1 04       	mov    0x4(%r9,%r14,8),%eax
  40c940:	41 89 04 93          	mov    %eax,(%r11,%rdx,4)
  40c944:	44 0f b6 b4 bd 62 ff 	movzbl -0x9e(%rbp,%rdi,4),%r14d
  40c94b:	ff ff 
  40c94d:	49 81 fe ff 00 00 00 	cmp    $0xff,%r14
  40c954:	0f 84 85 01 00 00    	je     40cadf <_ZL23__libirc_init_cache_tblv+0x69f>
  40c95a:	47 8b 3c f1          	mov    (%r9,%r14,8),%r15d
  40c95e:	44 89 f8             	mov    %r15d,%eax
  40c961:	83 e0 07             	and    $0x7,%eax
  40c964:	0f 84 c4 00 00 00    	je     40ca2e <_ZL23__libirc_init_cache_tblv+0x5ee>
  40c96a:	83 f8 02             	cmp    $0x2,%eax
  40c96d:	75 75                	jne    40c9e4 <_ZL23__libirc_init_cache_tblv+0x5a4>
  40c96f:	41 80 fe 49          	cmp    $0x49,%r14b
  40c973:	75 6f                	jne    40c9e4 <_ZL23__libirc_init_cache_tblv+0x5a4>
  40c975:	c7 85 5c ff ff ff 01 	movl   $0x1,-0xa4(%rbp)
  40c97c:	00 00 00 
  40c97f:	4c 89 95 50 ff ff ff 	mov    %r10,-0xb0(%rbp)
  40c986:	50                   	push   %rax
  40c987:	53                   	push   %rbx
  40c988:	51                   	push   %rcx
  40c989:	52                   	push   %rdx
  40c98a:	4c 8b 85 50 ff ff ff 	mov    -0xb0(%rbp),%r8
  40c991:	8b 85 5c ff ff ff    	mov    -0xa4(%rbp),%eax
  40c997:	0f a2                	cpuid
  40c999:	41 89 00             	mov    %eax,(%r8)
  40c99c:	41 89 58 04          	mov    %ebx,0x4(%r8)
  40c9a0:	41 89 48 08          	mov    %ecx,0x8(%r8)
  40c9a4:	41 89 50 0c          	mov    %edx,0xc(%r8)
  40c9a8:	5a                   	pop    %rdx
  40c9a9:	59                   	pop    %rcx
  40c9aa:	5b                   	pop    %rbx
  40c9ab:	58                   	pop    %rax
  40c9ac:	8b 8d 30 ff ff ff    	mov    -0xd0(%rbp),%ecx
  40c9b2:	89 ca                	mov    %ecx,%edx
  40c9b4:	81 e2 00 0f 00 0f    	and    $0xf000f00,%edx
  40c9ba:	b8 02 00 00 00       	mov    $0x2,%eax
  40c9bf:	81 fa 00 0f 00 00    	cmp    $0xf00,%edx
  40c9c5:	75 1d                	jne    40c9e4 <_ZL23__libirc_init_cache_tblv+0x5a4>
  40c9c7:	89 c8                	mov    %ecx,%eax
  40c9c9:	c1 e8 0c             	shr    $0xc,%eax
  40c9cc:	25 f0 00 00 00       	and    $0xf0,%eax
  40c9d1:	c1 e9 04             	shr    $0x4,%ecx
  40c9d4:	83 e1 0f             	and    $0xf,%ecx
  40c9d7:	09 c1                	or     %eax,%ecx
  40c9d9:	31 c0                	xor    %eax,%eax
  40c9db:	83 f9 06             	cmp    $0x6,%ecx
  40c9de:	0f 94 c0             	sete   %al
  40c9e1:	83 c8 02             	or     $0x2,%eax
  40c9e4:	44 89 f9             	mov    %r15d,%ecx
  40c9e7:	c1 e9 03             	shr    $0x3,%ecx
  40c9ea:	81 e1 ff 0f 00 00    	and    $0xfff,%ecx
  40c9f0:	89 c2                	mov    %eax,%edx
  40c9f2:	c1 e2 02             	shl    $0x2,%edx
  40c9f5:	44 8d 04 85 01 00 00 	lea    0x1(,%rax,4),%r8d
  40c9fc:	00 
  40c9fd:	43 89 0c 83          	mov    %ecx,(%r11,%r8,4)
  40ca01:	44 89 f9             	mov    %r15d,%ecx
  40ca04:	c1 e9 0f             	shr    $0xf,%ecx
  40ca07:	83 e1 7f             	and    $0x7f,%ecx
  40ca0a:	44 8d 04 85 02 00 00 	lea    0x2(,%rax,4),%r8d
  40ca11:	00 
  40ca12:	43 89 0c 83          	mov    %ecx,(%r11,%r8,4)
  40ca16:	41 c1 ef 16          	shr    $0x16,%r15d
  40ca1a:	8d 04 85 03 00 00 00 	lea    0x3(,%rax,4),%eax
  40ca21:	45 89 3c 83          	mov    %r15d,(%r11,%rax,4)
  40ca25:	43 8b 44 f1 04       	mov    0x4(%r9,%r14,8),%eax
  40ca2a:	41 89 04 93          	mov    %eax,(%r11,%rdx,4)
  40ca2e:	44 0f b6 b4 bd 63 ff 	movzbl -0x9d(%rbp,%rdi,4),%r14d
  40ca35:	ff ff 
  40ca37:	49 81 fe ff 00 00 00 	cmp    $0xff,%r14
  40ca3e:	0f 84 9b 00 00 00    	je     40cadf <_ZL23__libirc_init_cache_tblv+0x69f>
  40ca44:	47 8b 3c f1          	mov    (%r9,%r14,8),%r15d
  40ca48:	44 89 f8             	mov    %r15d,%eax
  40ca4b:	83 e0 07             	and    $0x7,%eax
  40ca4e:	0f 84 06 fd ff ff    	je     40c75a <_ZL23__libirc_init_cache_tblv+0x31a>
  40ca54:	83 f8 02             	cmp    $0x2,%eax
  40ca57:	0f 85 b3 fc ff ff    	jne    40c710 <_ZL23__libirc_init_cache_tblv+0x2d0>
  40ca5d:	41 80 fe 49          	cmp    $0x49,%r14b
  40ca61:	0f 85 a9 fc ff ff    	jne    40c710 <_ZL23__libirc_init_cache_tblv+0x2d0>
  40ca67:	c7 85 5c ff ff ff 01 	movl   $0x1,-0xa4(%rbp)
  40ca6e:	00 00 00 
  40ca71:	4c 89 95 50 ff ff ff 	mov    %r10,-0xb0(%rbp)
  40ca78:	50                   	push   %rax
  40ca79:	53                   	push   %rbx
  40ca7a:	51                   	push   %rcx
  40ca7b:	52                   	push   %rdx
  40ca7c:	4c 8b 85 50 ff ff ff 	mov    -0xb0(%rbp),%r8
  40ca83:	8b 85 5c ff ff ff    	mov    -0xa4(%rbp),%eax
  40ca89:	0f a2                	cpuid
  40ca8b:	41 89 00             	mov    %eax,(%r8)
  40ca8e:	41 89 58 04          	mov    %ebx,0x4(%r8)
  40ca92:	41 89 48 08          	mov    %ecx,0x8(%r8)
  40ca96:	41 89 50 0c          	mov    %edx,0xc(%r8)
  40ca9a:	5a                   	pop    %rdx
  40ca9b:	59                   	pop    %rcx
  40ca9c:	5b                   	pop    %rbx
  40ca9d:	58                   	pop    %rax
  40ca9e:	8b 8d 30 ff ff ff    	mov    -0xd0(%rbp),%ecx
  40caa4:	89 ca                	mov    %ecx,%edx
  40caa6:	81 e2 00 0f 00 0f    	and    $0xf000f00,%edx
  40caac:	b8 02 00 00 00       	mov    $0x2,%eax
  40cab1:	81 fa 00 0f 00 00    	cmp    $0xf00,%edx
  40cab7:	0f 85 53 fc ff ff    	jne    40c710 <_ZL23__libirc_init_cache_tblv+0x2d0>
  40cabd:	89 c8                	mov    %ecx,%eax
  40cabf:	c1 e8 0c             	shr    $0xc,%eax
  40cac2:	25 f0 00 00 00       	and    $0xf0,%eax
  40cac7:	c1 e9 04             	shr    $0x4,%ecx
  40caca:	83 e1 0f             	and    $0xf,%ecx
  40cacd:	09 c1                	or     %eax,%ecx
  40cacf:	31 c0                	xor    %eax,%eax
  40cad1:	83 f9 06             	cmp    $0x6,%ecx
  40cad4:	0f 94 c0             	sete   %al
  40cad7:	83 c8 02             	or     $0x2,%eax
  40cada:	e9 31 fc ff ff       	jmp    40c710 <_ZL23__libirc_init_cache_tblv+0x2d0>
  40cadf:	0f 57 c0             	xorps  %xmm0,%xmm0
  40cae2:	0f 29 05 97 4d 00 00 	movaps %xmm0,0x4d97(%rip)        # 411880 <_ZL18__libirc_cache_tbl+0x10>
  40cae9:	0f 29 05 a0 4d 00 00 	movaps %xmm0,0x4da0(%rip)        # 411890 <_ZL18__libirc_cache_tbl+0x20>
  40caf0:	0f 29 05 a9 4d 00 00 	movaps %xmm0,0x4da9(%rip)        # 4118a0 <_ZL18__libirc_cache_tbl+0x30>
  40caf7:	c7 05 7b 4d 00 00 01 	movl   $0x1,0x4d7b(%rip)        # 41187c <_ZL18__libirc_cache_tbl+0xc>
  40cafe:	00 00 00 
  40cb01:	64 48 8b 04 25 28 00 	mov    %fs:0x28,%rax
  40cb08:	00 00 
  40cb0a:	48 3b 45 e0          	cmp    -0x20(%rbp),%rax
  40cb0e:	75 0e                	jne    40cb1e <_ZL23__libirc_init_cache_tblv+0x6de>
  40cb10:	48 81 c4 b8 00 00 00 	add    $0xb8,%rsp
  40cb17:	5b                   	pop    %rbx
  40cb18:	41 5e                	pop    %r14
  40cb1a:	41 5f                	pop    %r15
  40cb1c:	5d                   	pop    %rbp
  40cb1d:	c3                   	ret
  40cb1e:	e8 5d 45 ff ff       	call   401080 <__stack_chk_fail@plt>
  40cb23:	90                   	nop
  40cb24:	66 2e 0f 1f 84 00 00 	cs nopw 0x0(%rax,%rax,1)
  40cb2b:	00 00 00 
  40cb2e:	66 90                	xchg   %ax,%ax

000000000040cb30 <__libirc_get_msg>:
  40cb30:	f3 0f 1e fa          	endbr64
  40cb34:	53                   	push   %rbx
  40cb35:	48 81 ec d0 00 00 00 	sub    $0xd0,%rsp
  40cb3c:	89 f3                	mov    %esi,%ebx
  40cb3e:	48 89 54 24 30       	mov    %rdx,0x30(%rsp)
  40cb43:	48 89 4c 24 38       	mov    %rcx,0x38(%rsp)
  40cb48:	4c 89 44 24 40       	mov    %r8,0x40(%rsp)
  40cb4d:	4c 89 4c 24 48       	mov    %r9,0x48(%rsp)
  40cb52:	84 c0                	test   %al,%al
  40cb54:	74 37                	je     40cb8d <__libirc_get_msg+0x5d>
  40cb56:	0f 29 44 24 50       	movaps %xmm0,0x50(%rsp)
  40cb5b:	0f 29 4c 24 60       	movaps %xmm1,0x60(%rsp)
  40cb60:	0f 29 54 24 70       	movaps %xmm2,0x70(%rsp)
  40cb65:	0f 29 9c 24 80 00 00 	movaps %xmm3,0x80(%rsp)
  40cb6c:	00 
  40cb6d:	0f 29 a4 24 90 00 00 	movaps %xmm4,0x90(%rsp)
  40cb74:	00 
  40cb75:	0f 29 ac 24 a0 00 00 	movaps %xmm5,0xa0(%rsp)
  40cb7c:	00 
  40cb7d:	0f 29 b4 24 b0 00 00 	movaps %xmm6,0xb0(%rsp)
  40cb84:	00 
  40cb85:	0f 29 bc 24 c0 00 00 	movaps %xmm7,0xc0(%rsp)
  40cb8c:	00 
  40cb8d:	e8 5e 00 00 00       	call   40cbf0 <irc_ptr_msg>
  40cb92:	85 db                	test   %ebx,%ebx
  40cb94:	7e 4c                	jle    40cbe2 <__libirc_get_msg+0xb2>
  40cb96:	48 8d 4c 24 20       	lea    0x20(%rsp),%rcx
  40cb9b:	48 89 4c 24 10       	mov    %rcx,0x10(%rsp)
  40cba0:	48 8d 8c 24 e0 00 00 	lea    0xe0(%rsp),%rcx
  40cba7:	00 
  40cba8:	48 89 4c 24 08       	mov    %rcx,0x8(%rsp)
  40cbad:	48 b9 10 00 00 00 30 	movabs $0x3000000010,%rcx
  40cbb4:	00 00 00 
  40cbb7:	48 89 0c 24          	mov    %rcx,(%rsp)
  40cbbb:	48 8d 1d 0e 4d 00 00 	lea    0x4d0e(%rip),%rbx        # 4118d0 <get_msg_buf>
  40cbc2:	49 89 e1             	mov    %rsp,%r9
  40cbc5:	be 00 02 00 00       	mov    $0x200,%esi
  40cbca:	b9 00 02 00 00       	mov    $0x200,%ecx
  40cbcf:	48 89 df             	mov    %rbx,%rdi
  40cbd2:	ba 01 00 00 00       	mov    $0x1,%edx
  40cbd7:	49 89 c0             	mov    %rax,%r8
  40cbda:	e8 11 45 ff ff       	call   4010f0 <__vsnprintf_chk@plt>
  40cbdf:	48 89 d8             	mov    %rbx,%rax
  40cbe2:	48 81 c4 d0 00 00 00 	add    $0xd0,%rsp
  40cbe9:	5b                   	pop    %rbx
  40cbea:	c3                   	ret
  40cbeb:	0f 1f 44 00 00       	nopl   0x0(%rax,%rax,1)

000000000040cbf0 <irc_ptr_msg>:
  40cbf0:	41 57                	push   %r15
  40cbf2:	41 56                	push   %r14
  40cbf4:	41 54                	push   %r12
  40cbf6:	53                   	push   %rbx
  40cbf7:	48 81 ec 88 00 00 00 	sub    $0x88,%rsp
  40cbfe:	64 48 8b 04 25 28 00 	mov    %fs:0x28,%rax
  40cc05:	00 00 
  40cc07:	48 89 84 24 80 00 00 	mov    %rax,0x80(%rsp)
  40cc0e:	00 
  40cc0f:	85 ff                	test   %edi,%edi
  40cc11:	74 37                	je     40cc4a <irc_ptr_msg+0x5a>
  40cc13:	89 fb                	mov    %edi,%ebx
  40cc15:	80 3d b4 50 00 00 00 	cmpb   $0x0,0x50b4(%rip)        # 411cd0 <first_msg>
  40cc1c:	74 38                	je     40cc56 <irc_ptr_msg+0x66>
  40cc1e:	48 63 c3             	movslq %ebx,%rax
  40cc21:	48 c1 e0 04          	shl    $0x4,%rax
  40cc25:	48 8d 0d c4 3d 00 00 	lea    0x3dc4(%rip),%rcx        # 4109f0 <irc_msgtab>
  40cc2c:	48 8b 44 08 08       	mov    0x8(%rax,%rcx,1),%rax
  40cc31:	80 3d 9c 50 00 00 01 	cmpb   $0x1,0x509c(%rip)        # 411cd4 <use_internal_msg>
  40cc38:	0f 85 04 01 00 00    	jne    40cd42 <irc_ptr_msg+0x152>
  40cc3e:	48 8b 3d 93 50 00 00 	mov    0x5093(%rip),%rdi        # 411cd8 <message_catalog>
  40cc45:	e9 e9 00 00 00       	jmp    40cd33 <irc_ptr_msg+0x143>
  40cc4a:	48 8d 05 36 04 00 00 	lea    0x436(%rip),%rax        # 40d087 <_IO_stdin_used+0x87>
  40cc51:	e9 ec 00 00 00       	jmp    40cd42 <irc_ptr_msg+0x152>
  40cc56:	c6 05 73 50 00 00 01 	movb   $0x1,0x5073(%rip)        # 411cd0 <first_msg>
  40cc5d:	48 8d 3d 77 09 00 00 	lea    0x977(%rip),%rdi        # 40d5db <_IO_stdin_used+0x5db>
  40cc64:	31 f6                	xor    %esi,%esi
  40cc66:	e8 75 44 ff ff       	call   4010e0 <catopen@plt>
  40cc6b:	48 89 c7             	mov    %rax,%rdi
  40cc6e:	48 89 05 63 50 00 00 	mov    %rax,0x5063(%rip)        # 411cd8 <message_catalog>
  40cc75:	48 83 f8 ff          	cmp    $0xffffffffffffffff,%rax
  40cc79:	0f 85 9a 00 00 00    	jne    40cd19 <irc_ptr_msg+0x129>
  40cc7f:	48 8d 3d 61 09 00 00 	lea    0x961(%rip),%rdi        # 40d5e7 <_IO_stdin_used+0x5e7>
  40cc86:	e8 a5 43 ff ff       	call   401030 <getenv@plt>
  40cc8b:	48 85 c0             	test   %rax,%rax
  40cc8e:	74 78                	je     40cd08 <irc_ptr_msg+0x118>
  40cc90:	49 89 e6             	mov    %rsp,%r14
  40cc93:	ba 80 00 00 00       	mov    $0x80,%edx
  40cc98:	b9 80 00 00 00       	mov    $0x80,%ecx
  40cc9d:	4c 89 f7             	mov    %r14,%rdi
  40cca0:	48 89 c6             	mov    %rax,%rsi
  40cca3:	e8 58 44 ff ff       	call   401100 <__strncpy_chk@plt>
  40cca8:	c6 44 24 7f 00       	movb   $0x0,0x7f(%rsp)
  40ccad:	4c 89 f7             	mov    %r14,%rdi
  40ccb0:	be 2e 00 00 00       	mov    $0x2e,%esi
  40ccb5:	e8 d6 43 ff ff       	call   401090 <strchr@plt>
  40ccba:	48 85 c0             	test   %rax,%rax
  40ccbd:	74 49                	je     40cd08 <irc_ptr_msg+0x118>
  40ccbf:	49 89 c6             	mov    %rax,%r14
  40ccc2:	c6 00 00             	movb   $0x0,(%rax)
  40ccc5:	4c 8d 3d 1b 09 00 00 	lea    0x91b(%rip),%r15        # 40d5e7 <_IO_stdin_used+0x5e7>
  40cccc:	49 89 e4             	mov    %rsp,%r12
  40cccf:	4c 89 ff             	mov    %r15,%rdi
  40ccd2:	4c 89 e6             	mov    %r12,%rsi
  40ccd5:	ba 01 00 00 00       	mov    $0x1,%edx
  40ccda:	e8 91 43 ff ff       	call   401070 <setenv@plt>
  40ccdf:	48 8d 3d f5 08 00 00 	lea    0x8f5(%rip),%rdi        # 40d5db <_IO_stdin_used+0x5db>
  40cce6:	31 f6                	xor    %esi,%esi
  40cce8:	e8 f3 43 ff ff       	call   4010e0 <catopen@plt>
  40cced:	48 89 05 e4 4f 00 00 	mov    %rax,0x4fe4(%rip)        # 411cd8 <message_catalog>
  40ccf4:	41 c6 06 2e          	movb   $0x2e,(%r14)
  40ccf8:	4c 89 ff             	mov    %r15,%rdi
  40ccfb:	4c 89 e6             	mov    %r12,%rsi
  40ccfe:	ba 01 00 00 00       	mov    $0x1,%edx
  40cd03:	e8 68 43 ff ff       	call   401070 <setenv@plt>
  40cd08:	48 8b 3d c9 4f 00 00 	mov    0x4fc9(%rip),%rdi        # 411cd8 <message_catalog>
  40cd0f:	48 83 ff ff          	cmp    $0xffffffffffffffff,%rdi
  40cd13:	0f 84 05 ff ff ff    	je     40cc1e <irc_ptr_msg+0x2e>
  40cd19:	c6 05 b4 4f 00 00 01 	movb   $0x1,0x4fb4(%rip)        # 411cd4 <use_internal_msg>
  40cd20:	48 63 c3             	movslq %ebx,%rax
  40cd23:	48 c1 e0 04          	shl    $0x4,%rax
  40cd27:	48 8d 0d c2 3c 00 00 	lea    0x3cc2(%rip),%rcx        # 4109f0 <irc_msgtab>
  40cd2e:	48 8b 44 08 08       	mov    0x8(%rax,%rcx,1),%rax
  40cd33:	be 01 00 00 00       	mov    $0x1,%esi
  40cd38:	89 da                	mov    %ebx,%edx
  40cd3a:	48 89 c1             	mov    %rax,%rcx
  40cd3d:	e8 de 43 ff ff       	call   401120 <catgets@plt>
  40cd42:	64 48 8b 0c 25 28 00 	mov    %fs:0x28,%rcx
  40cd49:	00 00 
  40cd4b:	48 3b 8c 24 80 00 00 	cmp    0x80(%rsp),%rcx
  40cd52:	00 
  40cd53:	75 0f                	jne    40cd64 <irc_ptr_msg+0x174>
  40cd55:	48 81 c4 88 00 00 00 	add    $0x88,%rsp
  40cd5c:	5b                   	pop    %rbx
  40cd5d:	41 5c                	pop    %r12
  40cd5f:	41 5e                	pop    %r14
  40cd61:	41 5f                	pop    %r15
  40cd63:	c3                   	ret
  40cd64:	e8 17 43 ff ff       	call   401080 <__stack_chk_fail@plt>
  40cd69:	0f 1f 80 00 00 00 00 	nopl   0x0(%rax)

000000000040cd70 <__libirc_print>:
  40cd70:	f3 0f 1e fa          	endbr64
  40cd74:	55                   	push   %rbp
  40cd75:	41 56                	push   %r14
  40cd77:	53                   	push   %rbx
  40cd78:	48 81 ec d0 00 00 00 	sub    $0xd0,%rsp
  40cd7f:	89 fb                	mov    %edi,%ebx
  40cd81:	48 89 4c 24 38       	mov    %rcx,0x38(%rsp)
  40cd86:	4c 89 44 24 40       	mov    %r8,0x40(%rsp)
  40cd8b:	4c 89 4c 24 48       	mov    %r9,0x48(%rsp)
  40cd90:	84 c0                	test   %al,%al
  40cd92:	74 37                	je     40cdcb <__libirc_print+0x5b>
  40cd94:	0f 29 44 24 50       	movaps %xmm0,0x50(%rsp)
  40cd99:	0f 29 4c 24 60       	movaps %xmm1,0x60(%rsp)
  40cd9e:	0f 29 54 24 70       	movaps %xmm2,0x70(%rsp)
  40cda3:	0f 29 9c 24 80 00 00 	movaps %xmm3,0x80(%rsp)
  40cdaa:	00 
  40cdab:	0f 29 a4 24 90 00 00 	movaps %xmm4,0x90(%rsp)
  40cdb2:	00 
  40cdb3:	0f 29 ac 24 a0 00 00 	movaps %xmm5,0xa0(%rsp)
  40cdba:	00 
  40cdbb:	0f 29 b4 24 b0 00 00 	movaps %xmm6,0xb0(%rsp)
  40cdc2:	00 
  40cdc3:	0f 29 bc 24 c0 00 00 	movaps %xmm7,0xc0(%rsp)
  40cdca:	00 
  40cdcb:	85 f6                	test   %esi,%esi
  40cdcd:	0f 84 80 00 00 00    	je     40ce53 <__libirc_print+0xe3>
  40cdd3:	89 d5                	mov    %edx,%ebp
  40cdd5:	89 f7                	mov    %esi,%edi
  40cdd7:	e8 14 fe ff ff       	call   40cbf0 <irc_ptr_msg>
  40cddc:	85 ed                	test   %ebp,%ebp
  40cdde:	7e 4c                	jle    40ce2c <__libirc_print+0xbc>
  40cde0:	48 8d 4c 24 20       	lea    0x20(%rsp),%rcx
  40cde5:	48 89 4c 24 10       	mov    %rcx,0x10(%rsp)
  40cdea:	48 8d 8c 24 f0 00 00 	lea    0xf0(%rsp),%rcx
  40cdf1:	00 
  40cdf2:	48 89 4c 24 08       	mov    %rcx,0x8(%rsp)
  40cdf7:	48 b9 18 00 00 00 30 	movabs $0x3000000018,%rcx
  40cdfe:	00 00 00 
  40ce01:	48 89 0c 24          	mov    %rcx,(%rsp)
  40ce05:	4c 8d 35 c4 4c 00 00 	lea    0x4cc4(%rip),%r14        # 411ad0 <print_buf>
  40ce0c:	49 89 e1             	mov    %rsp,%r9
  40ce0f:	be 00 02 00 00       	mov    $0x200,%esi
  40ce14:	b9 00 02 00 00       	mov    $0x200,%ecx
  40ce19:	4c 89 f7             	mov    %r14,%rdi
  40ce1c:	ba 01 00 00 00       	mov    $0x1,%edx
  40ce21:	49 89 c0             	mov    %rax,%r8
  40ce24:	e8 c7 42 ff ff       	call   4010f0 <__vsnprintf_chk@plt>
  40ce29:	4c 89 f0             	mov    %r14,%rax
  40ce2c:	83 fb 01             	cmp    $0x1,%ebx
  40ce2f:	75 4f                	jne    40ce80 <__libirc_print+0x110>
  40ce31:	48 8b 0d a8 41 00 00 	mov    0x41a8(%rip),%rcx        # 410fe0 <stderr@GLIBC_2.2.5-0x120>
  40ce38:	48 8b 39             	mov    (%rcx),%rdi
  40ce3b:	48 8d 15 95 07 00 00 	lea    0x795(%rip),%rdx        # 40d5d7 <_IO_stdin_used+0x5d7>
  40ce42:	be 01 00 00 00       	mov    $0x1,%esi
  40ce47:	48 89 c1             	mov    %rax,%rcx
  40ce4a:	31 c0                	xor    %eax,%eax
  40ce4c:	e8 ff 42 ff ff       	call   401150 <__fprintf_chk@plt>
  40ce51:	eb 43                	jmp    40ce96 <__libirc_print+0x126>
  40ce53:	83 fb 01             	cmp    $0x1,%ebx
  40ce56:	75 4a                	jne    40cea2 <__libirc_print+0x132>
  40ce58:	48 8b 05 81 41 00 00 	mov    0x4181(%rip),%rax        # 410fe0 <stderr@GLIBC_2.2.5-0x120>
  40ce5f:	48 8b 38             	mov    (%rax),%rdi
  40ce62:	48 8d 15 1d 02 00 00 	lea    0x21d(%rip),%rdx        # 40d086 <_IO_stdin_used+0x86>
  40ce69:	be 01 00 00 00       	mov    $0x1,%esi
  40ce6e:	31 c0                	xor    %eax,%eax
  40ce70:	48 81 c4 d0 00 00 00 	add    $0xd0,%rsp
  40ce77:	5b                   	pop    %rbx
  40ce78:	41 5e                	pop    %r14
  40ce7a:	5d                   	pop    %rbp
  40ce7b:	e9 d0 42 ff ff       	jmp    401150 <__fprintf_chk@plt>
  40ce80:	48 8d 35 50 07 00 00 	lea    0x750(%rip),%rsi        # 40d5d7 <_IO_stdin_used+0x5d7>
  40ce87:	bf 01 00 00 00       	mov    $0x1,%edi
  40ce8c:	48 89 c2             	mov    %rax,%rdx
  40ce8f:	31 c0                	xor    %eax,%eax
  40ce91:	e8 7a 42 ff ff       	call   401110 <__printf_chk@plt>
  40ce96:	48 81 c4 d0 00 00 00 	add    $0xd0,%rsp
  40ce9d:	5b                   	pop    %rbx
  40ce9e:	41 5e                	pop    %r14
  40cea0:	5d                   	pop    %rbp
  40cea1:	c3                   	ret
  40cea2:	48 8d 35 dd 01 00 00 	lea    0x1dd(%rip),%rsi        # 40d086 <_IO_stdin_used+0x86>
  40cea9:	bf 01 00 00 00       	mov    $0x1,%edi
  40ceae:	31 c0                	xor    %eax,%eax
  40ceb0:	48 81 c4 d0 00 00 00 	add    $0xd0,%rsp
  40ceb7:	5b                   	pop    %rbx
  40ceb8:	41 5e                	pop    %r14
  40ceba:	5d                   	pop    %rbp
  40cebb:	e9 50 42 ff ff       	jmp    401110 <__printf_chk@plt>

Disassembly of section .fini:

000000000040cec0 <_fini>:
  40cec0:	48 83 ec 08          	sub    $0x8,%rsp
  40cec4:	48 83 c4 08          	add    $0x8,%rsp
  40cec8:	c3                   	ret
