
headless_icx_-O3:     file format elf64-x86-64


Disassembly of section .init:

0000000000401000 <_init>:
  401000:	48 83 ec 08          	sub    $0x8,%rsp
  401004:	48 8b 05 bd 0f 01 00 	mov    0x10fbd(%rip),%rax        # 411fc8 <__gmon_start__@Base>
  40100b:	48 85 c0             	test   %rax,%rax
  40100e:	74 02                	je     401012 <_init+0x12>
  401010:	ff d0                	call   *%rax
  401012:	48 83 c4 08          	add    $0x8,%rsp
  401016:	c3                   	ret

Disassembly of section .plt:

0000000000401020 <getenv@plt-0x10>:
  401020:	ff 35 ca 0f 01 00    	push   0x10fca(%rip)        # 411ff0 <_GLOBAL_OFFSET_TABLE_+0x8>
  401026:	ff 25 cc 0f 01 00    	jmp    *0x10fcc(%rip)        # 411ff8 <_GLOBAL_OFFSET_TABLE_+0x10>
  40102c:	0f 1f 40 00          	nopl   0x0(%rax)

0000000000401030 <getenv@plt>:
  401030:	ff 25 ca 0f 01 00    	jmp    *0x10fca(%rip)        # 412000 <getenv@GLIBC_2.2.5>
  401036:	68 00 00 00 00       	push   $0x0
  40103b:	e9 e0 ff ff ff       	jmp    401020 <_init+0x20>

0000000000401040 <free@plt>:
  401040:	ff 25 c2 0f 01 00    	jmp    *0x10fc2(%rip)        # 412008 <free@GLIBC_2.2.5>
  401046:	68 01 00 00 00       	push   $0x1
  40104b:	e9 d0 ff ff ff       	jmp    401020 <_init+0x20>

0000000000401050 <strtod@plt>:
  401050:	ff 25 ba 0f 01 00    	jmp    *0x10fba(%rip)        # 412010 <strtod@GLIBC_2.2.5>
  401056:	68 02 00 00 00       	push   $0x2
  40105b:	e9 c0 ff ff ff       	jmp    401020 <_init+0x20>

0000000000401060 <clock_gettime@plt>:
  401060:	ff 25 b2 0f 01 00    	jmp    *0x10fb2(%rip)        # 412018 <clock_gettime@GLIBC_2.17>
  401066:	68 03 00 00 00       	push   $0x3
  40106b:	e9 b0 ff ff ff       	jmp    401020 <_init+0x20>

0000000000401070 <setenv@plt>:
  401070:	ff 25 aa 0f 01 00    	jmp    *0x10faa(%rip)        # 412020 <setenv@GLIBC_2.2.5>
  401076:	68 04 00 00 00       	push   $0x4
  40107b:	e9 a0 ff ff ff       	jmp    401020 <_init+0x20>

0000000000401080 <__stack_chk_fail@plt>:
  401080:	ff 25 a2 0f 01 00    	jmp    *0x10fa2(%rip)        # 412028 <__stack_chk_fail@GLIBC_2.4>
  401086:	68 05 00 00 00       	push   $0x5
  40108b:	e9 90 ff ff ff       	jmp    401020 <_init+0x20>

0000000000401090 <strchr@plt>:
  401090:	ff 25 9a 0f 01 00    	jmp    *0x10f9a(%rip)        # 412030 <strchr@GLIBC_2.2.5>
  401096:	68 06 00 00 00       	push   $0x6
  40109b:	e9 80 ff ff ff       	jmp    401020 <_init+0x20>

00000000004010a0 <printf@plt>:
  4010a0:	ff 25 92 0f 01 00    	jmp    *0x10f92(%rip)        # 412038 <printf@GLIBC_2.2.5>
  4010a6:	68 07 00 00 00       	push   $0x7
  4010ab:	e9 70 ff ff ff       	jmp    401020 <_init+0x20>

00000000004010b0 <fprintf@plt>:
  4010b0:	ff 25 8a 0f 01 00    	jmp    *0x10f8a(%rip)        # 412040 <fprintf@GLIBC_2.2.5>
  4010b6:	68 08 00 00 00       	push   $0x8
  4010bb:	e9 60 ff ff ff       	jmp    401020 <_init+0x20>

00000000004010c0 <strtol@plt>:
  4010c0:	ff 25 82 0f 01 00    	jmp    *0x10f82(%rip)        # 412048 <strtol@GLIBC_2.2.5>
  4010c6:	68 09 00 00 00       	push   $0x9
  4010cb:	e9 50 ff ff ff       	jmp    401020 <_init+0x20>

00000000004010d0 <malloc@plt>:
  4010d0:	ff 25 7a 0f 01 00    	jmp    *0x10f7a(%rip)        # 412050 <malloc@GLIBC_2.2.5>
  4010d6:	68 0a 00 00 00       	push   $0xa
  4010db:	e9 40 ff ff ff       	jmp    401020 <_init+0x20>

00000000004010e0 <catopen@plt>:
  4010e0:	ff 25 72 0f 01 00    	jmp    *0x10f72(%rip)        # 412058 <catopen@GLIBC_2.2.5>
  4010e6:	68 0b 00 00 00       	push   $0xb
  4010eb:	e9 30 ff ff ff       	jmp    401020 <_init+0x20>

00000000004010f0 <__vsnprintf_chk@plt>:
  4010f0:	ff 25 6a 0f 01 00    	jmp    *0x10f6a(%rip)        # 412060 <__vsnprintf_chk@GLIBC_2.3.4>
  4010f6:	68 0c 00 00 00       	push   $0xc
  4010fb:	e9 20 ff ff ff       	jmp    401020 <_init+0x20>

0000000000401100 <__strncpy_chk@plt>:
  401100:	ff 25 62 0f 01 00    	jmp    *0x10f62(%rip)        # 412068 <__strncpy_chk@GLIBC_2.3.4>
  401106:	68 0d 00 00 00       	push   $0xd
  40110b:	e9 10 ff ff ff       	jmp    401020 <_init+0x20>

0000000000401110 <__printf_chk@plt>:
  401110:	ff 25 5a 0f 01 00    	jmp    *0x10f5a(%rip)        # 412070 <__printf_chk@GLIBC_2.3.4>
  401116:	68 0e 00 00 00       	push   $0xe
  40111b:	e9 00 ff ff ff       	jmp    401020 <_init+0x20>

0000000000401120 <catgets@plt>:
  401120:	ff 25 52 0f 01 00    	jmp    *0x10f52(%rip)        # 412078 <catgets@GLIBC_2.2.5>
  401126:	68 0f 00 00 00       	push   $0xf
  40112b:	e9 f0 fe ff ff       	jmp    401020 <_init+0x20>

0000000000401130 <exit@plt>:
  401130:	ff 25 4a 0f 01 00    	jmp    *0x10f4a(%rip)        # 412080 <exit@GLIBC_2.2.5>
  401136:	68 10 00 00 00       	push   $0x10
  40113b:	e9 e0 fe ff ff       	jmp    401020 <_init+0x20>

0000000000401140 <fwrite@plt>:
  401140:	ff 25 42 0f 01 00    	jmp    *0x10f42(%rip)        # 412088 <fwrite@GLIBC_2.2.5>
  401146:	68 11 00 00 00       	push   $0x11
  40114b:	e9 d0 fe ff ff       	jmp    401020 <_init+0x20>

0000000000401150 <__fprintf_chk@plt>:
  401150:	ff 25 3a 0f 01 00    	jmp    *0x10f3a(%rip)        # 412090 <__fprintf_chk@GLIBC_2.3.4>
  401156:	68 12 00 00 00       	push   $0x12
  40115b:	e9 c0 fe ff ff       	jmp    401020 <_init+0x20>

Disassembly of section .plt.got:

0000000000401160 <__cxa_finalize@plt>:
  401160:	ff 25 72 0e 01 00    	jmp    *0x10e72(%rip)        # 411fd8 <__cxa_finalize@GLIBC_2.2.5>
  401166:	66 90                	xchg   %ax,%ax

Disassembly of section .text:

0000000000401180 <_GLOBAL__sub_I_fast_mem_ops.c>:
  401180:	f3 0f 1e fa          	endbr64
  401184:	55                   	push   %rbp
  401185:	48 89 e5             	mov    %rsp,%rbp
  401188:	41 56                	push   %r14
  40118a:	53                   	push   %rbx
  40118b:	48 83 ec 20          	sub    $0x20,%rsp
  40118f:	83 3d e6 16 01 00 00 	cmpl   $0x0,0x116e6(%rip)        # 41287c <_ZL18__libirc_cache_tbl+0xc>
  401196:	0f 84 05 01 00 00    	je     4012a1 <_GLOBAL__sub_I_fast_mem_ops.c+0x121>
  40119c:	83 3d cd 16 01 00 00 	cmpl   $0x0,0x116cd(%rip)        # 412870 <_ZL18__libirc_cache_tbl>
  4011a3:	0f 84 0a 01 00 00    	je     4012b3 <_GLOBAL__sub_I_fast_mem_ops.c+0x133>
  4011a9:	83 3d c4 16 01 00 00 	cmpl   $0x0,0x116c4(%rip)        # 412874 <_ZL18__libirc_cache_tbl+0x4>
  4011b0:	0f 84 21 02 00 00    	je     4013d7 <_GLOBAL__sub_I_fast_mem_ops.c+0x257>
  4011b6:	53                   	push   %rbx
  4011b7:	b8 01 00 00 00       	mov    $0x1,%eax
  4011bc:	0f a2                	cpuid
  4011be:	89 5d d0             	mov    %ebx,-0x30(%rbp)
  4011c1:	89 55 e0             	mov    %edx,-0x20(%rbp)
  4011c4:	89 45 ec             	mov    %eax,-0x14(%rbp)
  4011c7:	5b                   	pop    %rbx
  4011c8:	8b 45 e0             	mov    -0x20(%rbp),%eax
  4011cb:	89 c1                	mov    %eax,%ecx
  4011cd:	c1 e9 17             	shr    $0x17,%ecx
  4011d0:	83 e1 01             	and    $0x1,%ecx
  4011d3:	a9 00 00 00 04       	test   $0x4000000,%eax
  4011d8:	41 be 02 00 00 00    	mov    $0x2,%r14d
  4011de:	44 0f 44 f1          	cmove  %ecx,%r14d
  4011e2:	8b 05 98 16 01 00    	mov    0x11698(%rip),%eax        # 412880 <_ZL18__libirc_cache_tbl+0x10>
  4011e8:	85 c0                	test   %eax,%eax
  4011ea:	0f 84 f8 01 00 00    	je     4013e8 <_GLOBAL__sub_I_fast_mem_ops.c+0x268>
  4011f0:	8b 0d a2 16 01 00    	mov    0x116a2(%rip),%ecx        # 412898 <_ZL18__libirc_cache_tbl+0x28>
  4011f6:	0f af 0d 97 16 01 00 	imul   0x11697(%rip),%ecx        # 412894 <_ZL18__libirc_cache_tbl+0x24>
  4011fd:	8b 15 8d 16 01 00    	mov    0x1168d(%rip),%edx        # 412890 <_ZL18__libirc_cache_tbl+0x20>
  401203:	8b 35 7f 16 01 00    	mov    0x1167f(%rip),%esi        # 412888 <_ZL18__libirc_cache_tbl+0x18>
  401209:	0f af 35 74 16 01 00 	imul   0x11674(%rip),%esi        # 412884 <_ZL18__libirc_cache_tbl+0x14>
  401210:	39 d0                	cmp    %edx,%eax
  401212:	0f 47 d0             	cmova  %eax,%edx
  401215:	0f 42 f1             	cmovb  %ecx,%esi
  401218:	8b 0d 8a 16 01 00    	mov    0x1168a(%rip),%ecx        # 4128a8 <_ZL18__libirc_cache_tbl+0x38>
  40121e:	0f af 0d 7f 16 01 00 	imul   0x1167f(%rip),%ecx        # 4128a4 <_ZL18__libirc_cache_tbl+0x34>
  401225:	8b 3d 75 16 01 00    	mov    0x11675(%rip),%edi        # 4128a0 <_ZL18__libirc_cache_tbl+0x30>
  40122b:	39 fa                	cmp    %edi,%edx
  40122d:	0f 43 ce             	cmovae %esi,%ecx
  401230:	0f 46 d7             	cmovbe %edi,%edx
  401233:	48 89 d6             	mov    %rdx,%rsi
  401236:	48 c1 e6 0a          	shl    $0xa,%rsi
  40123a:	48 89 35 6f 0e 01 00 	mov    %rsi,0x10e6f(%rip)        # 4120b0 <__libirc_largest_cache_size>
  401241:	48 c1 e2 09          	shl    $0x9,%rdx
  401245:	48 89 15 6c 0e 01 00 	mov    %rdx,0x10e6c(%rip)        # 4120b8 <__libirc_largest_cache_size_half>
  40124c:	c1 e0 0a             	shl    $0xa,%eax
  40124f:	48 89 05 6a 0e 01 00 	mov    %rax,0x10e6a(%rip)        # 4120c0 <__libirc_data_cache_size>
  401256:	48 89 c2             	mov    %rax,%rdx
  401259:	48 d1 ea             	shr    $1,%rdx
  40125c:	48 89 15 65 0e 01 00 	mov    %rdx,0x10e65(%rip)        # 4120c8 <__libirc_data_cache_size_half>
  401263:	48 89 c2             	mov    %rax,%rdx
  401266:	48 c1 ea 02          	shr    $0x2,%rdx
  40126a:	48 89 15 5f 0e 01 00 	mov    %rdx,0x10e5f(%rip)        # 4120d0 <__libirc_largest_cache_size_quoter>
  401271:	48 89 0d 40 16 01 00 	mov    %rcx,0x11640(%rip)        # 4128b8 <__libirc_largest_cachelinesize>
  401278:	48 c7 05 55 0e 01 00 	movq   $0x2000,0x10e55(%rip)        # 4120d8 <__libirc_copy_loop_threshold>
  40127f:	00 20 00 00 
  401283:	48 01 c0             	add    %rax,%rax
  401286:	48 8d 04 40          	lea    (%rax,%rax,2),%rax
  40128a:	48 89 05 4f 0e 01 00 	mov    %rax,0x10e4f(%rip)        # 4120e0 <__libirc_rep_move_threshold>
  401291:	48 c7 05 4c 0e 01 00 	movq   $0x800,0x10e4c(%rip)        # 4120e8 <__libirc_set_loop_threshold>
  401298:	00 08 00 00 
  40129c:	e9 5d 01 00 00       	jmp    4013fe <_GLOBAL__sub_I_fast_mem_ops.c+0x27e>
  4012a1:	e8 9a b3 00 00       	call   40c640 <_ZL23__libirc_init_cache_tblv>
  4012a6:	83 3d c3 15 01 00 00 	cmpl   $0x0,0x115c3(%rip)        # 412870 <_ZL18__libirc_cache_tbl>
  4012ad:	0f 85 f6 fe ff ff    	jne    4011a9 <_GLOBAL__sub_I_fast_mem_ops.c+0x29>
  4012b3:	c7 45 ec 00 00 00 00 	movl   $0x0,-0x14(%rbp)
  4012ba:	48 8d 75 d0          	lea    -0x30(%rbp),%rsi
  4012be:	48 89 75 e0          	mov    %rsi,-0x20(%rbp)
  4012c2:	50                   	push   %rax
  4012c3:	53                   	push   %rbx
  4012c4:	51                   	push   %rcx
  4012c5:	52                   	push   %rdx
  4012c6:	4c 8b 45 e0          	mov    -0x20(%rbp),%r8
  4012ca:	8b 45 ec             	mov    -0x14(%rbp),%eax
  4012cd:	0f a2                	cpuid
  4012cf:	41 89 00             	mov    %eax,(%r8)
  4012d2:	41 89 58 04          	mov    %ebx,0x4(%r8)
  4012d6:	41 89 48 08          	mov    %ecx,0x8(%r8)
  4012da:	41 89 50 0c          	mov    %edx,0xc(%r8)
  4012de:	5a                   	pop    %rdx
  4012df:	59                   	pop    %rcx
  4012e0:	5b                   	pop    %rbx
  4012e1:	58                   	pop    %rax
  4012e2:	45 31 f6             	xor    %r14d,%r14d
  4012e5:	81 7d d4 41 75 74 68 	cmpl   $0x68747541,-0x2c(%rbp)
  4012ec:	0f 85 0c 01 00 00    	jne    4013fe <_GLOBAL__sub_I_fast_mem_ops.c+0x27e>
  4012f2:	81 7d dc 65 6e 74 69 	cmpl   $0x69746e65,-0x24(%rbp)
  4012f9:	0f 85 ff 00 00 00    	jne    4013fe <_GLOBAL__sub_I_fast_mem_ops.c+0x27e>
  4012ff:	81 7d d8 63 41 4d 44 	cmpl   $0x444d4163,-0x28(%rbp)
  401306:	0f 85 f2 00 00 00    	jne    4013fe <_GLOBAL__sub_I_fast_mem_ops.c+0x27e>
  40130c:	c7 45 ec 01 00 00 00 	movl   $0x1,-0x14(%rbp)
  401313:	48 89 75 e0          	mov    %rsi,-0x20(%rbp)
  401317:	50                   	push   %rax
  401318:	53                   	push   %rbx
  401319:	51                   	push   %rcx
  40131a:	52                   	push   %rdx
  40131b:	4c 8b 45 e0          	mov    -0x20(%rbp),%r8
  40131f:	8b 45 ec             	mov    -0x14(%rbp),%eax
  401322:	0f a2                	cpuid
  401324:	41 89 00             	mov    %eax,(%r8)
  401327:	41 89 58 04          	mov    %ebx,0x4(%r8)
  40132b:	41 89 48 08          	mov    %ecx,0x8(%r8)
  40132f:	41 89 50 0c          	mov    %edx,0xc(%r8)
  401333:	5a                   	pop    %rdx
  401334:	59                   	pop    %rcx
  401335:	5b                   	pop    %rbx
  401336:	58                   	pop    %rax
  401337:	44 8b 75 dc          	mov    -0x24(%rbp),%r14d
  40133b:	41 c1 ee 17          	shr    $0x17,%r14d
  40133f:	41 83 e6 01          	and    $0x1,%r14d
  401343:	c7 45 ec 00 00 00 80 	movl   $0x80000000,-0x14(%rbp)
  40134a:	48 89 75 e0          	mov    %rsi,-0x20(%rbp)
  40134e:	50                   	push   %rax
  40134f:	53                   	push   %rbx
  401350:	51                   	push   %rcx
  401351:	52                   	push   %rdx
  401352:	4c 8b 45 e0          	mov    -0x20(%rbp),%r8
  401356:	8b 45 ec             	mov    -0x14(%rbp),%eax
  401359:	0f a2                	cpuid
  40135b:	41 89 00             	mov    %eax,(%r8)
  40135e:	41 89 58 04          	mov    %ebx,0x4(%r8)
  401362:	41 89 48 08          	mov    %ecx,0x8(%r8)
  401366:	41 89 50 0c          	mov    %edx,0xc(%r8)
  40136a:	5a                   	pop    %rdx
  40136b:	59                   	pop    %rcx
  40136c:	5b                   	pop    %rbx
  40136d:	58                   	pop    %rax
  40136e:	81 7d d0 06 00 00 80 	cmpl   $0x80000006,-0x30(%rbp)
  401375:	0f 82 83 00 00 00    	jb     4013fe <_GLOBAL__sub_I_fast_mem_ops.c+0x27e>
  40137b:	c7 45 ec 06 00 00 80 	movl   $0x80000006,-0x14(%rbp)
  401382:	48 89 75 e0          	mov    %rsi,-0x20(%rbp)
  401386:	50                   	push   %rax
  401387:	53                   	push   %rbx
  401388:	51                   	push   %rcx
  401389:	52                   	push   %rdx
  40138a:	4c 8b 45 e0          	mov    -0x20(%rbp),%r8
  40138e:	8b 45 ec             	mov    -0x14(%rbp),%eax
  401391:	0f a2                	cpuid
  401393:	41 89 00             	mov    %eax,(%r8)
  401396:	41 89 58 04          	mov    %ebx,0x4(%r8)
  40139a:	41 89 48 08          	mov    %ecx,0x8(%r8)
  40139e:	41 89 50 0c          	mov    %edx,0xc(%r8)
  4013a2:	5a                   	pop    %rdx
  4013a3:	59                   	pop    %rcx
  4013a4:	5b                   	pop    %rbx
  4013a5:	58                   	pop    %rax
  4013a6:	8b 45 d8             	mov    -0x28(%rbp),%eax
  4013a9:	48 c1 e8 06          	shr    $0x6,%rax
  4013ad:	25 00 fc ff 03       	and    $0x3fffc00,%eax
  4013b2:	48 89 05 f7 0c 01 00 	mov    %rax,0x10cf7(%rip)        # 4120b0 <__libirc_largest_cache_size>
  4013b9:	48 d1 e8             	shr    $1,%rax
  4013bc:	48 89 05 f5 0c 01 00 	mov    %rax,0x10cf5(%rip)        # 4120b8 <__libirc_largest_cache_size_half>
  4013c3:	48 8b 05 f6 0c 01 00 	mov    0x10cf6(%rip),%rax        # 4120c0 <__libirc_data_cache_size>
  4013ca:	48 c1 e8 02          	shr    $0x2,%rax
  4013ce:	48 89 05 fb 0c 01 00 	mov    %rax,0x10cfb(%rip)        # 4120d0 <__libirc_largest_cache_size_quoter>
  4013d5:	eb 27                	jmp    4013fe <_GLOBAL__sub_I_fast_mem_ops.c+0x27e>
  4013d7:	45 31 f6             	xor    %r14d,%r14d
  4013da:	8b 05 a0 14 01 00    	mov    0x114a0(%rip),%eax        # 412880 <_ZL18__libirc_cache_tbl+0x10>
  4013e0:	85 c0                	test   %eax,%eax
  4013e2:	0f 85 08 fe ff ff    	jne    4011f0 <_GLOBAL__sub_I_fast_mem_ops.c+0x70>
  4013e8:	48 8d 3d d3 d1 00 00 	lea    0xd1d3(%rip),%rdi        # 40e5c2 <_IO_stdin_used+0x5c2>
  4013ef:	e8 3c fc ff ff       	call   401030 <getenv@plt>
  4013f4:	48 85 c0             	test   %rax,%rax
  4013f7:	74 05                	je     4013fe <_GLOBAL__sub_I_fast_mem_ops.c+0x27e>
  4013f9:	80 38 00             	cmpb   $0x0,(%rax)
  4013fc:	75 17                	jne    401415 <_GLOBAL__sub_I_fast_mem_ops.c+0x295>
  4013fe:	44 89 35 ab 14 01 00 	mov    %r14d,0x114ab(%rip)        # 4128b0 <__libirc_mem_ops_method>
  401405:	44 89 35 b4 14 01 00 	mov    %r14d,0x114b4(%rip)        # 4128c0 <_ZL12__libirc_tmp>
  40140c:	48 83 c4 20          	add    $0x20,%rsp
  401410:	5b                   	pop    %rbx
  401411:	41 5e                	pop    %r14
  401413:	5d                   	pop    %rbp
  401414:	c3                   	ret
  401415:	bf 01 00 00 00       	mov    $0x1,%edi
  40141a:	31 f6                	xor    %esi,%esi
  40141c:	31 d2                	xor    %edx,%edx
  40141e:	31 c0                	xor    %eax,%eax
  401420:	e8 4b bb 00 00       	call   40cf70 <__libirc_print>
  401425:	bf 01 00 00 00       	mov    $0x1,%edi
  40142a:	be 3d 00 00 00       	mov    $0x3d,%esi
  40142f:	31 d2                	xor    %edx,%edx
  401431:	31 c0                	xor    %eax,%eax
  401433:	e8 38 bb 00 00       	call   40cf70 <__libirc_print>
  401438:	bf 01 00 00 00       	mov    $0x1,%edi
  40143d:	31 f6                	xor    %esi,%esi
  40143f:	31 d2                	xor    %edx,%edx
  401441:	31 c0                	xor    %eax,%eax
  401443:	e8 28 bb 00 00       	call   40cf70 <__libirc_print>
  401448:	bf 01 00 00 00       	mov    $0x1,%edi
  40144d:	e8 de fc ff ff       	call   401130 <exit@plt>
  401452:	66 2e 0f 1f 84 00 00 	cs nopw 0x0(%rax,%rax,1)
  401459:	00 00 00 
  40145c:	0f 1f 40 00          	nopl   0x0(%rax)

0000000000401460 <_start>:
  401460:	31 ed                	xor    %ebp,%ebp
  401462:	49 89 d1             	mov    %rdx,%r9
  401465:	5e                   	pop    %rsi
  401466:	48 89 e2             	mov    %rsp,%rdx
  401469:	48 83 e4 f0          	and    $0xfffffffffffffff0,%rsp
  40146d:	50                   	push   %rax
  40146e:	54                   	push   %rsp
  40146f:	45 31 c0             	xor    %r8d,%r8d
  401472:	31 c9                	xor    %ecx,%ecx
  401474:	48 c7 c7 50 15 40 00 	mov    $0x401550,%rdi
  40147b:	ff 15 2f 0b 01 00    	call   *0x10b2f(%rip)        # 411fb0 <__libc_start_main@GLIBC_2.34>
  401481:	f4                   	hlt
  401482:	66 2e 0f 1f 84 00 00 	cs nopw 0x0(%rax,%rax,1)
  401489:	00 00 00 
  40148c:	0f 1f 40 00          	nopl   0x0(%rax)

0000000000401490 <deregister_tm_clones>:
  401490:	48 8d 3d 59 0c 01 00 	lea    0x10c59(%rip),%rdi        # 4120f0 <__TMC_END__>
  401497:	48 8d 05 52 0c 01 00 	lea    0x10c52(%rip),%rax        # 4120f0 <__TMC_END__>
  40149e:	48 39 f8             	cmp    %rdi,%rax
  4014a1:	74 15                	je     4014b8 <deregister_tm_clones+0x28>
  4014a3:	48 8b 05 0e 0b 01 00 	mov    0x10b0e(%rip),%rax        # 411fb8 <_ITM_deregisterTMCloneTable@Base>
  4014aa:	48 85 c0             	test   %rax,%rax
  4014ad:	74 09                	je     4014b8 <deregister_tm_clones+0x28>
  4014af:	ff e0                	jmp    *%rax
  4014b1:	0f 1f 80 00 00 00 00 	nopl   0x0(%rax)
  4014b8:	c3                   	ret
  4014b9:	0f 1f 80 00 00 00 00 	nopl   0x0(%rax)

00000000004014c0 <register_tm_clones>:
  4014c0:	48 8d 3d 29 0c 01 00 	lea    0x10c29(%rip),%rdi        # 4120f0 <__TMC_END__>
  4014c7:	48 8d 35 22 0c 01 00 	lea    0x10c22(%rip),%rsi        # 4120f0 <__TMC_END__>
  4014ce:	48 29 fe             	sub    %rdi,%rsi
  4014d1:	48 89 f0             	mov    %rsi,%rax
  4014d4:	48 c1 ee 3f          	shr    $0x3f,%rsi
  4014d8:	48 c1 f8 03          	sar    $0x3,%rax
  4014dc:	48 01 c6             	add    %rax,%rsi
  4014df:	48 d1 fe             	sar    $1,%rsi
  4014e2:	74 14                	je     4014f8 <register_tm_clones+0x38>
  4014e4:	48 8b 05 e5 0a 01 00 	mov    0x10ae5(%rip),%rax        # 411fd0 <_ITM_registerTMCloneTable@Base>
  4014eb:	48 85 c0             	test   %rax,%rax
  4014ee:	74 08                	je     4014f8 <register_tm_clones+0x38>
  4014f0:	ff e0                	jmp    *%rax
  4014f2:	66 0f 1f 44 00 00    	nopw   0x0(%rax,%rax,1)
  4014f8:	c3                   	ret
  4014f9:	0f 1f 80 00 00 00 00 	nopl   0x0(%rax)

0000000000401500 <__do_global_dtors_aux>:
  401500:	f3 0f 1e fa          	endbr64
  401504:	80 3d fd 0b 01 00 00 	cmpb   $0x0,0x10bfd(%rip)        # 412108 <completed.0>
  40150b:	75 2b                	jne    401538 <__do_global_dtors_aux+0x38>
  40150d:	55                   	push   %rbp
  40150e:	48 83 3d c2 0a 01 00 	cmpq   $0x0,0x10ac2(%rip)        # 411fd8 <__cxa_finalize@GLIBC_2.2.5>
  401515:	00 
  401516:	48 89 e5             	mov    %rsp,%rbp
  401519:	74 0c                	je     401527 <__do_global_dtors_aux+0x27>
  40151b:	48 8b 3d 7e 0b 01 00 	mov    0x10b7e(%rip),%rdi        # 4120a0 <__dso_handle>
  401522:	e8 39 fc ff ff       	call   401160 <__cxa_finalize@plt>
  401527:	e8 64 ff ff ff       	call   401490 <deregister_tm_clones>
  40152c:	c6 05 d5 0b 01 00 01 	movb   $0x1,0x10bd5(%rip)        # 412108 <completed.0>
  401533:	5d                   	pop    %rbp
  401534:	c3                   	ret
  401535:	0f 1f 00             	nopl   (%rax)
  401538:	c3                   	ret
  401539:	0f 1f 80 00 00 00 00 	nopl   0x0(%rax)

0000000000401540 <frame_dummy>:
  401540:	f3 0f 1e fa          	endbr64
  401544:	e9 77 ff ff ff       	jmp    4014c0 <register_tm_clones>
  401549:	0f 1f 80 00 00 00 00 	nopl   0x0(%rax)

0000000000401550 <main>:
  401550:	55                   	push   %rbp
  401551:	41 57                	push   %r15
  401553:	41 56                	push   %r14
  401555:	41 55                	push   %r13
  401557:	41 54                	push   %r12
  401559:	53                   	push   %rbx
  40155a:	48 83 ec 28          	sub    $0x28,%rsp
  40155e:	c5 f8 ae 5c 24 0c    	vstmxcsr 0xc(%rsp)
  401564:	48 89 f3             	mov    %rsi,%rbx
  401567:	81 4c 24 0c 40 80 00 	orl    $0x8040,0xc(%rsp)
  40156e:	00 
  40156f:	c5 f8 ae 54 24 0c    	vldmxcsr 0xc(%rsp)
  401575:	83 ff 07             	cmp    $0x7,%edi
  401578:	0f 87 fe 01 00 00    	ja     40177c <main+0x22c>
  40157e:	b8 86 00 00 00       	mov    $0x86,%eax
  401583:	0f a3 f8             	bt     %edi,%eax
  401586:	0f 83 f0 01 00 00    	jae    40177c <main+0x22c>
  40158c:	8d 47 ff             	lea    -0x1(%rdi),%eax
  40158f:	83 f8 01             	cmp    $0x1,%eax
  401592:	0f 87 c5 07 00 00    	ja     401d5d <main+0x80d>
  401598:	41 be 80 00 00 00    	mov    $0x80,%r14d
  40159e:	83 ff 01             	cmp    $0x1,%edi
  4015a1:	74 13                	je     4015b6 <main+0x66>
  4015a3:	48 8b 7b 08          	mov    0x8(%rbx),%rdi
  4015a7:	ba 0a 00 00 00       	mov    $0xa,%edx
  4015ac:	31 f6                	xor    %esi,%esi
  4015ae:	e8 0d fb ff ff       	call   4010c0 <strtol@plt>
  4015b3:	49 89 c6             	mov    %rax,%r14
  4015b6:	c5 fb 10 05 6a ca 00 	vmovsd 0xca6a(%rip),%xmm0        # 40e028 <_IO_stdin_used+0x28>
  4015bd:	00 
  4015be:	c5 fb 10 1d 6a ca 00 	vmovsd 0xca6a(%rip),%xmm3        # 40e030 <_IO_stdin_used+0x30>
  4015c5:	00 
  4015c6:	c5 fb 10 25 6a ca 00 	vmovsd 0xca6a(%rip),%xmm4        # 40e038 <_IO_stdin_used+0x38>
  4015cd:	00 
  4015ce:	48 8b 3d 2b 0b 01 00 	mov    0x10b2b(%rip),%rdi        # 412100 <stderr@GLIBC_2.2.5>
  4015d5:	be 78 e1 40 00       	mov    $0x40e178,%esi
  4015da:	b0 05                	mov    $0x5,%al
  4015dc:	44 89 35 2d 0b 01 00 	mov    %r14d,0x10b2d(%rip)        # 412110 <N>
  4015e3:	c7 05 27 0b 01 00 cd 	movl   $0x3dcccccd,0x10b27(%rip)        # 412114 <dt>
  4015ea:	cc cc 3d 
  4015ed:	c7 05 21 0b 01 00 00 	movl   $0x0,0x10b21(%rip)        # 412118 <diff>
  4015f4:	00 00 00 
  4015f7:	c7 05 1b 0b 01 00 00 	movl   $0x0,0x10b1b(%rip)        # 41211c <visc>
  4015fe:	00 00 00 
  401601:	c7 05 15 0b 01 00 00 	movl   $0x40a00000,0x10b15(%rip)        # 412120 <force>
  401608:	00 a0 40 
  40160b:	c7 05 0f 0b 01 00 00 	movl   $0x42c80000,0x10b0f(%rip)        # 412124 <source>
  401612:	00 c8 42 
  401615:	c5 f0 57 c9          	vxorps %xmm1,%xmm1,%xmm1
  401619:	c5 e8 57 d2          	vxorps %xmm2,%xmm2,%xmm2
  40161d:	44 89 f2             	mov    %r14d,%edx
  401620:	e8 8b fa ff ff       	call   4010b0 <fprintf@plt>
  401625:	41 83 c6 02          	add    $0x2,%r14d
  401629:	4c 89 74 24 10       	mov    %r14,0x10(%rsp)
  40162e:	45 0f af f6          	imul   %r14d,%r14d
  401632:	4c 89 74 24 20       	mov    %r14,0x20(%rsp)
  401637:	4e 8d 34 b5 00 00 00 	lea    0x0(,%r14,4),%r14
  40163e:	00 
  40163f:	4c 89 f7             	mov    %r14,%rdi
  401642:	e8 89 fa ff ff       	call   4010d0 <malloc@plt>
  401647:	4c 89 f7             	mov    %r14,%rdi
  40164a:	48 89 c3             	mov    %rax,%rbx
  40164d:	48 89 05 d4 0a 01 00 	mov    %rax,0x10ad4(%rip)        # 412128 <u>
  401654:	e8 77 fa ff ff       	call   4010d0 <malloc@plt>
  401659:	4c 89 f7             	mov    %r14,%rdi
  40165c:	49 89 c7             	mov    %rax,%r15
  40165f:	48 89 05 ca 0a 01 00 	mov    %rax,0x10aca(%rip)        # 412130 <v>
  401666:	e8 65 fa ff ff       	call   4010d0 <malloc@plt>
  40166b:	4c 89 f7             	mov    %r14,%rdi
  40166e:	49 89 c4             	mov    %rax,%r12
  401671:	48 89 05 c0 0a 01 00 	mov    %rax,0x10ac0(%rip)        # 412138 <u_prev>
  401678:	e8 53 fa ff ff       	call   4010d0 <malloc@plt>
  40167d:	4c 89 f7             	mov    %r14,%rdi
  401680:	49 89 c5             	mov    %rax,%r13
  401683:	48 89 05 b6 0a 01 00 	mov    %rax,0x10ab6(%rip)        # 412140 <v_prev>
  40168a:	e8 41 fa ff ff       	call   4010d0 <malloc@plt>
  40168f:	4c 89 f7             	mov    %r14,%rdi
  401692:	48 89 c5             	mov    %rax,%rbp
  401695:	48 89 05 ac 0a 01 00 	mov    %rax,0x10aac(%rip)        # 412148 <dens>
  40169c:	e8 2f fa ff ff       	call   4010d0 <malloc@plt>
  4016a1:	48 89 05 a8 0a 01 00 	mov    %rax,0x10aa8(%rip)        # 412150 <dens_prev>
  4016a8:	48 85 db             	test   %rbx,%rbx
  4016ab:	0f 84 a6 00 00 00    	je     401757 <main+0x207>
  4016b1:	4d 85 ff             	test   %r15,%r15
  4016b4:	0f 84 9d 00 00 00    	je     401757 <main+0x207>
  4016ba:	4d 85 e4             	test   %r12,%r12
  4016bd:	0f 84 94 00 00 00    	je     401757 <main+0x207>
  4016c3:	4d 85 ed             	test   %r13,%r13
  4016c6:	0f 84 8b 00 00 00    	je     401757 <main+0x207>
  4016cc:	48 85 ed             	test   %rbp,%rbp
  4016cf:	0f 84 82 00 00 00    	je     401757 <main+0x207>
  4016d5:	48 85 c0             	test   %rax,%rax
  4016d8:	74 7d                	je     401757 <main+0x207>
  4016da:	83 7c 24 10 00       	cmpl   $0x0,0x10(%rsp)
  4016df:	0f 84 02 02 00 00    	je     4018e7 <main+0x397>
  4016e5:	48 8b 4c 24 20       	mov    0x20(%rsp),%rcx
  4016ea:	83 f9 01             	cmp    $0x1,%ecx
  4016ed:	83 d1 00             	adc    $0x0,%ecx
  4016f0:	4c 63 f1             	movslq %ecx,%r14
  4016f3:	41 83 fe 0c          	cmp    $0xc,%r14d
  4016f7:	0f 86 5c 01 00 00    	jbe    401859 <main+0x309>
  4016fd:	49 c1 e6 02          	shl    $0x2,%r14
  401701:	48 89 c7             	mov    %rax,%rdi
  401704:	31 f6                	xor    %esi,%esi
  401706:	4c 89 f2             	mov    %r14,%rdx
  401709:	e8 62 5a 00 00       	call   407170 <_intel_fast_memset>
  40170e:	48 89 ef             	mov    %rbp,%rdi
  401711:	31 f6                	xor    %esi,%esi
  401713:	4c 89 f2             	mov    %r14,%rdx
  401716:	e8 55 5a 00 00       	call   407170 <_intel_fast_memset>
  40171b:	4c 89 ef             	mov    %r13,%rdi
  40171e:	31 f6                	xor    %esi,%esi
  401720:	4c 89 f2             	mov    %r14,%rdx
  401723:	e8 48 5a 00 00       	call   407170 <_intel_fast_memset>
  401728:	4c 89 e7             	mov    %r12,%rdi
  40172b:	31 f6                	xor    %esi,%esi
  40172d:	4c 89 f2             	mov    %r14,%rdx
  401730:	e8 3b 5a 00 00       	call   407170 <_intel_fast_memset>
  401735:	4c 89 ff             	mov    %r15,%rdi
  401738:	31 f6                	xor    %esi,%esi
  40173a:	4c 89 f2             	mov    %r14,%rdx
  40173d:	e8 2e 5a 00 00       	call   407170 <_intel_fast_memset>
  401742:	48 89 df             	mov    %rbx,%rdi
  401745:	31 f6                	xor    %esi,%esi
  401747:	4c 89 f2             	mov    %r14,%rdx
  40174a:	e8 21 5a 00 00       	call   407170 <_intel_fast_memset>
  40174f:	45 31 ed             	xor    %r13d,%r13d
  401752:	e9 b1 01 00 00       	jmp    401908 <main+0x3b8>
  401757:	48 8b 0d a2 09 01 00 	mov    0x109a2(%rip),%rcx        # 412100 <stderr@GLIBC_2.2.5>
  40175e:	bf ba e1 40 00       	mov    $0x40e1ba,%edi
  401763:	be 15 00 00 00       	mov    $0x15,%esi
  401768:	ba 01 00 00 00       	mov    $0x1,%edx
  40176d:	e8 ce f9 ff ff       	call   401140 <fwrite@plt>
  401772:	bf 01 00 00 00       	mov    $0x1,%edi
  401777:	e8 b4 f9 ff ff       	call   401130 <exit@plt>
  40177c:	48 8b 3d 7d 09 01 00 	mov    0x1097d(%rip),%rdi        # 412100 <stderr@GLIBC_2.2.5>
  401783:	48 8b 13             	mov    (%rbx),%rdx
  401786:	be 58 e0 40 00       	mov    $0x40e058,%esi
  40178b:	31 c0                	xor    %eax,%eax
  40178d:	e8 1e f9 ff ff       	call   4010b0 <fprintf@plt>
  401792:	48 8b 0d 67 09 01 00 	mov    0x10967(%rip),%rcx        # 412100 <stderr@GLIBC_2.2.5>
  401799:	bf 80 e0 40 00       	mov    $0x40e080,%edi
  40179e:	be 07 00 00 00       	mov    $0x7,%esi
  4017a3:	ba 01 00 00 00       	mov    $0x1,%edx
  4017a8:	e8 93 f9 ff ff       	call   401140 <fwrite@plt>
  4017ad:	48 8b 0d 4c 09 01 00 	mov    0x1094c(%rip),%rcx        # 412100 <stderr@GLIBC_2.2.5>
  4017b4:	bf 88 e0 40 00       	mov    $0x40e088,%edi
  4017b9:	be 1b 00 00 00       	mov    $0x1b,%esi
  4017be:	ba 01 00 00 00       	mov    $0x1,%edx
  4017c3:	e8 78 f9 ff ff       	call   401140 <fwrite@plt>
  4017c8:	48 8b 0d 31 09 01 00 	mov    0x10931(%rip),%rcx        # 412100 <stderr@GLIBC_2.2.5>
  4017cf:	bf a4 e0 40 00       	mov    $0x40e0a4,%edi
  4017d4:	be 15 00 00 00       	mov    $0x15,%esi
  4017d9:	ba 01 00 00 00       	mov    $0x1,%edx
  4017de:	e8 5d f9 ff ff       	call   401140 <fwrite@plt>
  4017e3:	48 8b 0d 16 09 01 00 	mov    0x10916(%rip),%rcx        # 412100 <stderr@GLIBC_2.2.5>
  4017ea:	bf ba e0 40 00       	mov    $0x40e0ba,%edi
  4017ef:	be 29 00 00 00       	mov    $0x29,%esi
  4017f4:	ba 01 00 00 00       	mov    $0x1,%edx
  4017f9:	e8 42 f9 ff ff       	call   401140 <fwrite@plt>
  4017fe:	48 8b 0d fb 08 01 00 	mov    0x108fb(%rip),%rcx        # 412100 <stderr@GLIBC_2.2.5>
  401805:	bf e4 e0 40 00       	mov    $0x40e0e4,%edi
  40180a:	be 22 00 00 00       	mov    $0x22,%esi
  40180f:	ba 01 00 00 00       	mov    $0x1,%edx
  401814:	e8 27 f9 ff ff       	call   401140 <fwrite@plt>
  401819:	48 8b 0d e0 08 01 00 	mov    0x108e0(%rip),%rcx        # 412100 <stderr@GLIBC_2.2.5>
  401820:	bf 07 e1 40 00       	mov    $0x40e107,%edi
  401825:	be 3b 00 00 00       	mov    $0x3b,%esi
  40182a:	ba 01 00 00 00       	mov    $0x1,%edx
  40182f:	e8 0c f9 ff ff       	call   401140 <fwrite@plt>
  401834:	48 8b 0d c5 08 01 00 	mov    0x108c5(%rip),%rcx        # 412100 <stderr@GLIBC_2.2.5>
  40183b:	bf 43 e1 40 00       	mov    $0x40e143,%edi
  401840:	be 34 00 00 00       	mov    $0x34,%esi
  401845:	ba 01 00 00 00       	mov    $0x1,%edx
  40184a:	e8 f1 f8 ff ff       	call   401140 <fwrite@plt>
  40184f:	bf 01 00 00 00       	mov    $0x1,%edi
  401854:	e8 d7 f8 ff ff       	call   401130 <exit@plt>
  401859:	4c 89 f1             	mov    %r14,%rcx
  40185c:	48 83 e1 fc          	and    $0xfffffffffffffffc,%rcx
  401860:	75 04                	jne    401866 <main+0x316>
  401862:	31 c9                	xor    %ecx,%ecx
  401864:	eb 4a                	jmp    4018b0 <main+0x360>
  401866:	31 d2                	xor    %edx,%edx
  401868:	c5 f8 57 c0          	vxorps %xmm0,%xmm0,%xmm0
  40186c:	0f 1f 40 00          	nopl   0x0(%rax)
  401870:	c5 f8 11 04 90       	vmovups %xmm0,(%rax,%rdx,4)
  401875:	c5 f8 11 44 95 00    	vmovups %xmm0,0x0(%rbp,%rdx,4)
  40187b:	c4 c1 78 11 44 95 00 	vmovups %xmm0,0x0(%r13,%rdx,4)
  401882:	c4 c1 78 11 04 94    	vmovups %xmm0,(%r12,%rdx,4)
  401888:	c4 c1 78 11 04 97    	vmovups %xmm0,(%r15,%rdx,4)
  40188e:	c5 f8 11 04 93       	vmovups %xmm0,(%rbx,%rdx,4)
  401893:	48 83 c2 04          	add    $0x4,%rdx
  401897:	48 39 ca             	cmp    %rcx,%rdx
  40189a:	7c d4                	jl     401870 <main+0x320>
  40189c:	4c 39 f1             	cmp    %r14,%rcx
  40189f:	74 46                	je     4018e7 <main+0x397>
  4018a1:	66 66 66 66 66 66 2e 	data16 data16 data16 data16 data16 cs nopw 0x0(%rax,%rax,1)
  4018a8:	0f 1f 84 00 00 00 00 
  4018af:	00 
  4018b0:	c7 04 88 00 00 00 00 	movl   $0x0,(%rax,%rcx,4)
  4018b7:	c7 44 8d 00 00 00 00 	movl   $0x0,0x0(%rbp,%rcx,4)
  4018be:	00 
  4018bf:	41 c7 44 8d 00 00 00 	movl   $0x0,0x0(%r13,%rcx,4)
  4018c6:	00 00 
  4018c8:	41 c7 04 8c 00 00 00 	movl   $0x0,(%r12,%rcx,4)
  4018cf:	00 
  4018d0:	41 c7 04 8f 00 00 00 	movl   $0x0,(%r15,%rcx,4)
  4018d7:	00 
  4018d8:	c7 04 8b 00 00 00 00 	movl   $0x0,(%rbx,%rcx,4)
  4018df:	48 ff c1             	inc    %rcx
  4018e2:	49 39 ce             	cmp    %rcx,%r14
  4018e5:	75 c9                	jne    4018b0 <main+0x360>
  4018e7:	45 31 ed             	xor    %r13d,%r13d
  4018ea:	eb 1c                	jmp    401908 <main+0x3b8>
  4018ec:	0f 1f 40 00          	nopl   0x0(%rax)
  4018f0:	ff c0                	inc    %eax
  4018f2:	41 ff c5             	inc    %r13d
  4018f5:	89 05 ad 07 01 00    	mov    %eax,0x107ad(%rip)        # 4120a8 <one_step.times>
  4018fb:	41 81 fd 00 08 00 00 	cmp    $0x800,%r13d
  401902:	0f 84 49 04 00 00    	je     401d51 <main+0x801>
  401908:	e8 13 58 00 00       	call   407120 <wtime>
  40190d:	8b 2d fd 07 01 00    	mov    0x107fd(%rip),%ebp        # 412110 <N>
  401913:	48 8b 1d 36 08 01 00 	mov    0x10836(%rip),%rbx        # 412150 <dens_prev>
  40191a:	4c 8b 35 17 08 01 00 	mov    0x10817(%rip),%r14        # 412138 <u_prev>
  401921:	4c 8b 3d 18 08 01 00 	mov    0x10818(%rip),%r15        # 412140 <v_prev>
  401928:	c5 fb 11 05 28 08 01 	vmovsd %xmm0,0x10828(%rip)        # 412158 <one_step.start_t>
  40192f:	00 
  401930:	89 e8                	mov    %ebp,%eax
  401932:	83 c0 02             	add    $0x2,%eax
  401935:	0f 84 65 01 00 00    	je     401aa0 <main+0x550>
  40193b:	0f af c0             	imul   %eax,%eax
  40193e:	83 f8 01             	cmp    $0x1,%eax
  401941:	83 d0 00             	adc    $0x0,%eax
  401944:	4c 63 e0             	movslq %eax,%r12
  401947:	41 83 fc 0c          	cmp    $0xc,%r12d
  40194b:	0f 86 5f 01 00 00    	jbe    401ab0 <main+0x560>
  401951:	4c 89 e0             	mov    %r12,%rax
  401954:	48 c1 e8 02          	shr    $0x2,%rax
  401958:	b9 0c 00 00 00       	mov    $0xc,%ecx
  40195d:	c5 d0 57 ed          	vxorps %xmm5,%xmm5,%xmm5
  401961:	66 66 66 66 66 66 2e 	data16 data16 data16 data16 data16 cs nopw 0x0(%rax,%rax,1)
  401968:	0f 1f 84 00 00 00 00 
  40196f:	00 
  401970:	c4 c1 7a 10 44 0e f4 	vmovss -0xc(%r14,%rcx,1),%xmm0
  401977:	c4 c1 7a 10 4c 0e f8 	vmovss -0x8(%r14,%rcx,1),%xmm1
  40197e:	c4 c1 7a 10 54 0f f4 	vmovss -0xc(%r15,%rcx,1),%xmm2
  401985:	c4 c1 7a 10 5c 0f f8 	vmovss -0x8(%r15,%rcx,1),%xmm3
  40198c:	c4 c1 7a 10 24 0f    	vmovss (%r15,%rcx,1),%xmm4
  401992:	c5 fa 59 c0          	vmulss %xmm0,%xmm0,%xmm0
  401996:	c4 e2 69 a9 d0       	vfmadd213ss %xmm0,%xmm2,%xmm2
  40199b:	c5 f2 59 c1          	vmulss %xmm1,%xmm1,%xmm0
  40199f:	c4 c1 7a 10 4c 0e fc 	vmovss -0x4(%r14,%rcx,1),%xmm1
  4019a6:	c4 e2 61 b9 c3       	vfmadd231ss %xmm3,%xmm3,%xmm0
  4019ab:	c4 c1 7a 10 5c 0f fc 	vmovss -0x4(%r15,%rcx,1),%xmm3
  4019b2:	c5 f2 59 c9          	vmulss %xmm1,%xmm1,%xmm1
  4019b6:	c4 e2 61 a9 d9       	vfmadd213ss %xmm1,%xmm3,%xmm3
  4019bb:	c4 c1 7a 10 0c 0e    	vmovss (%r14,%rcx,1),%xmm1
  4019c1:	c5 f2 59 c9          	vmulss %xmm1,%xmm1,%xmm1
  4019c5:	c4 e2 59 a9 e1       	vfmadd213ss %xmm1,%xmm4,%xmm4
  4019ca:	c5 fa 10 4c 0b f4    	vmovss -0xc(%rbx,%rcx,1),%xmm1
  4019d0:	c4 e3 71 21 ca 10    	vinsertps $0x10,%xmm2,%xmm1,%xmm1
  4019d6:	c5 fa 10 54 0b f8    	vmovss -0x8(%rbx,%rcx,1),%xmm2
  4019dc:	c5 f0 5f cd          	vmaxps %xmm5,%xmm1,%xmm1
  4019e0:	c4 e3 69 21 c0 10    	vinsertps $0x10,%xmm0,%xmm2,%xmm0
  4019e6:	c5 fa 10 54 0b fc    	vmovss -0x4(%rbx,%rcx,1),%xmm2
  4019ec:	c4 e3 69 21 d3 10    	vinsertps $0x10,%xmm3,%xmm2,%xmm2
  4019f2:	c5 fa 10 1c 0b       	vmovss (%rbx,%rcx,1),%xmm3
  4019f7:	48 83 c1 10          	add    $0x10,%rcx
  4019fb:	48 ff c8             	dec    %rax
  4019fe:	c5 e8 5f c0          	vmaxps %xmm0,%xmm2,%xmm0
  401a02:	c5 f8 5f c1          	vmaxps %xmm1,%xmm0,%xmm0
  401a06:	c4 e3 61 21 dc 10    	vinsertps $0x10,%xmm4,%xmm3,%xmm3
  401a0c:	c5 e0 5f e8          	vmaxps %xmm0,%xmm3,%xmm5
  401a10:	0f 85 5a ff ff ff    	jne    401970 <main+0x420>
  401a16:	4c 89 e0             	mov    %r12,%rax
  401a19:	48 83 e0 fc          	and    $0xfffffffffffffffc,%rax
  401a1d:	4c 39 e0             	cmp    %r12,%rax
  401a20:	73 3a                	jae    401a5c <main+0x50c>
  401a22:	66 66 66 66 66 2e 0f 	data16 data16 data16 data16 cs nopw 0x0(%rax,%rax,1)
  401a29:	1f 84 00 00 00 00 00 
  401a30:	c4 c1 7a 10 04 86    	vmovss (%r14,%rax,4),%xmm0
  401a36:	c4 c1 7a 10 0c 87    	vmovss (%r15,%rax,4),%xmm1
  401a3c:	c5 fa 59 c0          	vmulss %xmm0,%xmm0,%xmm0
  401a40:	c4 e2 71 a9 c8       	vfmadd213ss %xmm0,%xmm1,%xmm1
  401a45:	c5 fa 10 04 83       	vmovss (%rbx,%rax,4),%xmm0
  401a4a:	48 ff c0             	inc    %rax
  401a4d:	c4 e3 79 21 c1 10    	vinsertps $0x10,%xmm1,%xmm0,%xmm0
  401a53:	c5 f8 5f ed          	vmaxps %xmm5,%xmm0,%xmm5
  401a57:	49 39 c4             	cmp    %rax,%r12
  401a5a:	75 d4                	jne    401a30 <main+0x4e0>
  401a5c:	49 c1 e4 02          	shl    $0x2,%r12
  401a60:	c5 f8 11 6c 24 10    	vmovups %xmm5,0x10(%rsp)
  401a66:	48 89 df             	mov    %rbx,%rdi
  401a69:	31 f6                	xor    %esi,%esi
  401a6b:	4c 89 e2             	mov    %r12,%rdx
  401a6e:	e8 fd 56 00 00       	call   407170 <_intel_fast_memset>
  401a73:	4c 89 ff             	mov    %r15,%rdi
  401a76:	31 f6                	xor    %esi,%esi
  401a78:	4c 89 e2             	mov    %r12,%rdx
  401a7b:	e8 f0 56 00 00       	call   407170 <_intel_fast_memset>
  401a80:	4c 89 f7             	mov    %r14,%rdi
  401a83:	31 f6                	xor    %esi,%esi
  401a85:	4c 89 e2             	mov    %r12,%rdx
  401a88:	e8 e3 56 00 00       	call   407170 <_intel_fast_memset>
  401a8d:	c5 f8 10 54 24 10    	vmovups 0x10(%rsp),%xmm2
  401a93:	eb 6e                	jmp    401b03 <main+0x5b3>
  401a95:	66 66 2e 0f 1f 84 00 	data16 cs nopw 0x0(%rax,%rax,1)
  401a9c:	00 00 00 00 
  401aa0:	c5 e8 57 d2          	vxorps %xmm2,%xmm2,%xmm2
  401aa4:	eb 6b                	jmp    401b11 <main+0x5c1>
  401aa6:	66 2e 0f 1f 84 00 00 	cs nopw 0x0(%rax,%rax,1)
  401aad:	00 00 00 
  401ab0:	c5 e8 57 d2          	vxorps %xmm2,%xmm2,%xmm2
  401ab4:	31 c0                	xor    %eax,%eax
  401ab6:	66 2e 0f 1f 84 00 00 	cs nopw 0x0(%rax,%rax,1)
  401abd:	00 00 00 
  401ac0:	c4 c1 7a 10 04 86    	vmovss (%r14,%rax,4),%xmm0
  401ac6:	c4 c1 7a 10 0c 87    	vmovss (%r15,%rax,4),%xmm1
  401acc:	c5 fa 59 c0          	vmulss %xmm0,%xmm0,%xmm0
  401ad0:	c4 e2 71 a9 c8       	vfmadd213ss %xmm0,%xmm1,%xmm1
  401ad5:	c5 fa 10 04 83       	vmovss (%rbx,%rax,4),%xmm0
  401ada:	c7 04 83 00 00 00 00 	movl   $0x0,(%rbx,%rax,4)
  401ae1:	41 c7 04 87 00 00 00 	movl   $0x0,(%r15,%rax,4)
  401ae8:	00 
  401ae9:	41 c7 04 86 00 00 00 	movl   $0x0,(%r14,%rax,4)
  401af0:	00 
  401af1:	48 ff c0             	inc    %rax
  401af4:	c4 e3 79 21 c1 10    	vinsertps $0x10,%xmm1,%xmm0,%xmm0
  401afa:	c5 f8 5f d2          	vmaxps %xmm2,%xmm0,%xmm2
  401afe:	49 39 c4             	cmp    %rax,%r12
  401b01:	75 bd                	jne    401ac0 <main+0x570>
  401b03:	c5 fa 16 c2          	vmovshdup %xmm2,%xmm0
  401b07:	c5 f8 2e 05 f5 c4 00 	vucomiss 0xc4f5(%rip),%xmm0        # 40e004 <_IO_stdin_used+0x4>
  401b0e:	00 
  401b0f:	73 2e                	jae    401b3f <main+0x5ef>
  401b11:	c5 fa 10 05 ef c4 00 	vmovss 0xc4ef(%rip),%xmm0        # 40e008 <_IO_stdin_used+0x8>
  401b18:	00 
  401b19:	89 e8                	mov    %ebp,%eax
  401b1b:	c1 e8 1f             	shr    $0x1f,%eax
  401b1e:	8d 4d 03             	lea    0x3(%rbp),%ecx
  401b21:	c5 fa 59 05 f7 05 01 	vmulss 0x105f7(%rip),%xmm0,%xmm0        # 412120 <force>
  401b28:	00 
  401b29:	01 e8                	add    %ebp,%eax
  401b2b:	d1 f8                	sar    $1,%eax
  401b2d:	0f af c8             	imul   %eax,%ecx
  401b30:	48 63 c1             	movslq %ecx,%rax
  401b33:	c4 c1 7a 11 04 86    	vmovss %xmm0,(%r14,%rax,4)
  401b39:	c4 c1 7a 11 04 87    	vmovss %xmm0,(%r15,%rax,4)
  401b3f:	c5 f8 2e 15 c5 c4 00 	vucomiss 0xc4c5(%rip),%xmm2        # 40e00c <_IO_stdin_used+0xc>
  401b46:	00 
  401b47:	73 27                	jae    401b70 <main+0x620>
  401b49:	c5 fa 10 05 b7 c4 00 	vmovss 0xc4b7(%rip),%xmm0        # 40e008 <_IO_stdin_used+0x8>
  401b50:	00 
  401b51:	89 e8                	mov    %ebp,%eax
  401b53:	c1 e8 1f             	shr    $0x1f,%eax
  401b56:	c5 fa 59 05 c6 05 01 	vmulss 0x105c6(%rip),%xmm0,%xmm0        # 412124 <source>
  401b5d:	00 
  401b5e:	01 e8                	add    %ebp,%eax
  401b60:	83 c5 03             	add    $0x3,%ebp
  401b63:	d1 f8                	sar    $1,%eax
  401b65:	0f af e8             	imul   %eax,%ebp
  401b68:	48 63 c5             	movslq %ebp,%rax
  401b6b:	c5 fa 11 04 83       	vmovss %xmm0,(%rbx,%rax,4)
  401b70:	e8 ab 55 00 00       	call   407120 <wtime>
  401b75:	c5 fb 5c 05 db 05 01 	vsubsd 0x105db(%rip),%xmm0,%xmm0        # 412158 <one_step.start_t>
  401b7c:	00 
  401b7d:	c5 fb 10 0d bb c4 00 	vmovsd 0xc4bb(%rip),%xmm1        # 40e040 <_IO_stdin_used+0x40>
  401b84:	00 
  401b85:	8b 05 85 05 01 00    	mov    0x10585(%rip),%eax        # 412110 <N>
  401b8b:	0f af c0             	imul   %eax,%eax
  401b8e:	c5 fb 59 c1          	vmulsd %xmm1,%xmm0,%xmm0
  401b92:	c5 cb 2a c8          	vcvtsi2sd %eax,%xmm6,%xmm1
  401b96:	c5 fb 5e c1          	vdivsd %xmm1,%xmm0,%xmm0
  401b9a:	c5 fb 58 05 c6 05 01 	vaddsd 0x105c6(%rip),%xmm0,%xmm0        # 412168 <one_step.react_ns_p_cell>
  401ba1:	00 
  401ba2:	c5 fb 11 05 be 05 01 	vmovsd %xmm0,0x105be(%rip)        # 412168 <one_step.react_ns_p_cell>
  401ba9:	00 
  401baa:	e8 71 55 00 00       	call   407120 <wtime>
  401baf:	c5 fb 11 05 a1 05 01 	vmovsd %xmm0,0x105a1(%rip)        # 412158 <one_step.start_t>
  401bb6:	00 
  401bb7:	c5 fa 10 05 5d 05 01 	vmovss 0x1055d(%rip),%xmm0        # 41211c <visc>
  401bbe:	00 
  401bbf:	c5 fa 10 0d 4d 05 01 	vmovss 0x1054d(%rip),%xmm1        # 412114 <dt>
  401bc6:	00 
  401bc7:	8b 3d 43 05 01 00    	mov    0x10543(%rip),%edi        # 412110 <N>
  401bcd:	48 8b 35 54 05 01 00 	mov    0x10554(%rip),%rsi        # 412128 <u>
  401bd4:	48 8b 15 55 05 01 00 	mov    0x10555(%rip),%rdx        # 412130 <v>
  401bdb:	48 8b 0d 56 05 01 00 	mov    0x10556(%rip),%rcx        # 412138 <u_prev>
  401be2:	4c 8b 05 57 05 01 00 	mov    0x10557(%rip),%r8        # 412140 <v_prev>
  401be9:	e8 f2 14 00 00       	call   4030e0 <vel_step>
  401bee:	e8 2d 55 00 00       	call   407120 <wtime>
  401bf3:	c5 fb 5c 05 5d 05 01 	vsubsd 0x1055d(%rip),%xmm0,%xmm0        # 412158 <one_step.start_t>
  401bfa:	00 
  401bfb:	8b 05 0f 05 01 00    	mov    0x1050f(%rip),%eax        # 412110 <N>
  401c01:	c5 fb 59 05 37 c4 00 	vmulsd 0xc437(%rip),%xmm0,%xmm0        # 40e040 <_IO_stdin_used+0x40>
  401c08:	00 
  401c09:	0f af c0             	imul   %eax,%eax
  401c0c:	c5 cb 2a c8          	vcvtsi2sd %eax,%xmm6,%xmm1
  401c10:	c5 fb 5e c1          	vdivsd %xmm1,%xmm0,%xmm0
  401c14:	c5 fb 58 05 54 05 01 	vaddsd 0x10554(%rip),%xmm0,%xmm0        # 412170 <one_step.vel_ns_p_cell>
  401c1b:	00 
  401c1c:	c5 fb 11 05 4c 05 01 	vmovsd %xmm0,0x1054c(%rip)        # 412170 <one_step.vel_ns_p_cell>
  401c23:	00 
  401c24:	e8 f7 54 00 00       	call   407120 <wtime>
  401c29:	c5 fb 11 05 27 05 01 	vmovsd %xmm0,0x10527(%rip)        # 412158 <one_step.start_t>
  401c30:	00 
  401c31:	c5 fa 10 05 df 04 01 	vmovss 0x104df(%rip),%xmm0        # 412118 <diff>
  401c38:	00 
  401c39:	c5 fa 10 0d d3 04 01 	vmovss 0x104d3(%rip),%xmm1        # 412114 <dt>
  401c40:	00 
  401c41:	8b 3d c9 04 01 00    	mov    0x104c9(%rip),%edi        # 412110 <N>
  401c47:	48 8b 35 fa 04 01 00 	mov    0x104fa(%rip),%rsi        # 412148 <dens>
  401c4e:	48 8b 15 fb 04 01 00 	mov    0x104fb(%rip),%rdx        # 412150 <dens_prev>
  401c55:	48 8b 0d cc 04 01 00 	mov    0x104cc(%rip),%rcx        # 412128 <u>
  401c5c:	4c 8b 05 cd 04 01 00 	mov    0x104cd(%rip),%r8        # 412130 <v>
  401c63:	e8 f8 01 00 00       	call   401e60 <dens_step>
  401c68:	e8 b3 54 00 00       	call   407120 <wtime>
  401c6d:	c5 fb 5c 05 e3 04 01 	vsubsd 0x104e3(%rip),%xmm0,%xmm0        # 412158 <one_step.start_t>
  401c74:	00 
  401c75:	8b 05 95 04 01 00    	mov    0x10495(%rip),%eax        # 412110 <N>
  401c7b:	c5 fb 59 05 bd c3 00 	vmulsd 0xc3bd(%rip),%xmm0,%xmm0        # 40e040 <_IO_stdin_used+0x40>
  401c82:	00 
  401c83:	0f af c0             	imul   %eax,%eax
  401c86:	c5 cb 2a c8          	vcvtsi2sd %eax,%xmm6,%xmm1
  401c8a:	c5 fb 5e c1          	vdivsd %xmm1,%xmm0,%xmm0
  401c8e:	c5 fb 58 05 e2 04 01 	vaddsd 0x104e2(%rip),%xmm0,%xmm0        # 412178 <one_step.dens_ns_p_cell>
  401c95:	00 
  401c96:	c5 fb 11 05 da 04 01 	vmovsd %xmm0,0x104da(%rip)        # 412178 <one_step.dens_ns_p_cell>
  401c9d:	00 
  401c9e:	e8 7d 54 00 00       	call   407120 <wtime>
  401ca3:	c5 fb 5c 05 b5 04 01 	vsubsd 0x104b5(%rip),%xmm0,%xmm0        # 412160 <one_step.one_second>
  401caa:	00 
  401cab:	c5 fb 10 25 95 c3 00 	vmovsd 0xc395(%rip),%xmm4        # 40e048 <_IO_stdin_used+0x48>
  401cb2:	00 
  401cb3:	8b 05 ef 03 01 00    	mov    0x103ef(%rip),%eax        # 4120a8 <one_step.times>
  401cb9:	c5 f9 2e c4          	vucomisd %xmm4,%xmm0
  401cbd:	0f 86 2d fc ff ff    	jbe    4018f0 <main+0x3a0>
  401cc3:	c5 cb 2a c0          	vcvtsi2sd %eax,%xmm6,%xmm0
  401cc7:	c5 fb 10 0d 99 04 01 	vmovsd 0x10499(%rip),%xmm1        # 412168 <one_step.react_ns_p_cell>
  401cce:	00 
  401ccf:	c5 fb 10 15 99 04 01 	vmovsd 0x10499(%rip),%xmm2        # 412170 <one_step.vel_ns_p_cell>
  401cd6:	00 
  401cd7:	c5 fb 10 1d 99 04 01 	vmovsd 0x10499(%rip),%xmm3        # 412178 <one_step.dens_ns_p_cell>
  401cde:	00 
  401cdf:	bf d0 e1 40 00       	mov    $0x40e1d0,%edi
  401ce4:	b0 04                	mov    $0x4,%al
  401ce6:	c5 db 5e e0          	vdivsd %xmm0,%xmm4,%xmm4
  401cea:	c5 e3 58 c2          	vaddsd %xmm2,%xmm3,%xmm0
  401cee:	c5 db 59 e9          	vmulsd %xmm1,%xmm4,%xmm5
  401cf2:	c5 f3 59 cc          	vmulsd %xmm4,%xmm1,%xmm1
  401cf6:	c5 eb 59 d4          	vmulsd %xmm4,%xmm2,%xmm2
  401cfa:	c5 e3 59 dc          	vmulsd %xmm4,%xmm3,%xmm3
  401cfe:	c4 e2 d9 a9 c5       	vfmadd213sd %xmm5,%xmm4,%xmm0
  401d03:	e8 98 f3 ff ff       	call   4010a0 <printf@plt>
  401d08:	e8 13 54 00 00       	call   407120 <wtime>
  401d0d:	c5 fb 11 05 4b 04 01 	vmovsd %xmm0,0x1044b(%rip)        # 412160 <one_step.one_second>
  401d14:	00 
  401d15:	48 c7 05 48 04 01 00 	movq   $0x0,0x10448(%rip)        # 412168 <one_step.react_ns_p_cell>
  401d1c:	00 00 00 00 
  401d20:	48 c7 05 45 04 01 00 	movq   $0x0,0x10445(%rip)        # 412170 <one_step.vel_ns_p_cell>
  401d27:	00 00 00 00 
  401d2b:	48 c7 05 42 04 01 00 	movq   $0x0,0x10442(%rip)        # 412178 <one_step.dens_ns_p_cell>
  401d32:	00 00 00 00 
  401d36:	b8 01 00 00 00       	mov    $0x1,%eax
  401d3b:	41 ff c5             	inc    %r13d
  401d3e:	89 05 64 03 01 00    	mov    %eax,0x10364(%rip)        # 4120a8 <one_step.times>
  401d44:	41 81 fd 00 08 00 00 	cmp    $0x800,%r13d
  401d4b:	0f 85 b7 fb ff ff    	jne    401908 <main+0x3b8>
  401d51:	e8 9a 00 00 00       	call   401df0 <free_data>
  401d56:	31 ff                	xor    %edi,%edi
  401d58:	e8 d3 f3 ff ff       	call   401130 <exit@plt>
  401d5d:	48 8b 7b 08          	mov    0x8(%rbx),%rdi
  401d61:	ba 0a 00 00 00       	mov    $0xa,%edx
  401d66:	31 f6                	xor    %esi,%esi
  401d68:	e8 53 f3 ff ff       	call   4010c0 <strtol@plt>
  401d6d:	49 89 c6             	mov    %rax,%r14
  401d70:	44 89 35 99 03 01 00 	mov    %r14d,0x10399(%rip)        # 412110 <N>
  401d77:	31 f6                	xor    %esi,%esi
  401d79:	48 8b 7b 10          	mov    0x10(%rbx),%rdi
  401d7d:	e8 ce f2 ff ff       	call   401050 <strtod@plt>
  401d82:	c5 fb 5a c0          	vcvtsd2ss %xmm0,%xmm0,%xmm0
  401d86:	31 f6                	xor    %esi,%esi
  401d88:	c5 fa 11 05 84 03 01 	vmovss %xmm0,0x10384(%rip)        # 412114 <dt>
  401d8f:	00 
  401d90:	48 8b 7b 18          	mov    0x18(%rbx),%rdi
  401d94:	e8 b7 f2 ff ff       	call   401050 <strtod@plt>
  401d99:	c5 fb 5a c0          	vcvtsd2ss %xmm0,%xmm0,%xmm0
  401d9d:	31 f6                	xor    %esi,%esi
  401d9f:	c5 fa 11 05 71 03 01 	vmovss %xmm0,0x10371(%rip)        # 412118 <diff>
  401da6:	00 
  401da7:	48 8b 7b 20          	mov    0x20(%rbx),%rdi
  401dab:	e8 a0 f2 ff ff       	call   401050 <strtod@plt>
  401db0:	c5 fb 5a c0          	vcvtsd2ss %xmm0,%xmm0,%xmm0
  401db4:	31 f6                	xor    %esi,%esi
  401db6:	c5 fa 11 05 5e 03 01 	vmovss %xmm0,0x1035e(%rip)        # 41211c <visc>
  401dbd:	00 
  401dbe:	48 8b 7b 28          	mov    0x28(%rbx),%rdi
  401dc2:	e8 89 f2 ff ff       	call   401050 <strtod@plt>
  401dc7:	c5 fb 5a c0          	vcvtsd2ss %xmm0,%xmm0,%xmm0
  401dcb:	31 f6                	xor    %esi,%esi
  401dcd:	c5 fa 11 05 4b 03 01 	vmovss %xmm0,0x1034b(%rip)        # 412120 <force>
  401dd4:	00 
  401dd5:	48 8b 7b 30          	mov    0x30(%rbx),%rdi
  401dd9:	e8 72 f2 ff ff       	call   401050 <strtod@plt>
  401dde:	c5 fb 5a c0          	vcvtsd2ss %xmm0,%xmm0,%xmm0
  401de2:	c5 fa 11 05 3a 03 01 	vmovss %xmm0,0x1033a(%rip)        # 412124 <source>
  401de9:	00 
  401dea:	e9 36 f8 ff ff       	jmp    401625 <main+0xd5>
  401def:	90                   	nop

0000000000401df0 <free_data>:
  401df0:	50                   	push   %rax
  401df1:	48 8b 3d 30 03 01 00 	mov    0x10330(%rip),%rdi        # 412128 <u>
  401df8:	48 85 ff             	test   %rdi,%rdi
  401dfb:	74 05                	je     401e02 <free_data+0x12>
  401dfd:	e8 3e f2 ff ff       	call   401040 <free@plt>
  401e02:	48 8b 3d 27 03 01 00 	mov    0x10327(%rip),%rdi        # 412130 <v>
  401e09:	48 85 ff             	test   %rdi,%rdi
  401e0c:	74 05                	je     401e13 <free_data+0x23>
  401e0e:	e8 2d f2 ff ff       	call   401040 <free@plt>
  401e13:	48 8b 3d 1e 03 01 00 	mov    0x1031e(%rip),%rdi        # 412138 <u_prev>
  401e1a:	48 85 ff             	test   %rdi,%rdi
  401e1d:	74 05                	je     401e24 <free_data+0x34>
  401e1f:	e8 1c f2 ff ff       	call   401040 <free@plt>
  401e24:	48 8b 3d 15 03 01 00 	mov    0x10315(%rip),%rdi        # 412140 <v_prev>
  401e2b:	48 85 ff             	test   %rdi,%rdi
  401e2e:	74 05                	je     401e35 <free_data+0x45>
  401e30:	e8 0b f2 ff ff       	call   401040 <free@plt>
  401e35:	48 8b 3d 0c 03 01 00 	mov    0x1030c(%rip),%rdi        # 412148 <dens>
  401e3c:	48 85 ff             	test   %rdi,%rdi
  401e3f:	74 05                	je     401e46 <free_data+0x56>
  401e41:	e8 fa f1 ff ff       	call   401040 <free@plt>
  401e46:	48 8b 3d 03 03 01 00 	mov    0x10303(%rip),%rdi        # 412150 <dens_prev>
  401e4d:	48 85 ff             	test   %rdi,%rdi
  401e50:	74 06                	je     401e58 <free_data+0x68>
  401e52:	58                   	pop    %rax
  401e53:	e9 e8 f1 ff ff       	jmp    401040 <free@plt>
  401e58:	58                   	pop    %rax
  401e59:	c3                   	ret
  401e5a:	66 0f 1f 44 00 00    	nopw   0x0(%rax,%rax,1)

0000000000401e60 <dens_step>:
  401e60:	41 57                	push   %r15
  401e62:	41 56                	push   %r14
  401e64:	41 55                	push   %r13
  401e66:	41 54                	push   %r12
  401e68:	53                   	push   %rbx
  401e69:	48 83 ec 10          	sub    $0x10,%rsp
  401e6d:	41 89 fd             	mov    %edi,%r13d
  401e70:	41 8d 45 02          	lea    0x2(%r13),%eax
  401e74:	4c 89 c3             	mov    %r8,%rbx
  401e77:	49 89 ce             	mov    %rcx,%r14
  401e7a:	49 89 d7             	mov    %rdx,%r15
  401e7d:	49 89 f4             	mov    %rsi,%r12
  401e80:	0f af c0             	imul   %eax,%eax
  401e83:	85 c0                	test   %eax,%eax
  401e85:	0f 84 9f 00 00 00    	je     401f2a <dens_step+0xca>
  401e8b:	89 c0                	mov    %eax,%eax
  401e8d:	49 8d 4c 87 fc       	lea    -0x4(%r15,%rax,4),%rcx
  401e92:	4c 39 e1             	cmp    %r12,%rcx
  401e95:	72 35                	jb     401ecc <dens_step+0x6c>
  401e97:	49 8d 4c 84 fc       	lea    -0x4(%r12,%rax,4),%rcx
  401e9c:	4c 39 f9             	cmp    %r15,%rcx
  401e9f:	72 2b                	jb     401ecc <dens_step+0x6c>
  401ea1:	31 c9                	xor    %ecx,%ecx
  401ea3:	66 66 66 66 2e 0f 1f 	data16 data16 data16 cs nopw 0x0(%rax,%rax,1)
  401eaa:	84 00 00 00 00 00 
  401eb0:	c4 c1 7a 10 14 8f    	vmovss (%r15,%rcx,4),%xmm2
  401eb6:	c4 c2 71 a9 14 8c    	vfmadd213ss (%r12,%rcx,4),%xmm1,%xmm2
  401ebc:	c4 c1 7a 11 14 8c    	vmovss %xmm2,(%r12,%rcx,4)
  401ec2:	48 ff c1             	inc    %rcx
  401ec5:	48 39 c8             	cmp    %rcx,%rax
  401ec8:	75 e6                	jne    401eb0 <dens_step+0x50>
  401eca:	eb 5e                	jmp    401f2a <dens_step+0xca>
  401ecc:	b9 f8 ff ff ff       	mov    $0xfffffff8,%ecx
  401ed1:	48 21 c1             	and    %rax,%rcx
  401ed4:	74 2c                	je     401f02 <dens_step+0xa2>
  401ed6:	c4 e2 7d 18 d9       	vbroadcastss %xmm1,%ymm3
  401edb:	31 d2                	xor    %edx,%edx
  401edd:	0f 1f 00             	nopl   (%rax)
  401ee0:	c4 c1 7c 10 14 97    	vmovups (%r15,%rdx,4),%ymm2
  401ee6:	c4 c2 65 a8 14 94    	vfmadd213ps (%r12,%rdx,4),%ymm3,%ymm2
  401eec:	c4 c1 7c 11 14 94    	vmovups %ymm2,(%r12,%rdx,4)
  401ef2:	48 83 c2 08          	add    $0x8,%rdx
  401ef6:	48 39 ca             	cmp    %rcx,%rdx
  401ef9:	72 e5                	jb     401ee0 <dens_step+0x80>
  401efb:	48 39 c1             	cmp    %rax,%rcx
  401efe:	75 10                	jne    401f10 <dens_step+0xb0>
  401f00:	eb 28                	jmp    401f2a <dens_step+0xca>
  401f02:	31 c9                	xor    %ecx,%ecx
  401f04:	66 66 66 2e 0f 1f 84 	data16 data16 cs nopw 0x0(%rax,%rax,1)
  401f0b:	00 00 00 00 00 
  401f10:	c4 c1 7a 10 14 8f    	vmovss (%r15,%rcx,4),%xmm2
  401f16:	c4 c2 71 a9 14 8c    	vfmadd213ss (%r12,%rcx,4),%xmm1,%xmm2
  401f1c:	c4 c1 7a 11 14 8c    	vmovss %xmm2,(%r12,%rcx,4)
  401f22:	48 ff c1             	inc    %rcx
  401f25:	48 39 c8             	cmp    %rcx,%rax
  401f28:	75 e6                	jne    401f10 <dens_step+0xb0>
  401f2a:	44 89 ef             	mov    %r13d,%edi
  401f2d:	31 f6                	xor    %esi,%esi
  401f2f:	4c 89 fa             	mov    %r15,%rdx
  401f32:	4c 89 e1             	mov    %r12,%rcx
  401f35:	c5 f8 11 0c 24       	vmovups %xmm1,(%rsp)
  401f3a:	c5 f8 77             	vzeroupper
  401f3d:	e8 2e 00 00 00       	call   401f70 <diffuse>
  401f42:	c5 f8 10 04 24       	vmovups (%rsp),%xmm0
  401f47:	44 89 ef             	mov    %r13d,%edi
  401f4a:	31 f6                	xor    %esi,%esi
  401f4c:	4c 89 e2             	mov    %r12,%rdx
  401f4f:	4c 89 f9             	mov    %r15,%rcx
  401f52:	4d 89 f0             	mov    %r14,%r8
  401f55:	49 89 d9             	mov    %rbx,%r9
  401f58:	48 83 c4 10          	add    $0x10,%rsp
  401f5c:	5b                   	pop    %rbx
  401f5d:	41 5c                	pop    %r12
  401f5f:	41 5d                	pop    %r13
  401f61:	41 5e                	pop    %r14
  401f63:	41 5f                	pop    %r15
  401f65:	e9 26 0a 00 00       	jmp    402990 <advect>
  401f6a:	66 0f 1f 44 00 00    	nopw   0x0(%rax,%rax,1)

0000000000401f70 <diffuse>:
  401f70:	55                   	push   %rbp
  401f71:	41 57                	push   %r15
  401f73:	41 56                	push   %r14
  401f75:	41 55                	push   %r13
  401f77:	41 54                	push   %r12
  401f79:	53                   	push   %rbx
  401f7a:	48 81 ec b8 00 00 00 	sub    $0xb8,%rsp
  401f81:	48 89 d3             	mov    %rdx,%rbx
  401f84:	89 74 24 74          	mov    %esi,0x74(%rsp)
  401f88:	85 ff                	test   %edi,%edi
  401f8a:	0f 84 bf 09 00 00    	je     40294f <diffuse+0x9df>
  401f90:	89 f8                	mov    %edi,%eax
  401f92:	c4 e1 ea 2a d0       	vcvtsi2ss %rax,%xmm2,%xmm2
  401f97:	c5 fa 59 c1          	vmulss %xmm1,%xmm0,%xmm0
  401f9b:	c5 fa 10 1d 69 c0 00 	vmovss 0xc069(%rip),%xmm3        # 40e00c <_IO_stdin_used+0xc>
  401fa2:	00 
  401fa3:	c5 fa 10 0d 65 c0 00 	vmovss 0xc065(%rip),%xmm1        # 40e010 <_IO_stdin_used+0x10>
  401faa:	00 
  401fab:	8d 47 01             	lea    0x1(%rdi),%eax
  401fae:	49 89 ce             	mov    %rcx,%r14
  401fb1:	b9 02 00 00 00       	mov    $0x2,%ecx
  401fb6:	8d 2c fd 00 00 00 00 	lea    0x0(,%rdi,8),%ebp
  401fbd:	44 8d 4c ff 13       	lea    0x13(%rdi,%rdi,8),%r9d
  401fc2:	44 8d 3c bf          	lea    (%rdi,%rdi,4),%r15d
  401fc6:	44 8d 67 02          	lea    0x2(%rdi),%r12d
  401fca:	48 89 7c 24 10       	mov    %rdi,0x10(%rsp)
  401fcf:	83 f8 03             	cmp    $0x3,%eax
  401fd2:	89 44 24 6c          	mov    %eax,0x6c(%rsp)
  401fd6:	44 89 64 24 1c       	mov    %r12d,0x1c(%rsp)
  401fdb:	0f 43 c8             	cmovae %eax,%ecx
  401fde:	41 89 ed             	mov    %ebp,%r13d
  401fe1:	41 29 fd             	sub    %edi,%r13d
  401fe4:	48 89 6c 24 60       	mov    %rbp,0x60(%rsp)
  401fe9:	4c 89 8c 24 b0 00 00 	mov    %r9,0xb0(%rsp)
  401ff0:	00 
  401ff1:	4c 89 7c 24 20       	mov    %r15,0x20(%rsp)
  401ff6:	c5 ea 59 d2          	vmulss %xmm2,%xmm2,%xmm2
  401ffa:	48 8d 51 ff          	lea    -0x1(%rcx),%rdx
  401ffe:	48 8d 41 fe          	lea    -0x2(%rcx),%rax
  402002:	ff c9                	dec    %ecx
  402004:	4c 89 ac 24 88 00 00 	mov    %r13,0x88(%rsp)
  40200b:	00 
  40200c:	48 89 44 24 38       	mov    %rax,0x38(%rsp)
  402011:	89 c8                	mov    %ecx,%eax
  402013:	83 e0 fe             	and    $0xfffffffe,%eax
  402016:	49 89 d0             	mov    %rdx,%r8
  402019:	49 83 e0 f8          	and    $0xfffffffffffffff8,%r8
  40201d:	48 89 8c 24 98 00 00 	mov    %rcx,0x98(%rsp)
  402024:	00 
  402025:	89 d1                	mov    %edx,%ecx
  402027:	83 e1 07             	and    $0x7,%ecx
  40202a:	48 89 94 24 80 00 00 	mov    %rdx,0x80(%rsp)
  402031:	00 
  402032:	89 44 24 7c          	mov    %eax,0x7c(%rsp)
  402036:	8d 04 fd 10 00 00 00 	lea    0x10(,%rdi,8),%eax
  40203d:	49 f7 d8             	neg    %r8
  402040:	48 89 8c 24 a0 00 00 	mov    %rcx,0xa0(%rsp)
  402047:	00 
  402048:	48 f7 d9             	neg    %rcx
  40204b:	c5 ea 59 d0          	vmulss %xmm0,%xmm2,%xmm2
  40204f:	48 89 4c 24 28       	mov    %rcx,0x28(%rsp)
  402054:	4c 89 44 24 58       	mov    %r8,0x58(%rsp)
  402059:	89 44 24 0c          	mov    %eax,0xc(%rsp)
  40205d:	8d 04 3f             	lea    (%rdi,%rdi,1),%eax
  402060:	48 89 44 24 40       	mov    %rax,0x40(%rsp)
  402065:	8d 04 40             	lea    (%rax,%rax,2),%eax
  402068:	c4 e2 69 a9 cb       	vfmadd213ss %xmm3,%xmm2,%xmm1
  40206d:	c5 fa 11 54 24 70    	vmovss %xmm2,0x70(%rsp)
  402073:	48 89 44 24 48       	mov    %rax,0x48(%rsp)
  402078:	48 89 d0             	mov    %rdx,%rax
  40207b:	8d 04 bd 00 00 00 00 	lea    0x0(,%rdi,4),%eax
  402082:	48 89 44 24 50       	mov    %rax,0x50(%rsp)
  402087:	8d 04 7f             	lea    (%rdi,%rdi,2),%eax
  40208a:	c5 e2 5e d9          	vdivss %xmm1,%xmm3,%xmm3
  40208e:	48 89 44 24 30       	mov    %rax,0x30(%rsp)
  402093:	8d 44 ff 14          	lea    0x14(%rdi,%rdi,8),%eax
  402097:	48 89 84 24 a8 00 00 	mov    %rax,0xa8(%rsp)
  40209e:	00 
  40209f:	8d 44 ff 12          	lea    0x12(%rdi,%rdi,8),%eax
  4020a3:	48 89 84 24 90 00 00 	mov    %rax,0x90(%rsp)
  4020aa:	00 
  4020ab:	31 c0                	xor    %eax,%eax
  4020ad:	c5 fa 11 5c 24 68    	vmovss %xmm3,0x68(%rsp)
  4020b3:	eb 3c                	jmp    4020f1 <diffuse+0x181>
  4020b5:	66 66 2e 0f 1f 84 00 	data16 cs nopw 0x0(%rax,%rax,1)
  4020bc:	00 00 00 00 
  4020c0:	8b 74 24 74          	mov    0x74(%rsp),%esi
  4020c4:	48 8b 7c 24 10       	mov    0x10(%rsp),%rdi
  4020c9:	48 89 da             	mov    %rbx,%rdx
  4020cc:	e8 0f 43 00 00       	call   4063e0 <set_bnd>
  4020d1:	c5 fa 10 5c 24 68    	vmovss 0x68(%rsp),%xmm3
  4020d7:	c5 fa 10 54 24 70    	vmovss 0x70(%rsp),%xmm2
  4020dd:	8b 44 24 78          	mov    0x78(%rsp),%eax
  4020e1:	48 8b 7c 24 10       	mov    0x10(%rsp),%rdi
  4020e6:	ff c0                	inc    %eax
  4020e8:	83 f8 14             	cmp    $0x14,%eax
  4020eb:	0f 84 83 08 00 00    	je     402974 <diffuse+0xa04>
  4020f1:	83 7c 24 6c 03       	cmpl   $0x3,0x6c(%rsp)
  4020f6:	89 44 24 78          	mov    %eax,0x78(%rsp)
  4020fa:	c7 44 24 08 01 00 00 	movl   $0x1,0x8(%rsp)
  402101:	00 
  402102:	0f 83 a8 02 00 00    	jae    4023b0 <diffuse+0x440>
  402108:	f6 84 24 98 00 00 00 	testb  $0x1,0x98(%rsp)
  40210f:	01 
  402110:	74 ae                	je     4020c0 <diffuse+0x150>
  402112:	48 83 7c 24 38 07    	cmpq   $0x7,0x38(%rsp)
  402118:	4c 8b 5c 24 40       	mov    0x40(%rsp),%r11
  40211d:	48 8b 6c 24 30       	mov    0x30(%rsp),%rbp
  402122:	4c 8b 8c 24 90 00 00 	mov    0x90(%rsp),%r9
  402129:	00 
  40212a:	4c 8b 54 24 10       	mov    0x10(%rsp),%r10
  40212f:	b9 01 00 00 00       	mov    $0x1,%ecx
  402134:	4d 89 f8             	mov    %r15,%r8
  402137:	0f 82 ea 01 00 00    	jb     402327 <diffuse+0x3b7>
  40213d:	8b 44 24 08          	mov    0x8(%rsp),%eax
  402141:	89 c2                	mov    %eax,%edx
  402143:	66 66 66 66 2e 0f 1f 	data16 data16 data16 cs nopw 0x0(%rax,%rax,1)
  40214a:	84 00 00 00 00 00 
  402150:	41 8d 44 12 01       	lea    0x1(%r10,%rdx,1),%eax
  402155:	41 8d 74 12 03       	lea    0x3(%r10,%rdx,1),%esi
  40215a:	41 8d 7c 13 04       	lea    0x4(%r11,%rdx,1),%edi
  40215f:	45 8d 44 12 02       	lea    0x2(%r10,%rdx,1),%r8d
  402164:	4d 89 d7             	mov    %r10,%r15
  402167:	4d 89 ca             	mov    %r9,%r10
  40216a:	49 89 e9             	mov    %rbp,%r9
  40216d:	c5 fa 10 04 83       	vmovss (%rbx,%rax,4),%xmm0
  402172:	89 d0                	mov    %edx,%eax
  402174:	c5 fa 10 0c 83       	vmovss (%rbx,%rax,4),%xmm1
  402179:	41 8d 44 13 03       	lea    0x3(%r11,%rdx,1),%eax
  40217e:	c5 fa 58 04 b3       	vaddss (%rbx,%rsi,4),%xmm0,%xmm0
  402183:	c5 f2 58 0c bb       	vaddss (%rbx,%rdi,4),%xmm1,%xmm1
  402188:	41 8d 74 13 05       	lea    0x5(%r11,%rdx,1),%esi
  40218d:	c5 f2 58 c0          	vaddss %xmm0,%xmm1,%xmm0
  402191:	c4 82 69 a9 04 86    	vfmadd213ss (%r14,%r8,4),%xmm2,%xmm0
  402197:	c5 fa 59 c3          	vmulss %xmm3,%xmm0,%xmm0
  40219b:	c4 a1 7a 11 04 83    	vmovss %xmm0,(%rbx,%r8,4)
  4021a1:	44 8d 44 15 07       	lea    0x7(%rbp,%rdx,1),%r8d
  4021a6:	c5 fa 10 0c 83       	vmovss (%rbx,%rax,4),%xmm1
  4021ab:	8d 44 15 06          	lea    0x6(%rbp,%rdx,1),%eax
  4021af:	c5 f2 58 0c b3       	vaddss (%rbx,%rsi,4),%xmm1,%xmm1
  4021b4:	8d 74 15 05          	lea    0x5(%rbp,%rdx,1),%esi
  4021b8:	48 8b 6c 24 50       	mov    0x50(%rsp),%rbp
  4021bd:	c5 fa 58 04 83       	vaddss (%rbx,%rax,4),%xmm0,%xmm0
  4021c2:	c5 fa 58 c1          	vaddss %xmm1,%xmm0,%xmm0
  4021c6:	c4 c2 69 a9 04 be    	vfmadd213ss (%r14,%rdi,4),%xmm2,%xmm0
  4021cc:	c5 fa 59 c3          	vmulss %xmm3,%xmm0,%xmm0
  4021d0:	c5 fa 11 04 bb       	vmovss %xmm0,(%rbx,%rdi,4)
  4021d5:	8d 7c 15 07          	lea    0x7(%rbp,%rdx,1),%edi
  4021d9:	c5 fa 10 0c b3       	vmovss (%rbx,%rsi,4),%xmm1
  4021de:	8d 74 15 08          	lea    0x8(%rbp,%rdx,1),%esi
  4021e2:	c4 a1 72 58 0c 83    	vaddss (%rbx,%r8,4),%xmm1,%xmm1
  4021e8:	44 8d 44 15 09       	lea    0x9(%rbp,%rdx,1),%r8d
  4021ed:	4c 89 cd             	mov    %r9,%rbp
  4021f0:	4d 89 d1             	mov    %r10,%r9
  4021f3:	4d 89 fa             	mov    %r15,%r10
  4021f6:	4c 8b 7c 24 48       	mov    0x48(%rsp),%r15
  4021fb:	c5 fa 58 04 b3       	vaddss (%rbx,%rsi,4),%xmm0,%xmm0
  402200:	c5 fa 58 c1          	vaddss %xmm1,%xmm0,%xmm0
  402204:	c4 c2 69 a9 04 86    	vfmadd213ss (%r14,%rax,4),%xmm2,%xmm0
  40220a:	c5 fa 59 c3          	vmulss %xmm3,%xmm0,%xmm0
  40220e:	c5 fa 11 04 83       	vmovss %xmm0,(%rbx,%rax,4)
  402213:	c5 fa 10 0c bb       	vmovss (%rbx,%rdi,4),%xmm1
  402218:	48 8b 7c 24 20       	mov    0x20(%rsp),%rdi
  40221d:	c4 a1 72 58 0c 83    	vaddss (%rbx,%r8,4),%xmm1,%xmm1
  402223:	4c 8b 44 24 20       	mov    0x20(%rsp),%r8
  402228:	8d 44 17 0a          	lea    0xa(%rdi,%rdx,1),%eax
  40222c:	41 8d 7c 10 09       	lea    0x9(%r8,%rdx,1),%edi
  402231:	c5 fa 58 04 83       	vaddss (%rbx,%rax,4),%xmm0,%xmm0
  402236:	c5 fa 58 c1          	vaddss %xmm1,%xmm0,%xmm0
  40223a:	c4 c2 69 a9 04 b6    	vfmadd213ss (%r14,%rsi,4),%xmm2,%xmm0
  402240:	c5 fa 59 c3          	vmulss %xmm3,%xmm0,%xmm0
  402244:	c5 fa 11 04 b3       	vmovss %xmm0,(%rbx,%rsi,4)
  402249:	41 8d 74 10 0b       	lea    0xb(%r8,%rdx,1),%esi
  40224e:	c5 fa 10 0c bb       	vmovss (%rbx,%rdi,4),%xmm1
  402253:	41 8d 7c 17 0c       	lea    0xc(%r15,%rdx,1),%edi
  402258:	c5 f2 58 0c b3       	vaddss (%rbx,%rsi,4),%xmm1,%xmm1
  40225d:	41 8d 74 17 0b       	lea    0xb(%r15,%rdx,1),%esi
  402262:	c5 fa 58 04 bb       	vaddss (%rbx,%rdi,4),%xmm0,%xmm0
  402267:	c5 fa 58 c1          	vaddss %xmm1,%xmm0,%xmm0
  40226b:	c4 c2 69 a9 04 86    	vfmadd213ss (%r14,%rax,4),%xmm2,%xmm0
  402271:	c5 fa 59 c3          	vmulss %xmm3,%xmm0,%xmm0
  402275:	c5 fa 11 04 83       	vmovss %xmm0,(%rbx,%rax,4)
  40227a:	41 8d 44 17 0d       	lea    0xd(%r15,%rdx,1),%eax
  40227f:	4c 8b 7c 24 58       	mov    0x58(%rsp),%r15
  402284:	c5 fa 10 0c b3       	vmovss (%rbx,%rsi,4),%xmm1
  402289:	41 8d 74 15 0e       	lea    0xe(%r13,%rdx,1),%esi
  40228e:	c5 f2 58 0c 83       	vaddss (%rbx,%rax,4),%xmm1,%xmm1
  402293:	41 8d 44 15 0d       	lea    0xd(%r13,%rdx,1),%eax
  402298:	c5 fa 58 04 b3       	vaddss (%rbx,%rsi,4),%xmm0,%xmm0
  40229d:	c5 fa 58 c1          	vaddss %xmm1,%xmm0,%xmm0
  4022a1:	c4 c2 69 a9 04 be    	vfmadd213ss (%r14,%rdi,4),%xmm2,%xmm0
  4022a7:	c5 fa 59 c3          	vmulss %xmm3,%xmm0,%xmm0
  4022ab:	c5 fa 11 04 bb       	vmovss %xmm0,(%rbx,%rdi,4)
  4022b0:	48 8b 7c 24 60       	mov    0x60(%rsp),%rdi
  4022b5:	c5 fa 10 0c 83       	vmovss (%rbx,%rax,4),%xmm1
  4022ba:	41 8d 44 15 0f       	lea    0xf(%r13,%rdx,1),%eax
  4022bf:	c5 f2 58 0c 83       	vaddss (%rbx,%rax,4),%xmm1,%xmm1
  4022c4:	8d 44 17 10          	lea    0x10(%rdi,%rdx,1),%eax
  4022c8:	c5 fa 58 04 83       	vaddss (%rbx,%rax,4),%xmm0,%xmm0
  4022cd:	c5 fa 58 c1          	vaddss %xmm1,%xmm0,%xmm0
  4022d1:	c4 c2 69 a9 04 b6    	vfmadd213ss (%r14,%rsi,4),%xmm2,%xmm0
  4022d7:	c5 fa 59 c3          	vmulss %xmm3,%xmm0,%xmm0
  4022db:	c5 fa 11 04 b3       	vmovss %xmm0,(%rbx,%rsi,4)
  4022e0:	8d 74 17 0f          	lea    0xf(%rdi,%rdx,1),%esi
  4022e4:	c5 fa 10 0c b3       	vmovss (%rbx,%rsi,4),%xmm1
  4022e9:	8d 74 17 11          	lea    0x11(%rdi,%rdx,1),%esi
  4022ed:	c5 f2 58 0c b3       	vaddss (%rbx,%rsi,4),%xmm1,%xmm1
  4022f2:	41 8d 34 11          	lea    (%r9,%rdx,1),%esi
  4022f6:	c5 fa 58 04 b3       	vaddss (%rbx,%rsi,4),%xmm0,%xmm0
  4022fb:	8b 74 24 0c          	mov    0xc(%rsp),%esi
  4022ff:	01 f2                	add    %esi,%edx
  402301:	49 8d 74 0f 08       	lea    0x8(%r15,%rcx,1),%rsi
  402306:	48 83 c1 08          	add    $0x8,%rcx
  40230a:	c5 fa 58 c1          	vaddss %xmm1,%xmm0,%xmm0
  40230e:	c4 c2 69 a9 04 86    	vfmadd213ss (%r14,%rax,4),%xmm2,%xmm0
  402314:	c5 fa 59 c3          	vmulss %xmm3,%xmm0,%xmm0
  402318:	c5 fa 11 04 83       	vmovss %xmm0,(%rbx,%rax,4)
  40231d:	48 83 fe 01          	cmp    $0x1,%rsi
  402321:	0f 85 29 fe ff ff    	jne    402150 <diffuse+0x1e0>
  402327:	f6 84 24 80 00 00 00 	testb  $0x7,0x80(%rsp)
  40232e:	07 
  40232f:	4d 89 c7             	mov    %r8,%r15
  402332:	0f 84 88 fd ff ff    	je     4020c0 <diffuse+0x150>
  402338:	8b 44 24 08          	mov    0x8(%rsp),%eax
  40233c:	8d 51 01             	lea    0x1(%rcx),%edx
  40233f:	8d 71 ff             	lea    -0x1(%rcx),%esi
  402342:	41 0f af cc          	imul   %r12d,%ecx
  402346:	41 0f af d4          	imul   %r12d,%edx
  40234a:	41 0f af f4          	imul   %r12d,%esi
  40234e:	01 c2                	add    %eax,%edx
  402350:	01 c6                	add    %eax,%esi
  402352:	01 c1                	add    %eax,%ecx
  402354:	48 8b 44 24 28       	mov    0x28(%rsp),%rax
  402359:	0f 1f 80 00 00 00 00 	nopl   0x0(%rax)
  402360:	44 8d 41 ff          	lea    -0x1(%rcx),%r8d
  402364:	44 8d 49 01          	lea    0x1(%rcx),%r9d
  402368:	89 cf                	mov    %ecx,%edi
  40236a:	44 01 e1             	add    %r12d,%ecx
  40236d:	c4 a1 7a 10 04 83    	vmovss (%rbx,%r8,4),%xmm0
  402373:	41 89 f0             	mov    %esi,%r8d
  402376:	c4 a1 7a 10 0c 83    	vmovss (%rbx,%r8,4),%xmm1
  40237c:	41 89 d0             	mov    %edx,%r8d
  40237f:	44 01 e2             	add    %r12d,%edx
  402382:	44 01 e6             	add    %r12d,%esi
  402385:	48 ff c0             	inc    %rax
  402388:	c4 a1 7a 58 04 8b    	vaddss (%rbx,%r9,4),%xmm0,%xmm0
  40238e:	c4 a1 72 58 0c 83    	vaddss (%rbx,%r8,4),%xmm1,%xmm1
  402394:	c5 f2 58 c0          	vaddss %xmm0,%xmm1,%xmm0
  402398:	c4 c2 69 a9 04 be    	vfmadd213ss (%r14,%rdi,4),%xmm2,%xmm0
  40239e:	c5 fa 59 c3          	vmulss %xmm3,%xmm0,%xmm0
  4023a2:	c5 fa 11 04 bb       	vmovss %xmm0,(%rbx,%rdi,4)
  4023a7:	75 b7                	jne    402360 <diffuse+0x3f0>
  4023a9:	e9 12 fd ff ff       	jmp    4020c0 <diffuse+0x150>
  4023ae:	66 90                	xchg   %ax,%ax
  4023b0:	c7 44 24 04 00 00 00 	movl   $0x0,0x4(%rsp)
  4023b7:	00 
  4023b8:	c7 44 24 08 01 00 00 	movl   $0x1,0x8(%rsp)
  4023bf:	00 
  4023c0:	eb 3a                	jmp    4023fc <diffuse+0x48c>
  4023c2:	66 66 66 66 66 2e 0f 	data16 data16 data16 data16 cs nopw 0x0(%rax,%rax,1)
  4023c9:	1f 84 00 00 00 00 00 
  4023d0:	8b 44 24 04          	mov    0x4(%rsp),%eax
  4023d4:	83 44 24 08 02       	addl   $0x2,0x8(%rsp)
  4023d9:	48 8b 7c 24 10       	mov    0x10(%rsp),%rdi
  4023de:	4c 8b 7c 24 20       	mov    0x20(%rsp),%r15
  4023e3:	4c 8b ac 24 88 00 00 	mov    0x88(%rsp),%r13
  4023ea:	00 
  4023eb:	83 c0 02             	add    $0x2,%eax
  4023ee:	89 44 24 04          	mov    %eax,0x4(%rsp)
  4023f2:	3b 44 24 7c          	cmp    0x7c(%rsp),%eax
  4023f6:	0f 84 0c fd ff ff    	je     402108 <diffuse+0x198>
  4023fc:	48 83 7c 24 38 07    	cmpq   $0x7,0x38(%rsp)
  402402:	44 8b 64 24 0c       	mov    0xc(%rsp),%r12d
  402407:	48 8b 6c 24 30       	mov    0x30(%rsp),%rbp
  40240c:	ba 01 00 00 00       	mov    $0x1,%edx
  402411:	0f 82 01 02 00 00    	jb     402618 <diffuse+0x6a8>
  402417:	8b 44 24 04          	mov    0x4(%rsp),%eax
  40241b:	4d 89 fb             	mov    %r15,%r11
  40241e:	89 c6                	mov    %eax,%esi
  402420:	48 89 e9             	mov    %rbp,%rcx
  402423:	4c 89 dd             	mov    %r11,%rbp
  402426:	4c 8b 5c 24 40       	mov    0x40(%rsp),%r11
  40242b:	8d 44 37 02          	lea    0x2(%rdi,%rsi,1),%eax
  40242f:	4d 89 ea             	mov    %r13,%r10
  402432:	44 8d 6c 37 04       	lea    0x4(%rdi,%rsi,1),%r13d
  402437:	44 8d 4c 37 03       	lea    0x3(%rdi,%rsi,1),%r9d
  40243c:	45 89 e7             	mov    %r12d,%r15d
  40243f:	49 89 fc             	mov    %rdi,%r12
  402442:	c5 fa 10 04 83       	vmovss (%rbx,%rax,4),%xmm0
  402447:	89 f0                	mov    %esi,%eax
  402449:	c5 fa 10 4c 83 04    	vmovss 0x4(%rbx,%rax,4),%xmm1
  40244f:	c4 a1 7a 58 04 ab    	vaddss (%rbx,%r13,4),%xmm0,%xmm0
  402455:	45 8d 44 33 05       	lea    0x5(%r11,%rsi,1),%r8d
  40245a:	41 8d 44 33 04       	lea    0x4(%r11,%rsi,1),%eax
  40245f:	41 8d 7c 33 06       	lea    0x6(%r11,%rsi,1),%edi
  402464:	49 89 eb             	mov    %rbp,%r11
  402467:	48 89 cd             	mov    %rcx,%rbp
  40246a:	c4 a1 72 58 0c 83    	vaddss (%rbx,%r8,4),%xmm1,%xmm1
  402470:	c5 f2 58 c0          	vaddss %xmm0,%xmm1,%xmm0
  402474:	c4 82 69 a9 04 8e    	vfmadd213ss (%r14,%r9,4),%xmm2,%xmm0
  40247a:	c5 fa 59 c3          	vmulss %xmm3,%xmm0,%xmm0
  40247e:	c4 a1 7a 11 04 8b    	vmovss %xmm0,(%rbx,%r9,4)
  402484:	44 8d 4c 31 08       	lea    0x8(%rcx,%rsi,1),%r9d
  402489:	c5 fa 10 0c 83       	vmovss (%rbx,%rax,4),%xmm1
  40248e:	8d 44 31 07          	lea    0x7(%rcx,%rsi,1),%eax
  402492:	c5 f2 58 0c bb       	vaddss (%rbx,%rdi,4),%xmm1,%xmm1
  402497:	8d 7c 31 06          	lea    0x6(%rcx,%rsi,1),%edi
  40249b:	48 8b 4c 24 50       	mov    0x50(%rsp),%rcx
  4024a0:	c5 fa 58 04 83       	vaddss (%rbx,%rax,4),%xmm0,%xmm0
  4024a5:	44 8d 6c 31 09       	lea    0x9(%rcx,%rsi,1),%r13d
  4024aa:	c5 fa 58 c1          	vaddss %xmm1,%xmm0,%xmm0
  4024ae:	c4 82 69 a9 04 86    	vfmadd213ss (%r14,%r8,4),%xmm2,%xmm0
  4024b4:	c5 fa 59 c3          	vmulss %xmm3,%xmm0,%xmm0
  4024b8:	c4 a1 7a 11 04 83    	vmovss %xmm0,(%rbx,%r8,4)
  4024be:	44 8d 44 31 08       	lea    0x8(%rcx,%rsi,1),%r8d
  4024c3:	c5 fa 10 0c bb       	vmovss (%rbx,%rdi,4),%xmm1
  4024c8:	c4 a1 7a 58 04 ab    	vaddss (%rbx,%r13,4),%xmm0,%xmm0
  4024ce:	4c 89 e7             	mov    %r12,%rdi
  4024d1:	45 89 fc             	mov    %r15d,%r12d
  4024d4:	c4 a1 72 58 0c 8b    	vaddss (%rbx,%r9,4),%xmm1,%xmm1
  4024da:	44 8d 4c 31 0a       	lea    0xa(%rcx,%rsi,1),%r9d
  4024df:	48 8b 4c 24 60       	mov    0x60(%rsp),%rcx
  4024e4:	c5 fa 58 c1          	vaddss %xmm1,%xmm0,%xmm0
  4024e8:	c4 c2 69 a9 04 86    	vfmadd213ss (%r14,%rax,4),%xmm2,%xmm0
  4024ee:	c5 fa 59 c3          	vmulss %xmm3,%xmm0,%xmm0
  4024f2:	c5 fa 11 04 83       	vmovss %xmm0,(%rbx,%rax,4)
  4024f7:	41 8d 44 33 0b       	lea    0xb(%r11,%rsi,1),%eax
  4024fc:	c4 a1 7a 10 0c 83    	vmovss (%rbx,%r8,4),%xmm1
  402502:	45 8d 44 33 0a       	lea    0xa(%r11,%rsi,1),%r8d
  402507:	c4 a1 72 58 0c 8b    	vaddss (%rbx,%r9,4),%xmm1,%xmm1
  40250d:	c5 fa 58 04 83       	vaddss (%rbx,%rax,4),%xmm0,%xmm0
  402512:	45 8d 4c 33 0c       	lea    0xc(%r11,%rsi,1),%r9d
  402517:	c5 fa 58 c1          	vaddss %xmm1,%xmm0,%xmm0
  40251b:	c4 82 69 a9 04 ae    	vfmadd213ss (%r14,%r13,4),%xmm2,%xmm0
  402521:	c5 fa 59 c3          	vmulss %xmm3,%xmm0,%xmm0
  402525:	c4 a1 7a 11 04 ab    	vmovss %xmm0,(%rbx,%r13,4)
  40252b:	4d 89 d5             	mov    %r10,%r13
  40252e:	4c 8b 54 24 48       	mov    0x48(%rsp),%r10
  402533:	c4 a1 7a 10 0c 83    	vmovss (%rbx,%r8,4),%xmm1
  402539:	c4 a1 72 58 0c 8b    	vaddss (%rbx,%r9,4),%xmm1,%xmm1
  40253f:	45 8d 44 32 0d       	lea    0xd(%r10,%rsi,1),%r8d
  402544:	45 8d 4c 32 0c       	lea    0xc(%r10,%rsi,1),%r9d
  402549:	c4 a1 7a 58 04 83    	vaddss (%rbx,%r8,4),%xmm0,%xmm0
  40254f:	c5 fa 58 c1          	vaddss %xmm1,%xmm0,%xmm0
  402553:	c4 c2 69 a9 04 86    	vfmadd213ss (%r14,%rax,4),%xmm2,%xmm0
  402559:	c5 fa 59 c3          	vmulss %xmm3,%xmm0,%xmm0
  40255d:	c5 fa 11 04 83       	vmovss %xmm0,(%rbx,%rax,4)
  402562:	41 8d 44 32 0e       	lea    0xe(%r10,%rsi,1),%eax
  402567:	4c 8b 94 24 b0 00 00 	mov    0xb0(%rsp),%r10
  40256e:	00 
  40256f:	c4 a1 7a 10 0c 8b    	vmovss (%rbx,%r9,4),%xmm1
  402575:	45 8d 4c 35 0f       	lea    0xf(%r13,%rsi,1),%r9d
  40257a:	c5 f2 58 0c 83       	vaddss (%rbx,%rax,4),%xmm1,%xmm1
  40257f:	41 8d 44 35 0e       	lea    0xe(%r13,%rsi,1),%eax
  402584:	c4 a1 7a 58 04 8b    	vaddss (%rbx,%r9,4),%xmm0,%xmm0
  40258a:	c5 fa 58 c1          	vaddss %xmm1,%xmm0,%xmm0
  40258e:	c4 82 69 a9 04 86    	vfmadd213ss (%r14,%r8,4),%xmm2,%xmm0
  402594:	c5 fa 59 c3          	vmulss %xmm3,%xmm0,%xmm0
  402598:	c4 a1 7a 11 04 83    	vmovss %xmm0,(%rbx,%r8,4)
  40259e:	44 8d 44 31 10       	lea    0x10(%rcx,%rsi,1),%r8d
  4025a3:	c5 fa 10 0c 83       	vmovss (%rbx,%rax,4),%xmm1
  4025a8:	41 8d 44 35 10       	lea    0x10(%r13,%rsi,1),%eax
  4025ad:	c5 f2 58 0c 83       	vaddss (%rbx,%rax,4),%xmm1,%xmm1
  4025b2:	8d 44 31 11          	lea    0x11(%rcx,%rsi,1),%eax
  4025b6:	c5 fa 58 04 83       	vaddss (%rbx,%rax,4),%xmm0,%xmm0
  4025bb:	c5 fa 58 c1          	vaddss %xmm1,%xmm0,%xmm0
  4025bf:	c4 82 69 a9 04 8e    	vfmadd213ss (%r14,%r9,4),%xmm2,%xmm0
  4025c5:	c5 fa 59 c3          	vmulss %xmm3,%xmm0,%xmm0
  4025c9:	c4 a1 7a 11 04 8b    	vmovss %xmm0,(%rbx,%r9,4)
  4025cf:	c4 a1 7a 10 0c 83    	vmovss (%rbx,%r8,4),%xmm1
  4025d5:	44 8d 44 31 12       	lea    0x12(%rcx,%rsi,1),%r8d
  4025da:	c4 a1 72 58 0c 83    	vaddss (%rbx,%r8,4),%xmm1,%xmm1
  4025e0:	45 8d 04 32          	lea    (%r10,%rsi,1),%r8d
  4025e4:	44 01 fe             	add    %r15d,%esi
  4025e7:	c4 a1 7a 58 04 83    	vaddss (%rbx,%r8,4),%xmm0,%xmm0
  4025ed:	4c 8b 44 24 58       	mov    0x58(%rsp),%r8
  4025f2:	49 8d 4c 10 08       	lea    0x8(%r8,%rdx,1),%rcx
  4025f7:	48 83 c2 08          	add    $0x8,%rdx
  4025fb:	c5 fa 58 c1          	vaddss %xmm1,%xmm0,%xmm0
  4025ff:	c4 c2 69 a9 04 86    	vfmadd213ss (%r14,%rax,4),%xmm2,%xmm0
  402605:	c5 fa 59 c3          	vmulss %xmm3,%xmm0,%xmm0
  402609:	c5 fa 11 04 83       	vmovss %xmm0,(%rbx,%rax,4)
  40260e:	48 83 f9 01          	cmp    $0x1,%rcx
  402612:	0f 85 08 fe ff ff    	jne    402420 <diffuse+0x4b0>
  402618:	48 83 bc 24 a0 00 00 	cmpq   $0x0,0xa0(%rsp)
  40261f:	00 00 
  402621:	8b 4c 24 1c          	mov    0x1c(%rsp),%ecx
  402625:	74 71                	je     402698 <diffuse+0x728>
  402627:	8b 44 24 08          	mov    0x8(%rsp),%eax
  40262b:	8d 72 01             	lea    0x1(%rdx),%esi
  40262e:	8d 7a ff             	lea    -0x1(%rdx),%edi
  402631:	0f af d1             	imul   %ecx,%edx
  402634:	03 54 24 04          	add    0x4(%rsp),%edx
  402638:	4c 8b 44 24 28       	mov    0x28(%rsp),%r8
  40263d:	0f af f1             	imul   %ecx,%esi
  402640:	0f af f9             	imul   %ecx,%edi
  402643:	01 c6                	add    %eax,%esi
  402645:	01 c7                	add    %eax,%edi
  402647:	66 0f 1f 84 00 00 00 	nopw   0x0(%rax,%rax,1)
  40264e:	00 00 
  402650:	41 89 d2             	mov    %edx,%r10d
  402653:	c4 a1 7a 10 04 93    	vmovss (%rbx,%r10,4),%xmm0
  402659:	41 89 fa             	mov    %edi,%r10d
  40265c:	44 8d 5a 02          	lea    0x2(%rdx),%r11d
  402660:	c4 a1 7a 10 0c 93    	vmovss (%rbx,%r10,4),%xmm1
  402666:	41 89 f2             	mov    %esi,%r10d
  402669:	44 8d 4a 01          	lea    0x1(%rdx),%r9d
  40266d:	01 ce                	add    %ecx,%esi
  40266f:	01 cf                	add    %ecx,%edi
  402671:	01 ca                	add    %ecx,%edx
  402673:	49 ff c0             	inc    %r8
  402676:	c4 a1 7a 58 04 9b    	vaddss (%rbx,%r11,4),%xmm0,%xmm0
  40267c:	c4 a1 72 58 0c 93    	vaddss (%rbx,%r10,4),%xmm1,%xmm1
  402682:	c5 f2 58 c0          	vaddss %xmm0,%xmm1,%xmm0
  402686:	c4 82 69 a9 04 8e    	vfmadd213ss (%r14,%r9,4),%xmm2,%xmm0
  40268c:	c5 fa 59 c3          	vmulss %xmm3,%xmm0,%xmm0
  402690:	c4 a1 7a 11 04 8b    	vmovss %xmm0,(%rbx,%r9,4)
  402696:	75 b8                	jne    402650 <diffuse+0x6e0>
  402698:	48 83 7c 24 38 07    	cmpq   $0x7,0x38(%rsp)
  40269e:	4c 8b 54 24 10       	mov    0x10(%rsp),%r10
  4026a3:	4c 8b 4c 24 40       	mov    0x40(%rsp),%r9
  4026a8:	4c 8b 5c 24 48       	mov    0x48(%rsp),%r11
  4026ad:	48 8b 6c 24 20       	mov    0x20(%rsp),%rbp
  4026b2:	4c 8b bc 24 88 00 00 	mov    0x88(%rsp),%r15
  4026b9:	00 
  4026ba:	48 8b 44 24 30       	mov    0x30(%rsp),%rax
  4026bf:	ba 01 00 00 00       	mov    $0x1,%edx
  4026c4:	0f 82 fd 01 00 00    	jb     4028c7 <diffuse+0x957>
  4026ca:	8b 74 24 04          	mov    0x4(%rsp),%esi
  4026ce:	66 90                	xchg   %ax,%ax
  4026d0:	41 8d 7c 32 03       	lea    0x3(%r10,%rsi,1),%edi
  4026d5:	4d 89 cc             	mov    %r9,%r12
  4026d8:	45 8d 44 32 05       	lea    0x5(%r10,%rsi,1),%r8d
  4026dd:	45 8d 4c 31 06       	lea    0x6(%r9,%rsi,1),%r9d
  4026e2:	4d 89 fd             	mov    %r15,%r13
  4026e5:	4d 89 df             	mov    %r11,%r15
  4026e8:	4d 89 d3             	mov    %r10,%r11
  4026eb:	45 8d 54 32 04       	lea    0x4(%r10,%rsi,1),%r10d
  4026f0:	48 89 c1             	mov    %rax,%rcx
  4026f3:	c5 fa 10 04 bb       	vmovss (%rbx,%rdi,4),%xmm0
  4026f8:	8d 7e 02             	lea    0x2(%rsi),%edi
  4026fb:	c5 fa 10 0c bb       	vmovss (%rbx,%rdi,4),%xmm1
  402700:	c4 a1 7a 58 04 83    	vaddss (%rbx,%r8,4),%xmm0,%xmm0
  402706:	41 8d 7c 34 05       	lea    0x5(%r12,%rsi,1),%edi
  40270b:	45 8d 44 34 07       	lea    0x7(%r12,%rsi,1),%r8d
  402710:	c4 a1 72 58 0c 8b    	vaddss (%rbx,%r9,4),%xmm1,%xmm1
  402716:	c5 f2 58 c0          	vaddss %xmm0,%xmm1,%xmm0
  40271a:	c4 82 69 a9 04 96    	vfmadd213ss (%r14,%r10,4),%xmm2,%xmm0
  402720:	c5 fa 59 c3          	vmulss %xmm3,%xmm0,%xmm0
  402724:	c4 a1 7a 11 04 93    	vmovss %xmm0,(%rbx,%r10,4)
  40272a:	44 8d 54 30 09       	lea    0x9(%rax,%rsi,1),%r10d
  40272f:	c5 fa 10 0c bb       	vmovss (%rbx,%rdi,4),%xmm1
  402734:	8d 7c 30 08          	lea    0x8(%rax,%rsi,1),%edi
  402738:	c4 a1 72 58 0c 83    	vaddss (%rbx,%r8,4),%xmm1,%xmm1
  40273e:	44 8d 44 30 07       	lea    0x7(%rax,%rsi,1),%r8d
  402743:	48 8b 44 24 50       	mov    0x50(%rsp),%rax
  402748:	c5 fa 58 04 bb       	vaddss (%rbx,%rdi,4),%xmm0,%xmm0
  40274d:	c5 fa 58 c1          	vaddss %xmm1,%xmm0,%xmm0
  402751:	c4 82 69 a9 04 8e    	vfmadd213ss (%r14,%r9,4),%xmm2,%xmm0
  402757:	c5 fa 59 c3          	vmulss %xmm3,%xmm0,%xmm0
  40275b:	c4 a1 7a 11 04 8b    	vmovss %xmm0,(%rbx,%r9,4)
  402761:	44 8d 4c 30 09       	lea    0x9(%rax,%rsi,1),%r9d
  402766:	c4 a1 7a 10 0c 83    	vmovss (%rbx,%r8,4),%xmm1
  40276c:	44 8d 44 30 0a       	lea    0xa(%rax,%rsi,1),%r8d
  402771:	c4 a1 72 58 0c 93    	vaddss (%rbx,%r10,4),%xmm1,%xmm1
  402777:	44 8d 54 30 0b       	lea    0xb(%rax,%rsi,1),%r10d
  40277c:	48 89 c8             	mov    %rcx,%rax
  40277f:	48 8b 4c 24 60       	mov    0x60(%rsp),%rcx
  402784:	c4 a1 7a 58 04 83    	vaddss (%rbx,%r8,4),%xmm0,%xmm0
  40278a:	c5 fa 58 c1          	vaddss %xmm1,%xmm0,%xmm0
  40278e:	c4 c2 69 a9 04 be    	vfmadd213ss (%r14,%rdi,4),%xmm2,%xmm0
  402794:	c5 fa 59 c3          	vmulss %xmm3,%xmm0,%xmm0
  402798:	c5 fa 11 04 bb       	vmovss %xmm0,(%rbx,%rdi,4)
  40279d:	8d 7c 35 0c          	lea    0xc(%rbp,%rsi,1),%edi
  4027a1:	c4 a1 7a 10 0c 8b    	vmovss (%rbx,%r9,4),%xmm1
  4027a7:	44 8d 4c 35 0b       	lea    0xb(%rbp,%rsi,1),%r9d
  4027ac:	c4 a1 72 58 0c 93    	vaddss (%rbx,%r10,4),%xmm1,%xmm1
  4027b2:	c5 fa 58 04 bb       	vaddss (%rbx,%rdi,4),%xmm0,%xmm0
  4027b7:	4d 89 da             	mov    %r11,%r10
  4027ba:	4d 89 fb             	mov    %r15,%r11
  4027bd:	4d 89 ef             	mov    %r13,%r15
  4027c0:	4c 8b ac 24 a8 00 00 	mov    0xa8(%rsp),%r13
  4027c7:	00 
  4027c8:	c5 fa 58 c1          	vaddss %xmm1,%xmm0,%xmm0
  4027cc:	c4 82 69 a9 04 86    	vfmadd213ss (%r14,%r8,4),%xmm2,%xmm0
  4027d2:	c5 fa 59 c3          	vmulss %xmm3,%xmm0,%xmm0
  4027d6:	c4 a1 7a 11 04 83    	vmovss %xmm0,(%rbx,%r8,4)
  4027dc:	44 8d 44 35 0d       	lea    0xd(%rbp,%rsi,1),%r8d
  4027e1:	c4 a1 7a 10 0c 8b    	vmovss (%rbx,%r9,4),%xmm1
  4027e7:	45 8d 4c 33 0e       	lea    0xe(%r11,%rsi,1),%r9d
  4027ec:	c4 a1 72 58 0c 83    	vaddss (%rbx,%r8,4),%xmm1,%xmm1
  4027f2:	45 8d 44 33 0d       	lea    0xd(%r11,%rsi,1),%r8d
  4027f7:	c4 a1 7a 58 04 8b    	vaddss (%rbx,%r9,4),%xmm0,%xmm0
  4027fd:	c5 fa 58 c1          	vaddss %xmm1,%xmm0,%xmm0
  402801:	c4 c2 69 a9 04 be    	vfmadd213ss (%r14,%rdi,4),%xmm2,%xmm0
  402807:	c5 fa 59 c3          	vmulss %xmm3,%xmm0,%xmm0
  40280b:	c5 fa 11 04 bb       	vmovss %xmm0,(%rbx,%rdi,4)
  402810:	41 8d 7c 33 0f       	lea    0xf(%r11,%rsi,1),%edi
  402815:	c4 a1 7a 10 0c 83    	vmovss (%rbx,%r8,4),%xmm1
  40281b:	45 8d 44 37 10       	lea    0x10(%r15,%rsi,1),%r8d
  402820:	c5 f2 58 0c bb       	vaddss (%rbx,%rdi,4),%xmm1,%xmm1
  402825:	41 8d 7c 37 0f       	lea    0xf(%r15,%rsi,1),%edi
  40282a:	c4 a1 7a 58 04 83    	vaddss (%rbx,%r8,4),%xmm0,%xmm0
  402830:	c5 fa 58 c1          	vaddss %xmm1,%xmm0,%xmm0
  402834:	c4 82 69 a9 04 8e    	vfmadd213ss (%r14,%r9,4),%xmm2,%xmm0
  40283a:	c5 fa 59 c3          	vmulss %xmm3,%xmm0,%xmm0
  40283e:	c4 a1 7a 11 04 8b    	vmovss %xmm0,(%rbx,%r9,4)
  402844:	4d 89 e1             	mov    %r12,%r9
  402847:	4c 8b 64 24 58       	mov    0x58(%rsp),%r12
  40284c:	c5 fa 10 0c bb       	vmovss (%rbx,%rdi,4),%xmm1
  402851:	41 8d 7c 37 11       	lea    0x11(%r15,%rsi,1),%edi
  402856:	c5 f2 58 0c bb       	vaddss (%rbx,%rdi,4),%xmm1,%xmm1
  40285b:	8d 7c 31 12          	lea    0x12(%rcx,%rsi,1),%edi
  40285f:	c5 fa 58 04 bb       	vaddss (%rbx,%rdi,4),%xmm0,%xmm0
  402864:	c5 fa 58 c1          	vaddss %xmm1,%xmm0,%xmm0
  402868:	c4 82 69 a9 04 86    	vfmadd213ss (%r14,%r8,4),%xmm2,%xmm0
  40286e:	c5 fa 59 c3          	vmulss %xmm3,%xmm0,%xmm0
  402872:	c4 a1 7a 11 04 83    	vmovss %xmm0,(%rbx,%r8,4)
  402878:	44 8d 44 31 11       	lea    0x11(%rcx,%rsi,1),%r8d
  40287d:	c4 a1 7a 10 0c 83    	vmovss (%rbx,%r8,4),%xmm1
  402883:	44 8d 44 31 13       	lea    0x13(%rcx,%rsi,1),%r8d
  402888:	49 8d 4c 14 08       	lea    0x8(%r12,%rdx,1),%rcx
  40288d:	48 83 c2 08          	add    $0x8,%rdx
  402891:	c4 a1 72 58 0c 83    	vaddss (%rbx,%r8,4),%xmm1,%xmm1
  402897:	45 8d 44 35 00       	lea    0x0(%r13,%rsi,1),%r8d
  40289c:	c4 a1 7a 58 04 83    	vaddss (%rbx,%r8,4),%xmm0,%xmm0
  4028a2:	44 8b 44 24 0c       	mov    0xc(%rsp),%r8d
  4028a7:	44 01 c6             	add    %r8d,%esi
  4028aa:	c5 fa 58 c1          	vaddss %xmm1,%xmm0,%xmm0
  4028ae:	c4 c2 69 a9 04 be    	vfmadd213ss (%r14,%rdi,4),%xmm2,%xmm0
  4028b4:	c5 fa 59 c3          	vmulss %xmm3,%xmm0,%xmm0
  4028b8:	c5 fa 11 04 bb       	vmovss %xmm0,(%rbx,%rdi,4)
  4028bd:	48 83 f9 01          	cmp    $0x1,%rcx
  4028c1:	0f 85 09 fe ff ff    	jne    4026d0 <diffuse+0x760>
  4028c7:	f6 84 24 80 00 00 00 	testb  $0x7,0x80(%rsp)
  4028ce:	07 
  4028cf:	44 8b 64 24 1c       	mov    0x1c(%rsp),%r12d
  4028d4:	0f 84 f6 fa ff ff    	je     4023d0 <diffuse+0x460>
  4028da:	8d 72 01             	lea    0x1(%rdx),%esi
  4028dd:	8d 7a ff             	lea    -0x1(%rdx),%edi
  4028e0:	8b 44 24 04          	mov    0x4(%rsp),%eax
  4028e4:	4c 8b 44 24 28       	mov    0x28(%rsp),%r8
  4028e9:	41 0f af d4          	imul   %r12d,%edx
  4028ed:	41 0f af f4          	imul   %r12d,%esi
  4028f1:	41 0f af fc          	imul   %r12d,%edi
  4028f5:	83 c6 02             	add    $0x2,%esi
  4028f8:	83 c7 02             	add    $0x2,%edi
  4028fb:	41 89 c1             	mov    %eax,%r9d
  4028fe:	66 90                	xchg   %ax,%ax
  402900:	46 8d 5c 0a 01       	lea    0x1(%rdx,%r9,1),%r11d
  402905:	42 8d 44 0a 03       	lea    0x3(%rdx,%r9,1),%eax
  40290a:	46 8d 54 0a 02       	lea    0x2(%rdx,%r9,1),%r10d
  40290f:	c4 a1 7a 10 04 9b    	vmovss (%rbx,%r11,4),%xmm0
  402915:	46 8d 1c 0f          	lea    (%rdi,%r9,1),%r11d
  402919:	c4 a1 7a 10 0c 9b    	vmovss (%rbx,%r11,4),%xmm1
  40291f:	46 8d 1c 0e          	lea    (%rsi,%r9,1),%r11d
  402923:	c5 fa 58 04 83       	vaddss (%rbx,%rax,4),%xmm0,%xmm0
  402928:	45 01 e1             	add    %r12d,%r9d
  40292b:	49 ff c0             	inc    %r8
  40292e:	c4 a1 72 58 0c 9b    	vaddss (%rbx,%r11,4),%xmm1,%xmm1
  402934:	c5 f2 58 c0          	vaddss %xmm0,%xmm1,%xmm0
  402938:	c4 82 69 a9 04 96    	vfmadd213ss (%r14,%r10,4),%xmm2,%xmm0
  40293e:	c5 fa 59 c3          	vmulss %xmm3,%xmm0,%xmm0
  402942:	c4 a1 7a 11 04 93    	vmovss %xmm0,(%rbx,%r10,4)
  402948:	75 b6                	jne    402900 <diffuse+0x990>
  40294a:	e9 81 fa ff ff       	jmp    4023d0 <diffuse+0x460>
  40294f:	c5 fa 10 43 08       	vmovss 0x8(%rbx),%xmm0
  402954:	c5 fa 10 0d b8 b6 00 	vmovss 0xb6b8(%rip),%xmm1        # 40e014 <_IO_stdin_used+0x14>
  40295b:	00 
  40295c:	c5 fa 58 43 04       	vaddss 0x4(%rbx),%xmm0,%xmm0
  402961:	c4 e2 71 a9 43 0c    	vfmadd213ss 0xc(%rbx),%xmm1,%xmm0
  402967:	c5 fa 59 c1          	vmulss %xmm1,%xmm0,%xmm0
  40296b:	c4 e2 79 18 c0       	vbroadcastss %xmm0,%xmm0
  402970:	c5 f8 11 03          	vmovups %xmm0,(%rbx)
  402974:	48 81 c4 b8 00 00 00 	add    $0xb8,%rsp
  40297b:	5b                   	pop    %rbx
  40297c:	41 5c                	pop    %r12
  40297e:	41 5d                	pop    %r13
  402980:	41 5e                	pop    %r14
  402982:	41 5f                	pop    %r15
  402984:	5d                   	pop    %rbp
  402985:	c3                   	ret
  402986:	66 2e 0f 1f 84 00 00 	cs nopw 0x0(%rax,%rax,1)
  40298d:	00 00 00 

0000000000402990 <advect>:
  402990:	55                   	push   %rbp
  402991:	41 57                	push   %r15
  402993:	41 56                	push   %r14
  402995:	41 55                	push   %r13
  402997:	41 54                	push   %r12
  402999:	53                   	push   %rbx
  40299a:	89 74 24 90          	mov    %esi,-0x70(%rsp)
  40299e:	48 89 7c 24 98       	mov    %rdi,-0x68(%rsp)
  4029a3:	85 ff                	test   %edi,%edi
  4029a5:	0f 84 13 07 00 00    	je     4030be <advect+0x72e>
  4029ab:	48 8b 7c 24 98       	mov    -0x68(%rsp),%rdi
  4029b0:	41 ba 02 00 00 00    	mov    $0x2,%r10d
  4029b6:	c5 fa 10 15 56 b6 00 	vmovss 0xb656(%rip),%xmm2        # 40e014 <_IO_stdin_used+0x14>
  4029bd:	00 
  4029be:	c5 fa 10 1d 46 b6 00 	vmovss 0xb646(%rip),%xmm3        # 40e00c <_IO_stdin_used+0xc>
  4029c5:	00 
  4029c6:	8d 77 01             	lea    0x1(%rdi),%esi
  4029c9:	89 f8                	mov    %edi,%eax
  4029cb:	c4 e1 f2 2a c8       	vcvtsi2ss %rax,%xmm1,%xmm1
  4029d0:	44 8d 74 bf 0b       	lea    0xb(%rdi,%rdi,4),%r14d
  4029d5:	44 8d 6c 3f 05       	lea    0x5(%rdi,%rdi,1),%r13d
  4029da:	8d 47 02             	lea    0x2(%rdi),%eax
  4029dd:	83 fe 03             	cmp    $0x3,%esi
  4029e0:	44 0f 43 d6          	cmovae %esi,%r10d
  4029e4:	49 8d 72 fe          	lea    -0x2(%r10),%rsi
  4029e8:	c5 f2 59 c0          	vmulss %xmm0,%xmm1,%xmm0
  4029ec:	4c 89 54 24 d0       	mov    %r10,-0x30(%rsp)
  4029f1:	c5 f2 58 0d 1b b6 00 	vaddss 0xb61b(%rip),%xmm1,%xmm1        # 40e014 <_IO_stdin_used+0x14>
  4029f8:	00 
  4029f9:	49 8d 5a ff          	lea    -0x1(%r10),%rbx
  4029fd:	44 8d 14 fd 00 00 00 	lea    0x0(,%rdi,8),%r10d
  402a04:	00 
  402a05:	48 89 74 24 c8       	mov    %rsi,-0x38(%rsp)
  402a0a:	8d 34 fd 11 00 00 00 	lea    0x11(,%rdi,8),%esi
  402a11:	41 89 db             	mov    %ebx,%r11d
  402a14:	48 83 e3 f8          	and    $0xfffffffffffffff8,%rbx
  402a18:	41 83 e3 07          	and    $0x7,%r11d
  402a1c:	41 29 fa             	sub    %edi,%r10d
  402a1f:	48 89 74 24 e8       	mov    %rsi,-0x18(%rsp)
  402a24:	8d 34 7f             	lea    (%rdi,%rdi,2),%esi
  402a27:	48 89 5c 24 f0       	mov    %rbx,-0x10(%rsp)
  402a2c:	8d 1c fd 10 00 00 00 	lea    0x10(,%rdi,8),%ebx
  402a33:	41 83 c2 0f          	add    $0xf,%r10d
  402a37:	8d 74 36 0d          	lea    0xd(%rsi,%rsi,1),%esi
  402a3b:	89 5c 24 94          	mov    %ebx,-0x6c(%rsp)
  402a3f:	48 89 74 24 e0       	mov    %rsi,-0x20(%rsp)
  402a44:	8d 34 bd 09 00 00 00 	lea    0x9(,%rdi,4),%esi
  402a4b:	48 89 74 24 b0       	mov    %rsi,-0x50(%rsp)
  402a50:	4c 89 54 24 f8       	mov    %r10,-0x8(%rsp)
  402a55:	44 8d 54 7f 07       	lea    0x7(%rdi,%rdi,2),%r10d
  402a5a:	4c 89 5c 24 c0       	mov    %r11,-0x40(%rsp)
  402a5f:	49 f7 db             	neg    %r11
  402a62:	83 c7 03             	add    $0x3,%edi
  402a65:	be 01 00 00 00       	mov    $0x1,%esi
  402a6a:	4c 89 5c 24 b8       	mov    %r11,-0x48(%rsp)
  402a6f:	45 31 db             	xor    %r11d,%r11d
  402a72:	4c 89 5c 24 88       	mov    %r11,-0x78(%rsp)
  402a77:	4c 89 6c 24 a8       	mov    %r13,-0x58(%rsp)
  402a7c:	48 89 7c 24 a0       	mov    %rdi,-0x60(%rsp)
  402a81:	4c 89 54 24 d8       	mov    %r10,-0x28(%rsp)
  402a86:	eb 2e                	jmp    402ab6 <advect+0x126>
  402a88:	0f 1f 84 00 00 00 00 	nopl   0x0(%rax,%rax,1)
  402a8f:	00 
  402a90:	48 8b 7c 24 88       	mov    -0x78(%rsp),%rdi
  402a95:	8b 74 24 84          	mov    -0x7c(%rsp),%esi
  402a99:	ff c7                	inc    %edi
  402a9b:	ff c6                	inc    %esi
  402a9d:	48 89 7c 24 88       	mov    %rdi,-0x78(%rsp)
  402aa2:	4c 8b 6c 24 a8       	mov    -0x58(%rsp),%r13
  402aa7:	48 8b 7c 24 a0       	mov    -0x60(%rsp),%rdi
  402aac:	3b 74 24 d0          	cmp    -0x30(%rsp),%esi
  402ab0:	0f 84 08 06 00 00    	je     4030be <advect+0x72e>
  402ab6:	89 74 24 84          	mov    %esi,-0x7c(%rsp)
  402aba:	41 89 f3             	mov    %esi,%r11d
  402abd:	c4 c1 aa 2a e3       	vcvtsi2ss %r11,%xmm10,%xmm4
  402ac2:	41 bb 01 00 00 00    	mov    $0x1,%r11d
  402ac8:	48 83 7c 24 c8 07    	cmpq   $0x7,-0x38(%rsp)
  402ace:	0f 82 1f 05 00 00    	jb     402ff3 <advect+0x663>
  402ad4:	4d 89 f2             	mov    %r14,%r10
  402ad7:	4c 8b 74 24 b0       	mov    -0x50(%rsp),%r14
  402adc:	4c 8b 64 24 88       	mov    -0x78(%rsp),%r12
  402ae1:	45 31 db             	xor    %r11d,%r11d
  402ae4:	66 66 66 2e 0f 1f 84 	data16 data16 cs nopw 0x0(%rax,%rax,1)
  402aeb:	00 00 00 00 00 
  402af0:	42 8d 2c 27          	lea    (%rdi,%r12,1),%ebp
  402af4:	41 8d 73 01          	lea    0x1(%r11),%esi
  402af8:	89 c3                	mov    %eax,%ebx
  402afa:	c4 c1 7a 10 2c a8    	vmovss (%r8,%rbp,4),%xmm5
  402b00:	c4 e1 aa 2a f6       	vcvtsi2ss %rsi,%xmm10,%xmm6
  402b05:	c4 c2 79 bd 34 a9    	vfnmadd231ss (%r9,%rbp,4),%xmm0,%xmm6
  402b0b:	c4 e2 59 9d e8       	vfnmadd132ss %xmm0,%xmm4,%xmm5
  402b10:	c5 f2 5d fd          	vminss %xmm5,%xmm1,%xmm7
  402b14:	c5 d2 c2 ea 01       	vcmpltss %xmm2,%xmm5,%xmm5
  402b19:	c4 e3 41 4a ea 50    	vblendvps %xmm5,%xmm2,%xmm7,%xmm5
  402b1f:	c5 f2 5d fe          	vminss %xmm6,%xmm1,%xmm7
  402b23:	c5 ca c2 f2 01       	vcmpltss %xmm2,%xmm6,%xmm6
  402b28:	c4 e3 41 4a f2 60    	vblendvps %xmm6,%xmm2,%xmm7,%xmm6
  402b2e:	c5 fa 2c f5          	vcvttss2si %xmm5,%esi
  402b32:	c4 e3 51 0a fd 0b    	vroundss $0xb,%xmm5,%xmm5,%xmm7
  402b38:	c5 fa 2c fe          	vcvttss2si %xmm6,%edi
  402b3c:	c4 63 49 0a c6 0b    	vroundss $0xb,%xmm6,%xmm6,%xmm8
  402b42:	0f af df             	imul   %edi,%ebx
  402b45:	ff c7                	inc    %edi
  402b47:	c5 d2 5c ef          	vsubss %xmm7,%xmm5,%xmm5
  402b4b:	0f af f8             	imul   %eax,%edi
  402b4e:	c4 c1 4a 5c f0       	vsubss %xmm8,%xmm6,%xmm6
  402b53:	44 8d 3c 37          	lea    (%rdi,%rsi,1),%r15d
  402b57:	c5 62 5c ce          	vsubss %xmm6,%xmm3,%xmm9
  402b5b:	8d 7c 37 01          	lea    0x1(%rdi,%rsi,1),%edi
  402b5f:	c4 21 4a 59 04 b9    	vmulss (%rcx,%r15,4),%xmm6,%xmm8
  402b65:	44 8d 3c 33          	lea    (%rbx,%rsi,1),%r15d
  402b69:	8d 74 33 01          	lea    0x1(%rbx,%rsi,1),%esi
  402b6d:	89 c3                	mov    %eax,%ebx
  402b6f:	c4 22 31 b9 04 b9    	vfmadd231ss (%rcx,%r15,4),%xmm9,%xmm8
  402b75:	47 8d 7c 25 00       	lea    0x0(%r13,%r12,1),%r15d
  402b7a:	c4 e2 39 9b 34 b9    	vfmsub132ss (%rcx,%rdi,4),%xmm8,%xmm6
  402b80:	c4 e2 31 b9 34 b1    	vfmadd231ss (%rcx,%rsi,4),%xmm9,%xmm6
  402b86:	41 8d 73 02          	lea    0x2(%r11),%esi
  402b8a:	c4 c2 51 a9 f0       	vfmadd213ss %xmm8,%xmm5,%xmm6
  402b8f:	c5 fa 11 34 aa       	vmovss %xmm6,(%rdx,%rbp,4)
  402b94:	c4 e1 aa 2a f6       	vcvtsi2ss %rsi,%xmm10,%xmm6
  402b99:	43 8d 2c 26          	lea    (%r14,%r12,1),%ebp
  402b9d:	c4 81 7a 10 2c b8    	vmovss (%r8,%r15,4),%xmm5
  402ba3:	c4 82 79 bd 34 b9    	vfnmadd231ss (%r9,%r15,4),%xmm0,%xmm6
  402ba9:	c4 e2 59 9d e8       	vfnmadd132ss %xmm0,%xmm4,%xmm5
  402bae:	c5 f2 5d fd          	vminss %xmm5,%xmm1,%xmm7
  402bb2:	c5 d2 c2 ea 01       	vcmpltss %xmm2,%xmm5,%xmm5
  402bb7:	c4 e3 41 4a ea 50    	vblendvps %xmm5,%xmm2,%xmm7,%xmm5
  402bbd:	c5 f2 5d fe          	vminss %xmm6,%xmm1,%xmm7
  402bc1:	c5 ca c2 f2 01       	vcmpltss %xmm2,%xmm6,%xmm6
  402bc6:	c4 e3 41 4a f2 60    	vblendvps %xmm6,%xmm2,%xmm7,%xmm6
  402bcc:	c5 fa 2c f5          	vcvttss2si %xmm5,%esi
  402bd0:	c4 63 51 0a c5 0b    	vroundss $0xb,%xmm5,%xmm5,%xmm8
  402bd6:	c5 fa 2c fe          	vcvttss2si %xmm6,%edi
  402bda:	c4 e3 49 0a fe 0b    	vroundss $0xb,%xmm6,%xmm6,%xmm7
  402be0:	0f af df             	imul   %edi,%ebx
  402be3:	ff c7                	inc    %edi
  402be5:	c4 c1 52 5c e8       	vsubss %xmm8,%xmm5,%xmm5
  402bea:	0f af f8             	imul   %eax,%edi
  402bed:	c5 ca 5c f7          	vsubss %xmm7,%xmm6,%xmm6
  402bf1:	44 8d 2c 37          	lea    (%rdi,%rsi,1),%r13d
  402bf5:	c5 e2 5c fe          	vsubss %xmm6,%xmm3,%xmm7
  402bf9:	c4 21 4a 59 0c a9    	vmulss (%rcx,%r13,4),%xmm6,%xmm9
  402bff:	44 8d 2c 33          	lea    (%rbx,%rsi,1),%r13d
  402c03:	8d 5c 33 01          	lea    0x1(%rbx,%rsi,1),%ebx
  402c07:	8d 74 37 01          	lea    0x1(%rdi,%rsi,1),%esi
  402c0b:	48 8b 7c 24 d8       	mov    -0x28(%rsp),%rdi
  402c10:	c4 22 41 b9 0c a9    	vfmadd231ss (%rcx,%r13,4),%xmm7,%xmm9
  402c16:	c4 e2 31 9b 34 b1    	vfmsub132ss (%rcx,%rsi,4),%xmm9,%xmm6
  402c1c:	41 8d 73 03          	lea    0x3(%r11),%esi
  402c20:	c4 e2 41 b9 34 99    	vfmadd231ss (%rcx,%rbx,4),%xmm7,%xmm6
  402c26:	89 c3                	mov    %eax,%ebx
  402c28:	c4 c2 51 a9 f1       	vfmadd213ss %xmm9,%xmm5,%xmm6
  402c2d:	c4 a1 7a 11 34 ba    	vmovss %xmm6,(%rdx,%r15,4)
  402c33:	46 8d 3c 27          	lea    (%rdi,%r12,1),%r15d
  402c37:	c4 e1 aa 2a f6       	vcvtsi2ss %rsi,%xmm10,%xmm6
  402c3c:	c4 82 79 bd 34 b9    	vfnmadd231ss (%r9,%r15,4),%xmm0,%xmm6
  402c42:	c4 81 7a 10 2c b8    	vmovss (%r8,%r15,4),%xmm5
  402c48:	c4 e2 59 9d e8       	vfnmadd132ss %xmm0,%xmm4,%xmm5
  402c4d:	c5 72 5d c6          	vminss %xmm6,%xmm1,%xmm8
  402c51:	c5 ca c2 f2 01       	vcmpltss %xmm2,%xmm6,%xmm6
  402c56:	c4 e3 39 4a f2 60    	vblendvps %xmm6,%xmm2,%xmm8,%xmm6
  402c5c:	c5 f2 5d fd          	vminss %xmm5,%xmm1,%xmm7
  402c60:	c5 d2 c2 ea 01       	vcmpltss %xmm2,%xmm5,%xmm5
  402c65:	c5 fa 2c f6          	vcvttss2si %xmm6,%esi
  402c69:	c4 e3 41 4a ea 50    	vblendvps %xmm5,%xmm2,%xmm7,%xmm5
  402c6f:	c4 e3 49 0a fe 0b    	vroundss $0xb,%xmm6,%xmm6,%xmm7
  402c75:	c5 fa 2c fd          	vcvttss2si %xmm5,%edi
  402c79:	c4 63 51 0a cd 0b    	vroundss $0xb,%xmm5,%xmm5,%xmm9
  402c7f:	0f af de             	imul   %esi,%ebx
  402c82:	ff c6                	inc    %esi
  402c84:	0f af f0             	imul   %eax,%esi
  402c87:	c5 ca 5c f7          	vsubss %xmm7,%xmm6,%xmm6
  402c8b:	c4 c1 52 5c e9       	vsubss %xmm9,%xmm5,%xmm5
  402c90:	44 8d 2c 3e          	lea    (%rsi,%rdi,1),%r13d
  402c94:	c5 e2 5c fe          	vsubss %xmm6,%xmm3,%xmm7
  402c98:	8d 74 3e 01          	lea    0x1(%rsi,%rdi,1),%esi
  402c9c:	c4 21 4a 59 04 a9    	vmulss (%rcx,%r13,4),%xmm6,%xmm8
  402ca2:	44 8d 2c 3b          	lea    (%rbx,%rdi,1),%r13d
  402ca6:	8d 5c 3b 01          	lea    0x1(%rbx,%rdi,1),%ebx
  402caa:	c4 22 41 b9 04 a9    	vfmadd231ss (%rcx,%r13,4),%xmm7,%xmm8
  402cb0:	c4 e2 39 9b 34 b1    	vfmsub132ss (%rcx,%rsi,4),%xmm8,%xmm6
  402cb6:	41 8d 73 04          	lea    0x4(%r11),%esi
  402cba:	c4 e2 41 b9 34 99    	vfmadd231ss (%rcx,%rbx,4),%xmm7,%xmm6
  402cc0:	89 c3                	mov    %eax,%ebx
  402cc2:	c4 c2 51 a9 f0       	vfmadd213ss %xmm8,%xmm5,%xmm6
  402cc7:	c4 a1 7a 11 34 ba    	vmovss %xmm6,(%rdx,%r15,4)
  402ccd:	c4 e1 fa 2a f6       	vcvtsi2ss %rsi,%xmm0,%xmm6
  402cd2:	c4 c1 7a 10 2c a8    	vmovss (%r8,%rbp,4),%xmm5
  402cd8:	c4 c2 79 bd 34 a9    	vfnmadd231ss (%r9,%rbp,4),%xmm0,%xmm6
  402cde:	c4 e2 59 9d e8       	vfnmadd132ss %xmm0,%xmm4,%xmm5
  402ce3:	c5 f2 5d fd          	vminss %xmm5,%xmm1,%xmm7
  402ce7:	c5 d2 c2 ea 01       	vcmpltss %xmm2,%xmm5,%xmm5
  402cec:	c4 e3 41 4a ea 50    	vblendvps %xmm5,%xmm2,%xmm7,%xmm5
  402cf2:	c5 f2 5d fe          	vminss %xmm6,%xmm1,%xmm7
  402cf6:	c5 ca c2 f2 01       	vcmpltss %xmm2,%xmm6,%xmm6
  402cfb:	c4 e3 41 4a f2 60    	vblendvps %xmm6,%xmm2,%xmm7,%xmm6
  402d01:	c5 fa 2c f5          	vcvttss2si %xmm5,%esi
  402d05:	c4 e3 51 0a fd 0b    	vroundss $0xb,%xmm5,%xmm5,%xmm7
  402d0b:	c5 fa 2c fe          	vcvttss2si %xmm6,%edi
  402d0f:	c4 63 49 0a c6 0b    	vroundss $0xb,%xmm6,%xmm6,%xmm8
  402d15:	0f af df             	imul   %edi,%ebx
  402d18:	ff c7                	inc    %edi
  402d1a:	c5 d2 5c ef          	vsubss %xmm7,%xmm5,%xmm5
  402d1e:	0f af f8             	imul   %eax,%edi
  402d21:	c4 c1 4a 5c f0       	vsubss %xmm8,%xmm6,%xmm6
  402d26:	44 8d 3c 37          	lea    (%rdi,%rsi,1),%r15d
  402d2a:	c5 62 5c ce          	vsubss %xmm6,%xmm3,%xmm9
  402d2e:	8d 7c 37 01          	lea    0x1(%rdi,%rsi,1),%edi
  402d32:	c4 21 4a 59 04 b9    	vmulss (%rcx,%r15,4),%xmm6,%xmm8
  402d38:	44 8d 3c 33          	lea    (%rbx,%rsi,1),%r15d
  402d3c:	8d 74 33 01          	lea    0x1(%rbx,%rsi,1),%esi
  402d40:	89 c3                	mov    %eax,%ebx
  402d42:	c4 22 31 b9 04 b9    	vfmadd231ss (%rcx,%r15,4),%xmm9,%xmm8
  402d48:	47 8d 3c 22          	lea    (%r10,%r12,1),%r15d
  402d4c:	c4 e2 39 9b 34 b9    	vfmsub132ss (%rcx,%rdi,4),%xmm8,%xmm6
  402d52:	c4 e2 31 b9 34 b1    	vfmadd231ss (%rcx,%rsi,4),%xmm9,%xmm6
  402d58:	41 8d 73 05          	lea    0x5(%r11),%esi
  402d5c:	c4 c2 51 a9 f0       	vfmadd213ss %xmm8,%xmm5,%xmm6
  402d61:	c5 fa 11 34 aa       	vmovss %xmm6,(%rdx,%rbp,4)
  402d66:	c4 e1 fa 2a f6       	vcvtsi2ss %rsi,%xmm0,%xmm6
  402d6b:	c4 81 7a 10 2c b8    	vmovss (%r8,%r15,4),%xmm5
  402d71:	c4 82 79 bd 34 b9    	vfnmadd231ss (%r9,%r15,4),%xmm0,%xmm6
  402d77:	c4 e2 59 9d e8       	vfnmadd132ss %xmm0,%xmm4,%xmm5
  402d7c:	c5 f2 5d fd          	vminss %xmm5,%xmm1,%xmm7
  402d80:	c5 d2 c2 ea 01       	vcmpltss %xmm2,%xmm5,%xmm5
  402d85:	c4 e3 41 4a ea 50    	vblendvps %xmm5,%xmm2,%xmm7,%xmm5
  402d8b:	c5 f2 5d fe          	vminss %xmm6,%xmm1,%xmm7
  402d8f:	c5 ca c2 f2 01       	vcmpltss %xmm2,%xmm6,%xmm6
  402d94:	c4 e3 41 4a f2 60    	vblendvps %xmm6,%xmm2,%xmm7,%xmm6
  402d9a:	c5 fa 2c f5          	vcvttss2si %xmm5,%esi
  402d9e:	c4 63 51 0a c5 0b    	vroundss $0xb,%xmm5,%xmm5,%xmm8
  402da4:	c5 fa 2c fe          	vcvttss2si %xmm6,%edi
  402da8:	c4 e3 49 0a fe 0b    	vroundss $0xb,%xmm6,%xmm6,%xmm7
  402dae:	0f af df             	imul   %edi,%ebx
  402db1:	ff c7                	inc    %edi
  402db3:	c4 c1 52 5c e8       	vsubss %xmm8,%xmm5,%xmm5
  402db8:	0f af f8             	imul   %eax,%edi
  402dbb:	c5 ca 5c f7          	vsubss %xmm7,%xmm6,%xmm6
  402dbf:	44 8d 2c 37          	lea    (%rdi,%rsi,1),%r13d
  402dc3:	c5 e2 5c fe          	vsubss %xmm6,%xmm3,%xmm7
  402dc7:	c4 21 4a 59 0c a9    	vmulss (%rcx,%r13,4),%xmm6,%xmm9
  402dcd:	44 8d 2c 33          	lea    (%rbx,%rsi,1),%r13d
  402dd1:	8d 5c 33 01          	lea    0x1(%rbx,%rsi,1),%ebx
  402dd5:	8d 74 37 01          	lea    0x1(%rdi,%rsi,1),%esi
  402dd9:	48 8b 7c 24 e0       	mov    -0x20(%rsp),%rdi
  402dde:	c4 22 41 b9 0c a9    	vfmadd231ss (%rcx,%r13,4),%xmm7,%xmm9
  402de4:	42 8d 2c 27          	lea    (%rdi,%r12,1),%ebp
  402de8:	c4 e2 31 9b 34 b1    	vfmsub132ss (%rcx,%rsi,4),%xmm9,%xmm6
  402dee:	41 8d 73 06          	lea    0x6(%r11),%esi
  402df2:	c4 e2 41 b9 34 99    	vfmadd231ss (%rcx,%rbx,4),%xmm7,%xmm6
  402df8:	89 c3                	mov    %eax,%ebx
  402dfa:	c4 c2 51 a9 f1       	vfmadd213ss %xmm9,%xmm5,%xmm6
  402dff:	c4 e1 fa 2a ee       	vcvtsi2ss %rsi,%xmm0,%xmm5
  402e04:	c4 a1 7a 11 34 ba    	vmovss %xmm6,(%rdx,%r15,4)
  402e0a:	c4 c2 79 bd 2c a9    	vfnmadd231ss (%r9,%rbp,4),%xmm0,%xmm5
  402e10:	c4 c1 7a 10 34 a8    	vmovss (%r8,%rbp,4),%xmm6
  402e16:	c4 e2 59 9d f0       	vfnmadd132ss %xmm0,%xmm4,%xmm6
  402e1b:	c5 72 5d c5          	vminss %xmm5,%xmm1,%xmm8
  402e1f:	c5 d2 c2 ea 01       	vcmpltss %xmm2,%xmm5,%xmm5
  402e24:	c4 e3 39 4a ea 50    	vblendvps %xmm5,%xmm2,%xmm8,%xmm5
  402e2a:	c5 f2 5d fe          	vminss %xmm6,%xmm1,%xmm7
  402e2e:	c5 ca c2 f2 01       	vcmpltss %xmm2,%xmm6,%xmm6
  402e33:	c5 fa 2c f5          	vcvttss2si %xmm5,%esi
  402e37:	c4 e3 41 4a f2 60    	vblendvps %xmm6,%xmm2,%xmm7,%xmm6
  402e3d:	c4 e3 51 0a fd 0b    	vroundss $0xb,%xmm5,%xmm5,%xmm7
  402e43:	c5 fa 2c fe          	vcvttss2si %xmm6,%edi
  402e47:	c4 63 49 0a ce 0b    	vroundss $0xb,%xmm6,%xmm6,%xmm9
  402e4d:	0f af de             	imul   %esi,%ebx
  402e50:	ff c6                	inc    %esi
  402e52:	0f af f0             	imul   %eax,%esi
  402e55:	c5 d2 5c ef          	vsubss %xmm7,%xmm5,%xmm5
  402e59:	c4 c1 4a 5c f1       	vsubss %xmm9,%xmm6,%xmm6
  402e5e:	44 8d 3c 3e          	lea    (%rsi,%rdi,1),%r15d
  402e62:	c5 e2 5c fd          	vsubss %xmm5,%xmm3,%xmm7
  402e66:	8d 74 3e 01          	lea    0x1(%rsi,%rdi,1),%esi
  402e6a:	c4 21 52 59 04 b9    	vmulss (%rcx,%r15,4),%xmm5,%xmm8
  402e70:	44 8d 3c 3b          	lea    (%rbx,%rdi,1),%r15d
  402e74:	8d 5c 3b 01          	lea    0x1(%rbx,%rdi,1),%ebx
  402e78:	48 8b 7c 24 f8       	mov    -0x8(%rsp),%rdi
  402e7d:	c4 22 41 b9 04 b9    	vfmadd231ss (%rcx,%r15,4),%xmm7,%xmm8
  402e83:	46 8d 3c 27          	lea    (%rdi,%r12,1),%r15d
  402e87:	c4 e2 39 9b 2c b1    	vfmsub132ss (%rcx,%rsi,4),%xmm8,%xmm5
  402e8d:	41 8d 73 07          	lea    0x7(%r11),%esi
  402e91:	49 83 c3 08          	add    $0x8,%r11
  402e95:	c4 e2 41 b9 2c 99    	vfmadd231ss (%rcx,%rbx,4),%xmm7,%xmm5
  402e9b:	89 c3                	mov    %eax,%ebx
  402e9d:	c4 c2 49 a9 e8       	vfmadd213ss %xmm8,%xmm6,%xmm5
  402ea2:	c4 e1 fa 2a f6       	vcvtsi2ss %rsi,%xmm0,%xmm6
  402ea7:	c5 fa 11 2c aa       	vmovss %xmm5,(%rdx,%rbp,4)
  402eac:	c4 81 7a 10 2c b8    	vmovss (%r8,%r15,4),%xmm5
  402eb2:	c4 82 79 bd 34 b9    	vfnmadd231ss (%r9,%r15,4),%xmm0,%xmm6
  402eb8:	c4 e2 59 9d e8       	vfnmadd132ss %xmm0,%xmm4,%xmm5
  402ebd:	c5 f2 5d fd          	vminss %xmm5,%xmm1,%xmm7
  402ec1:	c5 d2 c2 ea 01       	vcmpltss %xmm2,%xmm5,%xmm5
  402ec6:	c4 e3 41 4a ea 50    	vblendvps %xmm5,%xmm2,%xmm7,%xmm5
  402ecc:	c5 f2 5d fe          	vminss %xmm6,%xmm1,%xmm7
  402ed0:	c5 ca c2 f2 01       	vcmpltss %xmm2,%xmm6,%xmm6
  402ed5:	c4 e3 41 4a f2 60    	vblendvps %xmm6,%xmm2,%xmm7,%xmm6
  402edb:	c5 fa 2c f5          	vcvttss2si %xmm5,%esi
  402edf:	c4 e3 51 0a fd 0b    	vroundss $0xb,%xmm5,%xmm5,%xmm7
  402ee5:	c5 fa 2c fe          	vcvttss2si %xmm6,%edi
  402ee9:	c4 63 49 0a c6 0b    	vroundss $0xb,%xmm6,%xmm6,%xmm8
  402eef:	0f af df             	imul   %edi,%ebx
  402ef2:	ff c7                	inc    %edi
  402ef4:	c5 d2 5c ef          	vsubss %xmm7,%xmm5,%xmm5
  402ef8:	0f af f8             	imul   %eax,%edi
  402efb:	c4 c1 4a 5c f0       	vsubss %xmm8,%xmm6,%xmm6
  402f00:	44 8d 2c 37          	lea    (%rdi,%rsi,1),%r13d
  402f04:	c5 62 5c c6          	vsubss %xmm6,%xmm3,%xmm8
  402f08:	c4 21 4a 59 0c a9    	vmulss (%rcx,%r13,4),%xmm6,%xmm9
  402f0e:	44 8d 2c 33          	lea    (%rbx,%rsi,1),%r13d
  402f12:	8d 5c 33 01          	lea    0x1(%rbx,%rsi,1),%ebx
  402f16:	8d 74 37 01          	lea    0x1(%rdi,%rsi,1),%esi
  402f1a:	c4 22 39 b9 0c a9    	vfmadd231ss (%rcx,%r13,4),%xmm8,%xmm9
  402f20:	4c 8b 6c 24 a8       	mov    -0x58(%rsp),%r13
  402f25:	c4 e2 31 9b 34 b1    	vfmsub132ss (%rcx,%rsi,4),%xmm9,%xmm6
  402f2b:	48 8b 74 24 e8       	mov    -0x18(%rsp),%rsi
  402f30:	c4 e2 39 b9 34 99    	vfmadd231ss (%rcx,%rbx,4),%xmm8,%xmm6
  402f36:	89 c3                	mov    %eax,%ebx
  402f38:	42 8d 2c 26          	lea    (%rsi,%r12,1),%ebp
  402f3c:	44 89 de             	mov    %r11d,%esi
  402f3f:	44 03 64 24 94       	add    -0x6c(%rsp),%r12d
  402f44:	c4 c2 51 a9 f1       	vfmadd213ss %xmm9,%xmm5,%xmm6
  402f49:	c4 a1 7a 11 34 ba    	vmovss %xmm6,(%rdx,%r15,4)
  402f4f:	c4 e1 fa 2a f6       	vcvtsi2ss %rsi,%xmm0,%xmm6
  402f54:	c4 c2 79 bd 34 a9    	vfnmadd231ss (%r9,%rbp,4),%xmm0,%xmm6
  402f5a:	c4 c1 7a 10 2c a8    	vmovss (%r8,%rbp,4),%xmm5
  402f60:	c4 e2 59 9d e8       	vfnmadd132ss %xmm0,%xmm4,%xmm5
  402f65:	c5 72 5d c6          	vminss %xmm6,%xmm1,%xmm8
  402f69:	c5 ca c2 f2 01       	vcmpltss %xmm2,%xmm6,%xmm6
  402f6e:	c4 e3 39 4a f2 60    	vblendvps %xmm6,%xmm2,%xmm8,%xmm6
  402f74:	c5 f2 5d fd          	vminss %xmm5,%xmm1,%xmm7
  402f78:	c5 d2 c2 ea 01       	vcmpltss %xmm2,%xmm5,%xmm5
  402f7d:	c5 fa 2c f6          	vcvttss2si %xmm6,%esi
  402f81:	c4 e3 41 4a ea 50    	vblendvps %xmm5,%xmm2,%xmm7,%xmm5
  402f87:	c4 e3 49 0a fe 0b    	vroundss $0xb,%xmm6,%xmm6,%xmm7
  402f8d:	c5 fa 2c fd          	vcvttss2si %xmm5,%edi
  402f91:	0f af de             	imul   %esi,%ebx
  402f94:	ff c6                	inc    %esi
  402f96:	0f af f0             	imul   %eax,%esi
  402f99:	c5 ca 5c f7          	vsubss %xmm7,%xmm6,%xmm6
  402f9d:	44 8d 3c 3e          	lea    (%rsi,%rdi,1),%r15d
  402fa1:	c5 e2 5c fe          	vsubss %xmm6,%xmm3,%xmm7
  402fa5:	8d 74 3e 01          	lea    0x1(%rsi,%rdi,1),%esi
  402fa9:	c4 21 4a 59 04 b9    	vmulss (%rcx,%r15,4),%xmm6,%xmm8
  402faf:	44 8d 3c 3b          	lea    (%rbx,%rdi,1),%r15d
  402fb3:	8d 5c 3b 01          	lea    0x1(%rbx,%rdi,1),%ebx
  402fb7:	48 8b 7c 24 a0       	mov    -0x60(%rsp),%rdi
  402fbc:	c4 22 41 b9 04 b9    	vfmadd231ss (%rcx,%r15,4),%xmm7,%xmm8
  402fc2:	c4 e2 39 9b 34 b1    	vfmsub132ss (%rcx,%rsi,4),%xmm8,%xmm6
  402fc8:	c4 e2 41 b9 34 99    	vfmadd231ss (%rcx,%rbx,4),%xmm7,%xmm6
  402fce:	c4 e3 51 0a fd 0b    	vroundss $0xb,%xmm5,%xmm5,%xmm7
  402fd4:	c5 d2 5c ef          	vsubss %xmm7,%xmm5,%xmm5
  402fd8:	c4 c2 51 a9 f0       	vfmadd213ss %xmm8,%xmm5,%xmm6
  402fdd:	c5 fa 11 34 aa       	vmovss %xmm6,(%rdx,%rbp,4)
  402fe2:	4c 3b 5c 24 f0       	cmp    -0x10(%rsp),%r11
  402fe7:	0f 85 03 fb ff ff    	jne    402af0 <advect+0x160>
  402fed:	49 ff c3             	inc    %r11
  402ff0:	4d 89 d6             	mov    %r10,%r14
  402ff3:	48 83 7c 24 c0 00    	cmpq   $0x0,-0x40(%rsp)
  402ff9:	0f 84 91 fa ff ff    	je     402a90 <advect+0x100>
  402fff:	41 89 c4             	mov    %eax,%r12d
  403002:	45 0f af e3          	imul   %r11d,%r12d
  403006:	44 03 64 24 84       	add    -0x7c(%rsp),%r12d
  40300b:	48 8b 6c 24 b8       	mov    -0x48(%rsp),%rbp
  403010:	45 89 e7             	mov    %r12d,%r15d
  403013:	45 89 dd             	mov    %r11d,%r13d
  403016:	c4 c1 aa 2a f5       	vcvtsi2ss %r13,%xmm10,%xmm6
  40301b:	c4 82 79 bd 34 b9    	vfnmadd231ss (%r9,%r15,4),%xmm0,%xmm6
  403021:	c4 81 7a 10 2c b8    	vmovss (%r8,%r15,4),%xmm5
  403027:	89 c6                	mov    %eax,%esi
  403029:	41 ff c3             	inc    %r11d
  40302c:	41 01 c4             	add    %eax,%r12d
  40302f:	c4 e2 59 9d e8       	vfnmadd132ss %xmm0,%xmm4,%xmm5
  403034:	c5 72 5d c6          	vminss %xmm6,%xmm1,%xmm8
  403038:	c5 ca c2 f2 01       	vcmpltss %xmm2,%xmm6,%xmm6
  40303d:	c4 e3 39 4a f2 60    	vblendvps %xmm6,%xmm2,%xmm8,%xmm6
  403043:	c5 f2 5d fd          	vminss %xmm5,%xmm1,%xmm7
  403047:	c5 d2 c2 ea 01       	vcmpltss %xmm2,%xmm5,%xmm5
  40304c:	c5 7a 2c ee          	vcvttss2si %xmm6,%r13d
  403050:	c4 e3 41 4a ea 50    	vblendvps %xmm5,%xmm2,%xmm7,%xmm5
  403056:	c4 e3 49 0a fe 0b    	vroundss $0xb,%xmm6,%xmm6,%xmm7
  40305c:	c5 fa 2c dd          	vcvttss2si %xmm5,%ebx
  403060:	41 0f af f5          	imul   %r13d,%esi
  403064:	41 ff c5             	inc    %r13d
  403067:	44 0f af e8          	imul   %eax,%r13d
  40306b:	c5 ca 5c f7          	vsubss %xmm7,%xmm6,%xmm6
  40306f:	48 ff c5             	inc    %rbp
  403072:	41 8d 7c 1d 00       	lea    0x0(%r13,%rbx,1),%edi
  403077:	c5 e2 5c fe          	vsubss %xmm6,%xmm3,%xmm7
  40307b:	c5 4a 59 04 b9       	vmulss (%rcx,%rdi,4),%xmm6,%xmm8
  403080:	8d 3c 1e             	lea    (%rsi,%rbx,1),%edi
  403083:	8d 74 1e 01          	lea    0x1(%rsi,%rbx,1),%esi
  403087:	c4 62 41 b9 04 b9    	vfmadd231ss (%rcx,%rdi,4),%xmm7,%xmm8
  40308d:	41 8d 7c 1d 01       	lea    0x1(%r13,%rbx,1),%edi
  403092:	c4 e2 39 9b 34 b9    	vfmsub132ss (%rcx,%rdi,4),%xmm8,%xmm6
  403098:	c4 e2 41 b9 34 b1    	vfmadd231ss (%rcx,%rsi,4),%xmm7,%xmm6
  40309e:	c4 e3 51 0a fd 0b    	vroundss $0xb,%xmm5,%xmm5,%xmm7
  4030a4:	c5 d2 5c ef          	vsubss %xmm7,%xmm5,%xmm5
  4030a8:	c4 c2 51 a9 f0       	vfmadd213ss %xmm8,%xmm5,%xmm6
  4030ad:	c4 a1 7a 11 34 ba    	vmovss %xmm6,(%rdx,%r15,4)
  4030b3:	0f 85 57 ff ff ff    	jne    403010 <advect+0x680>
  4030b9:	e9 d2 f9 ff ff       	jmp    402a90 <advect+0x100>
  4030be:	8b 74 24 90          	mov    -0x70(%rsp),%esi
  4030c2:	48 8b 7c 24 98       	mov    -0x68(%rsp),%rdi
  4030c7:	5b                   	pop    %rbx
  4030c8:	41 5c                	pop    %r12
  4030ca:	41 5d                	pop    %r13
  4030cc:	41 5e                	pop    %r14
  4030ce:	41 5f                	pop    %r15
  4030d0:	5d                   	pop    %rbp
  4030d1:	e9 0a 33 00 00       	jmp    4063e0 <set_bnd>
  4030d6:	66 2e 0f 1f 84 00 00 	cs nopw 0x0(%rax,%rax,1)
  4030dd:	00 00 00 

00000000004030e0 <vel_step>:
  4030e0:	41 57                	push   %r15
  4030e2:	41 56                	push   %r14
  4030e4:	41 55                	push   %r13
  4030e6:	41 54                	push   %r12
  4030e8:	53                   	push   %rbx
  4030e9:	48 83 ec 20          	sub    $0x20,%rsp
  4030ed:	41 89 fd             	mov    %edi,%r13d
  4030f0:	41 8d 45 02          	lea    0x2(%r13),%eax
  4030f4:	4c 89 c3             	mov    %r8,%rbx
  4030f7:	49 89 ce             	mov    %rcx,%r14
  4030fa:	49 89 d7             	mov    %rdx,%r15
  4030fd:	49 89 f4             	mov    %rsi,%r12
  403100:	0f af c0             	imul   %eax,%eax
  403103:	85 c0                	test   %eax,%eax
  403105:	0f 84 2e 01 00 00    	je     403239 <vel_step+0x159>
  40310b:	89 c0                	mov    %eax,%eax
  40310d:	49 8d 54 86 fc       	lea    -0x4(%r14,%rax,4),%rdx
  403112:	48 8d 48 ff          	lea    -0x1(%rax),%rcx
  403116:	4c 39 e2             	cmp    %r12,%rdx
  403119:	72 31                	jb     40314c <vel_step+0x6c>
  40311b:	49 8d 54 84 fc       	lea    -0x4(%r12,%rax,4),%rdx
  403120:	4c 39 f2             	cmp    %r14,%rdx
  403123:	72 27                	jb     40314c <vel_step+0x6c>
  403125:	31 d2                	xor    %edx,%edx
  403127:	66 0f 1f 84 00 00 00 	nopw   0x0(%rax,%rax,1)
  40312e:	00 00 
  403130:	c4 c1 7a 10 14 96    	vmovss (%r14,%rdx,4),%xmm2
  403136:	c4 c2 71 a9 14 94    	vfmadd213ss (%r12,%rdx,4),%xmm1,%xmm2
  40313c:	c4 c1 7a 11 14 94    	vmovss %xmm2,(%r12,%rdx,4)
  403142:	48 ff c2             	inc    %rdx
  403145:	48 39 d0             	cmp    %rdx,%rax
  403148:	75 e6                	jne    403130 <vel_step+0x50>
  40314a:	eb 5e                	jmp    4031aa <vel_step+0xca>
  40314c:	ba f8 ff ff ff       	mov    $0xfffffff8,%edx
  403151:	48 21 c2             	and    %rax,%rdx
  403154:	74 2c                	je     403182 <vel_step+0xa2>
  403156:	c4 e2 7d 18 d9       	vbroadcastss %xmm1,%ymm3
  40315b:	31 f6                	xor    %esi,%esi
  40315d:	0f 1f 00             	nopl   (%rax)
  403160:	c4 c1 7c 10 14 b6    	vmovups (%r14,%rsi,4),%ymm2
  403166:	c4 c2 65 a8 14 b4    	vfmadd213ps (%r12,%rsi,4),%ymm3,%ymm2
  40316c:	c4 c1 7c 11 14 b4    	vmovups %ymm2,(%r12,%rsi,4)
  403172:	48 83 c6 08          	add    $0x8,%rsi
  403176:	48 39 d6             	cmp    %rdx,%rsi
  403179:	72 e5                	jb     403160 <vel_step+0x80>
  40317b:	48 39 c2             	cmp    %rax,%rdx
  40317e:	75 10                	jne    403190 <vel_step+0xb0>
  403180:	eb 28                	jmp    4031aa <vel_step+0xca>
  403182:	31 d2                	xor    %edx,%edx
  403184:	66 66 66 2e 0f 1f 84 	data16 data16 cs nopw 0x0(%rax,%rax,1)
  40318b:	00 00 00 00 00 
  403190:	c4 c1 7a 10 14 96    	vmovss (%r14,%rdx,4),%xmm2
  403196:	c4 c2 71 a9 14 94    	vfmadd213ss (%r12,%rdx,4),%xmm1,%xmm2
  40319c:	c4 c1 7a 11 14 94    	vmovss %xmm2,(%r12,%rdx,4)
  4031a2:	48 ff c2             	inc    %rdx
  4031a5:	48 39 d0             	cmp    %rdx,%rax
  4031a8:	75 e6                	jne    403190 <vel_step+0xb0>
  4031aa:	48 8d 14 8b          	lea    (%rbx,%rcx,4),%rdx
  4031ae:	4c 39 fa             	cmp    %r15,%rdx
  4031b1:	72 28                	jb     4031db <vel_step+0xfb>
  4031b3:	49 8d 0c 8f          	lea    (%r15,%rcx,4),%rcx
  4031b7:	48 39 d9             	cmp    %rbx,%rcx
  4031ba:	72 1f                	jb     4031db <vel_step+0xfb>
  4031bc:	31 c9                	xor    %ecx,%ecx
  4031be:	66 90                	xchg   %ax,%ax
  4031c0:	c5 fa 10 14 8b       	vmovss (%rbx,%rcx,4),%xmm2
  4031c5:	c4 c2 71 a9 14 8f    	vfmadd213ss (%r15,%rcx,4),%xmm1,%xmm2
  4031cb:	c4 c1 7a 11 14 8f    	vmovss %xmm2,(%r15,%rcx,4)
  4031d1:	48 ff c1             	inc    %rcx
  4031d4:	48 39 c8             	cmp    %rcx,%rax
  4031d7:	75 e7                	jne    4031c0 <vel_step+0xe0>
  4031d9:	eb 5e                	jmp    403239 <vel_step+0x159>
  4031db:	b9 f8 ff ff ff       	mov    $0xfffffff8,%ecx
  4031e0:	48 21 c1             	and    %rax,%rcx
  4031e3:	74 2c                	je     403211 <vel_step+0x131>
  4031e5:	c4 e2 7d 18 d9       	vbroadcastss %xmm1,%ymm3
  4031ea:	31 d2                	xor    %edx,%edx
  4031ec:	0f 1f 40 00          	nopl   0x0(%rax)
  4031f0:	c5 fc 10 14 93       	vmovups (%rbx,%rdx,4),%ymm2
  4031f5:	c4 c2 65 a8 14 97    	vfmadd213ps (%r15,%rdx,4),%ymm3,%ymm2
  4031fb:	c4 c1 7c 11 14 97    	vmovups %ymm2,(%r15,%rdx,4)
  403201:	48 83 c2 08          	add    $0x8,%rdx
  403205:	48 39 ca             	cmp    %rcx,%rdx
  403208:	72 e6                	jb     4031f0 <vel_step+0x110>
  40320a:	48 39 c1             	cmp    %rax,%rcx
  40320d:	75 11                	jne    403220 <vel_step+0x140>
  40320f:	eb 28                	jmp    403239 <vel_step+0x159>
  403211:	31 c9                	xor    %ecx,%ecx
  403213:	66 66 66 66 2e 0f 1f 	data16 data16 data16 cs nopw 0x0(%rax,%rax,1)
  40321a:	84 00 00 00 00 00 
  403220:	c5 fa 10 14 8b       	vmovss (%rbx,%rcx,4),%xmm2
  403225:	c4 c2 71 a9 14 8f    	vfmadd213ss (%r15,%rcx,4),%xmm1,%xmm2
  40322b:	c4 c1 7a 11 14 8f    	vmovss %xmm2,(%r15,%rcx,4)
  403231:	48 ff c1             	inc    %rcx
  403234:	48 39 c8             	cmp    %rcx,%rax
  403237:	75 e7                	jne    403220 <vel_step+0x140>
  403239:	be 01 00 00 00       	mov    $0x1,%esi
  40323e:	c5 f8 11 4c 24 10    	vmovups %xmm1,0x10(%rsp)
  403244:	44 89 ef             	mov    %r13d,%edi
  403247:	4c 89 f2             	mov    %r14,%rdx
  40324a:	4c 89 e1             	mov    %r12,%rcx
  40324d:	c5 fa 11 44 24 0c    	vmovss %xmm0,0xc(%rsp)
  403253:	c5 f8 77             	vzeroupper
  403256:	e8 15 ed ff ff       	call   401f70 <diffuse>
  40325b:	c5 fa 10 44 24 0c    	vmovss 0xc(%rsp),%xmm0
  403261:	c5 f8 10 4c 24 10    	vmovups 0x10(%rsp),%xmm1
  403267:	be 02 00 00 00       	mov    $0x2,%esi
  40326c:	44 89 ef             	mov    %r13d,%edi
  40326f:	48 89 da             	mov    %rbx,%rdx
  403272:	4c 89 f9             	mov    %r15,%rcx
  403275:	e8 f6 ec ff ff       	call   401f70 <diffuse>
  40327a:	44 89 ef             	mov    %r13d,%edi
  40327d:	4c 89 f6             	mov    %r14,%rsi
  403280:	48 89 da             	mov    %rbx,%rdx
  403283:	4c 89 e1             	mov    %r12,%rcx
  403286:	4d 89 f8             	mov    %r15,%r8
  403289:	e8 62 00 00 00       	call   4032f0 <project>
  40328e:	c5 f8 10 44 24 10    	vmovups 0x10(%rsp),%xmm0
  403294:	be 01 00 00 00       	mov    $0x1,%esi
  403299:	44 89 ef             	mov    %r13d,%edi
  40329c:	4c 89 e2             	mov    %r12,%rdx
  40329f:	4c 89 f1             	mov    %r14,%rcx
  4032a2:	4d 89 f0             	mov    %r14,%r8
  4032a5:	49 89 d9             	mov    %rbx,%r9
  4032a8:	e8 e3 f6 ff ff       	call   402990 <advect>
  4032ad:	c5 f8 10 44 24 10    	vmovups 0x10(%rsp),%xmm0
  4032b3:	be 02 00 00 00       	mov    $0x2,%esi
  4032b8:	44 89 ef             	mov    %r13d,%edi
  4032bb:	4c 89 fa             	mov    %r15,%rdx
  4032be:	48 89 d9             	mov    %rbx,%rcx
  4032c1:	4d 89 f0             	mov    %r14,%r8
  4032c4:	49 89 d9             	mov    %rbx,%r9
  4032c7:	e8 c4 f6 ff ff       	call   402990 <advect>
  4032cc:	44 89 ef             	mov    %r13d,%edi
  4032cf:	4c 89 e6             	mov    %r12,%rsi
  4032d2:	4c 89 fa             	mov    %r15,%rdx
  4032d5:	4c 89 f1             	mov    %r14,%rcx
  4032d8:	49 89 d8             	mov    %rbx,%r8
  4032db:	48 83 c4 20          	add    $0x20,%rsp
  4032df:	5b                   	pop    %rbx
  4032e0:	41 5c                	pop    %r12
  4032e2:	41 5d                	pop    %r13
  4032e4:	41 5e                	pop    %r14
  4032e6:	41 5f                	pop    %r15
  4032e8:	eb 06                	jmp    4032f0 <project>
  4032ea:	66 0f 1f 44 00 00    	nopw   0x0(%rax,%rax,1)

00000000004032f0 <project>:
  4032f0:	55                   	push   %rbp
  4032f1:	41 57                	push   %r15
  4032f3:	41 56                	push   %r14
  4032f5:	41 55                	push   %r13
  4032f7:	41 54                	push   %r12
  4032f9:	53                   	push   %rbx
  4032fa:	48 81 ec c8 00 00 00 	sub    $0xc8,%rsp
  403301:	41 bc 02 00 00 00    	mov    $0x2,%r12d
  403307:	41 89 fd             	mov    %edi,%r13d
  40330a:	31 c0                	xor    %eax,%eax
  40330c:	89 fd                	mov    %edi,%ebp
  40330e:	49 89 d6             	mov    %rdx,%r14
  403311:	48 89 74 24 38       	mov    %rsi,0x38(%rsp)
  403316:	48 89 44 24 40       	mov    %rax,0x40(%rsp)
  40331b:	48 89 54 24 d0       	mov    %rdx,-0x30(%rsp)
  403320:	48 89 6c 24 20       	mov    %rbp,0x20(%rsp)
  403325:	4c 89 6c 24 80       	mov    %r13,-0x80(%rsp)
  40332a:	85 ff                	test   %edi,%edi
  40332c:	0f 84 0f 08 00 00    	je     403b41 <project+0x851>
  403332:	41 8d 45 02          	lea    0x2(%r13),%eax
  403336:	be 02 00 00 00       	mov    $0x2,%esi
  40333b:	c4 e1 fa 2a c5       	vcvtsi2ss %rbp,%xmm0,%xmm0
  403340:	c7 44 24 08 01 00 00 	movl   $0x1,0x8(%rsp)
  403347:	00 
  403348:	48 89 44 24 a0       	mov    %rax,-0x60(%rsp)
  40334d:	41 8d 45 01          	lea    0x1(%r13),%eax
  403351:	83 f8 03             	cmp    $0x3,%eax
  403354:	48 89 44 24 18       	mov    %rax,0x18(%rsp)
  403359:	0f 43 f0             	cmovae %eax,%esi
  40335c:	48 8d 56 ff          	lea    -0x1(%rsi),%rdx
  403360:	48 8d 7e fe          	lea    -0x2(%rsi),%rdi
  403364:	ff ce                	dec    %esi
  403366:	48 89 14 24          	mov    %rdx,(%rsp)
  40336a:	48 89 7c 24 f0       	mov    %rdi,-0x10(%rsp)
  40336f:	48 89 74 24 58       	mov    %rsi,0x58(%rsp)
  403374:	83 f8 03             	cmp    $0x3,%eax
  403377:	0f 83 21 29 00 00    	jae    405c9e <project+0x29ae>
  40337d:	f6 44 24 58 01       	testb  $0x1,0x58(%rsp)
  403382:	4c 8b 5c 24 38       	mov    0x38(%rsp),%r11
  403387:	48 8b 5c 24 a0       	mov    -0x60(%rsp),%rbx
  40338c:	0f 84 58 03 00 00    	je     4036ea <project+0x3fa>
  403392:	4c 8b 0c 24          	mov    (%rsp),%r9
  403396:	4c 8b 7c 24 80       	mov    -0x80(%rsp),%r15
  40339b:	ba 01 00 00 00       	mov    $0x1,%edx
  4033a0:	44 89 c8             	mov    %r9d,%eax
  4033a3:	83 e0 07             	and    $0x7,%eax
  4033a6:	48 83 7c 24 f0 07    	cmpq   $0x7,-0x10(%rsp)
  4033ac:	0f 82 a0 02 00 00    	jb     403652 <project+0x362>
  4033b2:	c5 fa 10 0d 52 ac 00 	vmovss 0xac52(%rip),%xmm1        # 40e00c <_IO_stdin_used+0xc>
  4033b9:	00 
  4033ba:	42 8d 34 fd 10 00 00 	lea    0x10(,%r15,8),%esi
  4033c1:	00 
  4033c2:	43 8d 54 ff 12       	lea    0x12(%r15,%r15,8),%edx
  4033c7:	49 83 e1 f8          	and    $0xfffffffffffffff8,%r9
  4033cb:	46 8d 2c bd 00 00 00 	lea    0x0(,%r15,4),%r13d
  4033d2:	00 
  4033d3:	43 8d 2c 7f          	lea    (%r15,%r15,2),%ebp
  4033d7:	49 f7 d9             	neg    %r9
  4033da:	89 74 24 b0          	mov    %esi,-0x50(%rsp)
  4033de:	43 8d 34 3f          	lea    (%r15,%r15,1),%esi
  4033e2:	48 89 54 24 88       	mov    %rdx,-0x78(%rsp)
  4033e7:	42 8d 14 fd 00 00 00 	lea    0x0(,%r15,8),%edx
  4033ee:	00 
  4033ef:	4c 89 0c 24          	mov    %r9,(%rsp)
  4033f3:	48 89 74 24 98       	mov    %rsi,-0x68(%rsp)
  4033f8:	8d 34 76             	lea    (%rsi,%rsi,2),%esi
  4033fb:	48 89 54 24 b8       	mov    %rdx,-0x48(%rsp)
  403400:	44 29 fa             	sub    %r15d,%edx
  403403:	48 89 74 24 a8       	mov    %rsi,-0x58(%rsp)
  403408:	43 8d 34 bf          	lea    (%r15,%r15,4),%esi
  40340c:	48 89 54 24 90       	mov    %rdx,-0x70(%rsp)
  403411:	ba 01 00 00 00       	mov    $0x1,%edx
  403416:	48 89 74 24 d8       	mov    %rsi,-0x28(%rsp)
  40341b:	8b 74 24 08          	mov    0x8(%rsp),%esi
  40341f:	c5 f2 5e c8          	vdivss %xmm0,%xmm1,%xmm1
  403423:	c5 f2 59 0d ed ab 00 	vmulss 0xabed(%rip),%xmm1,%xmm1        # 40e018 <_IO_stdin_used+0x18>
  40342a:	00 
  40342b:	0f 1f 44 00 00       	nopl   0x0(%rax,%rax,1)
  403430:	48 8b 5c 24 98       	mov    -0x68(%rsp),%rbx
  403435:	41 8d 7c 37 03       	lea    0x3(%r15,%rsi,1),%edi
  40343a:	45 8d 4c 37 01       	lea    0x1(%r15,%rsi,1),%r9d
  40343f:	45 8d 54 37 02       	lea    0x2(%r15,%rsi,1),%r10d
  403444:	4c 8b 64 24 d8       	mov    -0x28(%rsp),%r12
  403449:	c4 c1 7a 10 14 bb    	vmovss (%r11,%rdi,4),%xmm2
  40344f:	c4 81 7a 10 1c 8b    	vmovss (%r11,%r9,4),%xmm3
  403455:	41 89 f1             	mov    %esi,%r9d
  403458:	c4 81 62 58 1c 8e    	vaddss (%r14,%r9,4),%xmm3,%xmm3
  40345e:	8d 7c 33 04          	lea    0x4(%rbx,%rsi,1),%edi
  403462:	44 8d 4c 33 05       	lea    0x5(%rbx,%rsi,1),%r9d
  403467:	c4 c1 6a 58 14 be    	vaddss (%r14,%rdi,4),%xmm2,%xmm2
  40346d:	c5 ea 5c d3          	vsubss %xmm3,%xmm2,%xmm2
  403471:	c5 ea 59 d1          	vmulss %xmm1,%xmm2,%xmm2
  403475:	c4 81 7a 11 14 90    	vmovss %xmm2,(%r8,%r10,4)
  40347b:	42 c7 04 91 00 00 00 	movl   $0x0,(%rcx,%r10,4)
  403482:	00 
  403483:	c4 81 7a 10 14 8b    	vmovss (%r11,%r9,4),%xmm2
  403489:	44 8d 4c 33 03       	lea    0x3(%rbx,%rsi,1),%r9d
  40348e:	8d 5c 35 06          	lea    0x6(%rbp,%rsi,1),%ebx
  403492:	c4 81 7a 10 1c 8b    	vmovss (%r11,%r9,4),%xmm3
  403498:	c4 c1 6a 58 14 9e    	vaddss (%r14,%rbx,4),%xmm2,%xmm2
  40349e:	44 8d 4c 35 07       	lea    0x7(%rbp,%rsi,1),%r9d
  4034a3:	c4 81 62 58 1c 96    	vaddss (%r14,%r10,4),%xmm3,%xmm3
  4034a9:	44 8d 54 35 05       	lea    0x5(%rbp,%rsi,1),%r10d
  4034ae:	c5 ea 5c d3          	vsubss %xmm3,%xmm2,%xmm2
  4034b2:	c5 ea 59 d1          	vmulss %xmm1,%xmm2,%xmm2
  4034b6:	c4 c1 7a 11 14 b8    	vmovss %xmm2,(%r8,%rdi,4)
  4034bc:	c7 04 b9 00 00 00 00 	movl   $0x0,(%rcx,%rdi,4)
  4034c3:	c4 81 7a 10 1c 93    	vmovss (%r11,%r10,4),%xmm3
  4034c9:	45 8d 54 35 08       	lea    0x8(%r13,%rsi,1),%r10d
  4034ce:	c4 81 7a 10 14 8b    	vmovss (%r11,%r9,4),%xmm2
  4034d4:	45 8d 4c 34 0a       	lea    0xa(%r12,%rsi,1),%r9d
  4034d9:	c4 c1 62 58 1c be    	vaddss (%r14,%rdi,4),%xmm3,%xmm3
  4034df:	41 8d 7c 35 09       	lea    0x9(%r13,%rsi,1),%edi
  4034e4:	c4 81 6a 58 14 96    	vaddss (%r14,%r10,4),%xmm2,%xmm2
  4034ea:	c5 ea 5c d3          	vsubss %xmm3,%xmm2,%xmm2
  4034ee:	c5 ea 59 d1          	vmulss %xmm1,%xmm2,%xmm2
  4034f2:	c4 c1 7a 11 14 98    	vmovss %xmm2,(%r8,%rbx,4)
  4034f8:	c7 04 99 00 00 00 00 	movl   $0x0,(%rcx,%rbx,4)
  4034ff:	c4 c1 7a 10 14 bb    	vmovss (%r11,%rdi,4),%xmm2
  403505:	41 8d 7c 35 07       	lea    0x7(%r13,%rsi,1),%edi
  40350a:	c4 81 6a 58 14 8e    	vaddss (%r14,%r9,4),%xmm2,%xmm2
  403510:	c4 c1 7a 10 1c bb    	vmovss (%r11,%rdi,4),%xmm3
  403516:	41 8d 7c 34 0b       	lea    0xb(%r12,%rsi,1),%edi
  40351b:	c4 c1 62 58 1c 9e    	vaddss (%r14,%rbx,4),%xmm3,%xmm3
  403521:	c5 ea 5c d3          	vsubss %xmm3,%xmm2,%xmm2
  403525:	c5 ea 59 d1          	vmulss %xmm1,%xmm2,%xmm2
  403529:	c4 81 7a 11 14 90    	vmovss %xmm2,(%r8,%r10,4)
  40352f:	42 c7 04 91 00 00 00 	movl   $0x0,(%rcx,%r10,4)
  403536:	00 
  403537:	c4 c1 7a 10 14 bb    	vmovss (%r11,%rdi,4),%xmm2
  40353d:	41 8d 7c 34 09       	lea    0x9(%r12,%rsi,1),%edi
  403542:	4c 8b 64 24 a8       	mov    -0x58(%rsp),%r12
  403547:	c4 c1 7a 10 1c bb    	vmovss (%r11,%rdi,4),%xmm3
  40354d:	c4 81 62 58 1c 96    	vaddss (%r14,%r10,4),%xmm3,%xmm3
  403553:	41 8d 5c 34 0c       	lea    0xc(%r12,%rsi,1),%ebx
  403558:	41 8d 7c 34 0d       	lea    0xd(%r12,%rsi,1),%edi
  40355d:	45 8d 54 34 0b       	lea    0xb(%r12,%rsi,1),%r10d
  403562:	4c 8b 64 24 90       	mov    -0x70(%rsp),%r12
  403567:	c4 c1 6a 58 14 9e    	vaddss (%r14,%rbx,4),%xmm2,%xmm2
  40356d:	c5 ea 5c d3          	vsubss %xmm3,%xmm2,%xmm2
  403571:	c5 ea 59 d1          	vmulss %xmm1,%xmm2,%xmm2
  403575:	c4 81 7a 11 14 88    	vmovss %xmm2,(%r8,%r9,4)
  40357b:	42 c7 04 89 00 00 00 	movl   $0x0,(%rcx,%r9,4)
  403582:	00 
  403583:	c4 c1 7a 10 14 bb    	vmovss (%r11,%rdi,4),%xmm2
  403589:	41 8d 7c 34 0e       	lea    0xe(%r12,%rsi,1),%edi
  40358e:	c4 81 7a 10 1c 93    	vmovss (%r11,%r10,4),%xmm3
  403594:	c4 81 62 58 1c 8e    	vaddss (%r14,%r9,4),%xmm3,%xmm3
  40359a:	45 8d 4c 34 0f       	lea    0xf(%r12,%rsi,1),%r9d
  40359f:	c4 c1 6a 58 14 be    	vaddss (%r14,%rdi,4),%xmm2,%xmm2
  4035a5:	c5 ea 5c d3          	vsubss %xmm3,%xmm2,%xmm2
  4035a9:	c5 ea 59 d1          	vmulss %xmm1,%xmm2,%xmm2
  4035ad:	c4 c1 7a 11 14 98    	vmovss %xmm2,(%r8,%rbx,4)
  4035b3:	c7 04 99 00 00 00 00 	movl   $0x0,(%rcx,%rbx,4)
  4035ba:	c4 81 7a 10 14 8b    	vmovss (%r11,%r9,4),%xmm2
  4035c0:	45 8d 4c 34 0d       	lea    0xd(%r12,%rsi,1),%r9d
  4035c5:	4c 8b 64 24 b8       	mov    -0x48(%rsp),%r12
  4035ca:	c4 81 7a 10 1c 8b    	vmovss (%r11,%r9,4),%xmm3
  4035d0:	c4 c1 62 58 1c 9e    	vaddss (%r14,%rbx,4),%xmm3,%xmm3
  4035d6:	48 8b 5c 24 88       	mov    -0x78(%rsp),%rbx
  4035db:	45 8d 4c 34 10       	lea    0x10(%r12,%rsi,1),%r9d
  4035e0:	45 8d 54 34 11       	lea    0x11(%r12,%rsi,1),%r10d
  4035e5:	c4 81 6a 58 14 8e    	vaddss (%r14,%r9,4),%xmm2,%xmm2
  4035eb:	c5 ea 5c d3          	vsubss %xmm3,%xmm2,%xmm2
  4035ef:	c5 ea 59 d1          	vmulss %xmm1,%xmm2,%xmm2
  4035f3:	c4 c1 7a 11 14 b8    	vmovss %xmm2,(%r8,%rdi,4)
  4035f9:	c7 04 b9 00 00 00 00 	movl   $0x0,(%rcx,%rdi,4)
  403600:	c4 81 7a 10 14 93    	vmovss (%r11,%r10,4),%xmm2
  403606:	45 8d 54 34 0f       	lea    0xf(%r12,%rsi,1),%r10d
  40360b:	c4 81 7a 10 1c 93    	vmovss (%r11,%r10,4),%xmm3
  403611:	44 8d 14 33          	lea    (%rbx,%rsi,1),%r10d
  403615:	03 74 24 b0          	add    -0x50(%rsp),%esi
  403619:	c4 c1 62 58 1c be    	vaddss (%r14,%rdi,4),%xmm3,%xmm3
  40361f:	c4 81 6a 58 14 96    	vaddss (%r14,%r10,4),%xmm2,%xmm2
  403625:	48 8b 3c 24          	mov    (%rsp),%rdi
  403629:	48 8d 7c 17 08       	lea    0x8(%rdi,%rdx,1),%rdi
  40362e:	48 83 c2 08          	add    $0x8,%rdx
  403632:	c5 ea 5c d3          	vsubss %xmm3,%xmm2,%xmm2
  403636:	c5 ea 59 d1          	vmulss %xmm1,%xmm2,%xmm2
  40363a:	c4 81 7a 11 14 88    	vmovss %xmm2,(%r8,%r9,4)
  403640:	42 c7 04 89 00 00 00 	movl   $0x0,(%rcx,%r9,4)
  403647:	00 
  403648:	48 83 ff 01          	cmp    $0x1,%rdi
  40364c:	0f 85 de fd ff ff    	jne    403430 <project+0x140>
  403652:	48 8b 5c 24 a0       	mov    -0x60(%rsp),%rbx
  403657:	48 85 c0             	test   %rax,%rax
  40365a:	0f 84 8a 00 00 00    	je     4036ea <project+0x3fa>
  403660:	c5 fa 10 0d a4 a9 00 	vmovss 0xa9a4(%rip),%xmm1        # 40e00c <_IO_stdin_used+0xc>
  403667:	00 
  403668:	8b 7c 24 08          	mov    0x8(%rsp),%edi
  40366c:	8d 72 01             	lea    0x1(%rdx),%esi
  40366f:	44 8d 4a ff          	lea    -0x1(%rdx),%r9d
  403673:	0f af d3             	imul   %ebx,%edx
  403676:	48 f7 d8             	neg    %rax
  403679:	0f af f3             	imul   %ebx,%esi
  40367c:	44 0f af cb          	imul   %ebx,%r9d
  403680:	01 fe                	add    %edi,%esi
  403682:	41 01 f9             	add    %edi,%r9d
  403685:	01 fa                	add    %edi,%edx
  403687:	c5 f2 5e c0          	vdivss %xmm0,%xmm1,%xmm0
  40368b:	c5 fa 10 0d 85 a9 00 	vmovss 0xa985(%rip),%xmm1        # 40e018 <_IO_stdin_used+0x18>
  403692:	00 
  403693:	66 66 66 66 2e 0f 1f 	data16 data16 data16 cs nopw 0x0(%rax,%rax,1)
  40369a:	84 00 00 00 00 00 
  4036a0:	8d 7a 01             	lea    0x1(%rdx),%edi
  4036a3:	45 89 ca             	mov    %r9d,%r10d
  4036a6:	41 01 d9             	add    %ebx,%r9d
  4036a9:	c4 c1 7a 10 14 bb    	vmovss (%r11,%rdi,4),%xmm2
  4036af:	8d 7a ff             	lea    -0x1(%rdx),%edi
  4036b2:	c4 c1 7a 10 1c bb    	vmovss (%r11,%rdi,4),%xmm3
  4036b8:	89 f7                	mov    %esi,%edi
  4036ba:	c4 c1 6a 58 14 be    	vaddss (%r14,%rdi,4),%xmm2,%xmm2
  4036c0:	89 d7                	mov    %edx,%edi
  4036c2:	01 de                	add    %ebx,%esi
  4036c4:	01 da                	add    %ebx,%edx
  4036c6:	48 ff c0             	inc    %rax
  4036c9:	c4 81 62 58 1c 96    	vaddss (%r14,%r10,4),%xmm3,%xmm3
  4036cf:	c5 ea 5c d3          	vsubss %xmm3,%xmm2,%xmm2
  4036d3:	c5 ea 59 d1          	vmulss %xmm1,%xmm2,%xmm2
  4036d7:	c5 ea 59 d0          	vmulss %xmm0,%xmm2,%xmm2
  4036db:	c4 c1 7a 11 14 b8    	vmovss %xmm2,(%r8,%rdi,4)
  4036e1:	c7 04 b9 00 00 00 00 	movl   $0x0,(%rcx,%rdi,4)
  4036e8:	75 b6                	jne    4036a0 <project+0x3b0>
  4036ea:	4c 8b 6c 24 80       	mov    -0x80(%rsp),%r13
  4036ef:	89 d8                	mov    %ebx,%eax
  4036f1:	89 dd                	mov    %ebx,%ebp
  4036f3:	48 8b 5c 24 18       	mov    0x18(%rsp),%rbx
  4036f8:	41 b9 01 00 00 00    	mov    $0x1,%r9d
  4036fe:	41 0f af c5          	imul   %r13d,%eax
  403702:	0f af eb             	imul   %ebx,%ebp
  403705:	48 89 44 24 e0       	mov    %rax,-0x20(%rsp)
  40370a:	89 d8                	mov    %ebx,%eax
  40370c:	4c 8d 60 ff          	lea    -0x1(%rax),%r12
  403710:	48 89 44 24 30       	mov    %rax,0x30(%rsp)
  403715:	48 83 c0 fe          	add    $0xfffffffffffffffe,%rax
  403719:	4c 89 64 24 88       	mov    %r12,-0x78(%rsp)
  40371e:	41 83 e4 07          	and    $0x7,%r12d
  403722:	48 83 f8 07          	cmp    $0x7,%rax
  403726:	0f 82 5d 03 00 00    	jb     403a89 <project+0x799>
  40372c:	43 8d 44 ed 00       	lea    0x0(%r13,%r13,8),%eax
  403731:	42 8d 14 ed 00 00 00 	lea    0x0(,%r13,8),%edx
  403738:	00 
  403739:	42 8d 34 ed 10 00 00 	lea    0x10(,%r13,8),%esi
  403740:	00 
  403741:	48 83 64 24 88 f8    	andq   $0xfffffffffffffff8,-0x78(%rsp)
  403747:	48 89 6c 24 c0       	mov    %rbp,-0x40(%rsp)
  40374c:	41 89 eb             	mov    %ebp,%r11d
  40374f:	44 8b 7c 24 e0       	mov    -0x20(%rsp),%r15d
  403754:	48 8b 6c 24 20       	mov    0x20(%rsp),%rbp
  403759:	4c 89 64 24 c8       	mov    %r12,-0x38(%rsp)
  40375e:	45 31 f6             	xor    %r14d,%r14d
  403761:	45 31 c9             	xor    %r9d,%r9d
  403764:	48 89 44 24 b8       	mov    %rax,-0x48(%rsp)
  403769:	4c 89 e8             	mov    %r13,%rax
  40376c:	41 89 d5             	mov    %edx,%r13d
  40376f:	48 89 54 24 b0       	mov    %rdx,-0x50(%rsp)
  403774:	8d 14 00             	lea    (%rax,%rax,1),%edx
  403777:	89 74 24 90          	mov    %esi,-0x70(%rsp)
  40377b:	8d 34 85 00 00 00 00 	lea    0x0(,%rax,4),%esi
  403782:	44 8d 14 40          	lea    (%rax,%rax,2),%r10d
  403786:	41 29 c5             	sub    %eax,%r13d
  403789:	48 89 54 24 98       	mov    %rdx,-0x68(%rsp)
  40378e:	8d 14 52             	lea    (%rdx,%rdx,2),%edx
  403791:	48 89 54 24 a8       	mov    %rdx,-0x58(%rsp)
  403796:	8d 14 80             	lea    (%rax,%rax,4),%edx
  403799:	48 89 54 24 d8       	mov    %rdx,-0x28(%rsp)
  40379e:	66 90                	xchg   %ax,%ax
  4037a0:	48 8b 44 24 80       	mov    -0x80(%rsp),%rax
  4037a5:	42 8d 5c 30 03       	lea    0x3(%rax,%r14,1),%ebx
  4037aa:	42 8d 7c 30 02       	lea    0x2(%rax,%r14,1),%edi
  4037af:	48 8b 44 24 98       	mov    -0x68(%rsp),%rax
  4037b4:	c4 c1 7a 10 04 98    	vmovss (%r8,%rbx,4),%xmm0
  4037ba:	42 8d 5c 0d 03       	lea    0x3(%rbp,%r9,1),%ebx
  4037bf:	46 8d 64 30 02       	lea    0x2(%rax,%r14,1),%r12d
  4037c4:	42 8d 54 30 03       	lea    0x3(%rax,%r14,1),%edx
  4037c9:	c4 c1 7a 11 04 b8    	vmovss %xmm0,(%r8,%rdi,4)
  4037cf:	42 8d 7c 30 04       	lea    0x4(%rax,%r14,1),%edi
  4037d4:	c4 81 7a 10 04 a0    	vmovss (%r8,%r12,4),%xmm0
  4037da:	47 8d 64 32 04       	lea    0x4(%r10,%r14,1),%r12d
  4037df:	c4 c1 7a 11 04 90    	vmovss %xmm0,(%r8,%rdx,4)
  4037e5:	43 8d 54 0f 01       	lea    0x1(%r15,%r9,1),%edx
  4037ea:	c4 c1 7a 10 04 98    	vmovss (%r8,%rbx,4),%xmm0
  4037f0:	42 8d 5c 30 05       	lea    0x5(%rax,%r14,1),%ebx
  4037f5:	43 8d 44 32 05       	lea    0x5(%r10,%r14,1),%eax
  4037fa:	c4 81 7a 11 44 88 04 	vmovss %xmm0,0x4(%r8,%r9,4)
  403801:	c4 c1 7a 10 04 90    	vmovss (%r8,%rdx,4),%xmm0
  403807:	43 8d 54 0b 01       	lea    0x1(%r11,%r9,1),%edx
  40380c:	c4 c1 7a 11 04 90    	vmovss %xmm0,(%r8,%rdx,4)
  403812:	42 8d 54 0d 04       	lea    0x4(%rbp,%r9,1),%edx
  403817:	c4 c1 7a 10 04 98    	vmovss (%r8,%rbx,4),%xmm0
  40381d:	42 8d 5c 36 07       	lea    0x7(%rsi,%r14,1),%ebx
  403822:	c4 c1 7a 11 04 b8    	vmovss %xmm0,(%r8,%rdi,4)
  403828:	43 8d 7c 32 07       	lea    0x7(%r10,%r14,1),%edi
  40382d:	c4 81 7a 10 04 a0    	vmovss (%r8,%r12,4),%xmm0
  403833:	4c 8b 64 24 d8       	mov    -0x28(%rsp),%r12
  403838:	c4 c1 7a 11 04 80    	vmovss %xmm0,(%r8,%rax,4)
  40383e:	43 8d 44 0f 02       	lea    0x2(%r15,%r9,1),%eax
  403843:	c4 c1 7a 10 04 90    	vmovss (%r8,%rdx,4),%xmm0
  403849:	43 8d 54 32 06       	lea    0x6(%r10,%r14,1),%edx
  40384e:	c4 81 7a 11 44 88 08 	vmovss %xmm0,0x8(%r8,%r9,4)
  403855:	c4 c1 7a 10 04 80    	vmovss (%r8,%rax,4),%xmm0
  40385b:	43 8d 44 0b 02       	lea    0x2(%r11,%r9,1),%eax
  403860:	c4 c1 7a 11 04 80    	vmovss %xmm0,(%r8,%rax,4)
  403866:	42 8d 44 36 06       	lea    0x6(%rsi,%r14,1),%eax
  40386b:	c4 c1 7a 10 04 b8    	vmovss (%r8,%rdi,4),%xmm0
  403871:	42 8d 7c 0d 05       	lea    0x5(%rbp,%r9,1),%edi
  403876:	c4 c1 7a 11 04 90    	vmovss %xmm0,(%r8,%rdx,4)
  40387c:	42 8d 54 36 08       	lea    0x8(%rsi,%r14,1),%edx
  403881:	c4 c1 7a 10 04 80    	vmovss (%r8,%rax,4),%xmm0
  403887:	43 8d 44 0f 03       	lea    0x3(%r15,%r9,1),%eax
  40388c:	c4 c1 7a 11 04 98    	vmovss %xmm0,(%r8,%rbx,4)
  403892:	43 8d 5c 34 08       	lea    0x8(%r12,%r14,1),%ebx
  403897:	c4 c1 7a 10 04 b8    	vmovss (%r8,%rdi,4),%xmm0
  40389d:	42 8d 7c 36 09       	lea    0x9(%rsi,%r14,1),%edi
  4038a2:	c4 81 7a 11 44 88 0c 	vmovss %xmm0,0xc(%r8,%r9,4)
  4038a9:	c4 c1 7a 10 04 80    	vmovss (%r8,%rax,4),%xmm0
  4038af:	43 8d 44 0b 03       	lea    0x3(%r11,%r9,1),%eax
  4038b4:	c4 c1 7a 11 04 80    	vmovss %xmm0,(%r8,%rax,4)
  4038ba:	43 8d 44 34 09       	lea    0x9(%r12,%r14,1),%eax
  4038bf:	c4 c1 7a 10 04 b8    	vmovss (%r8,%rdi,4),%xmm0
  4038c5:	42 8d 7c 0d 06       	lea    0x6(%rbp,%r9,1),%edi
  4038ca:	c4 c1 7a 11 04 90    	vmovss %xmm0,(%r8,%rdx,4)
  4038d0:	43 8d 54 34 0a       	lea    0xa(%r12,%r14,1),%edx
  4038d5:	c4 c1 7a 10 04 98    	vmovss (%r8,%rbx,4),%xmm0
  4038db:	48 8b 5c 24 a8       	mov    -0x58(%rsp),%rbx
  4038e0:	c4 c1 7a 11 04 80    	vmovss %xmm0,(%r8,%rax,4)
  4038e6:	43 8d 44 0f 04       	lea    0x4(%r15,%r9,1),%eax
  4038eb:	c4 c1 7a 10 04 b8    	vmovss (%r8,%rdi,4),%xmm0
  4038f1:	42 8d 7c 33 0a       	lea    0xa(%rbx,%r14,1),%edi
  4038f6:	c4 81 7a 11 44 88 10 	vmovss %xmm0,0x10(%r8,%r9,4)
  4038fd:	c4 c1 7a 10 04 80    	vmovss (%r8,%rax,4),%xmm0
  403903:	43 8d 44 0b 04       	lea    0x4(%r11,%r9,1),%eax
  403908:	c4 c1 7a 11 04 80    	vmovss %xmm0,(%r8,%rax,4)
  40390e:	43 8d 44 34 0b       	lea    0xb(%r12,%r14,1),%eax
  403913:	c4 c1 7a 10 04 80    	vmovss (%r8,%rax,4),%xmm0
  403919:	42 8d 44 33 0b       	lea    0xb(%rbx,%r14,1),%eax
  40391e:	c4 c1 7a 11 04 90    	vmovss %xmm0,(%r8,%rdx,4)
  403924:	42 8d 54 0d 07       	lea    0x7(%rbp,%r9,1),%edx
  403929:	c4 c1 7a 10 04 b8    	vmovss (%r8,%rdi,4),%xmm0
  40392f:	42 8d 7c 33 0d       	lea    0xd(%rbx,%r14,1),%edi
  403934:	c4 c1 7a 11 04 80    	vmovss %xmm0,(%r8,%rax,4)
  40393a:	43 8d 44 0f 05       	lea    0x5(%r15,%r9,1),%eax
  40393f:	c4 c1 7a 10 04 90    	vmovss (%r8,%rdx,4),%xmm0
  403945:	42 8d 54 33 0c       	lea    0xc(%rbx,%r14,1),%edx
  40394a:	c4 81 7a 11 44 88 14 	vmovss %xmm0,0x14(%r8,%r9,4)
  403951:	c4 c1 7a 10 04 80    	vmovss (%r8,%rax,4),%xmm0
  403957:	43 8d 44 0b 05       	lea    0x5(%r11,%r9,1),%eax
  40395c:	c4 c1 7a 11 04 80    	vmovss %xmm0,(%r8,%rax,4)
  403962:	43 8d 44 35 0c       	lea    0xc(%r13,%r14,1),%eax
  403967:	c4 c1 7a 10 04 b8    	vmovss (%r8,%rdi,4),%xmm0
  40396d:	43 8d 7c 35 0d       	lea    0xd(%r13,%r14,1),%edi
  403972:	c4 c1 7a 11 04 90    	vmovss %xmm0,(%r8,%rdx,4)
  403978:	43 8d 54 35 0f       	lea    0xf(%r13,%r14,1),%edx
  40397d:	c4 c1 7a 10 04 80    	vmovss (%r8,%rax,4),%xmm0
  403983:	42 8d 44 0d 08       	lea    0x8(%rbp,%r9,1),%eax
  403988:	c4 c1 7a 11 04 b8    	vmovss %xmm0,(%r8,%rdi,4)
  40398e:	48 8b 7c 24 b0       	mov    -0x50(%rsp),%rdi
  403993:	c4 c1 7a 10 04 80    	vmovss (%r8,%rax,4),%xmm0
  403999:	43 8d 44 0f 06       	lea    0x6(%r15,%r9,1),%eax
  40399e:	c4 81 7a 11 44 88 18 	vmovss %xmm0,0x18(%r8,%r9,4)
  4039a5:	c4 c1 7a 10 04 80    	vmovss (%r8,%rax,4),%xmm0
  4039ab:	43 8d 44 0b 06       	lea    0x6(%r11,%r9,1),%eax
  4039b0:	c4 c1 7a 11 04 80    	vmovss %xmm0,(%r8,%rax,4)
  4039b6:	43 8d 44 35 0e       	lea    0xe(%r13,%r14,1),%eax
  4039bb:	c4 c1 7a 10 04 90    	vmovss (%r8,%rdx,4),%xmm0
  4039c1:	42 8d 54 37 0e       	lea    0xe(%rdi,%r14,1),%edx
  4039c6:	c4 c1 7a 11 04 80    	vmovss %xmm0,(%r8,%rax,4)
  4039cc:	42 8d 44 37 0f       	lea    0xf(%rdi,%r14,1),%eax
  4039d1:	c4 c1 7a 10 04 90    	vmovss (%r8,%rdx,4),%xmm0
  4039d7:	42 8d 54 0d 09       	lea    0x9(%rbp,%r9,1),%edx
  4039dc:	c4 c1 7a 11 04 80    	vmovss %xmm0,(%r8,%rax,4)
  4039e2:	43 8d 44 0f 07       	lea    0x7(%r15,%r9,1),%eax
  4039e7:	c4 c1 7a 10 04 90    	vmovss (%r8,%rdx,4),%xmm0
  4039ed:	42 8d 54 37 10       	lea    0x10(%rdi,%r14,1),%edx
  4039f2:	c4 81 7a 11 44 88 1c 	vmovss %xmm0,0x1c(%r8,%r9,4)
  4039f9:	c4 c1 7a 10 04 80    	vmovss (%r8,%rax,4),%xmm0
  4039ff:	43 8d 44 0b 07       	lea    0x7(%r11,%r9,1),%eax
  403a04:	c4 c1 7a 11 04 80    	vmovss %xmm0,(%r8,%rax,4)
  403a0a:	42 8d 44 37 11       	lea    0x11(%rdi,%r14,1),%eax
  403a0f:	48 8b 7c 24 b8       	mov    -0x48(%rsp),%rdi
  403a14:	c4 c1 7a 10 04 80    	vmovss (%r8,%rax,4),%xmm0
  403a1a:	42 8d 44 37 10       	lea    0x10(%rdi,%r14,1),%eax
  403a1f:	c4 c1 7a 11 04 90    	vmovss %xmm0,(%r8,%rdx,4)
  403a25:	42 8d 54 37 11       	lea    0x11(%rdi,%r14,1),%edx
  403a2a:	44 03 74 24 90       	add    -0x70(%rsp),%r14d
  403a2f:	c4 c1 7a 10 04 80    	vmovss (%r8,%rax,4),%xmm0
  403a35:	42 8d 44 0d 0a       	lea    0xa(%rbp,%r9,1),%eax
  403a3a:	c4 c1 7a 11 04 90    	vmovss %xmm0,(%r8,%rdx,4)
  403a40:	c4 c1 7a 10 04 80    	vmovss (%r8,%rax,4),%xmm0
  403a46:	43 8d 44 0f 08       	lea    0x8(%r15,%r9,1),%eax
  403a4b:	c4 81 7a 11 44 88 20 	vmovss %xmm0,0x20(%r8,%r9,4)
  403a52:	c4 c1 7a 10 04 80    	vmovss (%r8,%rax,4),%xmm0
  403a58:	43 8d 44 0b 08       	lea    0x8(%r11,%r9,1),%eax
  403a5d:	49 83 c1 08          	add    $0x8,%r9
  403a61:	c4 c1 7a 11 04 80    	vmovss %xmm0,(%r8,%rax,4)
  403a67:	4c 39 4c 24 88       	cmp    %r9,-0x78(%rsp)
  403a6c:	0f 85 2e fd ff ff    	jne    4037a0 <project+0x4b0>
  403a72:	48 8b 5c 24 18       	mov    0x18(%rsp),%rbx
  403a77:	4c 8b 6c 24 80       	mov    -0x80(%rsp),%r13
  403a7c:	48 8b 6c 24 c0       	mov    -0x40(%rsp),%rbp
  403a81:	4c 8b 64 24 c8       	mov    -0x38(%rsp),%r12
  403a86:	49 ff c1             	inc    %r9
  403a89:	4c 8b 7c 24 a0       	mov    -0x60(%rsp),%r15
  403a8e:	4d 85 e4             	test   %r12,%r12
  403a91:	0f 84 81 00 00 00    	je     403b18 <project+0x828>
  403a97:	48 8b 74 24 e0       	mov    -0x20(%rsp),%rsi
  403a9c:	4b 8d 04 88          	lea    (%r8,%r9,4),%rax
  403aa0:	42 8d 54 0d 00       	lea    0x0(%rbp,%r9,1),%edx
  403aa5:	47 8d 54 0d 02       	lea    0x2(%r13,%r9,1),%r10d
  403aaa:	45 31 f6             	xor    %r14d,%r14d
  403aad:	44 01 ce             	add    %r9d,%esi
  403ab0:	45 0f af cf          	imul   %r15d,%r9d
  403ab4:	47 8d 5c 0d 00       	lea    0x0(%r13,%r9,1),%r11d
  403ab9:	0f 1f 80 00 00 00 00 	nopl   0x0(%rax)
  403ac0:	41 8d 79 01          	lea    0x1(%r9),%edi
  403ac4:	c4 c1 7a 10 04 b8    	vmovss (%r8,%rdi,4),%xmm0
  403aca:	44 89 cf             	mov    %r9d,%edi
  403acd:	45 01 f9             	add    %r15d,%r9d
  403ad0:	c4 c1 7a 11 04 b8    	vmovss %xmm0,(%r8,%rdi,4)
  403ad6:	44 89 df             	mov    %r11d,%edi
  403ad9:	c4 c1 7a 10 04 b8    	vmovss (%r8,%rdi,4),%xmm0
  403adf:	41 8d 7b 01          	lea    0x1(%r11),%edi
  403ae3:	45 01 fb             	add    %r15d,%r11d
  403ae6:	c4 c1 7a 11 04 b8    	vmovss %xmm0,(%r8,%rdi,4)
  403aec:	43 8d 3c 32          	lea    (%r10,%r14,1),%edi
  403af0:	c4 c1 7a 10 04 b8    	vmovss (%r8,%rdi,4),%xmm0
  403af6:	42 8d 3c 36          	lea    (%rsi,%r14,1),%edi
  403afa:	c4 a1 7a 11 04 b0    	vmovss %xmm0,(%rax,%r14,4)
  403b00:	c4 c1 7a 10 04 b8    	vmovss (%r8,%rdi,4),%xmm0
  403b06:	42 8d 3c 32          	lea    (%rdx,%r14,1),%edi
  403b0a:	49 ff c6             	inc    %r14
  403b0d:	c4 c1 7a 11 04 b8    	vmovss %xmm0,(%r8,%rdi,4)
  403b13:	4d 39 f4             	cmp    %r14,%r12
  403b16:	75 a8                	jne    403ac0 <project+0x7d0>
  403b18:	42 8d 44 2d 00       	lea    0x0(%rbp,%r13,1),%eax
  403b1d:	4c 8b 74 24 d0       	mov    -0x30(%rsp),%r14
  403b22:	4c 8b 5c 24 30       	mov    0x30(%rsp),%r11
  403b27:	4c 8b 4c 24 e0       	mov    -0x20(%rsp),%r9
  403b2c:	41 bc 02 00 00 00    	mov    $0x2,%r12d
  403b32:	48 89 44 24 88       	mov    %rax,-0x78(%rsp)
  403b37:	48 89 e8             	mov    %rbp,%rax
  403b3a:	48 8b 6c 24 20       	mov    0x20(%rsp),%rbp
  403b3f:	eb 23                	jmp    403b64 <project+0x874>
  403b41:	b8 02 00 00 00       	mov    $0x2,%eax
  403b46:	41 bb 01 00 00 00    	mov    $0x1,%r11d
  403b4c:	bb 01 00 00 00       	mov    $0x1,%ebx
  403b51:	41 bf 02 00 00 00    	mov    $0x2,%r15d
  403b57:	45 31 c9             	xor    %r9d,%r9d
  403b5a:	48 89 44 24 88       	mov    %rax,-0x78(%rsp)
  403b5f:	b8 02 00 00 00       	mov    $0x2,%eax
  403b64:	46 8d 14 3b          	lea    (%rbx,%r15,1),%r10d
  403b68:	45 89 ff             	mov    %r15d,%r15d
  403b6b:	c4 81 7a 10 04 b8    	vmovss (%r8,%r15,4),%xmm0
  403b71:	41 8d 34 19          	lea    (%r9,%rbx,1),%esi
  403b75:	8d 50 01             	lea    0x1(%rax),%edx
  403b78:	45 89 c9             	mov    %r9d,%r9d
  403b7b:	8d 3c 18             	lea    (%rax,%rbx,1),%edi
  403b7e:	4c 89 5c 24 30       	mov    %r11,0x30(%rsp)
  403b83:	4c 89 7c 24 b0       	mov    %r15,-0x50(%rsp)
  403b88:	48 89 5c 24 18       	mov    %rbx,0x18(%rsp)
  403b8d:	c4 c1 7a 58 48 04    	vaddss 0x4(%r8),%xmm0,%xmm1
  403b93:	c5 fa 10 05 79 a4 00 	vmovss 0xa479(%rip),%xmm0        # 40e014 <_IO_stdin_used+0x14>
  403b9a:	00 
  403b9b:	4c 89 54 24 50       	mov    %r10,0x50(%rsp)
  403ba0:	c5 f2 59 c8          	vmulss %xmm0,%xmm1,%xmm1
  403ba4:	c4 c1 7a 11 08       	vmovss %xmm1,(%r8)
  403ba9:	c4 81 7a 10 0c 88    	vmovss (%r8,%r9,4),%xmm1
  403baf:	4d 89 f9             	mov    %r15,%r9
  403bb2:	c4 c1 72 58 0c 90    	vaddss (%r8,%rdx,4),%xmm1,%xmm1
  403bb8:	89 c2                	mov    %eax,%edx
  403bba:	48 8b 44 24 88       	mov    -0x78(%rsp),%rax
  403bbf:	c5 f2 59 c8          	vmulss %xmm0,%xmm1,%xmm1
  403bc3:	c4 c1 7a 11 0c 90    	vmovss %xmm1,(%r8,%rdx,4)
  403bc9:	c4 81 7a 10 0c 90    	vmovss (%r8,%r10,4),%xmm1
  403bcf:	c4 c1 72 58 0c a8    	vaddss (%r8,%rbp,4),%xmm1,%xmm1
  403bd5:	c5 f2 59 c8          	vmulss %xmm0,%xmm1,%xmm1
  403bd9:	c4 81 7a 11 0c 98    	vmovss %xmm1,(%r8,%r11,4)
  403bdf:	c4 c1 7a 10 0c b0    	vmovss (%r8,%rsi,4),%xmm1
  403be5:	c4 c1 72 58 0c 80    	vaddss (%r8,%rax,4),%xmm1,%xmm1
  403beb:	4c 89 f8             	mov    %r15,%rax
  403bee:	c5 f2 59 c8          	vmulss %xmm0,%xmm1,%xmm1
  403bf2:	c4 c1 7a 11 0c b8    	vmovss %xmm1,(%r8,%rdi,4)
  403bf8:	45 85 ed             	test   %r13d,%r13d
  403bfb:	0f 84 04 04 00 00    	je     404005 <project+0xd15>
  403c01:	44 89 c8             	mov    %r9d,%eax
  403c04:	41 0f af c5          	imul   %r13d,%eax
  403c08:	44 0f af cb          	imul   %ebx,%r9d
  403c0c:	83 fb 03             	cmp    $0x3,%ebx
  403c0f:	ba 01 00 00 00       	mov    $0x1,%edx
  403c14:	48 89 44 24 40       	mov    %rax,0x40(%rsp)
  403c19:	b8 02 00 00 00       	mov    $0x2,%eax
  403c1e:	4c 89 4c 24 e0       	mov    %r9,-0x20(%rsp)
  403c23:	0f 43 c3             	cmovae %ebx,%eax
  403c26:	4c 8d 60 ff          	lea    -0x1(%rax),%r12
  403c2a:	48 83 c0 fe          	add    $0xfffffffffffffffe,%rax
  403c2e:	4c 89 64 24 88       	mov    %r12,-0x78(%rsp)
  403c33:	41 83 e4 07          	and    $0x7,%r12d
  403c37:	48 83 f8 07          	cmp    $0x7,%rax
  403c3b:	0f 82 2f 03 00 00    	jb     403f70 <project+0xc80>
  403c41:	43 8d 44 ed 00       	lea    0x0(%r13,%r13,8),%eax
  403c46:	48 83 64 24 88 f8    	andq   $0xfffffffffffffff8,-0x78(%rsp)
  403c4c:	44 8b 4c 24 e0       	mov    -0x20(%rsp),%r9d
  403c51:	44 8b 5c 24 40       	mov    0x40(%rsp),%r11d
  403c56:	42 8d 34 ed 10 00 00 	lea    0x10(,%r13,8),%esi
  403c5d:	00 
  403c5e:	46 8d 3c ed 00 00 00 	lea    0x0(,%r13,8),%r15d
  403c65:	00 
  403c66:	4c 89 64 24 c0       	mov    %r12,-0x40(%rsp)
  403c6b:	45 31 d2             	xor    %r10d,%r10d
  403c6e:	31 d2                	xor    %edx,%edx
  403c70:	48 89 44 24 b8       	mov    %rax,-0x48(%rsp)
  403c75:	43 8d 44 2d 00       	lea    0x0(%r13,%r13,1),%eax
  403c7a:	89 74 24 90          	mov    %esi,-0x70(%rsp)
  403c7e:	43 8d 74 6d 00       	lea    0x0(%r13,%r13,2),%esi
  403c83:	4c 89 7c 24 a0       	mov    %r15,-0x60(%rsp)
  403c88:	45 29 ef             	sub    %r13d,%r15d
  403c8b:	48 89 44 24 98       	mov    %rax,-0x68(%rsp)
  403c90:	8d 04 40             	lea    (%rax,%rax,2),%eax
  403c93:	48 89 44 24 a8       	mov    %rax,-0x58(%rsp)
  403c98:	43 8d 44 ad 00       	lea    0x0(%r13,%r13,4),%eax
  403c9d:	48 89 44 24 d8       	mov    %rax,-0x28(%rsp)
  403ca2:	42 8d 04 ad 00 00 00 	lea    0x0(,%r13,4),%eax
  403ca9:	00 
  403caa:	66 0f 1f 44 00 00    	nopw   0x0(%rax,%rax,1)
  403cb0:	47 8d 74 15 03       	lea    0x3(%r13,%r10,1),%r14d
  403cb5:	48 8b 5c 24 98       	mov    -0x68(%rsp),%rbx
  403cba:	43 8d 7c 15 02       	lea    0x2(%r13,%r10,1),%edi
  403cbf:	c4 a1 7a 10 0c b1    	vmovss (%rcx,%r14,4),%xmm1
  403cc5:	44 8d 74 15 03       	lea    0x3(%rbp,%rdx,1),%r14d
  403cca:	42 8d 6c 16 05       	lea    0x5(%rsi,%r10,1),%ebp
  403ccf:	46 8d 64 13 02       	lea    0x2(%rbx,%r10,1),%r12d
  403cd4:	46 8d 6c 13 03       	lea    0x3(%rbx,%r10,1),%r13d
  403cd9:	c5 fa 11 0c b9       	vmovss %xmm1,(%rcx,%rdi,4)
  403cde:	41 8d 7c 13 01       	lea    0x1(%r11,%rdx,1),%edi
  403ce3:	c4 a1 7a 10 0c a1    	vmovss (%rcx,%r12,4),%xmm1
  403ce9:	46 8d 64 13 05       	lea    0x5(%rbx,%r10,1),%r12d
  403cee:	c4 a1 7a 11 0c a9    	vmovss %xmm1,(%rcx,%r13,4)
  403cf4:	46 8d 6c 16 04       	lea    0x4(%rsi,%r10,1),%r13d
  403cf9:	c4 a1 7a 10 0c b1    	vmovss (%rcx,%r14,4),%xmm1
  403cff:	46 8d 74 13 04       	lea    0x4(%rbx,%r10,1),%r14d
  403d04:	48 8b 5c 24 d8       	mov    -0x28(%rsp),%rbx
  403d09:	c5 fa 11 4c 91 04    	vmovss %xmm1,0x4(%rcx,%rdx,4)
  403d0f:	c5 fa 10 0c b9       	vmovss (%rcx,%rdi,4),%xmm1
  403d14:	41 8d 7c 11 01       	lea    0x1(%r9,%rdx,1),%edi
  403d19:	c5 fa 11 0c b9       	vmovss %xmm1,(%rcx,%rdi,4)
  403d1e:	48 8b 7c 24 20       	mov    0x20(%rsp),%rdi
  403d23:	c4 a1 7a 10 0c a1    	vmovss (%rcx,%r12,4),%xmm1
  403d29:	46 8d 64 16 07       	lea    0x7(%rsi,%r10,1),%r12d
  403d2e:	8d 7c 17 04          	lea    0x4(%rdi,%rdx,1),%edi
  403d32:	c4 a1 7a 11 0c b1    	vmovss %xmm1,(%rcx,%r14,4)
  403d38:	46 8d 74 16 06       	lea    0x6(%rsi,%r10,1),%r14d
  403d3d:	c4 a1 7a 10 0c a9    	vmovss (%rcx,%r13,4),%xmm1
  403d43:	46 8d 6c 10 07       	lea    0x7(%rax,%r10,1),%r13d
  403d48:	c5 fa 11 0c a9       	vmovss %xmm1,(%rcx,%rbp,4)
  403d4d:	48 8b 6c 24 20       	mov    0x20(%rsp),%rbp
  403d52:	c5 fa 10 0c b9       	vmovss (%rcx,%rdi,4),%xmm1
  403d57:	41 8d 7c 13 02       	lea    0x2(%r11,%rdx,1),%edi
  403d5c:	c5 fa 11 4c 91 08    	vmovss %xmm1,0x8(%rcx,%rdx,4)
  403d62:	c5 fa 10 0c b9       	vmovss (%rcx,%rdi,4),%xmm1
  403d67:	41 8d 7c 11 02       	lea    0x2(%r9,%rdx,1),%edi
  403d6c:	c5 fa 11 0c b9       	vmovss %xmm1,(%rcx,%rdi,4)
  403d71:	42 8d 7c 10 06       	lea    0x6(%rax,%r10,1),%edi
  403d76:	c4 a1 7a 10 0c a1    	vmovss (%rcx,%r12,4),%xmm1
  403d7c:	44 8d 64 15 05       	lea    0x5(%rbp,%rdx,1),%r12d
  403d81:	c4 a1 7a 11 0c b1    	vmovss %xmm1,(%rcx,%r14,4)
  403d87:	46 8d 74 10 08       	lea    0x8(%rax,%r10,1),%r14d
  403d8c:	c5 fa 10 0c b9       	vmovss (%rcx,%rdi,4),%xmm1
  403d91:	41 8d 7c 13 03       	lea    0x3(%r11,%rdx,1),%edi
  403d96:	c4 a1 7a 11 0c a9    	vmovss %xmm1,(%rcx,%r13,4)
  403d9c:	46 8d 6c 13 08       	lea    0x8(%rbx,%r10,1),%r13d
  403da1:	c4 a1 7a 10 0c a1    	vmovss (%rcx,%r12,4),%xmm1
  403da7:	46 8d 64 10 09       	lea    0x9(%rax,%r10,1),%r12d
  403dac:	c5 fa 11 4c 91 0c    	vmovss %xmm1,0xc(%rcx,%rdx,4)
  403db2:	c5 fa 10 0c b9       	vmovss (%rcx,%rdi,4),%xmm1
  403db7:	41 8d 7c 11 03       	lea    0x3(%r9,%rdx,1),%edi
  403dbc:	c5 fa 11 0c b9       	vmovss %xmm1,(%rcx,%rdi,4)
  403dc1:	42 8d 7c 13 09       	lea    0x9(%rbx,%r10,1),%edi
  403dc6:	c4 a1 7a 10 0c a1    	vmovss (%rcx,%r12,4),%xmm1
  403dcc:	44 8d 64 15 06       	lea    0x6(%rbp,%rdx,1),%r12d
  403dd1:	c4 a1 7a 11 0c b1    	vmovss %xmm1,(%rcx,%r14,4)
  403dd7:	46 8d 74 13 0a       	lea    0xa(%rbx,%r10,1),%r14d
  403ddc:	c4 a1 7a 10 0c a9    	vmovss (%rcx,%r13,4),%xmm1
  403de2:	4c 8b 6c 24 80       	mov    -0x80(%rsp),%r13
  403de7:	c5 fa 11 0c b9       	vmovss %xmm1,(%rcx,%rdi,4)
  403dec:	41 8d 7c 13 04       	lea    0x4(%r11,%rdx,1),%edi
  403df1:	c4 a1 7a 10 0c a1    	vmovss (%rcx,%r12,4),%xmm1
  403df7:	c5 fa 11 4c 91 10    	vmovss %xmm1,0x10(%rcx,%rdx,4)
  403dfd:	c5 fa 10 0c b9       	vmovss (%rcx,%rdi,4),%xmm1
  403e02:	41 8d 7c 11 04       	lea    0x4(%r9,%rdx,1),%edi
  403e07:	c5 fa 11 0c b9       	vmovss %xmm1,(%rcx,%rdi,4)
  403e0c:	42 8d 7c 13 0b       	lea    0xb(%rbx,%r10,1),%edi
  403e11:	48 8b 5c 24 a8       	mov    -0x58(%rsp),%rbx
  403e16:	c5 fa 10 0c b9       	vmovss (%rcx,%rdi,4),%xmm1
  403e1b:	46 8d 64 13 0a       	lea    0xa(%rbx,%r10,1),%r12d
  403e20:	42 8d 7c 13 0b       	lea    0xb(%rbx,%r10,1),%edi
  403e25:	c4 a1 7a 11 0c b1    	vmovss %xmm1,(%rcx,%r14,4)
  403e2b:	44 8d 74 15 07       	lea    0x7(%rbp,%rdx,1),%r14d
  403e30:	c4 a1 7a 10 0c a1    	vmovss (%rcx,%r12,4),%xmm1
  403e36:	46 8d 64 13 0d       	lea    0xd(%rbx,%r10,1),%r12d
  403e3b:	c5 fa 11 0c b9       	vmovss %xmm1,(%rcx,%rdi,4)
  403e40:	41 8d 7c 13 05       	lea    0x5(%r11,%rdx,1),%edi
  403e45:	c4 a1 7a 10 0c b1    	vmovss (%rcx,%r14,4),%xmm1
  403e4b:	46 8d 74 13 0c       	lea    0xc(%rbx,%r10,1),%r14d
  403e50:	c5 fa 11 4c 91 14    	vmovss %xmm1,0x14(%rcx,%rdx,4)
  403e56:	c5 fa 10 0c b9       	vmovss (%rcx,%rdi,4),%xmm1
  403e5b:	41 8d 7c 11 05       	lea    0x5(%r9,%rdx,1),%edi
  403e60:	c5 fa 11 0c b9       	vmovss %xmm1,(%rcx,%rdi,4)
  403e65:	43 8d 7c 17 0c       	lea    0xc(%r15,%r10,1),%edi
  403e6a:	c4 a1 7a 10 0c a1    	vmovss (%rcx,%r12,4),%xmm1
  403e70:	47 8d 64 17 0d       	lea    0xd(%r15,%r10,1),%r12d
  403e75:	c4 a1 7a 11 0c b1    	vmovss %xmm1,(%rcx,%r14,4)
  403e7b:	47 8d 74 17 0f       	lea    0xf(%r15,%r10,1),%r14d
  403e80:	c5 fa 10 0c b9       	vmovss (%rcx,%rdi,4),%xmm1
  403e85:	8d 7c 15 08          	lea    0x8(%rbp,%rdx,1),%edi
  403e89:	c4 a1 7a 11 0c a1    	vmovss %xmm1,(%rcx,%r12,4)
  403e8f:	4c 8b 64 24 a0       	mov    -0x60(%rsp),%r12
  403e94:	c5 fa 10 0c b9       	vmovss (%rcx,%rdi,4),%xmm1
  403e99:	41 8d 7c 13 06       	lea    0x6(%r11,%rdx,1),%edi
  403e9e:	c5 fa 11 4c 91 18    	vmovss %xmm1,0x18(%rcx,%rdx,4)
  403ea4:	c5 fa 10 0c b9       	vmovss (%rcx,%rdi,4),%xmm1
  403ea9:	41 8d 7c 11 06       	lea    0x6(%r9,%rdx,1),%edi
  403eae:	c5 fa 11 0c b9       	vmovss %xmm1,(%rcx,%rdi,4)
  403eb3:	43 8d 7c 17 0e       	lea    0xe(%r15,%r10,1),%edi
  403eb8:	c4 a1 7a 10 0c b1    	vmovss (%rcx,%r14,4),%xmm1
  403ebe:	47 8d 74 14 0e       	lea    0xe(%r12,%r10,1),%r14d
  403ec3:	c5 fa 11 0c b9       	vmovss %xmm1,(%rcx,%rdi,4)
  403ec8:	43 8d 7c 14 0f       	lea    0xf(%r12,%r10,1),%edi
  403ecd:	c4 a1 7a 10 0c b1    	vmovss (%rcx,%r14,4),%xmm1
  403ed3:	44 8d 74 15 09       	lea    0x9(%rbp,%rdx,1),%r14d
  403ed8:	c5 fa 11 0c b9       	vmovss %xmm1,(%rcx,%rdi,4)
  403edd:	41 8d 7c 13 07       	lea    0x7(%r11,%rdx,1),%edi
  403ee2:	c4 a1 7a 10 0c b1    	vmovss (%rcx,%r14,4),%xmm1
  403ee8:	47 8d 74 14 10       	lea    0x10(%r12,%r10,1),%r14d
  403eed:	c5 fa 11 4c 91 1c    	vmovss %xmm1,0x1c(%rcx,%rdx,4)
  403ef3:	c5 fa 10 0c b9       	vmovss (%rcx,%rdi,4),%xmm1
  403ef8:	41 8d 7c 11 07       	lea    0x7(%r9,%rdx,1),%edi
  403efd:	c5 fa 11 0c b9       	vmovss %xmm1,(%rcx,%rdi,4)
  403f02:	43 8d 7c 14 11       	lea    0x11(%r12,%r10,1),%edi
  403f07:	4c 8b 64 24 b8       	mov    -0x48(%rsp),%r12
  403f0c:	c5 fa 10 0c b9       	vmovss (%rcx,%rdi,4),%xmm1
  403f11:	43 8d 7c 14 10       	lea    0x10(%r12,%r10,1),%edi
  403f16:	c4 a1 7a 11 0c b1    	vmovss %xmm1,(%rcx,%r14,4)
  403f1c:	47 8d 74 14 11       	lea    0x11(%r12,%r10,1),%r14d
  403f21:	44 03 54 24 90       	add    -0x70(%rsp),%r10d
  403f26:	c5 fa 10 0c b9       	vmovss (%rcx,%rdi,4),%xmm1
  403f2b:	8d 7c 15 0a          	lea    0xa(%rbp,%rdx,1),%edi
  403f2f:	c4 a1 7a 11 0c b1    	vmovss %xmm1,(%rcx,%r14,4)
  403f35:	c5 fa 10 0c b9       	vmovss (%rcx,%rdi,4),%xmm1
  403f3a:	41 8d 7c 13 08       	lea    0x8(%r11,%rdx,1),%edi
  403f3f:	c5 fa 11 4c 91 20    	vmovss %xmm1,0x20(%rcx,%rdx,4)
  403f45:	c5 fa 10 0c b9       	vmovss (%rcx,%rdi,4),%xmm1
  403f4a:	41 8d 7c 11 08       	lea    0x8(%r9,%rdx,1),%edi
  403f4f:	48 83 c2 08          	add    $0x8,%rdx
  403f53:	c5 fa 11 0c b9       	vmovss %xmm1,(%rcx,%rdi,4)
  403f58:	48 39 54 24 88       	cmp    %rdx,-0x78(%rsp)
  403f5d:	0f 85 4d fd ff ff    	jne    403cb0 <project+0x9c0>
  403f63:	4c 8b 64 24 c0       	mov    -0x40(%rsp),%r12
  403f68:	48 8b 5c 24 18       	mov    0x18(%rsp),%rbx
  403f6d:	48 ff c2             	inc    %rdx
  403f70:	4c 8b 7c 24 b0       	mov    -0x50(%rsp),%r15
  403f75:	4d 85 e4             	test   %r12,%r12
  403f78:	74 75                	je     403fef <project+0xcff>
  403f7a:	48 8b 74 24 e0       	mov    -0x20(%rsp),%rsi
  403f7f:	48 8b 7c 24 40       	mov    0x40(%rsp),%rdi
  403f84:	48 8d 04 91          	lea    (%rcx,%rdx,4),%rax
  403f88:	45 8d 54 15 02       	lea    0x2(%r13,%rdx,1),%r10d
  403f8d:	45 31 f6             	xor    %r14d,%r14d
  403f90:	01 d6                	add    %edx,%esi
  403f92:	44 8d 0c 17          	lea    (%rdi,%rdx,1),%r9d
  403f96:	41 0f af d7          	imul   %r15d,%edx
  403f9a:	45 8d 5c 15 00       	lea    0x0(%r13,%rdx,1),%r11d
  403f9f:	90                   	nop
  403fa0:	8d 7a 01             	lea    0x1(%rdx),%edi
  403fa3:	c5 fa 10 0c b9       	vmovss (%rcx,%rdi,4),%xmm1
  403fa8:	89 d7                	mov    %edx,%edi
  403faa:	44 01 fa             	add    %r15d,%edx
  403fad:	c5 fa 11 0c b9       	vmovss %xmm1,(%rcx,%rdi,4)
  403fb2:	44 89 df             	mov    %r11d,%edi
  403fb5:	c5 fa 10 0c b9       	vmovss (%rcx,%rdi,4),%xmm1
  403fba:	41 8d 7b 01          	lea    0x1(%r11),%edi
  403fbe:	45 01 fb             	add    %r15d,%r11d
  403fc1:	c5 fa 11 0c b9       	vmovss %xmm1,(%rcx,%rdi,4)
  403fc6:	43 8d 3c 32          	lea    (%r10,%r14,1),%edi
  403fca:	c5 fa 10 0c b9       	vmovss (%rcx,%rdi,4),%xmm1
  403fcf:	43 8d 3c 31          	lea    (%r9,%r14,1),%edi
  403fd3:	c4 a1 7a 11 0c b0    	vmovss %xmm1,(%rax,%r14,4)
  403fd9:	c5 fa 10 0c b9       	vmovss (%rcx,%rdi,4),%xmm1
  403fde:	42 8d 3c 36          	lea    (%rsi,%r14,1),%edi
  403fe2:	49 ff c6             	inc    %r14
  403fe5:	c5 fa 11 0c b9       	vmovss %xmm1,(%rcx,%rdi,4)
  403fea:	4d 39 f4             	cmp    %r14,%r12
  403fed:	75 b1                	jne    403fa0 <project+0xcb0>
  403fef:	4c 8b 64 24 e0       	mov    -0x20(%rsp),%r12
  403ff4:	4c 8b 74 24 d0       	mov    -0x30(%rsp),%r14
  403ff9:	4c 8b 5c 24 30       	mov    0x30(%rsp),%r11
  403ffe:	4d 89 f9             	mov    %r15,%r9
  404001:	43 8d 04 2c          	lea    (%r12,%r13,1),%eax
  404005:	c4 a1 7a 10 0c 89    	vmovss (%rcx,%r9,4),%xmm1
  40400b:	4c 8b 7c 24 40       	mov    0x40(%rsp),%r15
  404010:	4d 89 ca             	mov    %r9,%r10
  404013:	41 8d 54 24 01       	lea    0x1(%r12),%edx
  404018:	41 8d 3c 1c          	lea    (%r12,%rbx,1),%edi
  40401c:	c5 f2 58 49 04       	vaddss 0x4(%rcx),%xmm1,%xmm1
  404021:	45 89 f9             	mov    %r15d,%r9d
  404024:	41 8d 34 1f          	lea    (%r15,%rbx,1),%esi
  404028:	c5 f2 59 c8          	vmulss %xmm0,%xmm1,%xmm1
  40402c:	c5 fa 11 09          	vmovss %xmm1,(%rcx)
  404030:	c4 a1 7a 10 0c 89    	vmovss (%rcx,%r9,4),%xmm1
  404036:	c5 f2 58 0c 91       	vaddss (%rcx,%rdx,4),%xmm1,%xmm1
  40403b:	44 89 e2             	mov    %r12d,%edx
  40403e:	c5 f2 59 c8          	vmulss %xmm0,%xmm1,%xmm1
  404042:	c5 fa 11 0c 91       	vmovss %xmm1,(%rcx,%rdx,4)
  404047:	48 8b 54 24 50       	mov    0x50(%rsp),%rdx
  40404c:	c5 fa 10 0c 91       	vmovss (%rcx,%rdx,4),%xmm1
  404051:	c5 f2 58 0c a9       	vaddss (%rcx,%rbp,4),%xmm1,%xmm1
  404056:	c5 f2 59 c8          	vmulss %xmm0,%xmm1,%xmm1
  40405a:	c4 a1 7a 11 0c 99    	vmovss %xmm1,(%rcx,%r11,4)
  404060:	c5 fa 10 0c b1       	vmovss (%rcx,%rsi,4),%xmm1
  404065:	c5 f2 58 0c 81       	vaddss (%rcx,%rax,4),%xmm1,%xmm1
  40406a:	c5 f2 59 c8          	vmulss %xmm0,%xmm1,%xmm1
  40406e:	c5 fa 11 0c b9       	vmovss %xmm1,(%rcx,%rdi,4)
  404073:	45 85 ed             	test   %r13d,%r13d
  404076:	0f 84 58 0e 00 00    	je     404ed4 <project+0x1be4>
  40407c:	83 fb 03             	cmp    $0x3,%ebx
  40407f:	b8 02 00 00 00       	mov    $0x2,%eax
  404084:	44 89 d7             	mov    %r10d,%edi
  404087:	44 89 d6             	mov    %r10d,%esi
  40408a:	c5 fa 10 0d 8a 9f 00 	vmovss 0x9f8a(%rip),%xmm1        # 40e01c <_IO_stdin_used+0x1c>
  404091:	00 
  404092:	47 8d 64 ed 00       	lea    0x0(%r13,%r13,8),%r12d
  404097:	46 8d 3c ed 10 00 00 	lea    0x10(,%r13,8),%r15d
  40409e:	00 
  40409f:	4c 89 44 24 78       	mov    %r8,0x78(%rsp)
  4040a4:	0f 43 c3             	cmovae %ebx,%eax
  4040a7:	0f af fb             	imul   %ebx,%edi
  4040aa:	41 0f af f5          	imul   %r13d,%esi
  4040ae:	4c 8d 48 fe          	lea    -0x2(%rax),%r9
  4040b2:	4c 89 a4 24 c0 00 00 	mov    %r12,0xc0(%rsp)
  4040b9:	00 
  4040ba:	44 89 7c 24 88       	mov    %r15d,-0x78(%rsp)
  4040bf:	4c 89 4c 24 f0       	mov    %r9,-0x10(%rsp)
  4040c4:	8d 57 01             	lea    0x1(%rdi),%edx
  4040c7:	48 89 74 24 70       	mov    %rsi,0x70(%rsp)
  4040cc:	48 89 7c 24 68       	mov    %rdi,0x68(%rsp)
  4040d1:	48 89 94 24 a0 00 00 	mov    %rdx,0xa0(%rsp)
  4040d8:	00 
  4040d9:	89 f2                	mov    %esi,%edx
  4040db:	01 da                	add    %ebx,%edx
  4040dd:	48 89 94 24 98 00 00 	mov    %rdx,0x98(%rsp)
  4040e4:	00 
  4040e5:	89 fa                	mov    %edi,%edx
  4040e7:	01 da                	add    %ebx,%edx
  4040e9:	48 89 94 24 90 00 00 	mov    %rdx,0x90(%rsp)
  4040f0:	00 
  4040f1:	48 8d 50 ff          	lea    -0x1(%rax),%rdx
  4040f5:	ff c8                	dec    %eax
  4040f7:	48 89 84 24 a8 00 00 	mov    %rax,0xa8(%rsp)
  4040fe:	00 
  4040ff:	83 e0 fe             	and    $0xfffffffe,%eax
  404102:	41 89 d1             	mov    %edx,%r9d
  404105:	48 89 54 24 f8       	mov    %rdx,-0x8(%rsp)
  40410a:	41 83 e1 07          	and    $0x7,%r9d
  40410e:	89 44 24 40          	mov    %eax,0x40(%rsp)
  404112:	48 89 d0             	mov    %rdx,%rax
  404115:	42 8d 04 ed 00 00 00 	lea    0x0(,%r13,8),%eax
  40411c:	00 
  40411d:	48 83 e2 f8          	and    $0xfffffffffffffff8,%rdx
  404121:	4c 89 4c 24 48       	mov    %r9,0x48(%rsp)
  404126:	49 f7 d9             	neg    %r9
  404129:	48 89 54 24 58       	mov    %rdx,0x58(%rsp)
  40412e:	48 f7 da             	neg    %rdx
  404131:	4c 89 4c 24 28       	mov    %r9,0x28(%rsp)
  404136:	4d 89 d1             	mov    %r10,%r9
  404139:	48 89 44 24 c8       	mov    %rax,-0x38(%rsp)
  40413e:	44 29 e8             	sub    %r13d,%eax
  404141:	48 89 54 24 b8       	mov    %rdx,-0x48(%rsp)
  404146:	48 89 44 24 98       	mov    %rax,-0x68(%rsp)
  40414b:	43 8d 44 ed 13       	lea    0x13(%r13,%r13,8),%eax
  404150:	48 89 44 24 d8       	mov    %rax,-0x28(%rsp)
  404155:	42 8d 04 2f          	lea    (%rdi,%r13,1),%eax
  404159:	48 89 84 24 88 00 00 	mov    %rax,0x88(%rsp)
  404160:	00 
  404161:	43 8d 44 2d 00       	lea    0x0(%r13,%r13,1),%eax
  404166:	8d 14 40             	lea    (%rax,%rax,2),%edx
  404169:	48 89 44 24 60       	mov    %rax,0x60(%rsp)
  40416e:	43 8d 44 ad 00       	lea    0x0(%r13,%r13,4),%eax
  404173:	48 89 54 24 a8       	mov    %rdx,-0x58(%rsp)
  404178:	43 8d 54 6d 00       	lea    0x0(%r13,%r13,2),%edx
  40417d:	48 89 44 24 10       	mov    %rax,0x10(%rsp)
  404182:	42 8d 04 ad 00 00 00 	lea    0x0(,%r13,4),%eax
  404189:	00 
  40418a:	48 89 54 24 a0       	mov    %rdx,-0x60(%rsp)
  40418f:	43 8d 54 ed 14       	lea    0x14(%r13,%r13,8),%edx
  404194:	48 89 44 24 90       	mov    %rax,-0x70(%rsp)
  404199:	48 89 54 24 e0       	mov    %rdx,-0x20(%rsp)
  40419e:	43 8d 54 ed 12       	lea    0x12(%r13,%r13,8),%edx
  4041a3:	48 89 94 24 b8 00 00 	mov    %rdx,0xb8(%rsp)
  4041aa:	00 
  4041ab:	41 8d 55 02          	lea    0x2(%r13),%edx
  4041af:	48 89 94 24 80 00 00 	mov    %rdx,0x80(%rsp)
  4041b6:	00 
  4041b7:	31 d2                	xor    %edx,%edx
  4041b9:	e9 96 00 00 00       	jmp    404254 <project+0xf64>
  4041be:	66 90                	xchg   %ax,%ax
  4041c0:	c4 a1 7a 10 14 89    	vmovss (%rcx,%r9,4),%xmm2
  4041c6:	48 8b 74 24 70       	mov    0x70(%rsp),%rsi
  4041cb:	48 8b 94 24 a0 00 00 	mov    0xa0(%rsp),%rdx
  4041d2:	00 
  4041d3:	48 8b 7c 24 68       	mov    0x68(%rsp),%rdi
  4041d8:	4c 8b 5c 24 30       	mov    0x30(%rsp),%r11
  4041dd:	c5 ea 58 51 04       	vaddss 0x4(%rcx),%xmm2,%xmm2
  4041e2:	c5 ea 59 d0          	vmulss %xmm0,%xmm2,%xmm2
  4041e6:	c5 fa 11 11          	vmovss %xmm2,(%rcx)
  4041ea:	c5 fa 10 14 b1       	vmovss (%rcx,%rsi,4),%xmm2
  4041ef:	c5 ea 58 14 91       	vaddss (%rcx,%rdx,4),%xmm2,%xmm2
  4041f4:	48 8b 54 24 50       	mov    0x50(%rsp),%rdx
  4041f9:	c5 ea 59 d0          	vmulss %xmm0,%xmm2,%xmm2
  4041fd:	c5 fa 11 14 b9       	vmovss %xmm2,(%rcx,%rdi,4)
  404202:	c5 fa 10 14 91       	vmovss (%rcx,%rdx,4),%xmm2
  404207:	48 8b 94 24 98 00 00 	mov    0x98(%rsp),%rdx
  40420e:	00 
  40420f:	c5 ea 58 14 a9       	vaddss (%rcx,%rbp,4),%xmm2,%xmm2
  404214:	c5 ea 59 d0          	vmulss %xmm0,%xmm2,%xmm2
  404218:	c4 a1 7a 11 14 99    	vmovss %xmm2,(%rcx,%r11,4)
  40421e:	c5 fa 10 14 91       	vmovss (%rcx,%rdx,4),%xmm2
  404223:	48 8b 94 24 88 00 00 	mov    0x88(%rsp),%rdx
  40422a:	00 
  40422b:	c5 ea 58 14 91       	vaddss (%rcx,%rdx,4),%xmm2,%xmm2
  404230:	48 8b 94 24 90 00 00 	mov    0x90(%rsp),%rdx
  404237:	00 
  404238:	c5 ea 59 d0          	vmulss %xmm0,%xmm2,%xmm2
  40423c:	c5 fa 11 14 91       	vmovss %xmm2,(%rcx,%rdx,4)
  404241:	48 8b 94 24 b0 00 00 	mov    0xb0(%rsp),%rdx
  404248:	00 
  404249:	ff c2                	inc    %edx
  40424b:	83 fa 14             	cmp    $0x14,%edx
  40424e:	0f 84 a0 0c 00 00    	je     404ef4 <project+0x1c04>
  404254:	4c 8b 64 24 60       	mov    0x60(%rsp),%r12
  404259:	48 89 94 24 b0 00 00 	mov    %rdx,0xb0(%rsp)
  404260:	00 
  404261:	c7 44 24 e8 01 00 00 	movl   $0x1,-0x18(%rsp)
  404268:	00 
  404269:	83 fb 03             	cmp    $0x3,%ebx
  40426c:	0f 83 be 06 00 00    	jae    404930 <project+0x1640>
  404272:	f6 84 24 a8 00 00 00 	testb  $0x1,0xa8(%rsp)
  404279:	01 
  40427a:	48 8b 6c 24 20       	mov    0x20(%rsp),%rbp
  40427f:	0f 84 d9 02 00 00    	je     40455e <project+0x126e>
  404285:	48 83 7c 24 f0 07    	cmpq   $0x7,-0x10(%rsp)
  40428b:	4c 8b 5c 24 80       	mov    -0x80(%rsp),%r11
  404290:	48 8b 5c 24 c8       	mov    -0x38(%rsp),%rbx
  404295:	4c 8b 74 24 98       	mov    -0x68(%rsp),%r14
  40429a:	4c 8b 64 24 a8       	mov    -0x58(%rsp),%r12
  40429f:	48 8b 44 24 10       	mov    0x10(%rsp),%rax
  4042a4:	4c 8b 6c 24 60       	mov    0x60(%rsp),%r13
  4042a9:	ba 01 00 00 00       	mov    $0x1,%edx
  4042ae:	45 89 fa             	mov    %r15d,%r10d
  4042b1:	4c 89 c5             	mov    %r8,%rbp
  4042b4:	0f 82 0f 02 00 00    	jb     4044c9 <project+0x11d9>
  4042ba:	8b 74 24 e8          	mov    -0x18(%rsp),%esi
  4042be:	66 90                	xchg   %ax,%ax
  4042c0:	41 8d 7c 33 02       	lea    0x2(%r11,%rsi,1),%edi
  4042c5:	45 8d 54 33 03       	lea    0x3(%r11,%rsi,1),%r10d
  4042ca:	45 8d 4c 33 01       	lea    0x1(%r11,%rsi,1),%r9d
  4042cf:	41 89 f3             	mov    %esi,%r11d
  4042d2:	4d 89 e0             	mov    %r12,%r8
  4042d5:	4d 89 f4             	mov    %r14,%r12
  4042d8:	49 89 de             	mov    %rbx,%r14
  4042db:	41 8d 5c 35 04       	lea    0x4(%r13,%rsi,1),%ebx
  4042e0:	49 89 c7             	mov    %rax,%r15
  4042e3:	4c 89 e8             	mov    %r13,%rax
  4042e6:	c4 a1 7a 10 1c 91    	vmovss (%rcx,%r10,4),%xmm3
  4042ec:	c5 fa 10 54 bd 00    	vmovss 0x0(%rbp,%rdi,4),%xmm2
  4042f2:	45 8d 54 35 05       	lea    0x5(%r13,%rsi,1),%r10d
  4042f7:	c4 a1 6a 58 14 89    	vaddss (%rcx,%r9,4),%xmm2,%xmm2
  4042fd:	c4 a1 62 58 1c 99    	vaddss (%rcx,%r11,4),%xmm3,%xmm3
  404303:	45 8d 4c 35 03       	lea    0x3(%r13,%rsi,1),%r9d
  404308:	4c 8b 6c 24 a0       	mov    -0x60(%rsp),%r13
  40430d:	45 8d 5c 35 06       	lea    0x6(%r13,%rsi,1),%r11d
  404312:	c5 e2 58 d2          	vaddss %xmm2,%xmm3,%xmm2
  404316:	c5 f2 59 1c 99       	vmulss (%rcx,%rbx,4),%xmm1,%xmm3
  40431b:	c4 e2 71 b9 da       	vfmadd231ss %xmm2,%xmm1,%xmm3
  404320:	c5 fa 11 1c b9       	vmovss %xmm3,(%rcx,%rdi,4)
  404325:	41 8d 7c 35 05       	lea    0x5(%r13,%rsi,1),%edi
  40432a:	c5 fa 10 54 9d 00    	vmovss 0x0(%rbp,%rbx,4),%xmm2
  404330:	c4 a1 62 58 1c 91    	vaddss (%rcx,%r10,4),%xmm3,%xmm3
  404336:	c4 a1 72 59 24 99    	vmulss (%rcx,%r11,4),%xmm1,%xmm4
  40433c:	c4 a1 6a 58 14 89    	vaddss (%rcx,%r9,4),%xmm2,%xmm2
  404342:	45 8d 4c 35 07       	lea    0x7(%r13,%rsi,1),%r9d
  404347:	49 89 c5             	mov    %rax,%r13
  40434a:	4c 89 f8             	mov    %r15,%rax
  40434d:	4c 8b 7c 24 90       	mov    -0x70(%rsp),%r15
  404352:	45 8d 54 37 08       	lea    0x8(%r15,%rsi,1),%r10d
  404357:	c5 e2 58 d2          	vaddss %xmm2,%xmm3,%xmm2
  40435b:	c4 e2 71 b9 e2       	vfmadd231ss %xmm2,%xmm1,%xmm4
  404360:	c5 fa 11 24 99       	vmovss %xmm4,(%rcx,%rbx,4)
  404365:	4c 89 f3             	mov    %r14,%rbx
  404368:	4d 89 e6             	mov    %r12,%r14
  40436b:	4d 89 c4             	mov    %r8,%r12
  40436e:	4c 8b 84 24 b8 00 00 	mov    0xb8(%rsp),%r8
  404375:	00 
  404376:	c4 a1 7a 10 54 9d 00 	vmovss 0x0(%rbp,%r11,4),%xmm2
  40437d:	c4 a1 5a 58 1c 89    	vaddss (%rcx,%r9,4),%xmm4,%xmm3
  404383:	45 8d 4c 37 09       	lea    0x9(%r15,%rsi,1),%r9d
  404388:	c5 ea 58 14 b9       	vaddss (%rcx,%rdi,4),%xmm2,%xmm2
  40438d:	41 8d 7c 37 07       	lea    0x7(%r15,%rsi,1),%edi
  404392:	c5 e2 58 d2          	vaddss %xmm2,%xmm3,%xmm2
  404396:	c4 a1 72 59 1c 91    	vmulss (%rcx,%r10,4),%xmm1,%xmm3
  40439c:	c4 e2 71 b9 da       	vfmadd231ss %xmm2,%xmm1,%xmm3
  4043a1:	c4 a1 7a 11 1c 99    	vmovss %xmm3,(%rcx,%r11,4)
  4043a7:	45 8d 5c 36 0e       	lea    0xe(%r14,%rsi,1),%r11d
  4043ac:	c4 a1 7a 10 54 95 00 	vmovss 0x0(%rbp,%r10,4),%xmm2
  4043b3:	c4 a1 62 58 1c 89    	vaddss (%rcx,%r9,4),%xmm3,%xmm3
  4043b9:	44 8d 4c 30 09       	lea    0x9(%rax,%rsi,1),%r9d
  4043be:	c5 ea 58 14 b9       	vaddss (%rcx,%rdi,4),%xmm2,%xmm2
  4043c3:	8d 7c 30 0a          	lea    0xa(%rax,%rsi,1),%edi
  4043c7:	c5 e2 58 d2          	vaddss %xmm2,%xmm3,%xmm2
  4043cb:	c5 f2 59 1c b9       	vmulss (%rcx,%rdi,4),%xmm1,%xmm3
  4043d0:	c4 e2 71 b9 da       	vfmadd231ss %xmm2,%xmm1,%xmm3
  4043d5:	c4 a1 7a 11 1c 91    	vmovss %xmm3,(%rcx,%r10,4)
  4043db:	44 8d 54 30 0b       	lea    0xb(%rax,%rsi,1),%r10d
  4043e0:	c5 fa 10 54 bd 00    	vmovss 0x0(%rbp,%rdi,4),%xmm2
  4043e6:	c4 a1 6a 58 14 89    	vaddss (%rcx,%r9,4),%xmm2,%xmm2
  4043ec:	c4 a1 62 58 1c 91    	vaddss (%rcx,%r10,4),%xmm3,%xmm3
  4043f2:	45 8d 4c 34 0c       	lea    0xc(%r12,%rsi,1),%r9d
  4043f7:	45 8d 54 34 0b       	lea    0xb(%r12,%rsi,1),%r10d
  4043fc:	c5 e2 58 d2          	vaddss %xmm2,%xmm3,%xmm2
  404400:	c4 a1 72 59 1c 89    	vmulss (%rcx,%r9,4),%xmm1,%xmm3
  404406:	c4 e2 71 b9 da       	vfmadd231ss %xmm2,%xmm1,%xmm3
  40440b:	c5 fa 11 1c b9       	vmovss %xmm3,(%rcx,%rdi,4)
  404410:	41 8d 7c 34 0d       	lea    0xd(%r12,%rsi,1),%edi
  404415:	c4 a1 7a 10 54 8d 00 	vmovss 0x0(%rbp,%r9,4),%xmm2
  40441c:	c4 a1 6a 58 14 91    	vaddss (%rcx,%r10,4),%xmm2,%xmm2
  404422:	c5 e2 58 1c b9       	vaddss (%rcx,%rdi,4),%xmm3,%xmm3
  404427:	41 8d 7c 36 0d       	lea    0xd(%r14,%rsi,1),%edi
  40442c:	44 8d 54 33 11       	lea    0x11(%rbx,%rsi,1),%r10d
  404431:	c5 e2 58 d2          	vaddss %xmm2,%xmm3,%xmm2
  404435:	c4 a1 72 59 1c 99    	vmulss (%rcx,%r11,4),%xmm1,%xmm3
  40443b:	c4 e2 71 b9 da       	vfmadd231ss %xmm2,%xmm1,%xmm3
  404440:	c4 a1 7a 11 1c 89    	vmovss %xmm3,(%rcx,%r9,4)
  404446:	45 8d 4c 36 0f       	lea    0xf(%r14,%rsi,1),%r9d
  40444b:	c4 a1 7a 10 54 9d 00 	vmovss 0x0(%rbp,%r11,4),%xmm2
  404452:	c5 ea 58 14 b9       	vaddss (%rcx,%rdi,4),%xmm2,%xmm2
  404457:	c4 a1 62 58 1c 89    	vaddss (%rcx,%r9,4),%xmm3,%xmm3
  40445d:	8d 7c 33 10          	lea    0x10(%rbx,%rsi,1),%edi
  404461:	44 8d 4c 33 0f       	lea    0xf(%rbx,%rsi,1),%r9d
  404466:	c5 e2 58 d2          	vaddss %xmm2,%xmm3,%xmm2
  40446a:	c5 f2 59 1c b9       	vmulss (%rcx,%rdi,4),%xmm1,%xmm3
  40446f:	c4 e2 71 b9 da       	vfmadd231ss %xmm2,%xmm1,%xmm3
  404474:	c4 a1 7a 11 1c 99    	vmovss %xmm3,(%rcx,%r11,4)
  40447a:	4c 8b 5c 24 80       	mov    -0x80(%rsp),%r11
  40447f:	c5 fa 10 54 bd 00    	vmovss 0x0(%rbp,%rdi,4),%xmm2
  404485:	c4 a1 62 58 1c 91    	vaddss (%rcx,%r10,4),%xmm3,%xmm3
  40448b:	44 8b 54 24 88       	mov    -0x78(%rsp),%r10d
  404490:	c4 a1 6a 58 14 89    	vaddss (%rcx,%r9,4),%xmm2,%xmm2
  404496:	45 8d 0c 30          	lea    (%r8,%rsi,1),%r9d
  40449a:	c4 a1 72 59 24 89    	vmulss (%rcx,%r9,4),%xmm1,%xmm4
  4044a0:	4c 8b 4c 24 b8       	mov    -0x48(%rsp),%r9
  4044a5:	44 01 d6             	add    %r10d,%esi
  4044a8:	4d 8d 44 11 08       	lea    0x8(%r9,%rdx,1),%r8
  4044ad:	48 83 c2 08          	add    $0x8,%rdx
  4044b1:	c5 e2 58 d2          	vaddss %xmm2,%xmm3,%xmm2
  4044b5:	c4 e2 71 b9 e2       	vfmadd231ss %xmm2,%xmm1,%xmm4
  4044ba:	c5 fa 11 24 b9       	vmovss %xmm4,(%rcx,%rdi,4)
  4044bf:	49 83 f8 01          	cmp    $0x1,%r8
  4044c3:	0f 85 f7 fd ff ff    	jne    4042c0 <project+0xfd0>
  4044c9:	49 89 e8             	mov    %rbp,%r8
  4044cc:	f6 44 24 f8 07       	testb  $0x7,-0x8(%rsp)
  4044d1:	4c 8b 4c 24 b0       	mov    -0x50(%rsp),%r9
  4044d6:	48 8b 6c 24 20       	mov    0x20(%rsp),%rbp
  4044db:	45 89 d7             	mov    %r10d,%r15d
  4044de:	74 7e                	je     40455e <project+0x126e>
  4044e0:	8b 44 24 e8          	mov    -0x18(%rsp),%eax
  4044e4:	8d 72 01             	lea    0x1(%rdx),%esi
  4044e7:	44 8d 52 ff          	lea    -0x1(%rdx),%r10d
  4044eb:	48 8b 7c 24 28       	mov    0x28(%rsp),%rdi
  4044f0:	41 0f af d1          	imul   %r9d,%edx
  4044f4:	41 0f af f1          	imul   %r9d,%esi
  4044f8:	45 0f af d1          	imul   %r9d,%r10d
  4044fc:	01 c6                	add    %eax,%esi
  4044fe:	41 01 c2             	add    %eax,%r10d
  404501:	01 c2                	add    %eax,%edx
  404503:	66 66 66 66 2e 0f 1f 	data16 data16 data16 cs nopw 0x0(%rax,%rax,1)
  40450a:	84 00 00 00 00 00 
  404510:	41 89 d1             	mov    %edx,%r9d
  404513:	44 8d 5a ff          	lea    -0x1(%rdx),%r11d
  404517:	c4 81 7a 10 14 88    	vmovss (%r8,%r9,4),%xmm2
  40451d:	8d 5a 01             	lea    0x1(%rdx),%ebx
  404520:	45 89 d6             	mov    %r10d,%r14d
  404523:	41 89 f5             	mov    %esi,%r13d
  404526:	c4 a1 6a 58 14 99    	vaddss (%rcx,%r11,4),%xmm2,%xmm2
  40452c:	c5 fa 10 1c 99       	vmovss (%rcx,%rbx,4),%xmm3
  404531:	c4 a1 62 58 1c b1    	vaddss (%rcx,%r14,4),%xmm3,%xmm3
  404537:	c4 a1 6a 58 14 a9    	vaddss (%rcx,%r13,4),%xmm2,%xmm2
  40453d:	c5 ea 58 d3          	vaddss %xmm3,%xmm2,%xmm2
  404541:	c5 ea 59 d1          	vmulss %xmm1,%xmm2,%xmm2
  404545:	c4 a1 7a 11 14 89    	vmovss %xmm2,(%rcx,%r9,4)
  40454b:	4c 8b 4c 24 b0       	mov    -0x50(%rsp),%r9
  404550:	44 01 ce             	add    %r9d,%esi
  404553:	45 01 ca             	add    %r9d,%r10d
  404556:	44 01 ca             	add    %r9d,%edx
  404559:	48 ff c7             	inc    %rdi
  40455c:	75 b2                	jne    404510 <project+0x1220>
  40455e:	48 83 7c 24 f0 07    	cmpq   $0x7,-0x10(%rsp)
  404564:	4c 8b 74 24 d0       	mov    -0x30(%rsp),%r14
  404569:	4c 8b 6c 24 80       	mov    -0x80(%rsp),%r13
  40456e:	4c 8b 5c 24 48       	mov    0x48(%rsp),%r11
  404573:	be 01 00 00 00       	mov    $0x1,%esi
  404578:	0f 82 f1 02 00 00    	jb     40486f <project+0x157f>
  40457e:	4c 8b 6c 24 70       	mov    0x70(%rsp),%r13
  404583:	4c 8b 74 24 68       	mov    0x68(%rsp),%r14
  404588:	4c 8b 7c 24 a8       	mov    -0x58(%rsp),%r15
  40458d:	48 8b 5c 24 a0       	mov    -0x60(%rsp),%rbx
  404592:	4c 8b 64 24 60       	mov    0x60(%rsp),%r12
  404597:	48 8b 44 24 10       	mov    0x10(%rsp),%rax
  40459c:	31 d2                	xor    %edx,%edx
  40459e:	31 f6                	xor    %esi,%esi
  4045a0:	4c 8b 44 24 80       	mov    -0x80(%rsp),%r8
  4045a5:	45 8d 54 14 02       	lea    0x2(%r12,%rdx,1),%r10d
  4045aa:	45 8d 5c 14 03       	lea    0x3(%r12,%rdx,1),%r11d
  4045af:	45 8d 4c 10 03       	lea    0x3(%r8,%rdx,1),%r9d
  4045b4:	41 8d 7c 10 02       	lea    0x2(%r8,%rdx,1),%edi
  4045b9:	4c 8b 44 24 a0       	mov    -0x60(%rsp),%r8
  4045be:	c4 a1 7a 10 14 89    	vmovss (%rcx,%r9,4),%xmm2
  4045c4:	44 8d 4c 35 03       	lea    0x3(%rbp,%rsi,1),%r9d
  4045c9:	c5 fa 11 14 b9       	vmovss %xmm2,(%rcx,%rdi,4)
  4045ce:	41 8d 7c 35 01       	lea    0x1(%r13,%rsi,1),%edi
  4045d3:	c4 a1 7a 10 14 91    	vmovss (%rcx,%r10,4),%xmm2
  4045d9:	45 8d 54 14 05       	lea    0x5(%r12,%rdx,1),%r10d
  4045de:	c4 a1 7a 11 14 99    	vmovss %xmm2,(%rcx,%r11,4)
  4045e4:	44 8d 5c 13 04       	lea    0x4(%rbx,%rdx,1),%r11d
  4045e9:	41 8d 5c 10 05       	lea    0x5(%r8,%rdx,1),%ebx
  4045ee:	4c 8b 44 24 90       	mov    -0x70(%rsp),%r8
  4045f3:	c4 a1 7a 10 14 89    	vmovss (%rcx,%r9,4),%xmm2
  4045f9:	45 8d 4c 14 04       	lea    0x4(%r12,%rdx,1),%r9d
  4045fe:	c5 fa 11 54 b1 04    	vmovss %xmm2,0x4(%rcx,%rsi,4)
  404604:	c5 fa 10 14 b9       	vmovss (%rcx,%rdi,4),%xmm2
  404609:	41 8d 7c 36 01       	lea    0x1(%r14,%rsi,1),%edi
  40460e:	c5 fa 11 14 b9       	vmovss %xmm2,(%rcx,%rdi,4)
  404613:	8d 7c 35 04          	lea    0x4(%rbp,%rsi,1),%edi
  404617:	c4 a1 7a 10 14 91    	vmovss (%rcx,%r10,4),%xmm2
  40461d:	c4 a1 7a 11 14 89    	vmovss %xmm2,(%rcx,%r9,4)
  404623:	c4 a1 7a 10 14 99    	vmovss (%rcx,%r11,4),%xmm2
  404629:	45 8d 5c 10 07       	lea    0x7(%r8,%rdx,1),%r11d
  40462e:	c5 fa 11 14 99       	vmovss %xmm2,(%rcx,%rbx,4)
  404633:	48 8b 5c 24 a0       	mov    -0x60(%rsp),%rbx
  404638:	c5 fa 10 14 b9       	vmovss (%rcx,%rdi,4),%xmm2
  40463d:	41 8d 7c 35 02       	lea    0x2(%r13,%rsi,1),%edi
  404642:	44 8d 54 13 07       	lea    0x7(%rbx,%rdx,1),%r10d
  404647:	44 8d 4c 13 06       	lea    0x6(%rbx,%rdx,1),%r9d
  40464c:	c5 fa 11 54 b1 08    	vmovss %xmm2,0x8(%rcx,%rsi,4)
  404652:	c5 fa 10 14 b9       	vmovss (%rcx,%rdi,4),%xmm2
  404657:	41 8d 7c 36 02       	lea    0x2(%r14,%rsi,1),%edi
  40465c:	c5 fa 11 14 b9       	vmovss %xmm2,(%rcx,%rdi,4)
  404661:	41 8d 7c 10 06       	lea    0x6(%r8,%rdx,1),%edi
  404666:	c4 a1 7a 10 14 91    	vmovss (%rcx,%r10,4),%xmm2
  40466c:	44 8d 54 35 05       	lea    0x5(%rbp,%rsi,1),%r10d
  404671:	c4 a1 7a 11 14 89    	vmovss %xmm2,(%rcx,%r9,4)
  404677:	45 8d 4c 10 08       	lea    0x8(%r8,%rdx,1),%r9d
  40467c:	c5 fa 10 14 b9       	vmovss (%rcx,%rdi,4),%xmm2
  404681:	41 8d 7c 35 03       	lea    0x3(%r13,%rsi,1),%edi
  404686:	c4 a1 7a 11 14 99    	vmovss %xmm2,(%rcx,%r11,4)
  40468c:	44 8d 5c 10 08       	lea    0x8(%rax,%rdx,1),%r11d
  404691:	c4 a1 7a 10 14 91    	vmovss (%rcx,%r10,4),%xmm2
  404697:	45 8d 54 10 09       	lea    0x9(%r8,%rdx,1),%r10d
  40469c:	4c 8b 44 24 98       	mov    -0x68(%rsp),%r8
  4046a1:	c5 fa 11 54 b1 0c    	vmovss %xmm2,0xc(%rcx,%rsi,4)
  4046a7:	c5 fa 10 14 b9       	vmovss (%rcx,%rdi,4),%xmm2
  4046ac:	41 8d 7c 36 03       	lea    0x3(%r14,%rsi,1),%edi
  4046b1:	c5 fa 11 14 b9       	vmovss %xmm2,(%rcx,%rdi,4)
  4046b6:	8d 7c 10 09          	lea    0x9(%rax,%rdx,1),%edi
  4046ba:	c4 a1 7a 10 14 91    	vmovss (%rcx,%r10,4),%xmm2
  4046c0:	44 8d 54 35 06       	lea    0x6(%rbp,%rsi,1),%r10d
  4046c5:	c4 a1 7a 11 14 89    	vmovss %xmm2,(%rcx,%r9,4)
  4046cb:	44 8d 4c 10 0a       	lea    0xa(%rax,%rdx,1),%r9d
  4046d0:	c4 a1 7a 10 14 99    	vmovss (%rcx,%r11,4),%xmm2
  4046d6:	c5 fa 11 14 b9       	vmovss %xmm2,(%rcx,%rdi,4)
  4046db:	41 8d 7c 35 04       	lea    0x4(%r13,%rsi,1),%edi
  4046e0:	c4 a1 7a 10 14 91    	vmovss (%rcx,%r10,4),%xmm2
  4046e6:	45 8d 54 17 0a       	lea    0xa(%r15,%rdx,1),%r10d
  4046eb:	c5 fa 11 54 b1 10    	vmovss %xmm2,0x10(%rcx,%rsi,4)
  4046f1:	c5 fa 10 14 b9       	vmovss (%rcx,%rdi,4),%xmm2
  4046f6:	41 8d 7c 36 04       	lea    0x4(%r14,%rsi,1),%edi
  4046fb:	c5 fa 11 14 b9       	vmovss %xmm2,(%rcx,%rdi,4)
  404700:	8d 7c 10 0b          	lea    0xb(%rax,%rdx,1),%edi
  404704:	c5 fa 10 14 b9       	vmovss (%rcx,%rdi,4),%xmm2
  404709:	41 8d 7c 17 0b       	lea    0xb(%r15,%rdx,1),%edi
  40470e:	c4 a1 7a 11 14 89    	vmovss %xmm2,(%rcx,%r9,4)
  404714:	44 8d 4c 35 07       	lea    0x7(%rbp,%rsi,1),%r9d
  404719:	c4 a1 7a 10 14 91    	vmovss (%rcx,%r10,4),%xmm2
  40471f:	45 8d 54 17 0d       	lea    0xd(%r15,%rdx,1),%r10d
  404724:	c5 fa 11 14 b9       	vmovss %xmm2,(%rcx,%rdi,4)
  404729:	41 8d 7c 35 05       	lea    0x5(%r13,%rsi,1),%edi
  40472e:	c4 a1 7a 10 14 89    	vmovss (%rcx,%r9,4),%xmm2
  404734:	45 8d 4c 17 0c       	lea    0xc(%r15,%rdx,1),%r9d
  404739:	c5 fa 11 54 b1 14    	vmovss %xmm2,0x14(%rcx,%rsi,4)
  40473f:	c5 fa 10 14 b9       	vmovss (%rcx,%rdi,4),%xmm2
  404744:	41 8d 7c 36 05       	lea    0x5(%r14,%rsi,1),%edi
  404749:	c5 fa 11 14 b9       	vmovss %xmm2,(%rcx,%rdi,4)
  40474e:	41 8d 7c 10 0c       	lea    0xc(%r8,%rdx,1),%edi
  404753:	c4 a1 7a 10 14 91    	vmovss (%rcx,%r10,4),%xmm2
  404759:	45 8d 54 10 0d       	lea    0xd(%r8,%rdx,1),%r10d
  40475e:	c4 a1 7a 11 14 89    	vmovss %xmm2,(%rcx,%r9,4)
  404764:	45 8d 4c 10 0f       	lea    0xf(%r8,%rdx,1),%r9d
  404769:	c5 fa 10 14 b9       	vmovss (%rcx,%rdi,4),%xmm2
  40476e:	8d 7c 35 08          	lea    0x8(%rbp,%rsi,1),%edi
  404772:	c4 a1 7a 11 14 91    	vmovss %xmm2,(%rcx,%r10,4)
  404778:	c5 fa 10 14 b9       	vmovss (%rcx,%rdi,4),%xmm2
  40477d:	41 8d 7c 35 06       	lea    0x6(%r13,%rsi,1),%edi
  404782:	c5 fa 11 54 b1 18    	vmovss %xmm2,0x18(%rcx,%rsi,4)
  404788:	c5 fa 10 14 b9       	vmovss (%rcx,%rdi,4),%xmm2
  40478d:	41 8d 7c 36 06       	lea    0x6(%r14,%rsi,1),%edi
  404792:	c5 fa 11 14 b9       	vmovss %xmm2,(%rcx,%rdi,4)
  404797:	41 8d 7c 10 0e       	lea    0xe(%r8,%rdx,1),%edi
  40479c:	4c 8b 44 24 c8       	mov    -0x38(%rsp),%r8
  4047a1:	c4 a1 7a 10 14 89    	vmovss (%rcx,%r9,4),%xmm2
  4047a7:	45 8d 4c 10 0e       	lea    0xe(%r8,%rdx,1),%r9d
  4047ac:	c5 fa 11 14 b9       	vmovss %xmm2,(%rcx,%rdi,4)
  4047b1:	41 8d 7c 10 0f       	lea    0xf(%r8,%rdx,1),%edi
  4047b6:	c4 a1 7a 10 14 89    	vmovss (%rcx,%r9,4),%xmm2
  4047bc:	44 8d 4c 35 09       	lea    0x9(%rbp,%rsi,1),%r9d
  4047c1:	c5 fa 11 14 b9       	vmovss %xmm2,(%rcx,%rdi,4)
  4047c6:	41 8d 7c 35 07       	lea    0x7(%r13,%rsi,1),%edi
  4047cb:	c4 a1 7a 10 14 89    	vmovss (%rcx,%r9,4),%xmm2
  4047d1:	45 8d 4c 10 10       	lea    0x10(%r8,%rdx,1),%r9d
  4047d6:	c5 fa 11 54 b1 1c    	vmovss %xmm2,0x1c(%rcx,%rsi,4)
  4047dc:	c5 fa 10 14 b9       	vmovss (%rcx,%rdi,4),%xmm2
  4047e1:	41 8d 7c 36 07       	lea    0x7(%r14,%rsi,1),%edi
  4047e6:	c5 fa 11 14 b9       	vmovss %xmm2,(%rcx,%rdi,4)
  4047eb:	41 8d 7c 10 11       	lea    0x11(%r8,%rdx,1),%edi
  4047f0:	4c 8b 84 24 c0 00 00 	mov    0xc0(%rsp),%r8
  4047f7:	00 
  4047f8:	c5 fa 10 14 b9       	vmovss (%rcx,%rdi,4),%xmm2
  4047fd:	41 8d 7c 10 10       	lea    0x10(%r8,%rdx,1),%edi
  404802:	c4 a1 7a 11 14 89    	vmovss %xmm2,(%rcx,%r9,4)
  404808:	45 8d 4c 10 11       	lea    0x11(%r8,%rdx,1),%r9d
  40480d:	03 54 24 88          	add    -0x78(%rsp),%edx
  404811:	c5 fa 10 14 b9       	vmovss (%rcx,%rdi,4),%xmm2
  404816:	8d 7c 35 0a          	lea    0xa(%rbp,%rsi,1),%edi
  40481a:	c4 a1 7a 11 14 89    	vmovss %xmm2,(%rcx,%r9,4)
  404820:	c5 fa 10 14 b9       	vmovss (%rcx,%rdi,4),%xmm2
  404825:	41 8d 7c 35 08       	lea    0x8(%r13,%rsi,1),%edi
  40482a:	c5 fa 11 54 b1 20    	vmovss %xmm2,0x20(%rcx,%rsi,4)
  404830:	c5 fa 10 14 b9       	vmovss (%rcx,%rdi,4),%xmm2
  404835:	41 8d 7c 36 08       	lea    0x8(%r14,%rsi,1),%edi
  40483a:	48 83 c6 08          	add    $0x8,%rsi
  40483e:	c5 fa 11 14 b9       	vmovss %xmm2,(%rcx,%rdi,4)
  404843:	48 39 74 24 58       	cmp    %rsi,0x58(%rsp)
  404848:	0f 85 52 fd ff ff    	jne    4045a0 <project+0x12b0>
  40484e:	4c 8b 4c 24 b0       	mov    -0x50(%rsp),%r9
  404853:	4c 8b 6c 24 80       	mov    -0x80(%rsp),%r13
  404858:	4c 8b 74 24 d0       	mov    -0x30(%rsp),%r14
  40485d:	4c 8b 5c 24 48       	mov    0x48(%rsp),%r11
  404862:	4c 8b 44 24 78       	mov    0x78(%rsp),%r8
  404867:	44 8b 7c 24 88       	mov    -0x78(%rsp),%r15d
  40486c:	48 ff c6             	inc    %rsi
  40486f:	f6 44 24 f8 07       	testb  $0x7,-0x8(%rsp)
  404874:	48 8b 5c 24 18       	mov    0x18(%rsp),%rbx
  404879:	0f 84 41 f9 ff ff    	je     4041c0 <project+0xed0>
  40487f:	48 8b 44 24 68       	mov    0x68(%rsp),%rax
  404884:	48 8d 14 b1          	lea    (%rcx,%rsi,4),%rdx
  404888:	48 8b 7c 24 70       	mov    0x70(%rsp),%rdi
  40488d:	45 31 d2             	xor    %r10d,%r10d
  404890:	48 89 54 24 c0       	mov    %rdx,-0x40(%rsp)
  404895:	8d 14 30             	lea    (%rax,%rsi,1),%edx
  404898:	48 8b 84 24 80 00 00 	mov    0x80(%rsp),%rax
  40489f:	00 
  4048a0:	48 89 54 24 e8       	mov    %rdx,-0x18(%rsp)
  4048a5:	8d 14 37             	lea    (%rdi,%rsi,1),%edx
  4048a8:	48 89 54 24 08       	mov    %rdx,0x8(%rsp)
  4048ad:	8d 14 30             	lea    (%rax,%rsi,1),%edx
  4048b0:	41 0f af f1          	imul   %r9d,%esi
  4048b4:	48 89 14 24          	mov    %rdx,(%rsp)
  4048b8:	41 8d 54 35 00       	lea    0x0(%r13,%rsi,1),%edx
  4048bd:	0f 1f 00             	nopl   (%rax)
  4048c0:	8d 7e 01             	lea    0x1(%rsi),%edi
  4048c3:	4c 8b 24 24          	mov    (%rsp),%r12
  4048c7:	48 8b 44 24 08       	mov    0x8(%rsp),%rax
  4048cc:	c5 fa 10 14 b9       	vmovss (%rcx,%rdi,4),%xmm2
  4048d1:	89 f7                	mov    %esi,%edi
  4048d3:	44 01 ce             	add    %r9d,%esi
  4048d6:	c5 fa 11 14 b9       	vmovss %xmm2,(%rcx,%rdi,4)
  4048db:	89 d7                	mov    %edx,%edi
  4048dd:	c5 fa 10 14 b9       	vmovss (%rcx,%rdi,4),%xmm2
  4048e2:	8d 7a 01             	lea    0x1(%rdx),%edi
  4048e5:	44 01 ca             	add    %r9d,%edx
  4048e8:	c5 fa 11 14 b9       	vmovss %xmm2,(%rcx,%rdi,4)
  4048ed:	43 8d 3c 14          	lea    (%r12,%r10,1),%edi
  4048f1:	c5 fa 10 14 b9       	vmovss (%rcx,%rdi,4),%xmm2
  4048f6:	48 8b 7c 24 c0       	mov    -0x40(%rsp),%rdi
  4048fb:	c4 a1 7a 11 14 97    	vmovss %xmm2,(%rdi,%r10,4)
  404901:	42 8d 3c 10          	lea    (%rax,%r10,1),%edi
  404905:	c5 fa 10 14 b9       	vmovss (%rcx,%rdi,4),%xmm2
  40490a:	48 8b 7c 24 e8       	mov    -0x18(%rsp),%rdi
  40490f:	44 01 d7             	add    %r10d,%edi
  404912:	49 ff c2             	inc    %r10
  404915:	c5 fa 11 14 b9       	vmovss %xmm2,(%rcx,%rdi,4)
  40491a:	4d 39 d3             	cmp    %r10,%r11
  40491d:	75 a1                	jne    4048c0 <project+0x15d0>
  40491f:	e9 9c f8 ff ff       	jmp    4041c0 <project+0xed0>
  404924:	66 66 66 2e 0f 1f 84 	data16 data16 cs nopw 0x0(%rax,%rax,1)
  40492b:	00 00 00 00 00 
  404930:	c7 44 24 c0 00 00 00 	movl   $0x0,-0x40(%rsp)
  404937:	00 
  404938:	c7 44 24 e8 01 00 00 	movl   $0x1,-0x18(%rsp)
  40493f:	00 
  404940:	eb 28                	jmp    40496a <project+0x167a>
  404942:	66 66 66 66 66 2e 0f 	data16 data16 data16 data16 cs nopw 0x0(%rax,%rax,1)
  404949:	1f 84 00 00 00 00 00 
  404950:	8b 44 24 c0          	mov    -0x40(%rsp),%eax
  404954:	83 44 24 e8 02       	addl   $0x2,-0x18(%rsp)
  404959:	83 c0 02             	add    $0x2,%eax
  40495c:	89 44 24 c0          	mov    %eax,-0x40(%rsp)
  404960:	3b 44 24 40          	cmp    0x40(%rsp),%eax
  404964:	0f 84 08 f9 ff ff    	je     404272 <project+0xf82>
  40496a:	4c 89 e0             	mov    %r12,%rax
  40496d:	48 83 7c 24 f0 07    	cmpq   $0x7,-0x10(%rsp)
  404973:	4c 8b 54 24 80       	mov    -0x80(%rsp),%r10
  404978:	48 8b 5c 24 c8       	mov    -0x38(%rsp),%rbx
  40497d:	48 8b 6c 24 98       	mov    -0x68(%rsp),%rbp
  404982:	4c 8b 64 24 a8       	mov    -0x58(%rsp),%r12
  404987:	4c 8b 74 24 10       	mov    0x10(%rsp),%r14
  40498c:	ba 01 00 00 00       	mov    $0x1,%edx
  404991:	0f 82 10 02 00 00    	jb     404ba7 <project+0x18b7>
  404997:	8b 74 24 c0          	mov    -0x40(%rsp),%esi
  40499b:	0f 1f 44 00 00       	nopl   0x0(%rax,%rax,1)
  4049a0:	4c 8b 5c 24 80       	mov    -0x80(%rsp),%r11
  4049a5:	41 8d 7c 32 03       	lea    0x3(%r10,%rsi,1),%edi
  4049aa:	45 8d 4c 32 02       	lea    0x2(%r10,%rsi,1),%r9d
  4049af:	4d 89 e7             	mov    %r12,%r15
  4049b2:	49 89 ec             	mov    %rbp,%r12
  4049b5:	48 89 dd             	mov    %rbx,%rbp
  4049b8:	8d 5c 30 05          	lea    0x5(%rax,%rsi,1),%ebx
  4049bc:	4d 89 f5             	mov    %r14,%r13
  4049bf:	49 89 c6             	mov    %rax,%r14
  4049c2:	c4 c1 7a 10 14 b8    	vmovss (%r8,%rdi,4),%xmm2
  4049c8:	c4 a1 6a 58 14 89    	vaddss (%rcx,%r9,4),%xmm2,%xmm2
  4049ce:	44 8d 4c 30 04       	lea    0x4(%rax,%rsi,1),%r9d
  4049d3:	45 8d 54 33 04       	lea    0x4(%r11,%rsi,1),%r10d
  4049d8:	41 89 f3             	mov    %esi,%r11d
  4049db:	c4 a1 7a 10 1c 91    	vmovss (%rcx,%r10,4),%xmm3
  4049e1:	44 8d 54 30 06       	lea    0x6(%rax,%rsi,1),%r10d
  4049e6:	48 8b 44 24 a0       	mov    -0x60(%rsp),%rax
  4049eb:	c4 a1 62 58 5c 99 04 	vaddss 0x4(%rcx,%r11,4),%xmm3,%xmm3
  4049f2:	44 8d 5c 30 07       	lea    0x7(%rax,%rsi,1),%r11d
  4049f7:	c5 e2 58 d2          	vaddss %xmm2,%xmm3,%xmm2
  4049fb:	c5 f2 59 1c 99       	vmulss (%rcx,%rbx,4),%xmm1,%xmm3
  404a00:	c4 e2 71 b9 da       	vfmadd231ss %xmm2,%xmm1,%xmm3
  404a05:	c5 fa 11 1c b9       	vmovss %xmm3,(%rcx,%rdi,4)
  404a0a:	8d 7c 30 06          	lea    0x6(%rax,%rsi,1),%edi
  404a0e:	c4 c1 7a 10 14 98    	vmovss (%r8,%rbx,4),%xmm2
  404a14:	c4 a1 62 58 1c 91    	vaddss (%rcx,%r10,4),%xmm3,%xmm3
  404a1a:	c4 a1 72 59 24 99    	vmulss (%rcx,%r11,4),%xmm1,%xmm4
  404a20:	c4 a1 6a 58 14 89    	vaddss (%rcx,%r9,4),%xmm2,%xmm2
  404a26:	44 8d 4c 30 08       	lea    0x8(%rax,%rsi,1),%r9d
  404a2b:	4c 89 f0             	mov    %r14,%rax
  404a2e:	4d 89 ee             	mov    %r13,%r14
  404a31:	4c 8b 6c 24 90       	mov    -0x70(%rsp),%r13
  404a36:	45 8d 54 35 09       	lea    0x9(%r13,%rsi,1),%r10d
  404a3b:	c5 e2 58 d2          	vaddss %xmm2,%xmm3,%xmm2
  404a3f:	c4 e2 71 b9 e2       	vfmadd231ss %xmm2,%xmm1,%xmm4
  404a44:	c5 fa 11 24 99       	vmovss %xmm4,(%rcx,%rbx,4)
  404a49:	48 89 eb             	mov    %rbp,%rbx
  404a4c:	4c 89 e5             	mov    %r12,%rbp
  404a4f:	4d 89 fc             	mov    %r15,%r12
  404a52:	c4 81 7a 10 14 98    	vmovss (%r8,%r11,4),%xmm2
  404a58:	c4 a1 5a 58 1c 89    	vaddss (%rcx,%r9,4),%xmm4,%xmm3
  404a5e:	45 8d 4c 35 0a       	lea    0xa(%r13,%rsi,1),%r9d
  404a63:	c5 ea 58 14 b9       	vaddss (%rcx,%rdi,4),%xmm2,%xmm2
  404a68:	41 8d 7c 35 08       	lea    0x8(%r13,%rsi,1),%edi
  404a6d:	4c 8b 6c 24 d8       	mov    -0x28(%rsp),%r13
  404a72:	c5 e2 58 d2          	vaddss %xmm2,%xmm3,%xmm2
  404a76:	c4 a1 72 59 1c 91    	vmulss (%rcx,%r10,4),%xmm1,%xmm3
  404a7c:	c4 e2 71 b9 da       	vfmadd231ss %xmm2,%xmm1,%xmm3
  404a81:	c4 a1 7a 11 1c 99    	vmovss %xmm3,(%rcx,%r11,4)
  404a87:	44 8d 5c 35 0f       	lea    0xf(%rbp,%rsi,1),%r11d
  404a8c:	c4 81 7a 10 14 90    	vmovss (%r8,%r10,4),%xmm2
  404a92:	c4 a1 62 58 1c 89    	vaddss (%rcx,%r9,4),%xmm3,%xmm3
  404a98:	45 8d 4c 36 0a       	lea    0xa(%r14,%rsi,1),%r9d
  404a9d:	c5 ea 58 14 b9       	vaddss (%rcx,%rdi,4),%xmm2,%xmm2
  404aa2:	41 8d 7c 36 0b       	lea    0xb(%r14,%rsi,1),%edi
  404aa7:	c5 e2 58 d2          	vaddss %xmm2,%xmm3,%xmm2
  404aab:	c5 f2 59 1c b9       	vmulss (%rcx,%rdi,4),%xmm1,%xmm3
  404ab0:	c4 e2 71 b9 da       	vfmadd231ss %xmm2,%xmm1,%xmm3
  404ab5:	c4 a1 7a 11 1c 91    	vmovss %xmm3,(%rcx,%r10,4)
  404abb:	45 8d 54 36 0c       	lea    0xc(%r14,%rsi,1),%r10d
  404ac0:	c4 c1 7a 10 14 b8    	vmovss (%r8,%rdi,4),%xmm2
  404ac6:	c4 a1 6a 58 14 89    	vaddss (%rcx,%r9,4),%xmm2,%xmm2
  404acc:	c4 a1 62 58 1c 91    	vaddss (%rcx,%r10,4),%xmm3,%xmm3
  404ad2:	45 8d 4c 37 0d       	lea    0xd(%r15,%rsi,1),%r9d
  404ad7:	45 8d 54 37 0c       	lea    0xc(%r15,%rsi,1),%r10d
  404adc:	c5 e2 58 d2          	vaddss %xmm2,%xmm3,%xmm2
  404ae0:	c4 a1 72 59 1c 89    	vmulss (%rcx,%r9,4),%xmm1,%xmm3
  404ae6:	c4 e2 71 b9 da       	vfmadd231ss %xmm2,%xmm1,%xmm3
  404aeb:	c5 fa 11 1c b9       	vmovss %xmm3,(%rcx,%rdi,4)
  404af0:	41 8d 7c 37 0e       	lea    0xe(%r15,%rsi,1),%edi
  404af5:	44 8b 7c 24 88       	mov    -0x78(%rsp),%r15d
  404afa:	c4 81 7a 10 14 88    	vmovss (%r8,%r9,4),%xmm2
  404b00:	c4 a1 6a 58 14 91    	vaddss (%rcx,%r10,4),%xmm2,%xmm2
  404b06:	c5 e2 58 1c b9       	vaddss (%rcx,%rdi,4),%xmm3,%xmm3
  404b0b:	8d 7c 35 0e          	lea    0xe(%rbp,%rsi,1),%edi
  404b0f:	44 8d 54 33 12       	lea    0x12(%rbx,%rsi,1),%r10d
  404b14:	c5 e2 58 d2          	vaddss %xmm2,%xmm3,%xmm2
  404b18:	c4 a1 72 59 1c 99    	vmulss (%rcx,%r11,4),%xmm1,%xmm3
  404b1e:	c4 e2 71 b9 da       	vfmadd231ss %xmm2,%xmm1,%xmm3
  404b23:	c4 a1 7a 11 1c 89    	vmovss %xmm3,(%rcx,%r9,4)
  404b29:	44 8d 4c 35 10       	lea    0x10(%rbp,%rsi,1),%r9d
  404b2e:	c4 81 7a 10 14 98    	vmovss (%r8,%r11,4),%xmm2
  404b34:	c5 ea 58 14 b9       	vaddss (%rcx,%rdi,4),%xmm2,%xmm2
  404b39:	c4 a1 62 58 1c 89    	vaddss (%rcx,%r9,4),%xmm3,%xmm3
  404b3f:	8d 7c 33 11          	lea    0x11(%rbx,%rsi,1),%edi
  404b43:	44 8d 4c 33 10       	lea    0x10(%rbx,%rsi,1),%r9d
  404b48:	c5 e2 58 d2          	vaddss %xmm2,%xmm3,%xmm2
  404b4c:	c5 f2 59 1c b9       	vmulss (%rcx,%rdi,4),%xmm1,%xmm3
  404b51:	c4 e2 71 b9 da       	vfmadd231ss %xmm2,%xmm1,%xmm3
  404b56:	c4 a1 7a 11 1c 99    	vmovss %xmm3,(%rcx,%r11,4)
  404b5c:	c4 c1 7a 10 14 b8    	vmovss (%r8,%rdi,4),%xmm2
  404b62:	c4 a1 62 58 1c 91    	vaddss (%rcx,%r10,4),%xmm3,%xmm3
  404b68:	4c 8b 54 24 80       	mov    -0x80(%rsp),%r10
  404b6d:	c4 a1 6a 58 14 89    	vaddss (%rcx,%r9,4),%xmm2,%xmm2
  404b73:	45 8d 4c 35 00       	lea    0x0(%r13,%rsi,1),%r9d
  404b78:	44 01 fe             	add    %r15d,%esi
  404b7b:	c4 a1 72 59 24 89    	vmulss (%rcx,%r9,4),%xmm1,%xmm4
  404b81:	4c 8b 4c 24 b8       	mov    -0x48(%rsp),%r9
  404b86:	4d 8d 4c 11 08       	lea    0x8(%r9,%rdx,1),%r9
  404b8b:	48 83 c2 08          	add    $0x8,%rdx
  404b8f:	c5 e2 58 d2          	vaddss %xmm2,%xmm3,%xmm2
  404b93:	c4 e2 71 b9 e2       	vfmadd231ss %xmm2,%xmm1,%xmm4
  404b98:	c5 fa 11 24 b9       	vmovss %xmm4,(%rcx,%rdi,4)
  404b9d:	49 83 f9 01          	cmp    $0x1,%r9
  404ba1:	0f 85 f9 fd ff ff    	jne    4049a0 <project+0x16b0>
  404ba7:	48 83 7c 24 48 00    	cmpq   $0x0,0x48(%rsp)
  404bad:	4c 8b 4c 24 b0       	mov    -0x50(%rsp),%r9
  404bb2:	49 89 c4             	mov    %rax,%r12
  404bb5:	74 70                	je     404c27 <project+0x1937>
  404bb7:	8b 44 24 e8          	mov    -0x18(%rsp),%eax
  404bbb:	8d 72 01             	lea    0x1(%rdx),%esi
  404bbe:	44 8d 52 ff          	lea    -0x1(%rdx),%r10d
  404bc2:	41 0f af d1          	imul   %r9d,%edx
  404bc6:	03 54 24 c0          	add    -0x40(%rsp),%edx
  404bca:	48 8b 7c 24 28       	mov    0x28(%rsp),%rdi
  404bcf:	41 0f af f1          	imul   %r9d,%esi
  404bd3:	45 0f af d1          	imul   %r9d,%r10d
  404bd7:	01 c6                	add    %eax,%esi
  404bd9:	41 01 c2             	add    %eax,%r10d
  404bdc:	0f 1f 40 00          	nopl   0x0(%rax)
  404be0:	8d 6a 01             	lea    0x1(%rdx),%ebp
  404be3:	89 d3                	mov    %edx,%ebx
  404be5:	44 8d 6a 02          	lea    0x2(%rdx),%r13d
  404be9:	45 89 d6             	mov    %r10d,%r14d
  404bec:	41 89 f3             	mov    %esi,%r11d
  404bef:	44 01 ce             	add    %r9d,%esi
  404bf2:	45 01 ca             	add    %r9d,%r10d
  404bf5:	44 01 ca             	add    %r9d,%edx
  404bf8:	48 ff c7             	inc    %rdi
  404bfb:	c4 c1 7a 10 14 a8    	vmovss (%r8,%rbp,4),%xmm2
  404c01:	c4 a1 7a 10 1c a9    	vmovss (%rcx,%r13,4),%xmm3
  404c07:	c5 ea 58 14 99       	vaddss (%rcx,%rbx,4),%xmm2,%xmm2
  404c0c:	c4 a1 62 58 1c b1    	vaddss (%rcx,%r14,4),%xmm3,%xmm3
  404c12:	c4 a1 6a 58 14 99    	vaddss (%rcx,%r11,4),%xmm2,%xmm2
  404c18:	c5 ea 58 d3          	vaddss %xmm3,%xmm2,%xmm2
  404c1c:	c5 ea 59 d1          	vmulss %xmm1,%xmm2,%xmm2
  404c20:	c5 fa 11 14 a9       	vmovss %xmm2,(%rcx,%rbp,4)
  404c25:	75 b9                	jne    404be0 <project+0x18f0>
  404c27:	48 83 7c 24 f0 07    	cmpq   $0x7,-0x10(%rsp)
  404c2d:	48 8b 6c 24 80       	mov    -0x80(%rsp),%rbp
  404c32:	4c 8b 74 24 c8       	mov    -0x38(%rsp),%r14
  404c37:	4c 8b 6c 24 10       	mov    0x10(%rsp),%r13
  404c3c:	48 8b 44 24 90       	mov    -0x70(%rsp),%rax
  404c41:	4c 8b 4c 24 a0       	mov    -0x60(%rsp),%r9
  404c46:	ba 01 00 00 00       	mov    $0x1,%edx
  404c4b:	45 89 fb             	mov    %r15d,%r11d
  404c4e:	0f 82 ed 01 00 00    	jb     404e41 <project+0x1b51>
  404c54:	8b 74 24 c0          	mov    -0x40(%rsp),%esi
  404c58:	0f 1f 84 00 00 00 00 	nopl   0x0(%rax,%rax,1)
  404c5f:	00 
  404c60:	8d 7c 35 04          	lea    0x4(%rbp,%rsi,1),%edi
  404c64:	44 8d 5c 35 05       	lea    0x5(%rbp,%rsi,1),%r11d
  404c69:	44 8d 54 35 03       	lea    0x3(%rbp,%rsi,1),%r10d
  404c6e:	8d 5e 02             	lea    0x2(%rsi),%ebx
  404c71:	4d 89 f7             	mov    %r14,%r15
  404c74:	45 8d 74 34 06       	lea    0x6(%r12,%rsi,1),%r14d
  404c79:	c4 a1 7a 10 1c 99    	vmovss (%rcx,%r11,4),%xmm3
  404c7f:	c4 c1 7a 10 14 b8    	vmovss (%r8,%rdi,4),%xmm2
  404c85:	45 8d 5c 34 07       	lea    0x7(%r12,%rsi,1),%r11d
  404c8a:	c4 a1 6a 58 14 91    	vaddss (%rcx,%r10,4),%xmm2,%xmm2
  404c90:	c5 e2 58 1c 99       	vaddss (%rcx,%rbx,4),%xmm3,%xmm3
  404c95:	45 8d 54 34 05       	lea    0x5(%r12,%rsi,1),%r10d
  404c9a:	41 8d 5c 31 08       	lea    0x8(%r9,%rsi,1),%ebx
  404c9f:	c5 e2 58 d2          	vaddss %xmm2,%xmm3,%xmm2
  404ca3:	c4 a1 72 59 1c b1    	vmulss (%rcx,%r14,4),%xmm1,%xmm3
  404ca9:	c4 e2 71 b9 da       	vfmadd231ss %xmm2,%xmm1,%xmm3
  404cae:	c5 fa 11 1c b9       	vmovss %xmm3,(%rcx,%rdi,4)
  404cb3:	41 8d 7c 31 07       	lea    0x7(%r9,%rsi,1),%edi
  404cb8:	c4 81 7a 10 14 b0    	vmovss (%r8,%r14,4),%xmm2
  404cbe:	c4 a1 62 58 1c 99    	vaddss (%rcx,%r11,4),%xmm3,%xmm3
  404cc4:	c5 f2 59 24 99       	vmulss (%rcx,%rbx,4),%xmm1,%xmm4
  404cc9:	44 8d 5c 30 0a       	lea    0xa(%rax,%rsi,1),%r11d
  404cce:	c4 a1 6a 58 14 91    	vaddss (%rcx,%r10,4),%xmm2,%xmm2
  404cd4:	45 8d 54 31 09       	lea    0x9(%r9,%rsi,1),%r10d
  404cd9:	c5 e2 58 d2          	vaddss %xmm2,%xmm3,%xmm2
  404cdd:	c4 e2 71 b9 e2       	vfmadd231ss %xmm2,%xmm1,%xmm4
  404ce2:	c4 a1 7a 11 24 b1    	vmovss %xmm4,(%rcx,%r14,4)
  404ce8:	4d 89 fe             	mov    %r15,%r14
  404ceb:	4c 8b 7c 24 98       	mov    -0x68(%rsp),%r15
  404cf0:	c4 c1 7a 10 14 98    	vmovss (%r8,%rbx,4),%xmm2
  404cf6:	c4 a1 5a 58 1c 91    	vaddss (%rcx,%r10,4),%xmm4,%xmm3
  404cfc:	44 8d 54 30 0b       	lea    0xb(%rax,%rsi,1),%r10d
  404d01:	c5 ea 58 14 b9       	vaddss (%rcx,%rdi,4),%xmm2,%xmm2
  404d06:	8d 7c 30 09          	lea    0x9(%rax,%rsi,1),%edi
  404d0a:	c5 e2 58 d2          	vaddss %xmm2,%xmm3,%xmm2
  404d0e:	c4 a1 72 59 1c 99    	vmulss (%rcx,%r11,4),%xmm1,%xmm3
  404d14:	c4 e2 71 b9 da       	vfmadd231ss %xmm2,%xmm1,%xmm3
  404d19:	c5 fa 11 1c 99       	vmovss %xmm3,(%rcx,%rbx,4)
  404d1e:	48 8b 5c 24 a8       	mov    -0x58(%rsp),%rbx
  404d23:	c4 81 7a 10 14 98    	vmovss (%r8,%r11,4),%xmm2
  404d29:	c4 a1 62 58 1c 91    	vaddss (%rcx,%r10,4),%xmm3,%xmm3
  404d2f:	45 8d 54 35 0b       	lea    0xb(%r13,%rsi,1),%r10d
  404d34:	c5 ea 58 14 b9       	vaddss (%rcx,%rdi,4),%xmm2,%xmm2
  404d39:	41 8d 7c 35 0c       	lea    0xc(%r13,%rsi,1),%edi
  404d3e:	c5 e2 58 d2          	vaddss %xmm2,%xmm3,%xmm2
  404d42:	c5 f2 59 1c b9       	vmulss (%rcx,%rdi,4),%xmm1,%xmm3
  404d47:	c4 e2 71 b9 da       	vfmadd231ss %xmm2,%xmm1,%xmm3
  404d4c:	c4 a1 7a 11 1c 99    	vmovss %xmm3,(%rcx,%r11,4)
  404d52:	45 8d 5c 35 0d       	lea    0xd(%r13,%rsi,1),%r11d
  404d57:	c4 c1 7a 10 14 b8    	vmovss (%r8,%rdi,4),%xmm2
  404d5d:	c4 a1 6a 58 14 91    	vaddss (%rcx,%r10,4),%xmm2,%xmm2
  404d63:	c4 a1 62 58 1c 99    	vaddss (%rcx,%r11,4),%xmm3,%xmm3
  404d69:	44 8d 54 33 0e       	lea    0xe(%rbx,%rsi,1),%r10d
  404d6e:	44 8d 5c 33 0d       	lea    0xd(%rbx,%rsi,1),%r11d
  404d73:	c5 e2 58 d2          	vaddss %xmm2,%xmm3,%xmm2
  404d77:	c4 a1 72 59 1c 91    	vmulss (%rcx,%r10,4),%xmm1,%xmm3
  404d7d:	c4 e2 71 b9 da       	vfmadd231ss %xmm2,%xmm1,%xmm3
  404d82:	c5 fa 11 1c b9       	vmovss %xmm3,(%rcx,%rdi,4)
  404d87:	8d 7c 33 0f          	lea    0xf(%rbx,%rsi,1),%edi
  404d8b:	41 8d 5c 37 10       	lea    0x10(%r15,%rsi,1),%ebx
  404d90:	c4 81 7a 10 14 90    	vmovss (%r8,%r10,4),%xmm2
  404d96:	c4 a1 6a 58 14 99    	vaddss (%rcx,%r11,4),%xmm2,%xmm2
  404d9c:	c5 e2 58 1c b9       	vaddss (%rcx,%rdi,4),%xmm3,%xmm3
  404da1:	41 8d 7c 37 0f       	lea    0xf(%r15,%rsi,1),%edi
  404da6:	45 8d 5c 36 13       	lea    0x13(%r14,%rsi,1),%r11d
  404dab:	c5 e2 58 d2          	vaddss %xmm2,%xmm3,%xmm2
  404daf:	c5 f2 59 1c 99       	vmulss (%rcx,%rbx,4),%xmm1,%xmm3
  404db4:	c4 e2 71 b9 da       	vfmadd231ss %xmm2,%xmm1,%xmm3
  404db9:	c4 a1 7a 11 1c 91    	vmovss %xmm3,(%rcx,%r10,4)
  404dbf:	45 8d 54 37 11       	lea    0x11(%r15,%rsi,1),%r10d
  404dc4:	4c 8b 7c 24 e0       	mov    -0x20(%rsp),%r15
  404dc9:	c4 c1 7a 10 14 98    	vmovss (%r8,%rbx,4),%xmm2
  404dcf:	c5 ea 58 14 b9       	vaddss (%rcx,%rdi,4),%xmm2,%xmm2
  404dd4:	c4 a1 62 58 1c 91    	vaddss (%rcx,%r10,4),%xmm3,%xmm3
  404dda:	41 8d 7c 36 12       	lea    0x12(%r14,%rsi,1),%edi
  404ddf:	45 8d 54 36 11       	lea    0x11(%r14,%rsi,1),%r10d
  404de4:	c5 e2 58 d2          	vaddss %xmm2,%xmm3,%xmm2
  404de8:	c5 f2 59 1c b9       	vmulss (%rcx,%rdi,4),%xmm1,%xmm3
  404ded:	c4 e2 71 b9 da       	vfmadd231ss %xmm2,%xmm1,%xmm3
  404df2:	c5 fa 11 1c 99       	vmovss %xmm3,(%rcx,%rbx,4)
  404df7:	c4 c1 7a 10 14 b8    	vmovss (%r8,%rdi,4),%xmm2
  404dfd:	c4 a1 62 58 1c 99    	vaddss (%rcx,%r11,4),%xmm3,%xmm3
  404e03:	44 8b 5c 24 88       	mov    -0x78(%rsp),%r11d
  404e08:	c4 a1 6a 58 14 91    	vaddss (%rcx,%r10,4),%xmm2,%xmm2
  404e0e:	45 8d 14 37          	lea    (%r15,%rsi,1),%r10d
  404e12:	c4 a1 72 59 24 91    	vmulss (%rcx,%r10,4),%xmm1,%xmm4
  404e18:	4c 8b 54 24 b8       	mov    -0x48(%rsp),%r10
  404e1d:	44 01 de             	add    %r11d,%esi
  404e20:	4d 8d 54 12 08       	lea    0x8(%r10,%rdx,1),%r10
  404e25:	48 83 c2 08          	add    $0x8,%rdx
  404e29:	c5 e2 58 d2          	vaddss %xmm2,%xmm3,%xmm2
  404e2d:	c4 e2 71 b9 e2       	vfmadd231ss %xmm2,%xmm1,%xmm4
  404e32:	c5 fa 11 24 b9       	vmovss %xmm4,(%rcx,%rdi,4)
  404e37:	49 83 fa 01          	cmp    $0x1,%r10
  404e3b:	0f 85 1f fe ff ff    	jne    404c60 <project+0x1970>
  404e41:	f6 44 24 f8 07       	testb  $0x7,-0x8(%rsp)
  404e46:	4c 8b 4c 24 b0       	mov    -0x50(%rsp),%r9
  404e4b:	45 89 df             	mov    %r11d,%r15d
  404e4e:	0f 84 fc fa ff ff    	je     404950 <project+0x1660>
  404e54:	8d 72 01             	lea    0x1(%rdx),%esi
  404e57:	44 8d 52 ff          	lea    -0x1(%rdx),%r10d
  404e5b:	8b 44 24 c0          	mov    -0x40(%rsp),%eax
  404e5f:	48 8b 7c 24 28       	mov    0x28(%rsp),%rdi
  404e64:	41 0f af d1          	imul   %r9d,%edx
  404e68:	41 0f af f1          	imul   %r9d,%esi
  404e6c:	45 0f af d1          	imul   %r9d,%r10d
  404e70:	83 c6 02             	add    $0x2,%esi
  404e73:	41 83 c2 02          	add    $0x2,%r10d
  404e77:	89 c5                	mov    %eax,%ebp
  404e79:	0f 1f 80 00 00 00 00 	nopl   0x0(%rax)
  404e80:	44 8d 5c 2a 02       	lea    0x2(%rdx,%rbp,1),%r11d
  404e85:	8d 5c 2a 01          	lea    0x1(%rdx,%rbp,1),%ebx
  404e89:	44 8d 74 2a 03       	lea    0x3(%rdx,%rbp,1),%r14d
  404e8e:	45 8d 2c 2a          	lea    (%r10,%rbp,1),%r13d
  404e92:	44 8d 0c 2e          	lea    (%rsi,%rbp,1),%r9d
  404e96:	48 ff c7             	inc    %rdi
  404e99:	c4 81 7a 10 14 98    	vmovss (%r8,%r11,4),%xmm2
  404e9f:	c4 a1 7a 10 1c b1    	vmovss (%rcx,%r14,4),%xmm3
  404ea5:	c5 ea 58 14 99       	vaddss (%rcx,%rbx,4),%xmm2,%xmm2
  404eaa:	c4 a1 62 58 1c a9    	vaddss (%rcx,%r13,4),%xmm3,%xmm3
  404eb0:	c4 a1 6a 58 14 89    	vaddss (%rcx,%r9,4),%xmm2,%xmm2
  404eb6:	4c 8b 4c 24 b0       	mov    -0x50(%rsp),%r9
  404ebb:	41 8d 2c 29          	lea    (%r9,%rbp,1),%ebp
  404ebf:	c5 ea 58 d3          	vaddss %xmm3,%xmm2,%xmm2
  404ec3:	c5 ea 59 d1          	vmulss %xmm1,%xmm2,%xmm2
  404ec7:	c4 a1 7a 11 14 99    	vmovss %xmm2,(%rcx,%r11,4)
  404ecd:	75 b1                	jne    404e80 <project+0x1b90>
  404ecf:	e9 7c fa ff ff       	jmp    404950 <project+0x1660>
  404ed4:	c5 fa 10 49 08       	vmovss 0x8(%rcx),%xmm1
  404ed9:	4d 89 d1             	mov    %r10,%r9
  404edc:	c5 f2 58 49 04       	vaddss 0x4(%rcx),%xmm1,%xmm1
  404ee1:	c4 e2 79 a9 49 0c    	vfmadd213ss 0xc(%rcx),%xmm0,%xmm1
  404ee7:	c5 f2 59 c8          	vmulss %xmm0,%xmm1,%xmm1
  404eeb:	c4 e2 79 18 c9       	vbroadcastss %xmm1,%xmm1
  404ef0:	c5 f8 11 09          	vmovups %xmm1,(%rcx)
  404ef4:	41 bc 02 00 00 00    	mov    $0x2,%r12d
  404efa:	bf 00 00 00 00       	mov    $0x0,%edi
  404eff:	41 ba 02 00 00 00    	mov    $0x2,%r10d
  404f05:	31 c0                	xor    %eax,%eax
  404f07:	48 89 44 24 f8       	mov    %rax,-0x8(%rsp)
  404f0c:	4c 89 c8             	mov    %r9,%rax
  404f0f:	45 85 ed             	test   %r13d,%r13d
  404f12:	0f 84 69 08 00 00    	je     405781 <project+0x2491>
  404f18:	83 fb 03             	cmp    $0x3,%ebx
  404f1b:	b8 02 00 00 00       	mov    $0x2,%eax
  404f20:	c4 e1 ca 2a cd       	vcvtsi2ss %rbp,%xmm6,%xmm1
  404f25:	c5 f2 59 0d e7 90 00 	vmulss 0x90e7(%rip),%xmm1,%xmm1        # 40e014 <_IO_stdin_used+0x14>
  404f2c:	00 
  404f2d:	42 8d 3c ed 10 00 00 	lea    0x10(,%r13,8),%edi
  404f34:	00 
  404f35:	41 b9 01 00 00 00    	mov    $0x1,%r9d
  404f3b:	0f 43 c3             	cmovae %ebx,%eax
  404f3e:	45 31 c0             	xor    %r8d,%r8d
  404f41:	48 8d 50 ff          	lea    -0x1(%rax),%rdx
  404f45:	48 89 44 24 10       	mov    %rax,0x10(%rsp)
  404f4a:	48 83 c0 fe          	add    $0xfffffffffffffffe,%rax
  404f4e:	89 7c 24 90          	mov    %edi,-0x70(%rsp)
  404f52:	48 89 44 24 e8       	mov    %rax,-0x18(%rsp)
  404f57:	43 8d 44 ed 13       	lea    0x13(%r13,%r13,8),%eax
  404f5c:	89 d6                	mov    %edx,%esi
  404f5e:	48 83 e2 f8          	and    $0xfffffffffffffff8,%rdx
  404f62:	83 e6 07             	and    $0x7,%esi
  404f65:	48 f7 da             	neg    %rdx
  404f68:	48 89 74 24 08       	mov    %rsi,0x8(%rsp)
  404f6d:	48 f7 de             	neg    %rsi
  404f70:	48 89 44 24 a0       	mov    %rax,-0x60(%rsp)
  404f75:	42 8d 04 ed 00 00 00 	lea    0x0(,%r13,8),%eax
  404f7c:	00 
  404f7d:	48 89 54 24 b8       	mov    %rdx,-0x48(%rsp)
  404f82:	48 89 74 24 28       	mov    %rsi,0x28(%rsp)
  404f87:	48 8b 74 24 d0       	mov    -0x30(%rsp),%rsi
  404f8c:	48 8b 54 24 38       	mov    0x38(%rsp),%rdx
  404f91:	48 89 44 24 c0       	mov    %rax,-0x40(%rsp)
  404f96:	44 29 e8             	sub    %r13d,%eax
  404f99:	48 89 44 24 c8       	mov    %rax,-0x38(%rsp)
  404f9e:	43 8d 44 2d 00       	lea    0x0(%r13,%r13,1),%eax
  404fa3:	48 89 44 24 a8       	mov    %rax,-0x58(%rsp)
  404fa8:	8d 04 40             	lea    (%rax,%rax,2),%eax
  404fab:	48 89 04 24          	mov    %rax,(%rsp)
  404faf:	43 8d 44 ad 00       	lea    0x0(%r13,%r13,4),%eax
  404fb4:	48 89 44 24 98       	mov    %rax,-0x68(%rsp)
  404fb9:	42 8d 04 ad 00 00 00 	lea    0x0(,%r13,4),%eax
  404fc0:	00 
  404fc1:	48 89 44 24 f0       	mov    %rax,-0x10(%rsp)
  404fc6:	43 8d 44 6d 00       	lea    0x0(%r13,%r13,2),%eax
  404fcb:	48 89 44 24 88       	mov    %rax,-0x78(%rsp)
  404fd0:	eb 1c                	jmp    404fee <project+0x1cfe>
  404fd2:	66 66 66 66 66 2e 0f 	data16 data16 data16 data16 cs nopw 0x0(%rax,%rax,1)
  404fd9:	1f 84 00 00 00 00 00 
  404fe0:	41 ff c0             	inc    %r8d
  404fe3:	44 3b 4c 24 10       	cmp    0x10(%rsp),%r9d
  404fe8:	0f 84 24 03 00 00    	je     405312 <project+0x2022>
  404fee:	44 89 44 24 d8       	mov    %r8d,-0x28(%rsp)
  404ff3:	44 89 c8             	mov    %r9d,%eax
  404ff6:	48 89 44 24 e0       	mov    %rax,-0x20(%rsp)
  404ffb:	48 83 7c 24 e8 07    	cmpq   $0x7,-0x18(%rsp)
  405001:	4c 8b 5c 24 80       	mov    -0x80(%rsp),%r11
  405006:	4c 8b 44 24 c0       	mov    -0x40(%rsp),%r8
  40500b:	4c 8b 6c 24 c8       	mov    -0x38(%rsp),%r13
  405010:	48 8b 6c 24 a8       	mov    -0x58(%rsp),%rbp
  405015:	4c 8b 7c 24 f0       	mov    -0x10(%rsp),%r15
  40501a:	48 8b 04 24          	mov    (%rsp),%rax
  40501e:	4c 8b 74 24 88       	mov    -0x78(%rsp),%r14
  405023:	41 bc 01 00 00 00    	mov    $0x1,%r12d
  405029:	0f 82 43 02 00 00    	jb     405272 <project+0x1f82>
  40502f:	8b 7c 24 d8          	mov    -0x28(%rsp),%edi
  405033:	41 89 fa             	mov    %edi,%r10d
  405036:	66 2e 0f 1f 84 00 00 	cs nopw 0x0(%rax,%rax,1)
  40503d:	00 00 00 
  405040:	4c 8b 4c 24 80       	mov    -0x80(%rsp),%r9
  405045:	43 8d 7c 13 04       	lea    0x4(%r11,%r10,1),%edi
  40504a:	47 8d 5c 13 02       	lea    0x2(%r11,%r10,1),%r11d
  40504f:	c4 a1 7a 10 14 99    	vmovss (%rcx,%r11,4),%xmm2
  405055:	45 8d 5a 01          	lea    0x1(%r10),%r11d
  405059:	c5 ea 5c 14 b9       	vsubss (%rcx,%rdi,4),%xmm2,%xmm2
  40505e:	42 8d 7c 15 05       	lea    0x5(%rbp,%r10,1),%edi
  405063:	43 8d 5c 11 03       	lea    0x3(%r9,%r10,1),%ebx
  405068:	4d 89 c1             	mov    %r8,%r9
  40506b:	4d 89 e8             	mov    %r13,%r8
  40506e:	46 8d 6c 15 04       	lea    0x4(%rbp,%r10,1),%r13d
  405073:	c4 e2 71 a9 14 9a    	vfmadd213ss (%rdx,%rbx,4),%xmm1,%xmm2
  405079:	c5 fa 11 14 9a       	vmovss %xmm2,(%rdx,%rbx,4)
  40507e:	c4 a1 7a 10 14 99    	vmovss (%rcx,%r11,4),%xmm2
  405084:	46 8d 5c 15 06       	lea    0x6(%rbp,%r10,1),%r11d
  405089:	c5 ea 5c 14 b9       	vsubss (%rcx,%rdi,4),%xmm2,%xmm2
  40508e:	c4 e2 71 a9 14 9e    	vfmadd213ss (%rsi,%rbx,4),%xmm1,%xmm2
  405094:	c5 fa 11 14 9e       	vmovss %xmm2,(%rsi,%rbx,4)
  405099:	c4 a1 7a 10 14 a9    	vmovss (%rcx,%r13,4),%xmm2
  40509f:	47 8d 6c 16 06       	lea    0x6(%r14,%r10,1),%r13d
  4050a4:	c4 a1 6a 5c 14 99    	vsubss (%rcx,%r11,4),%xmm2,%xmm2
  4050aa:	47 8d 5c 16 07       	lea    0x7(%r14,%r10,1),%r11d
  4050af:	c4 e2 71 a9 14 ba    	vfmadd213ss (%rdx,%rdi,4),%xmm1,%xmm2
  4050b5:	c5 fa 11 14 ba       	vmovss %xmm2,(%rdx,%rdi,4)
  4050ba:	c5 fa 10 14 99       	vmovss (%rcx,%rbx,4),%xmm2
  4050bf:	43 8d 5c 16 08       	lea    0x8(%r14,%r10,1),%ebx
  4050c4:	4d 89 fe             	mov    %r15,%r14
  4050c7:	c4 a1 6a 5c 14 99    	vsubss (%rcx,%r11,4),%xmm2,%xmm2
  4050cd:	c4 e2 71 a9 14 be    	vfmadd213ss (%rsi,%rdi,4),%xmm1,%xmm2
  4050d3:	c5 fa 11 14 be       	vmovss %xmm2,(%rsi,%rdi,4)
  4050d8:	c4 a1 7a 10 14 a9    	vmovss (%rcx,%r13,4),%xmm2
  4050de:	47 8d 6c 17 09       	lea    0x9(%r15,%r10,1),%r13d
  4050e3:	c5 ea 5c 14 99       	vsubss (%rcx,%rbx,4),%xmm2,%xmm2
  4050e8:	43 8d 5c 17 08       	lea    0x8(%r15,%r10,1),%ebx
  4050ed:	c4 a2 71 a9 14 9a    	vfmadd213ss (%rdx,%r11,4),%xmm1,%xmm2
  4050f3:	c4 a1 7a 11 14 9a    	vmovss %xmm2,(%rdx,%r11,4)
  4050f9:	c5 fa 10 14 b9       	vmovss (%rcx,%rdi,4),%xmm2
  4050fe:	43 8d 7c 17 0a       	lea    0xa(%r15,%r10,1),%edi
  405103:	49 89 ef             	mov    %rbp,%r15
  405106:	c4 a1 6a 5c 14 a9    	vsubss (%rcx,%r13,4),%xmm2,%xmm2
  40510c:	c4 a2 71 a9 14 9e    	vfmadd213ss (%rsi,%r11,4),%xmm1,%xmm2
  405112:	c4 a1 7a 11 14 9e    	vmovss %xmm2,(%rsi,%r11,4)
  405118:	c5 fa 10 14 99       	vmovss (%rcx,%rbx,4),%xmm2
  40511d:	48 8b 5c 24 98       	mov    -0x68(%rsp),%rbx
  405122:	c5 ea 5c 14 b9       	vsubss (%rcx,%rdi,4),%xmm2,%xmm2
  405127:	c4 a2 71 a9 14 aa    	vfmadd213ss (%rdx,%r13,4),%xmm1,%xmm2
  40512d:	42 8d 6c 13 0b       	lea    0xb(%rbx,%r10,1),%ebp
  405132:	42 8d 7c 13 0c       	lea    0xc(%rbx,%r10,1),%edi
  405137:	c4 a1 7a 11 14 aa    	vmovss %xmm2,(%rdx,%r13,4)
  40513d:	c4 a1 7a 10 14 99    	vmovss (%rcx,%r11,4),%xmm2
  405143:	46 8d 5c 13 0a       	lea    0xa(%rbx,%r10,1),%r11d
  405148:	42 8d 5c 10 0c       	lea    0xc(%rax,%r10,1),%ebx
  40514d:	c5 ea 5c 14 a9       	vsubss (%rcx,%rbp,4),%xmm2,%xmm2
  405152:	c4 a2 71 a9 14 ae    	vfmadd213ss (%rsi,%r13,4),%xmm1,%xmm2
  405158:	c4 a1 7a 11 14 ae    	vmovss %xmm2,(%rsi,%r13,4)
  40515e:	c4 a1 7a 10 14 99    	vmovss (%rcx,%r11,4),%xmm2
  405164:	46 8d 5c 10 0d       	lea    0xd(%rax,%r10,1),%r11d
  405169:	c5 ea 5c 14 b9       	vsubss (%rcx,%rdi,4),%xmm2,%xmm2
  40516e:	42 8d 7c 10 0e       	lea    0xe(%rax,%r10,1),%edi
  405173:	c4 e2 71 a9 14 aa    	vfmadd213ss (%rdx,%rbp,4),%xmm1,%xmm2
  405179:	c5 fa 11 14 aa       	vmovss %xmm2,(%rdx,%rbp,4)
  40517e:	c4 a1 7a 10 14 a9    	vmovss (%rcx,%r13,4),%xmm2
  405184:	4d 89 c5             	mov    %r8,%r13
  405187:	4d 89 c8             	mov    %r9,%r8
  40518a:	4c 8b 4c 24 a0       	mov    -0x60(%rsp),%r9
  40518f:	c4 a1 6a 5c 14 99    	vsubss (%rcx,%r11,4),%xmm2,%xmm2
  405195:	c4 e2 71 a9 14 ae    	vfmadd213ss (%rsi,%rbp,4),%xmm1,%xmm2
  40519b:	c5 fa 11 14 ae       	vmovss %xmm2,(%rsi,%rbp,4)
  4051a0:	c5 fa 10 14 99       	vmovss (%rcx,%rbx,4),%xmm2
  4051a5:	43 8d 5c 15 0e       	lea    0xe(%r13,%r10,1),%ebx
  4051aa:	c5 ea 5c 14 b9       	vsubss (%rcx,%rdi,4),%xmm2,%xmm2
  4051af:	43 8d 7c 15 0f       	lea    0xf(%r13,%r10,1),%edi
  4051b4:	c4 a2 71 a9 14 9a    	vfmadd213ss (%rdx,%r11,4),%xmm1,%xmm2
  4051ba:	c4 a1 7a 11 14 9a    	vmovss %xmm2,(%rdx,%r11,4)
  4051c0:	c5 fa 10 14 a9       	vmovss (%rcx,%rbp,4),%xmm2
  4051c5:	4c 89 fd             	mov    %r15,%rbp
  4051c8:	4d 89 f7             	mov    %r14,%r15
  4051cb:	4c 8b 74 24 88       	mov    -0x78(%rsp),%r14
  4051d0:	c5 ea 5c 14 b9       	vsubss (%rcx,%rdi,4),%xmm2,%xmm2
  4051d5:	c4 a2 71 a9 14 9e    	vfmadd213ss (%rsi,%r11,4),%xmm1,%xmm2
  4051db:	c4 a1 7a 11 14 9e    	vmovss %xmm2,(%rsi,%r11,4)
  4051e1:	c5 fa 10 14 99       	vmovss (%rcx,%rbx,4),%xmm2
  4051e6:	43 8d 5c 15 10       	lea    0x10(%r13,%r10,1),%ebx
  4051eb:	c5 ea 5c 14 99       	vsubss (%rcx,%rbx,4),%xmm2,%xmm2
  4051f0:	43 8d 5c 10 11       	lea    0x11(%r8,%r10,1),%ebx
  4051f5:	c4 e2 71 a9 14 ba    	vfmadd213ss (%rdx,%rdi,4),%xmm1,%xmm2
  4051fb:	c5 fa 11 14 ba       	vmovss %xmm2,(%rdx,%rdi,4)
  405200:	c4 a1 7a 10 14 99    	vmovss (%rcx,%r11,4),%xmm2
  405206:	47 8d 5c 10 10       	lea    0x10(%r8,%r10,1),%r11d
  40520b:	c5 ea 5c 14 99       	vsubss (%rcx,%rbx,4),%xmm2,%xmm2
  405210:	c4 e2 71 a9 14 be    	vfmadd213ss (%rsi,%rdi,4),%xmm1,%xmm2
  405216:	c5 fa 11 14 be       	vmovss %xmm2,(%rsi,%rdi,4)
  40521b:	c4 a1 7a 10 14 99    	vmovss (%rcx,%r11,4),%xmm2
  405221:	47 8d 5c 10 12       	lea    0x12(%r8,%r10,1),%r11d
  405226:	c4 a1 6a 5c 14 99    	vsubss (%rcx,%r11,4),%xmm2,%xmm2
  40522c:	4c 8b 5c 24 80       	mov    -0x80(%rsp),%r11
  405231:	c4 e2 71 a9 14 9a    	vfmadd213ss (%rdx,%rbx,4),%xmm1,%xmm2
  405237:	c5 fa 11 14 9a       	vmovss %xmm2,(%rdx,%rbx,4)
  40523c:	c5 fa 10 14 b9       	vmovss (%rcx,%rdi,4),%xmm2
  405241:	43 8d 3c 11          	lea    (%r9,%r10,1),%edi
  405245:	44 03 54 24 90       	add    -0x70(%rsp),%r10d
  40524a:	c5 ea 5c 14 b9       	vsubss (%rcx,%rdi,4),%xmm2,%xmm2
  40524f:	48 8b 7c 24 b8       	mov    -0x48(%rsp),%rdi
  405254:	c4 e2 71 a9 14 9e    	vfmadd213ss (%rsi,%rbx,4),%xmm1,%xmm2
  40525a:	4a 8d 7c 27 08       	lea    0x8(%rdi,%r12,1),%rdi
  40525f:	49 83 c4 08          	add    $0x8,%r12
  405263:	c5 fa 11 14 9e       	vmovss %xmm2,(%rsi,%rbx,4)
  405268:	48 83 ff 01          	cmp    $0x1,%rdi
  40526c:	0f 85 ce fd ff ff    	jne    405040 <project+0x1d50>
  405272:	48 8b 7c 24 e0       	mov    -0x20(%rsp),%rdi
  405277:	48 83 7c 24 08 00    	cmpq   $0x0,0x8(%rsp)
  40527d:	48 8b 44 24 b0       	mov    -0x50(%rsp),%rax
  405282:	44 8b 44 24 d8       	mov    -0x28(%rsp),%r8d
  405287:	44 8d 4f 01          	lea    0x1(%rdi),%r9d
  40528b:	0f 84 4f fd ff ff    	je     404fe0 <project+0x1cf0>
  405291:	45 8d 54 24 01       	lea    0x1(%r12),%r10d
  405296:	45 8d 5c 24 ff       	lea    -0x1(%r12),%r11d
  40529b:	44 0f af e0          	imul   %eax,%r12d
  40529f:	44 0f af d0          	imul   %eax,%r10d
  4052a3:	44 0f af d8          	imul   %eax,%r11d
  4052a7:	45 01 c4             	add    %r8d,%r12d
  4052aa:	41 01 fa             	add    %edi,%r10d
  4052ad:	41 01 fb             	add    %edi,%r11d
  4052b0:	48 8b 7c 24 28       	mov    0x28(%rsp),%rdi
  4052b5:	66 66 2e 0f 1f 84 00 	data16 cs nopw 0x0(%rax,%rax,1)
  4052bc:	00 00 00 00 
  4052c0:	44 89 e5             	mov    %r12d,%ebp
  4052c3:	c5 fa 10 14 a9       	vmovss (%rcx,%rbp,4),%xmm2
  4052c8:	41 8d 5c 24 02       	lea    0x2(%r12),%ebx
  4052cd:	45 8d 6c 24 01       	lea    0x1(%r12),%r13d
  4052d2:	44 89 dd             	mov    %r11d,%ebp
  4052d5:	41 01 c3             	add    %eax,%r11d
  4052d8:	41 01 c4             	add    %eax,%r12d
  4052db:	c5 ea 5c 14 99       	vsubss (%rcx,%rbx,4),%xmm2,%xmm2
  4052e0:	44 89 d3             	mov    %r10d,%ebx
  4052e3:	41 01 c2             	add    %eax,%r10d
  4052e6:	48 ff c7             	inc    %rdi
  4052e9:	c4 a2 71 a9 14 aa    	vfmadd213ss (%rdx,%r13,4),%xmm1,%xmm2
  4052ef:	c4 a1 7a 11 14 aa    	vmovss %xmm2,(%rdx,%r13,4)
  4052f5:	c5 fa 10 14 a9       	vmovss (%rcx,%rbp,4),%xmm2
  4052fa:	c5 ea 5c 14 99       	vsubss (%rcx,%rbx,4),%xmm2,%xmm2
  4052ff:	c4 a2 71 a9 14 ae    	vfmadd213ss (%rsi,%r13,4),%xmm1,%xmm2
  405305:	c4 a1 7a 11 14 ae    	vmovss %xmm2,(%rsi,%r13,4)
  40530b:	75 b3                	jne    4052c0 <project+0x1fd0>
  40530d:	e9 ce fc ff ff       	jmp    404fe0 <project+0x1cf0>
  405312:	48 8b 44 24 b0       	mov    -0x50(%rsp),%rax
  405317:	48 8b 5c 24 18       	mov    0x18(%rsp),%rbx
  40531c:	4c 8b 6c 24 80       	mov    -0x80(%rsp),%r13
  405321:	4c 8b 5c 24 30       	mov    0x30(%rsp),%r11
  405326:	41 bf 01 00 00 00    	mov    $0x1,%r15d
  40532c:	89 c1                	mov    %eax,%ecx
  40532e:	0f af c3             	imul   %ebx,%eax
  405331:	41 0f af cd          	imul   %r13d,%ecx
  405335:	4d 8d 73 ff          	lea    -0x1(%r11),%r14
  405339:	4c 89 74 24 88       	mov    %r14,-0x78(%rsp)
  40533e:	41 83 e6 07          	and    $0x7,%r14d
  405342:	48 89 44 24 90       	mov    %rax,-0x70(%rsp)
  405347:	49 8d 43 fe          	lea    -0x2(%r11),%rax
  40534b:	48 89 4c 24 98       	mov    %rcx,-0x68(%rsp)
  405350:	48 83 f8 07          	cmp    $0x7,%rax
  405354:	0f 82 5c 03 00 00    	jb     4056b6 <project+0x23c6>
  40535a:	43 8d 44 ed 00       	lea    0x0(%r13,%r13,8),%eax
  40535f:	c4 e2 79 18 0d b8 8c 	vbroadcastss 0x8cb8(%rip),%xmm1        # 40e020 <_IO_stdin_used+0x20>
  405366:	00 00 
  405368:	42 8d 0c ed 10 00 00 	lea    0x10(,%r13,8),%ecx
  40536f:	00 
  405370:	4c 89 74 24 d8       	mov    %r14,-0x28(%rsp)
  405375:	48 83 64 24 88 f8    	andq   $0xfffffffffffffff8,-0x78(%rsp)
  40537b:	44 8b 44 24 90       	mov    -0x70(%rsp),%r8d
  405380:	44 8b 54 24 98       	mov    -0x68(%rsp),%r10d
  405385:	48 8b 74 24 20       	mov    0x20(%rsp),%rsi
  40538a:	48 8b 54 24 c0       	mov    -0x40(%rsp),%rdx
  40538f:	4c 8b 4c 24 c8       	mov    -0x38(%rsp),%r9
  405394:	4c 8b 74 24 f0       	mov    -0x10(%rsp),%r14
  405399:	45 31 ff             	xor    %r15d,%r15d
  40539c:	48 89 44 24 b8       	mov    %rax,-0x48(%rsp)
  4053a1:	48 8b 44 24 a8       	mov    -0x58(%rsp),%rax
  4053a6:	89 4c 24 a0          	mov    %ecx,-0x60(%rsp)
  4053aa:	4c 89 e9             	mov    %r13,%rcx
  4053ad:	44 8d 1c 89          	lea    (%rcx,%rcx,4),%r11d
  4053b1:	8d 2c 49             	lea    (%rcx,%rcx,2),%ebp
  4053b4:	31 c9                	xor    %ecx,%ecx
  4053b6:	44 8d 2c 40          	lea    (%rax,%rax,2),%r13d
  4053ba:	48 8b 44 24 38       	mov    0x38(%rsp),%rax
  4053bf:	90                   	nop
  4053c0:	48 8b 5c 24 80       	mov    -0x80(%rsp),%rbx
  4053c5:	4c 8b 64 24 a8       	mov    -0x58(%rsp),%r12
  4053ca:	8d 7c 0b 02          	lea    0x2(%rbx,%rcx,1),%edi
  4053ce:	8d 5c 0b 03          	lea    0x3(%rbx,%rcx,1),%ebx
  4053d2:	45 8d 64 0c 02       	lea    0x2(%r12,%rcx,1),%r12d
  4053d7:	c5 fa 10 14 98       	vmovss (%rax,%rbx,4),%xmm2
  4053dc:	48 8b 5c 24 a8       	mov    -0x58(%rsp),%rbx
  4053e1:	8d 5c 0b 03          	lea    0x3(%rbx,%rcx,1),%ebx
  4053e5:	c5 e8 57 d1          	vxorps %xmm1,%xmm2,%xmm2
  4053e9:	c5 fa 11 14 b8       	vmovss %xmm2,(%rax,%rdi,4)
  4053ee:	42 8d 7c 3e 03       	lea    0x3(%rsi,%r15,1),%edi
  4053f3:	c4 a1 7a 10 14 a0    	vmovss (%rax,%r12,4),%xmm2
  4053f9:	4c 8b 64 24 a8       	mov    -0x58(%rsp),%r12
  4053fe:	45 8d 64 0c 05       	lea    0x5(%r12,%rcx,1),%r12d
  405403:	c5 e8 57 d1          	vxorps %xmm1,%xmm2,%xmm2
  405407:	c5 fa 11 14 98       	vmovss %xmm2,(%rax,%rbx,4)
  40540c:	48 8b 5c 24 a8       	mov    -0x58(%rsp),%rbx
  405411:	c5 fa 10 14 b8       	vmovss (%rax,%rdi,4),%xmm2
  405416:	43 8d 7c 3a 01       	lea    0x1(%r10,%r15,1),%edi
  40541b:	8d 5c 0b 04          	lea    0x4(%rbx,%rcx,1),%ebx
  40541f:	c4 a1 7a 11 54 b8 04 	vmovss %xmm2,0x4(%rax,%r15,4)
  405426:	c5 fa 10 14 b8       	vmovss (%rax,%rdi,4),%xmm2
  40542b:	43 8d 7c 38 01       	lea    0x1(%r8,%r15,1),%edi
  405430:	c5 fa 11 14 b8       	vmovss %xmm2,(%rax,%rdi,4)
  405435:	8d 7c 0d 04          	lea    0x4(%rbp,%rcx,1),%edi
  405439:	c4 a1 7a 10 14 a0    	vmovss (%rax,%r12,4),%xmm2
  40543f:	44 8d 64 0d 05       	lea    0x5(%rbp,%rcx,1),%r12d
  405444:	c5 e8 57 d1          	vxorps %xmm1,%xmm2,%xmm2
  405448:	c5 fa 11 14 98       	vmovss %xmm2,(%rax,%rbx,4)
  40544d:	42 8d 5c 3e 04       	lea    0x4(%rsi,%r15,1),%ebx
  405452:	c5 fa 10 14 b8       	vmovss (%rax,%rdi,4),%xmm2
  405457:	43 8d 7c 3a 02       	lea    0x2(%r10,%r15,1),%edi
  40545c:	c5 e8 57 d1          	vxorps %xmm1,%xmm2,%xmm2
  405460:	c4 a1 7a 11 14 a0    	vmovss %xmm2,(%rax,%r12,4)
  405466:	44 8d 64 0d 07       	lea    0x7(%rbp,%rcx,1),%r12d
  40546b:	c5 fa 10 14 98       	vmovss (%rax,%rbx,4),%xmm2
  405470:	8d 5c 0d 06          	lea    0x6(%rbp,%rcx,1),%ebx
  405474:	c4 a1 7a 11 54 b8 08 	vmovss %xmm2,0x8(%rax,%r15,4)
  40547b:	c5 fa 10 14 b8       	vmovss (%rax,%rdi,4),%xmm2
  405480:	43 8d 7c 38 02       	lea    0x2(%r8,%r15,1),%edi
  405485:	c5 fa 11 14 b8       	vmovss %xmm2,(%rax,%rdi,4)
  40548a:	41 8d 7c 0e 06       	lea    0x6(%r14,%rcx,1),%edi
  40548f:	c4 a1 7a 10 14 a0    	vmovss (%rax,%r12,4),%xmm2
  405495:	45 8d 64 0e 07       	lea    0x7(%r14,%rcx,1),%r12d
  40549a:	c5 e8 57 d1          	vxorps %xmm1,%xmm2,%xmm2
  40549e:	c5 fa 11 14 98       	vmovss %xmm2,(%rax,%rbx,4)
  4054a3:	42 8d 5c 3e 05       	lea    0x5(%rsi,%r15,1),%ebx
  4054a8:	c5 fa 10 14 b8       	vmovss (%rax,%rdi,4),%xmm2
  4054ad:	43 8d 7c 3a 03       	lea    0x3(%r10,%r15,1),%edi
  4054b2:	c5 e8 57 d1          	vxorps %xmm1,%xmm2,%xmm2
  4054b6:	c4 a1 7a 11 14 a0    	vmovss %xmm2,(%rax,%r12,4)
  4054bc:	45 8d 64 0e 09       	lea    0x9(%r14,%rcx,1),%r12d
  4054c1:	c5 fa 10 14 98       	vmovss (%rax,%rbx,4),%xmm2
  4054c6:	41 8d 5c 0e 08       	lea    0x8(%r14,%rcx,1),%ebx
  4054cb:	c4 a1 7a 11 54 b8 0c 	vmovss %xmm2,0xc(%rax,%r15,4)
  4054d2:	c5 fa 10 14 b8       	vmovss (%rax,%rdi,4),%xmm2
  4054d7:	43 8d 7c 38 03       	lea    0x3(%r8,%r15,1),%edi
  4054dc:	c5 fa 11 14 b8       	vmovss %xmm2,(%rax,%rdi,4)
  4054e1:	41 8d 7c 0b 08       	lea    0x8(%r11,%rcx,1),%edi
  4054e6:	c4 a1 7a 10 14 a0    	vmovss (%rax,%r12,4),%xmm2
  4054ec:	45 8d 64 0b 09       	lea    0x9(%r11,%rcx,1),%r12d
  4054f1:	c5 e8 57 d1          	vxorps %xmm1,%xmm2,%xmm2
  4054f5:	c5 fa 11 14 98       	vmovss %xmm2,(%rax,%rbx,4)
  4054fa:	42 8d 5c 3e 06       	lea    0x6(%rsi,%r15,1),%ebx
  4054ff:	c5 fa 10 14 b8       	vmovss (%rax,%rdi,4),%xmm2
  405504:	43 8d 7c 3a 04       	lea    0x4(%r10,%r15,1),%edi
  405509:	c5 e8 57 d1          	vxorps %xmm1,%xmm2,%xmm2
  40550d:	c4 a1 7a 11 14 a0    	vmovss %xmm2,(%rax,%r12,4)
  405513:	45 8d 64 0b 0b       	lea    0xb(%r11,%rcx,1),%r12d
  405518:	c5 fa 10 14 98       	vmovss (%rax,%rbx,4),%xmm2
  40551d:	41 8d 5c 0b 0a       	lea    0xa(%r11,%rcx,1),%ebx
  405522:	c4 a1 7a 11 54 b8 10 	vmovss %xmm2,0x10(%rax,%r15,4)
  405529:	c5 fa 10 14 b8       	vmovss (%rax,%rdi,4),%xmm2
  40552e:	43 8d 7c 38 04       	lea    0x4(%r8,%r15,1),%edi
  405533:	c5 fa 11 14 b8       	vmovss %xmm2,(%rax,%rdi,4)
  405538:	41 8d 7c 0d 0a       	lea    0xa(%r13,%rcx,1),%edi
  40553d:	c4 a1 7a 10 14 a0    	vmovss (%rax,%r12,4),%xmm2
  405543:	45 8d 64 0d 0b       	lea    0xb(%r13,%rcx,1),%r12d
  405548:	c5 e8 57 d1          	vxorps %xmm1,%xmm2,%xmm2
  40554c:	c5 fa 11 14 98       	vmovss %xmm2,(%rax,%rbx,4)
  405551:	42 8d 5c 3e 07       	lea    0x7(%rsi,%r15,1),%ebx
  405556:	c5 fa 10 14 b8       	vmovss (%rax,%rdi,4),%xmm2
  40555b:	43 8d 7c 3a 05       	lea    0x5(%r10,%r15,1),%edi
  405560:	c5 e8 57 d1          	vxorps %xmm1,%xmm2,%xmm2
  405564:	c4 a1 7a 11 14 a0    	vmovss %xmm2,(%rax,%r12,4)
  40556a:	45 8d 64 0d 0d       	lea    0xd(%r13,%rcx,1),%r12d
  40556f:	c5 fa 10 14 98       	vmovss (%rax,%rbx,4),%xmm2
  405574:	41 8d 5c 0d 0c       	lea    0xc(%r13,%rcx,1),%ebx
  405579:	c4 a1 7a 11 54 b8 14 	vmovss %xmm2,0x14(%rax,%r15,4)
  405580:	c5 fa 10 14 b8       	vmovss (%rax,%rdi,4),%xmm2
  405585:	43 8d 7c 38 05       	lea    0x5(%r8,%r15,1),%edi
  40558a:	c5 fa 11 14 b8       	vmovss %xmm2,(%rax,%rdi,4)
  40558f:	41 8d 7c 09 0c       	lea    0xc(%r9,%rcx,1),%edi
  405594:	c4 a1 7a 10 14 a0    	vmovss (%rax,%r12,4),%xmm2
  40559a:	45 8d 64 09 0d       	lea    0xd(%r9,%rcx,1),%r12d
  40559f:	c5 e8 57 d1          	vxorps %xmm1,%xmm2,%xmm2
  4055a3:	c5 fa 11 14 98       	vmovss %xmm2,(%rax,%rbx,4)
  4055a8:	42 8d 5c 3e 08       	lea    0x8(%rsi,%r15,1),%ebx
  4055ad:	c5 fa 10 14 b8       	vmovss (%rax,%rdi,4),%xmm2
  4055b2:	43 8d 7c 3a 06       	lea    0x6(%r10,%r15,1),%edi
  4055b7:	c5 e8 57 d1          	vxorps %xmm1,%xmm2,%xmm2
  4055bb:	c4 a1 7a 11 14 a0    	vmovss %xmm2,(%rax,%r12,4)
  4055c1:	45 8d 64 09 0f       	lea    0xf(%r9,%rcx,1),%r12d
  4055c6:	c5 fa 10 14 98       	vmovss (%rax,%rbx,4),%xmm2
  4055cb:	41 8d 5c 09 0e       	lea    0xe(%r9,%rcx,1),%ebx
  4055d0:	c4 a1 7a 11 54 b8 18 	vmovss %xmm2,0x18(%rax,%r15,4)
  4055d7:	c5 fa 10 14 b8       	vmovss (%rax,%rdi,4),%xmm2
  4055dc:	43 8d 7c 38 06       	lea    0x6(%r8,%r15,1),%edi
  4055e1:	c5 fa 11 14 b8       	vmovss %xmm2,(%rax,%rdi,4)
  4055e6:	8d 7c 0a 0e          	lea    0xe(%rdx,%rcx,1),%edi
  4055ea:	c4 a1 7a 10 14 a0    	vmovss (%rax,%r12,4),%xmm2
  4055f0:	44 8d 64 0a 0f       	lea    0xf(%rdx,%rcx,1),%r12d
  4055f5:	c5 e8 57 d1          	vxorps %xmm1,%xmm2,%xmm2
  4055f9:	c5 fa 11 14 98       	vmovss %xmm2,(%rax,%rbx,4)
  4055fe:	42 8d 5c 3e 09       	lea    0x9(%rsi,%r15,1),%ebx
  405603:	c5 fa 10 14 b8       	vmovss (%rax,%rdi,4),%xmm2
  405608:	43 8d 7c 3a 07       	lea    0x7(%r10,%r15,1),%edi
  40560d:	c5 e8 57 d1          	vxorps %xmm1,%xmm2,%xmm2
  405611:	c4 a1 7a 11 14 a0    	vmovss %xmm2,(%rax,%r12,4)
  405617:	44 8d 64 0a 11       	lea    0x11(%rdx,%rcx,1),%r12d
  40561c:	c5 fa 10 14 98       	vmovss (%rax,%rbx,4),%xmm2
  405621:	8d 5c 0a 10          	lea    0x10(%rdx,%rcx,1),%ebx
  405625:	c4 a1 7a 11 54 b8 1c 	vmovss %xmm2,0x1c(%rax,%r15,4)
  40562c:	c5 fa 10 14 b8       	vmovss (%rax,%rdi,4),%xmm2
  405631:	43 8d 7c 38 07       	lea    0x7(%r8,%r15,1),%edi
  405636:	c5 fa 11 14 b8       	vmovss %xmm2,(%rax,%rdi,4)
  40563b:	c4 a1 7a 10 14 a0    	vmovss (%rax,%r12,4),%xmm2
  405641:	4c 8b 64 24 b8       	mov    -0x48(%rsp),%r12
  405646:	41 8d 7c 0c 10       	lea    0x10(%r12,%rcx,1),%edi
  40564b:	c5 e8 57 d1          	vxorps %xmm1,%xmm2,%xmm2
  40564f:	c5 fa 11 14 98       	vmovss %xmm2,(%rax,%rbx,4)
  405654:	41 8d 5c 0c 11       	lea    0x11(%r12,%rcx,1),%ebx
  405659:	03 4c 24 a0          	add    -0x60(%rsp),%ecx
  40565d:	c5 fa 10 14 b8       	vmovss (%rax,%rdi,4),%xmm2
  405662:	42 8d 7c 3e 0a       	lea    0xa(%rsi,%r15,1),%edi
  405667:	c5 e8 57 d1          	vxorps %xmm1,%xmm2,%xmm2
  40566b:	c5 fa 11 14 98       	vmovss %xmm2,(%rax,%rbx,4)
  405670:	c5 fa 10 14 b8       	vmovss (%rax,%rdi,4),%xmm2
  405675:	43 8d 7c 3a 08       	lea    0x8(%r10,%r15,1),%edi
  40567a:	c4 a1 7a 11 54 b8 20 	vmovss %xmm2,0x20(%rax,%r15,4)
  405681:	c5 fa 10 14 b8       	vmovss (%rax,%rdi,4),%xmm2
  405686:	43 8d 7c 38 08       	lea    0x8(%r8,%r15,1),%edi
  40568b:	49 83 c7 08          	add    $0x8,%r15
  40568f:	c5 fa 11 14 b8       	vmovss %xmm2,(%rax,%rdi,4)
  405694:	4c 39 7c 24 88       	cmp    %r15,-0x78(%rsp)
  405699:	0f 85 21 fd ff ff    	jne    4053c0 <project+0x20d0>
  40569f:	48 8b 5c 24 18       	mov    0x18(%rsp),%rbx
  4056a4:	4c 8b 6c 24 80       	mov    -0x80(%rsp),%r13
  4056a9:	4c 8b 5c 24 30       	mov    0x30(%rsp),%r11
  4056ae:	4c 8b 74 24 d8       	mov    -0x28(%rsp),%r14
  4056b3:	49 ff c7             	inc    %r15
  4056b6:	4c 8b 54 24 38       	mov    0x38(%rsp),%r10
  4056bb:	4c 8b 64 24 b0       	mov    -0x50(%rsp),%r12
  4056c0:	4d 85 f6             	test   %r14,%r14
  4056c3:	0f 84 97 00 00 00    	je     405760 <project+0x2470>
  4056c9:	48 8b 4c 24 90       	mov    -0x70(%rsp),%rcx
  4056ce:	48 8b 54 24 98       	mov    -0x68(%rsp),%rdx
  4056d3:	c4 e2 79 18 0d 44 89 	vbroadcastss 0x8944(%rip),%xmm1        # 40e020 <_IO_stdin_used+0x20>
  4056da:	00 00 
  4056dc:	4b 8d 04 ba          	lea    (%r10,%r15,4),%rax
  4056e0:	43 8d 74 3d 02       	lea    0x2(%r13,%r15,1),%esi
  4056e5:	45 31 c9             	xor    %r9d,%r9d
  4056e8:	44 01 f9             	add    %r15d,%ecx
  4056eb:	44 01 fa             	add    %r15d,%edx
  4056ee:	45 0f af fc          	imul   %r12d,%r15d
  4056f2:	47 8d 44 3d 00       	lea    0x0(%r13,%r15,1),%r8d
  4056f7:	66 0f 1f 84 00 00 00 	nopw   0x0(%rax,%rax,1)
  4056fe:	00 00 
  405700:	41 8d 7f 01          	lea    0x1(%r15),%edi
  405704:	c4 c1 7a 10 14 ba    	vmovss (%r10,%rdi,4),%xmm2
  40570a:	44 89 ff             	mov    %r15d,%edi
  40570d:	45 01 e7             	add    %r12d,%r15d
  405710:	c5 e8 57 d1          	vxorps %xmm1,%xmm2,%xmm2
  405714:	c4 c1 7a 11 14 ba    	vmovss %xmm2,(%r10,%rdi,4)
  40571a:	44 89 c7             	mov    %r8d,%edi
  40571d:	c4 c1 7a 10 14 ba    	vmovss (%r10,%rdi,4),%xmm2
  405723:	41 8d 78 01          	lea    0x1(%r8),%edi
  405727:	45 01 e0             	add    %r12d,%r8d
  40572a:	c5 e8 57 d1          	vxorps %xmm1,%xmm2,%xmm2
  40572e:	c4 c1 7a 11 14 ba    	vmovss %xmm2,(%r10,%rdi,4)
  405734:	42 8d 3c 0e          	lea    (%rsi,%r9,1),%edi
  405738:	c4 c1 7a 10 14 ba    	vmovss (%r10,%rdi,4),%xmm2
  40573e:	42 8d 3c 0a          	lea    (%rdx,%r9,1),%edi
  405742:	c4 a1 7a 11 14 88    	vmovss %xmm2,(%rax,%r9,4)
  405748:	c4 c1 7a 10 14 ba    	vmovss (%r10,%rdi,4),%xmm2
  40574e:	42 8d 3c 09          	lea    (%rcx,%r9,1),%edi
  405752:	49 ff c1             	inc    %r9
  405755:	c4 c1 7a 11 14 ba    	vmovss %xmm2,(%r10,%rdi,4)
  40575b:	4d 39 ce             	cmp    %r9,%r14
  40575e:	75 a0                	jne    405700 <project+0x2410>
  405760:	4c 8b 54 24 90       	mov    -0x70(%rsp),%r10
  405765:	4c 8b 74 24 d0       	mov    -0x30(%rsp),%r14
  40576a:	48 8b 6c 24 20       	mov    0x20(%rsp),%rbp
  40576f:	48 8b 7c 24 98       	mov    -0x68(%rsp),%rdi
  405774:	4d 89 e1             	mov    %r12,%r9
  405777:	41 bc 02 00 00 00    	mov    $0x2,%r12d
  40577d:	43 8d 04 2a          	lea    (%r10,%r13,1),%eax
  405781:	4c 8b 44 24 38       	mov    0x38(%rsp),%r8
  405786:	8d 14 1f             	lea    (%rdi,%rbx,1),%edx
  405789:	41 8d 4a 01          	lea    0x1(%r10),%ecx
  40578d:	89 ff                	mov    %edi,%edi
  40578f:	41 8d 34 1a          	lea    (%r10,%rbx,1),%esi
  405793:	c4 81 7a 10 0c 88    	vmovss (%r8,%r9,4),%xmm1
  405799:	c4 c1 72 58 48 04    	vaddss 0x4(%r8),%xmm1,%xmm1
  40579f:	c5 f2 59 c8          	vmulss %xmm0,%xmm1,%xmm1
  4057a3:	c4 c1 7a 11 08       	vmovss %xmm1,(%r8)
  4057a8:	c4 c1 7a 10 0c b8    	vmovss (%r8,%rdi,4),%xmm1
  4057ae:	c4 c1 72 58 0c 88    	vaddss (%r8,%rcx,4),%xmm1,%xmm1
  4057b4:	44 89 d1             	mov    %r10d,%ecx
  4057b7:	c5 f2 59 c8          	vmulss %xmm0,%xmm1,%xmm1
  4057bb:	c4 c1 7a 11 0c 88    	vmovss %xmm1,(%r8,%rcx,4)
  4057c1:	48 8b 4c 24 50       	mov    0x50(%rsp),%rcx
  4057c6:	c4 c1 7a 10 0c 88    	vmovss (%r8,%rcx,4),%xmm1
  4057cc:	c4 c1 72 58 0c a8    	vaddss (%r8,%rbp,4),%xmm1,%xmm1
  4057d2:	c5 f2 59 c8          	vmulss %xmm0,%xmm1,%xmm1
  4057d6:	c4 81 7a 11 0c 98    	vmovss %xmm1,(%r8,%r11,4)
  4057dc:	c4 c1 7a 10 0c 90    	vmovss (%r8,%rdx,4),%xmm1
  4057e2:	c4 c1 72 58 0c 80    	vaddss (%r8,%rax,4),%xmm1,%xmm1
  4057e8:	4c 89 c8             	mov    %r9,%rax
  4057eb:	c5 f2 59 c8          	vmulss %xmm0,%xmm1,%xmm1
  4057ef:	c4 c1 7a 11 0c b0    	vmovss %xmm1,(%r8,%rsi,4)
  4057f5:	45 85 ed             	test   %r13d,%r13d
  4057f8:	0f 84 1e 04 00 00    	je     405c1c <project+0x292c>
  4057fe:	44 89 c8             	mov    %r9d,%eax
  405801:	41 0f af c5          	imul   %r13d,%eax
  405805:	44 0f af cb          	imul   %ebx,%r9d
  405809:	83 fb 03             	cmp    $0x3,%ebx
  40580c:	b9 01 00 00 00       	mov    $0x1,%ecx
  405811:	48 89 44 24 f8       	mov    %rax,-0x8(%rsp)
  405816:	b8 02 00 00 00       	mov    $0x2,%eax
  40581b:	4c 89 4c 24 90       	mov    %r9,-0x70(%rsp)
  405820:	0f 43 c3             	cmovae %ebx,%eax
  405823:	48 8d 78 ff          	lea    -0x1(%rax),%rdi
  405827:	48 83 c0 fe          	add    $0xfffffffffffffffe,%rax
  40582b:	41 89 fc             	mov    %edi,%r12d
  40582e:	41 83 e4 07          	and    $0x7,%r12d
  405832:	48 89 7c 24 88       	mov    %rdi,-0x78(%rsp)
  405837:	48 83 f8 07          	cmp    $0x7,%rax
  40583b:	0f 82 32 03 00 00    	jb     405b73 <project+0x2883>
  405841:	c4 e2 79 18 0d d6 87 	vbroadcastss 0x87d6(%rip),%xmm1        # 40e020 <_IO_stdin_used+0x20>
  405848:	00 00 
  40584a:	43 8d 44 ed 00       	lea    0x0(%r13,%r13,8),%eax
  40584f:	48 83 64 24 88 f8    	andq   $0xfffffffffffffff8,-0x78(%rsp)
  405855:	44 8b 44 24 f8       	mov    -0x8(%rsp),%r8d
  40585a:	46 8d 14 ed 00 00 00 	lea    0x0(,%r13,8),%r10d
  405861:	00 
  405862:	47 8d 7c 2d 00       	lea    0x0(%r13,%r13,1),%r15d
  405867:	4c 89 64 24 98       	mov    %r12,-0x68(%rsp)
  40586c:	4c 89 f3             	mov    %r14,%rbx
  40586f:	44 89 ce             	mov    %r9d,%esi
  405872:	31 c9                	xor    %ecx,%ecx
  405874:	47 8d 24 7f          	lea    (%r15,%r15,2),%r12d
  405878:	48 89 44 24 b8       	mov    %rax,-0x48(%rsp)
  40587d:	42 8d 04 ed 10 00 00 	lea    0x10(,%r13,8),%eax
  405884:	00 
  405885:	45 89 d6             	mov    %r10d,%r14d
  405888:	89 44 24 a0          	mov    %eax,-0x60(%rsp)
  40588c:	4c 89 e8             	mov    %r13,%rax
  40588f:	47 8d 6c ad 00       	lea    0x0(%r13,%r13,4),%r13d
  405894:	8d 14 85 00 00 00 00 	lea    0x0(,%rax,4),%edx
  40589b:	44 8d 1c 40          	lea    (%rax,%rax,2),%r11d
  40589f:	41 29 c6             	sub    %eax,%r14d
  4058a2:	31 c0                	xor    %eax,%eax
  4058a4:	66 66 66 2e 0f 1f 84 	data16 data16 cs nopw 0x0(%rax,%rax,1)
  4058ab:	00 00 00 00 00 
  4058b0:	4c 8b 4c 24 80       	mov    -0x80(%rsp),%r9
  4058b5:	41 8d 7c 01 03       	lea    0x3(%r9,%rax,1),%edi
  4058ba:	c5 fa 10 14 bb       	vmovss (%rbx,%rdi,4),%xmm2
  4058bf:	41 8d 7c 01 02       	lea    0x2(%r9,%rax,1),%edi
  4058c4:	4c 8b 4c 24 b8       	mov    -0x48(%rsp),%r9
  4058c9:	c5 fa 11 14 bb       	vmovss %xmm2,(%rbx,%rdi,4)
  4058ce:	41 8d 7c 07 02       	lea    0x2(%r15,%rax,1),%edi
  4058d3:	c5 fa 10 14 bb       	vmovss (%rbx,%rdi,4),%xmm2
  4058d8:	41 8d 7c 07 03       	lea    0x3(%r15,%rax,1),%edi
  4058dd:	c5 fa 11 14 bb       	vmovss %xmm2,(%rbx,%rdi,4)
  4058e2:	8d 7c 0d 03          	lea    0x3(%rbp,%rcx,1),%edi
  4058e6:	c5 fa 10 14 bb       	vmovss (%rbx,%rdi,4),%xmm2
  4058eb:	41 8d 7c 08 01       	lea    0x1(%r8,%rcx,1),%edi
  4058f0:	c5 e8 57 d1          	vxorps %xmm1,%xmm2,%xmm2
  4058f4:	c5 fa 11 54 8b 04    	vmovss %xmm2,0x4(%rbx,%rcx,4)
  4058fa:	c5 fa 10 14 bb       	vmovss (%rbx,%rdi,4),%xmm2
  4058ff:	8d 7c 0e 01          	lea    0x1(%rsi,%rcx,1),%edi
  405903:	c5 e8 57 d1          	vxorps %xmm1,%xmm2,%xmm2
  405907:	c5 fa 11 14 bb       	vmovss %xmm2,(%rbx,%rdi,4)
  40590c:	41 8d 7c 07 05       	lea    0x5(%r15,%rax,1),%edi
  405911:	c5 fa 10 14 bb       	vmovss (%rbx,%rdi,4),%xmm2
  405916:	41 8d 7c 07 04       	lea    0x4(%r15,%rax,1),%edi
  40591b:	c5 fa 11 14 bb       	vmovss %xmm2,(%rbx,%rdi,4)
  405920:	41 8d 7c 03 04       	lea    0x4(%r11,%rax,1),%edi
  405925:	c5 fa 10 14 bb       	vmovss (%rbx,%rdi,4),%xmm2
  40592a:	41 8d 7c 03 05       	lea    0x5(%r11,%rax,1),%edi
  40592f:	c5 fa 11 14 bb       	vmovss %xmm2,(%rbx,%rdi,4)
  405934:	8d 7c 0d 04          	lea    0x4(%rbp,%rcx,1),%edi
  405938:	c5 fa 10 14 bb       	vmovss (%rbx,%rdi,4),%xmm2
  40593d:	41 8d 7c 08 02       	lea    0x2(%r8,%rcx,1),%edi
  405942:	c5 e8 57 d1          	vxorps %xmm1,%xmm2,%xmm2
  405946:	c5 fa 11 54 8b 08    	vmovss %xmm2,0x8(%rbx,%rcx,4)
  40594c:	c5 fa 10 14 bb       	vmovss (%rbx,%rdi,4),%xmm2
  405951:	8d 7c 0e 02          	lea    0x2(%rsi,%rcx,1),%edi
  405955:	c5 e8 57 d1          	vxorps %xmm1,%xmm2,%xmm2
  405959:	c5 fa 11 14 bb       	vmovss %xmm2,(%rbx,%rdi,4)
  40595e:	41 8d 7c 03 07       	lea    0x7(%r11,%rax,1),%edi
  405963:	c5 fa 10 14 bb       	vmovss (%rbx,%rdi,4),%xmm2
  405968:	41 8d 7c 03 06       	lea    0x6(%r11,%rax,1),%edi
  40596d:	c5 fa 11 14 bb       	vmovss %xmm2,(%rbx,%rdi,4)
  405972:	8d 7c 02 06          	lea    0x6(%rdx,%rax,1),%edi
  405976:	c5 fa 10 14 bb       	vmovss (%rbx,%rdi,4),%xmm2
  40597b:	8d 7c 02 07          	lea    0x7(%rdx,%rax,1),%edi
  40597f:	c5 fa 11 14 bb       	vmovss %xmm2,(%rbx,%rdi,4)
  405984:	8d 7c 0d 05          	lea    0x5(%rbp,%rcx,1),%edi
  405988:	c5 fa 10 14 bb       	vmovss (%rbx,%rdi,4),%xmm2
  40598d:	41 8d 7c 08 03       	lea    0x3(%r8,%rcx,1),%edi
  405992:	c5 e8 57 d1          	vxorps %xmm1,%xmm2,%xmm2
  405996:	c5 fa 11 54 8b 0c    	vmovss %xmm2,0xc(%rbx,%rcx,4)
  40599c:	c5 fa 10 14 bb       	vmovss (%rbx,%rdi,4),%xmm2
  4059a1:	8d 7c 0e 03          	lea    0x3(%rsi,%rcx,1),%edi
  4059a5:	c5 e8 57 d1          	vxorps %xmm1,%xmm2,%xmm2
  4059a9:	c5 fa 11 14 bb       	vmovss %xmm2,(%rbx,%rdi,4)
  4059ae:	8d 7c 02 09          	lea    0x9(%rdx,%rax,1),%edi
  4059b2:	c5 fa 10 14 bb       	vmovss (%rbx,%rdi,4),%xmm2
  4059b7:	8d 7c 02 08          	lea    0x8(%rdx,%rax,1),%edi
  4059bb:	c5 fa 11 14 bb       	vmovss %xmm2,(%rbx,%rdi,4)
  4059c0:	41 8d 7c 05 08       	lea    0x8(%r13,%rax,1),%edi
  4059c5:	c5 fa 10 14 bb       	vmovss (%rbx,%rdi,4),%xmm2
  4059ca:	41 8d 7c 05 09       	lea    0x9(%r13,%rax,1),%edi
  4059cf:	c5 fa 11 14 bb       	vmovss %xmm2,(%rbx,%rdi,4)
  4059d4:	8d 7c 0d 06          	lea    0x6(%rbp,%rcx,1),%edi
  4059d8:	c5 fa 10 14 bb       	vmovss (%rbx,%rdi,4),%xmm2
  4059dd:	41 8d 7c 08 04       	lea    0x4(%r8,%rcx,1),%edi
  4059e2:	c5 e8 57 d1          	vxorps %xmm1,%xmm2,%xmm2
  4059e6:	c5 fa 11 54 8b 10    	vmovss %xmm2,0x10(%rbx,%rcx,4)
  4059ec:	c5 fa 10 14 bb       	vmovss (%rbx,%rdi,4),%xmm2
  4059f1:	8d 7c 0e 04          	lea    0x4(%rsi,%rcx,1),%edi
  4059f5:	c5 e8 57 d1          	vxorps %xmm1,%xmm2,%xmm2
  4059f9:	c5 fa 11 14 bb       	vmovss %xmm2,(%rbx,%rdi,4)
  4059fe:	41 8d 7c 05 0b       	lea    0xb(%r13,%rax,1),%edi
  405a03:	c5 fa 10 14 bb       	vmovss (%rbx,%rdi,4),%xmm2
  405a08:	41 8d 7c 05 0a       	lea    0xa(%r13,%rax,1),%edi
  405a0d:	c5 fa 11 14 bb       	vmovss %xmm2,(%rbx,%rdi,4)
  405a12:	41 8d 7c 04 0a       	lea    0xa(%r12,%rax,1),%edi
  405a17:	c5 fa 10 14 bb       	vmovss (%rbx,%rdi,4),%xmm2
  405a1c:	41 8d 7c 04 0b       	lea    0xb(%r12,%rax,1),%edi
  405a21:	c5 fa 11 14 bb       	vmovss %xmm2,(%rbx,%rdi,4)
  405a26:	8d 7c 0d 07          	lea    0x7(%rbp,%rcx,1),%edi
  405a2a:	c5 fa 10 14 bb       	vmovss (%rbx,%rdi,4),%xmm2
  405a2f:	41 8d 7c 08 05       	lea    0x5(%r8,%rcx,1),%edi
  405a34:	c5 e8 57 d1          	vxorps %xmm1,%xmm2,%xmm2
  405a38:	c5 fa 11 54 8b 14    	vmovss %xmm2,0x14(%rbx,%rcx,4)
  405a3e:	c5 fa 10 14 bb       	vmovss (%rbx,%rdi,4),%xmm2
  405a43:	8d 7c 0e 05          	lea    0x5(%rsi,%rcx,1),%edi
  405a47:	c5 e8 57 d1          	vxorps %xmm1,%xmm2,%xmm2
  405a4b:	c5 fa 11 14 bb       	vmovss %xmm2,(%rbx,%rdi,4)
  405a50:	41 8d 7c 04 0d       	lea    0xd(%r12,%rax,1),%edi
  405a55:	c5 fa 10 14 bb       	vmovss (%rbx,%rdi,4),%xmm2
  405a5a:	41 8d 7c 04 0c       	lea    0xc(%r12,%rax,1),%edi
  405a5f:	c5 fa 11 14 bb       	vmovss %xmm2,(%rbx,%rdi,4)
  405a64:	41 8d 7c 06 0c       	lea    0xc(%r14,%rax,1),%edi
  405a69:	c5 fa 10 14 bb       	vmovss (%rbx,%rdi,4),%xmm2
  405a6e:	41 8d 7c 06 0d       	lea    0xd(%r14,%rax,1),%edi
  405a73:	c5 fa 11 14 bb       	vmovss %xmm2,(%rbx,%rdi,4)
  405a78:	8d 7c 0d 08          	lea    0x8(%rbp,%rcx,1),%edi
  405a7c:	c5 fa 10 14 bb       	vmovss (%rbx,%rdi,4),%xmm2
  405a81:	41 8d 7c 08 06       	lea    0x6(%r8,%rcx,1),%edi
  405a86:	c5 e8 57 d1          	vxorps %xmm1,%xmm2,%xmm2
  405a8a:	c5 fa 11 54 8b 18    	vmovss %xmm2,0x18(%rbx,%rcx,4)
  405a90:	c5 fa 10 14 bb       	vmovss (%rbx,%rdi,4),%xmm2
  405a95:	8d 7c 0e 06          	lea    0x6(%rsi,%rcx,1),%edi
  405a99:	c5 e8 57 d1          	vxorps %xmm1,%xmm2,%xmm2
  405a9d:	c5 fa 11 14 bb       	vmovss %xmm2,(%rbx,%rdi,4)
  405aa2:	41 8d 7c 06 0f       	lea    0xf(%r14,%rax,1),%edi
  405aa7:	c5 fa 10 14 bb       	vmovss (%rbx,%rdi,4),%xmm2
  405aac:	41 8d 7c 06 0e       	lea    0xe(%r14,%rax,1),%edi
  405ab1:	c5 fa 11 14 bb       	vmovss %xmm2,(%rbx,%rdi,4)
  405ab6:	41 8d 7c 02 0e       	lea    0xe(%r10,%rax,1),%edi
  405abb:	c5 fa 10 14 bb       	vmovss (%rbx,%rdi,4),%xmm2
  405ac0:	41 8d 7c 02 0f       	lea    0xf(%r10,%rax,1),%edi
  405ac5:	c5 fa 11 14 bb       	vmovss %xmm2,(%rbx,%rdi,4)
  405aca:	8d 7c 0d 09          	lea    0x9(%rbp,%rcx,1),%edi
  405ace:	c5 fa 10 14 bb       	vmovss (%rbx,%rdi,4),%xmm2
  405ad3:	41 8d 7c 08 07       	lea    0x7(%r8,%rcx,1),%edi
  405ad8:	c5 e8 57 d1          	vxorps %xmm1,%xmm2,%xmm2
  405adc:	c5 fa 11 54 8b 1c    	vmovss %xmm2,0x1c(%rbx,%rcx,4)
  405ae2:	c5 fa 10 14 bb       	vmovss (%rbx,%rdi,4),%xmm2
  405ae7:	8d 7c 0e 07          	lea    0x7(%rsi,%rcx,1),%edi
  405aeb:	c5 e8 57 d1          	vxorps %xmm1,%xmm2,%xmm2
  405aef:	c5 fa 11 14 bb       	vmovss %xmm2,(%rbx,%rdi,4)
  405af4:	41 8d 7c 02 11       	lea    0x11(%r10,%rax,1),%edi
  405af9:	c5 fa 10 14 bb       	vmovss (%rbx,%rdi,4),%xmm2
  405afe:	41 8d 7c 02 10       	lea    0x10(%r10,%rax,1),%edi
  405b03:	c5 fa 11 14 bb       	vmovss %xmm2,(%rbx,%rdi,4)
  405b08:	41 8d 7c 01 10       	lea    0x10(%r9,%rax,1),%edi
  405b0d:	c5 fa 10 14 bb       	vmovss (%rbx,%rdi,4),%xmm2
  405b12:	41 8d 7c 01 11       	lea    0x11(%r9,%rax,1),%edi
  405b17:	03 44 24 a0          	add    -0x60(%rsp),%eax
  405b1b:	c5 fa 11 14 bb       	vmovss %xmm2,(%rbx,%rdi,4)
  405b20:	8d 7c 0d 0a          	lea    0xa(%rbp,%rcx,1),%edi
  405b24:	c5 fa 10 14 bb       	vmovss (%rbx,%rdi,4),%xmm2
  405b29:	41 8d 7c 08 08       	lea    0x8(%r8,%rcx,1),%edi
  405b2e:	c5 e8 57 d1          	vxorps %xmm1,%xmm2,%xmm2
  405b32:	c5 fa 11 54 8b 20    	vmovss %xmm2,0x20(%rbx,%rcx,4)
  405b38:	c5 fa 10 14 bb       	vmovss (%rbx,%rdi,4),%xmm2
  405b3d:	8d 7c 0e 08          	lea    0x8(%rsi,%rcx,1),%edi
  405b41:	48 83 c1 08          	add    $0x8,%rcx
  405b45:	c5 e8 57 d1          	vxorps %xmm1,%xmm2,%xmm2
  405b49:	c5 fa 11 14 bb       	vmovss %xmm2,(%rbx,%rdi,4)
  405b4e:	48 39 4c 24 88       	cmp    %rcx,-0x78(%rsp)
  405b53:	0f 85 57 fd ff ff    	jne    4058b0 <project+0x25c0>
  405b59:	49 89 de             	mov    %rbx,%r14
  405b5c:	48 8b 5c 24 18       	mov    0x18(%rsp),%rbx
  405b61:	4c 8b 6c 24 80       	mov    -0x80(%rsp),%r13
  405b66:	4c 8b 5c 24 30       	mov    0x30(%rsp),%r11
  405b6b:	4c 8b 64 24 98       	mov    -0x68(%rsp),%r12
  405b70:	48 ff c1             	inc    %rcx
  405b73:	4c 8b 7c 24 b0       	mov    -0x50(%rsp),%r15
  405b78:	4d 85 e4             	test   %r12,%r12
  405b7b:	0f 84 8d 00 00 00    	je     405c0e <project+0x291e>
  405b81:	48 8b 54 24 90       	mov    -0x70(%rsp),%rdx
  405b86:	48 8b 74 24 f8       	mov    -0x8(%rsp),%rsi
  405b8b:	c4 e2 79 18 0d 8c 84 	vbroadcastss 0x848c(%rip),%xmm1        # 40e020 <_IO_stdin_used+0x20>
  405b92:	00 00 
  405b94:	49 8d 04 8e          	lea    (%r14,%rcx,4),%rax
  405b98:	45 8d 44 0d 02       	lea    0x2(%r13,%rcx,1),%r8d
  405b9d:	45 31 d2             	xor    %r10d,%r10d
  405ba0:	01 ca                	add    %ecx,%edx
  405ba2:	01 ce                	add    %ecx,%esi
  405ba4:	41 0f af cf          	imul   %r15d,%ecx
  405ba8:	45 8d 4c 0d 00       	lea    0x0(%r13,%rcx,1),%r9d
  405bad:	0f 1f 00             	nopl   (%rax)
  405bb0:	8d 79 01             	lea    0x1(%rcx),%edi
  405bb3:	c4 c1 7a 10 14 be    	vmovss (%r14,%rdi,4),%xmm2
  405bb9:	89 cf                	mov    %ecx,%edi
  405bbb:	44 01 f9             	add    %r15d,%ecx
  405bbe:	c4 c1 7a 11 14 be    	vmovss %xmm2,(%r14,%rdi,4)
  405bc4:	44 89 cf             	mov    %r9d,%edi
  405bc7:	c4 c1 7a 10 14 be    	vmovss (%r14,%rdi,4),%xmm2
  405bcd:	41 8d 79 01          	lea    0x1(%r9),%edi
  405bd1:	45 01 f9             	add    %r15d,%r9d
  405bd4:	c4 c1 7a 11 14 be    	vmovss %xmm2,(%r14,%rdi,4)
  405bda:	43 8d 3c 10          	lea    (%r8,%r10,1),%edi
  405bde:	c4 c1 7a 10 14 be    	vmovss (%r14,%rdi,4),%xmm2
  405be4:	42 8d 3c 16          	lea    (%rsi,%r10,1),%edi
  405be8:	c5 e8 57 d1          	vxorps %xmm1,%xmm2,%xmm2
  405bec:	c4 a1 7a 11 14 90    	vmovss %xmm2,(%rax,%r10,4)
  405bf2:	c4 c1 7a 10 14 be    	vmovss (%r14,%rdi,4),%xmm2
  405bf8:	42 8d 3c 12          	lea    (%rdx,%r10,1),%edi
  405bfc:	49 ff c2             	inc    %r10
  405bff:	c5 e8 57 d1          	vxorps %xmm1,%xmm2,%xmm2
  405c03:	c4 c1 7a 11 14 be    	vmovss %xmm2,(%r14,%rdi,4)
  405c09:	4d 39 d4             	cmp    %r10,%r12
  405c0c:	75 a2                	jne    405bb0 <project+0x28c0>
  405c0e:	4c 8b 64 24 90       	mov    -0x70(%rsp),%r12
  405c13:	4d 89 f9             	mov    %r15,%r9
  405c16:	45 01 e5             	add    %r12d,%r13d
  405c19:	4c 89 e8             	mov    %r13,%rax
  405c1c:	c4 81 7a 10 0c 8e    	vmovss (%r14,%r9,4),%xmm1
  405c22:	48 8b 74 24 f8       	mov    -0x8(%rsp),%rsi
  405c27:	41 8d 4c 24 01       	lea    0x1(%r12),%ecx
  405c2c:	c4 c1 72 58 4e 04    	vaddss 0x4(%r14),%xmm1,%xmm1
  405c32:	89 f2                	mov    %esi,%edx
  405c34:	01 de                	add    %ebx,%esi
  405c36:	c5 f2 59 c8          	vmulss %xmm0,%xmm1,%xmm1
  405c3a:	c4 c1 7a 11 0e       	vmovss %xmm1,(%r14)
  405c3f:	c4 c1 7a 10 0c 96    	vmovss (%r14,%rdx,4),%xmm1
  405c45:	c4 c1 72 58 0c 8e    	vaddss (%r14,%rcx,4),%xmm1,%xmm1
  405c4b:	44 89 e1             	mov    %r12d,%ecx
  405c4e:	41 01 dc             	add    %ebx,%r12d
  405c51:	c5 f2 59 c8          	vmulss %xmm0,%xmm1,%xmm1
  405c55:	c4 c1 7a 11 0c 8e    	vmovss %xmm1,(%r14,%rcx,4)
  405c5b:	48 8b 4c 24 50       	mov    0x50(%rsp),%rcx
  405c60:	c4 c1 7a 10 0c 8e    	vmovss (%r14,%rcx,4),%xmm1
  405c66:	c4 c1 72 58 0c ae    	vaddss (%r14,%rbp,4),%xmm1,%xmm1
  405c6c:	c5 f2 59 c8          	vmulss %xmm0,%xmm1,%xmm1
  405c70:	c4 81 7a 11 0c 9e    	vmovss %xmm1,(%r14,%r11,4)
  405c76:	c4 c1 7a 10 0c b6    	vmovss (%r14,%rsi,4),%xmm1
  405c7c:	c4 c1 72 58 0c 86    	vaddss (%r14,%rax,4),%xmm1,%xmm1
  405c82:	c5 f2 59 c0          	vmulss %xmm0,%xmm1,%xmm0
  405c86:	c4 81 7a 11 04 a6    	vmovss %xmm0,(%r14,%r12,4)
  405c8c:	48 81 c4 c8 00 00 00 	add    $0xc8,%rsp
  405c93:	5b                   	pop    %rbx
  405c94:	41 5c                	pop    %r12
  405c96:	41 5d                	pop    %r13
  405c98:	41 5e                	pop    %r14
  405c9a:	41 5f                	pop    %r15
  405c9c:	5d                   	pop    %rbp
  405c9d:	c3                   	ret
  405c9e:	48 8b 54 24 80       	mov    -0x80(%rsp),%rdx
  405ca3:	c5 fa 10 0d 61 83 00 	vmovss 0x8361(%rip),%xmm1        # 40e00c <_IO_stdin_used+0xc>
  405caa:	00 
  405cab:	48 8b 44 24 58       	mov    0x58(%rsp),%rax
  405cb0:	83 e0 fe             	and    $0xfffffffe,%eax
  405cb3:	c5 fa 10 15 5d 83 00 	vmovss 0x835d(%rip),%xmm2        # 40e018 <_IO_stdin_used+0x18>
  405cba:	00 
  405cbb:	48 8b 34 24          	mov    (%rsp),%rsi
  405cbf:	4c 8b 6c 24 38       	mov    0x38(%rsp),%r13
  405cc4:	c7 44 24 c8 00 00 00 	movl   $0x0,-0x38(%rsp)
  405ccb:	00 
  405ccc:	c7 44 24 08 01 00 00 	movl   $0x1,0x8(%rsp)
  405cd3:	00 
  405cd4:	89 44 24 f8          	mov    %eax,-0x8(%rsp)
  405cd8:	8d 44 d2 13          	lea    0x13(%rdx,%rdx,8),%eax
  405cdc:	44 8d 0c d5 10 00 00 	lea    0x10(,%rdx,8),%r9d
  405ce3:	00 
  405ce4:	89 f7                	mov    %esi,%edi
  405ce6:	48 83 e6 f8          	and    $0xfffffffffffffff8,%rsi
  405cea:	83 e7 07             	and    $0x7,%edi
  405ced:	48 f7 de             	neg    %rsi
  405cf0:	48 89 7c 24 48       	mov    %rdi,0x48(%rsp)
  405cf5:	48 f7 df             	neg    %rdi
  405cf8:	48 89 44 24 e0       	mov    %rax,-0x20(%rsp)
  405cfd:	8d 04 d5 00 00 00 00 	lea    0x0(,%rdx,8),%eax
  405d04:	44 89 4c 24 88       	mov    %r9d,-0x78(%rsp)
  405d09:	48 89 74 24 b0       	mov    %rsi,-0x50(%rsp)
  405d0e:	48 89 7c 24 28       	mov    %rdi,0x28(%rsp)
  405d13:	c5 f2 5e c8          	vdivss %xmm0,%xmm1,%xmm1
  405d17:	41 89 c1             	mov    %eax,%r9d
  405d1a:	48 89 44 24 98       	mov    %rax,-0x68(%rsp)
  405d1f:	8d 04 12             	lea    (%rdx,%rdx,1),%eax
  405d22:	41 29 d1             	sub    %edx,%r9d
  405d25:	48 89 44 24 a8       	mov    %rax,-0x58(%rsp)
  405d2a:	8d 04 40             	lea    (%rax,%rax,2),%eax
  405d2d:	4c 89 4c 24 10       	mov    %r9,0x10(%rsp)
  405d32:	48 89 44 24 b8       	mov    %rax,-0x48(%rsp)
  405d37:	8d 04 92             	lea    (%rdx,%rdx,4),%eax
  405d3a:	48 89 44 24 d8       	mov    %rax,-0x28(%rsp)
  405d3f:	8d 04 95 00 00 00 00 	lea    0x0(,%rdx,4),%eax
  405d46:	48 89 44 24 90       	mov    %rax,-0x70(%rsp)
  405d4b:	8d 04 52             	lea    (%rdx,%rdx,2),%eax
  405d4e:	48 89 44 24 e8       	mov    %rax,-0x18(%rsp)
  405d53:	8d 44 d2 14          	lea    0x14(%rdx,%rdx,8),%eax
  405d57:	c5 ea 59 d9          	vmulss %xmm1,%xmm2,%xmm3
  405d5b:	48 89 44 24 c0       	mov    %rax,-0x40(%rsp)
  405d60:	eb 28                	jmp    405d8a <project+0x2a9a>
  405d62:	66 66 66 66 66 2e 0f 	data16 data16 data16 data16 cs nopw 0x0(%rax,%rax,1)
  405d69:	1f 84 00 00 00 00 00 
  405d70:	8b 44 24 c8          	mov    -0x38(%rsp),%eax
  405d74:	83 44 24 08 02       	addl   $0x2,0x8(%rsp)
  405d79:	83 c0 02             	add    $0x2,%eax
  405d7c:	89 44 24 c8          	mov    %eax,-0x38(%rsp)
  405d80:	3b 44 24 f8          	cmp    -0x8(%rsp),%eax
  405d84:	0f 84 f3 d5 ff ff    	je     40337d <project+0x8d>
  405d8a:	48 83 7c 24 f0 07    	cmpq   $0x7,-0x10(%rsp)
  405d90:	48 8b 44 24 80       	mov    -0x80(%rsp),%rax
  405d95:	48 8b 6c 24 10       	mov    0x10(%rsp),%rbp
  405d9a:	48 8b 5c 24 a8       	mov    -0x58(%rsp),%rbx
  405d9f:	4c 8b 54 24 d8       	mov    -0x28(%rsp),%r10
  405da4:	4c 8b 4c 24 90       	mov    -0x70(%rsp),%r9
  405da9:	4c 8b 5c 24 e8       	mov    -0x18(%rsp),%r11
  405dae:	41 bc 01 00 00 00    	mov    $0x1,%r12d
  405db4:	0f 82 66 02 00 00    	jb     406020 <project+0x2d30>
  405dba:	8b 54 24 c8          	mov    -0x38(%rsp),%edx
  405dbe:	66 90                	xchg   %ax,%ax
  405dc0:	8d 74 10 04          	lea    0x4(%rax,%rdx,1),%esi
  405dc4:	8d 7c 10 02          	lea    0x2(%rax,%rdx,1),%edi
  405dc8:	48 8b 44 24 80       	mov    -0x80(%rsp),%rax
  405dcd:	49 89 df             	mov    %rbx,%r15
  405dd0:	c4 c1 7a 10 64 b5 00 	vmovss 0x0(%r13,%rsi,4),%xmm4
  405dd7:	8d 74 13 05          	lea    0x5(%rbx,%rdx,1),%esi
  405ddb:	c4 c1 7a 10 6c bd 00 	vmovss 0x0(%r13,%rdi,4),%xmm5
  405de2:	89 d7                	mov    %edx,%edi
  405de4:	c4 c1 52 58 6c be 04 	vaddss 0x4(%r14,%rdi,4),%xmm5,%xmm5
  405deb:	41 8d 7c 17 06       	lea    0x6(%r15,%rdx,1),%edi
  405df0:	c4 c1 5a 58 24 b6    	vaddss (%r14,%rsi,4),%xmm4,%xmm4
  405df6:	8d 5c 10 03          	lea    0x3(%rax,%rdx,1),%ebx
  405dfa:	48 8b 44 24 d0       	mov    -0x30(%rsp),%rax
  405dff:	c5 da 5c e5          	vsubss %xmm5,%xmm4,%xmm4
  405e03:	c5 da 59 e3          	vmulss %xmm3,%xmm4,%xmm4
  405e07:	c4 c1 7a 11 24 98    	vmovss %xmm4,(%r8,%rbx,4)
  405e0d:	c7 04 99 00 00 00 00 	movl   $0x0,(%rcx,%rbx,4)
  405e14:	c4 c1 7a 10 64 bd 00 	vmovss 0x0(%r13,%rdi,4),%xmm4
  405e1b:	41 8d 7c 17 04       	lea    0x4(%r15,%rdx,1),%edi
  405e20:	c4 c1 7a 10 6c bd 00 	vmovss 0x0(%r13,%rdi,4),%xmm5
  405e27:	41 8d 7c 13 07       	lea    0x7(%r11,%rdx,1),%edi
  405e2c:	c4 c1 52 58 2c 9e    	vaddss (%r14,%rbx,4),%xmm5,%xmm5
  405e32:	41 8d 5c 13 08       	lea    0x8(%r11,%rdx,1),%ebx
  405e37:	c4 c1 5a 58 24 be    	vaddss (%r14,%rdi,4),%xmm4,%xmm4
  405e3d:	45 8d 74 13 06       	lea    0x6(%r11,%rdx,1),%r14d
  405e42:	c5 da 5c e5          	vsubss %xmm5,%xmm4,%xmm4
  405e46:	c5 da 59 e3          	vmulss %xmm3,%xmm4,%xmm4
  405e4a:	c4 c1 7a 11 24 b0    	vmovss %xmm4,(%r8,%rsi,4)
  405e50:	c7 04 b1 00 00 00 00 	movl   $0x0,(%rcx,%rsi,4)
  405e57:	c4 c1 7a 10 64 9d 00 	vmovss 0x0(%r13,%rbx,4),%xmm4
  405e5e:	48 8b 5c 24 d0       	mov    -0x30(%rsp),%rbx
  405e63:	c4 81 7a 10 6c b5 00 	vmovss 0x0(%r13,%r14,4),%xmm5
  405e6a:	49 89 ee             	mov    %rbp,%r14
  405e6d:	41 8d 6c 11 09       	lea    0x9(%r9,%rdx,1),%ebp
  405e72:	4c 8b 4c 24 90       	mov    -0x70(%rsp),%r9
  405e77:	c5 d2 58 2c b0       	vaddss (%rax,%rsi,4),%xmm5,%xmm5
  405e7c:	48 8b 44 24 d0       	mov    -0x30(%rsp),%rax
  405e81:	c5 da 58 24 ab       	vaddss (%rbx,%rbp,4),%xmm4,%xmm4
  405e86:	41 8d 74 11 0a       	lea    0xa(%r9,%rdx,1),%esi
  405e8b:	41 8d 5c 12 0b       	lea    0xb(%r10,%rdx,1),%ebx
  405e90:	c5 da 5c e5          	vsubss %xmm5,%xmm4,%xmm4
  405e94:	c5 da 59 e3          	vmulss %xmm3,%xmm4,%xmm4
  405e98:	c4 c1 7a 11 24 b8    	vmovss %xmm4,(%r8,%rdi,4)
  405e9e:	c7 04 b9 00 00 00 00 	movl   $0x0,(%rcx,%rdi,4)
  405ea5:	c4 c1 7a 10 64 b5 00 	vmovss 0x0(%r13,%rsi,4),%xmm4
  405eac:	41 8d 74 11 08       	lea    0x8(%r9,%rdx,1),%esi
  405eb1:	c4 c1 7a 10 6c b5 00 	vmovss 0x0(%r13,%rsi,4),%xmm5
  405eb8:	48 8b 74 24 d0       	mov    -0x30(%rsp),%rsi
  405ebd:	c5 d2 58 2c b8       	vaddss (%rax,%rdi,4),%xmm5,%xmm5
  405ec2:	4c 89 d8             	mov    %r11,%rax
  405ec5:	4d 89 d3             	mov    %r10,%r11
  405ec8:	c5 da 58 24 9e       	vaddss (%rsi,%rbx,4),%xmm4,%xmm4
  405ecd:	41 8d 74 12 0c       	lea    0xc(%r10,%rdx,1),%esi
  405ed2:	c5 da 5c e5          	vsubss %xmm5,%xmm4,%xmm4
  405ed6:	c5 da 59 e3          	vmulss %xmm3,%xmm4,%xmm4
  405eda:	c4 c1 7a 11 24 a8    	vmovss %xmm4,(%r8,%rbp,4)
  405ee0:	c7 04 a9 00 00 00 00 	movl   $0x0,(%rcx,%rbp,4)
  405ee7:	c4 c1 7a 10 64 b5 00 	vmovss 0x0(%r13,%rsi,4),%xmm4
  405eee:	41 8d 74 12 0a       	lea    0xa(%r10,%rdx,1),%esi
  405ef3:	4c 8b 54 24 b8       	mov    -0x48(%rsp),%r10
  405ef8:	c4 c1 7a 10 6c b5 00 	vmovss 0x0(%r13,%rsi,4),%xmm5
  405eff:	48 8b 74 24 d0       	mov    -0x30(%rsp),%rsi
  405f04:	41 8d 7c 12 0d       	lea    0xd(%r10,%rdx,1),%edi
  405f09:	c5 da 58 24 be       	vaddss (%rsi,%rdi,4),%xmm4,%xmm4
  405f0e:	48 8b 74 24 d0       	mov    -0x30(%rsp),%rsi
  405f13:	c5 d2 58 2c ae       	vaddss (%rsi,%rbp,4),%xmm5,%xmm5
  405f18:	4c 89 f5             	mov    %r14,%rbp
  405f1b:	45 8d 74 12 0c       	lea    0xc(%r10,%rdx,1),%r14d
  405f20:	41 8d 74 12 0e       	lea    0xe(%r10,%rdx,1),%esi
  405f25:	4c 8b 54 24 98       	mov    -0x68(%rsp),%r10
  405f2a:	c5 da 5c e5          	vsubss %xmm5,%xmm4,%xmm4
  405f2e:	c5 da 59 e3          	vmulss %xmm3,%xmm4,%xmm4
  405f32:	c4 c1 7a 11 24 98    	vmovss %xmm4,(%r8,%rbx,4)
  405f38:	c7 04 99 00 00 00 00 	movl   $0x0,(%rcx,%rbx,4)
  405f3f:	c4 81 7a 10 6c b5 00 	vmovss 0x0(%r13,%r14,4),%xmm5
  405f46:	4c 8b 74 24 d0       	mov    -0x30(%rsp),%r14
  405f4b:	c4 c1 7a 10 64 b5 00 	vmovss 0x0(%r13,%rsi,4),%xmm4
  405f52:	8d 74 15 0f          	lea    0xf(%rbp,%rdx,1),%esi
  405f56:	c4 c1 52 58 2c 9e    	vaddss (%r14,%rbx,4),%xmm5,%xmm5
  405f5c:	c4 c1 5a 58 24 b6    	vaddss (%r14,%rsi,4),%xmm4,%xmm4
  405f62:	8d 5c 15 10          	lea    0x10(%rbp,%rdx,1),%ebx
  405f66:	c5 da 5c e5          	vsubss %xmm5,%xmm4,%xmm4
  405f6a:	c5 da 59 e3          	vmulss %xmm3,%xmm4,%xmm4
  405f6e:	c4 c1 7a 11 24 b8    	vmovss %xmm4,(%r8,%rdi,4)
  405f74:	c7 04 b9 00 00 00 00 	movl   $0x0,(%rcx,%rdi,4)
  405f7b:	c4 c1 7a 10 64 9d 00 	vmovss 0x0(%r13,%rbx,4),%xmm4
  405f82:	8d 5c 15 0e          	lea    0xe(%rbp,%rdx,1),%ebx
  405f86:	c4 c1 7a 10 6c 9d 00 	vmovss 0x0(%r13,%rbx,4),%xmm5
  405f8d:	41 8d 5c 12 11       	lea    0x11(%r10,%rdx,1),%ebx
  405f92:	c4 c1 52 58 2c be    	vaddss (%r14,%rdi,4),%xmm5,%xmm5
  405f98:	41 8d 7c 12 12       	lea    0x12(%r10,%rdx,1),%edi
  405f9d:	c4 c1 5a 58 24 9e    	vaddss (%r14,%rbx,4),%xmm4,%xmm4
  405fa3:	c5 da 5c e5          	vsubss %xmm5,%xmm4,%xmm4
  405fa7:	c5 da 59 e3          	vmulss %xmm3,%xmm4,%xmm4
  405fab:	c4 c1 7a 11 24 b0    	vmovss %xmm4,(%r8,%rsi,4)
  405fb1:	c7 04 b1 00 00 00 00 	movl   $0x0,(%rcx,%rsi,4)
  405fb8:	c4 c1 7a 10 64 bd 00 	vmovss 0x0(%r13,%rdi,4),%xmm4
  405fbf:	41 8d 7c 12 10       	lea    0x10(%r10,%rdx,1),%edi
  405fc4:	4d 89 da             	mov    %r11,%r10
  405fc7:	49 89 c3             	mov    %rax,%r11
  405fca:	48 8b 44 24 e0       	mov    -0x20(%rsp),%rax
  405fcf:	c4 c1 7a 10 6c bd 00 	vmovss 0x0(%r13,%rdi,4),%xmm5
  405fd6:	c4 c1 52 58 2c b6    	vaddss (%r14,%rsi,4),%xmm5,%xmm5
  405fdc:	48 8b 74 24 b0       	mov    -0x50(%rsp),%rsi
  405fe1:	8d 3c 10             	lea    (%rax,%rdx,1),%edi
  405fe4:	48 8b 44 24 80       	mov    -0x80(%rsp),%rax
  405fe9:	c4 c1 5a 58 24 be    	vaddss (%r14,%rdi,4),%xmm4,%xmm4
  405fef:	8b 7c 24 88          	mov    -0x78(%rsp),%edi
  405ff3:	4a 8d 74 26 08       	lea    0x8(%rsi,%r12,1),%rsi
  405ff8:	49 83 c4 08          	add    $0x8,%r12
  405ffc:	01 fa                	add    %edi,%edx
  405ffe:	c5 da 5c e5          	vsubss %xmm5,%xmm4,%xmm4
  406002:	c5 da 59 e3          	vmulss %xmm3,%xmm4,%xmm4
  406006:	c4 c1 7a 11 24 98    	vmovss %xmm4,(%r8,%rbx,4)
  40600c:	c7 04 99 00 00 00 00 	movl   $0x0,(%rcx,%rbx,4)
  406013:	4c 89 fb             	mov    %r15,%rbx
  406016:	48 83 fe 01          	cmp    $0x1,%rsi
  40601a:	0f 85 a0 fd ff ff    	jne    405dc0 <project+0x2ad0>
  406020:	48 83 7c 24 48 00    	cmpq   $0x0,0x48(%rsp)
  406026:	4c 8b 4c 24 a0       	mov    -0x60(%rsp),%r9
  40602b:	0f 84 82 00 00 00    	je     4060b3 <project+0x2dc3>
  406031:	8b 74 24 08          	mov    0x8(%rsp),%esi
  406035:	41 8d 54 24 01       	lea    0x1(%r12),%edx
  40603a:	41 8d 6c 24 ff       	lea    -0x1(%r12),%ebp
  40603f:	45 0f af e1          	imul   %r9d,%r12d
  406043:	44 03 64 24 c8       	add    -0x38(%rsp),%r12d
  406048:	48 8b 7c 24 28       	mov    0x28(%rsp),%rdi
  40604d:	41 0f af d1          	imul   %r9d,%edx
  406051:	41 0f af e9          	imul   %r9d,%ebp
  406055:	01 f2                	add    %esi,%edx
  406057:	01 f5                	add    %esi,%ebp
  406059:	0f 1f 80 00 00 00 00 	nopl   0x0(%rax)
  406060:	41 8d 74 24 02       	lea    0x2(%r12),%esi
  406065:	44 89 e3             	mov    %r12d,%ebx
  406068:	c4 c1 7a 10 6c 9d 00 	vmovss 0x0(%r13,%rbx,4),%xmm5
  40606f:	41 89 ef             	mov    %ebp,%r15d
  406072:	89 d3                	mov    %edx,%ebx
  406074:	44 01 ca             	add    %r9d,%edx
  406077:	44 01 cd             	add    %r9d,%ebp
  40607a:	c4 c1 7a 10 64 b5 00 	vmovss 0x0(%r13,%rsi,4),%xmm4
  406081:	c4 81 52 58 2c be    	vaddss (%r14,%r15,4),%xmm5,%xmm5
  406087:	41 8d 74 24 01       	lea    0x1(%r12),%esi
  40608c:	45 01 cc             	add    %r9d,%r12d
  40608f:	48 ff c7             	inc    %rdi
  406092:	c4 c1 5a 58 24 9e    	vaddss (%r14,%rbx,4),%xmm4,%xmm4
  406098:	c5 da 5c e5          	vsubss %xmm5,%xmm4,%xmm4
  40609c:	c5 da 59 e2          	vmulss %xmm2,%xmm4,%xmm4
  4060a0:	c5 da 59 e1          	vmulss %xmm1,%xmm4,%xmm4
  4060a4:	c4 c1 7a 11 24 b0    	vmovss %xmm4,(%r8,%rsi,4)
  4060aa:	c7 04 b1 00 00 00 00 	movl   $0x0,(%rcx,%rsi,4)
  4060b1:	75 ad                	jne    406060 <project+0x2d70>
  4060b3:	48 83 7c 24 f0 07    	cmpq   $0x7,-0x10(%rsp)
  4060b9:	4c 8b 4c 24 80       	mov    -0x80(%rsp),%r9
  4060be:	4c 8b 7c 24 98       	mov    -0x68(%rsp),%r15
  4060c3:	48 8b 6c 24 10       	mov    0x10(%rsp),%rbp
  4060c8:	4c 8b 5c 24 90       	mov    -0x70(%rsp),%r11
  4060cd:	48 8b 44 24 e8       	mov    -0x18(%rsp),%rax
  4060d2:	41 bc 01 00 00 00    	mov    $0x1,%r12d
  4060d8:	0f 82 59 02 00 00    	jb     406337 <project+0x3047>
  4060de:	8b 54 24 c8          	mov    -0x38(%rsp),%edx
  4060e2:	66 66 66 66 66 2e 0f 	data16 data16 data16 data16 cs nopw 0x0(%rax,%rax,1)
  4060e9:	1f 84 00 00 00 00 00 
  4060f0:	4c 8b 54 24 a8       	mov    -0x58(%rsp),%r10
  4060f5:	41 8d 74 11 05       	lea    0x5(%r9,%rdx,1),%esi
  4060fa:	41 8d 7c 11 03       	lea    0x3(%r9,%rdx,1),%edi
  4060ff:	4c 8b 4c 24 80       	mov    -0x80(%rsp),%r9
  406104:	c4 c1 7a 10 64 b5 00 	vmovss 0x0(%r13,%rsi,4),%xmm4
  40610b:	c4 c1 7a 10 6c bd 00 	vmovss 0x0(%r13,%rdi,4),%xmm5
  406112:	8d 7a 02             	lea    0x2(%rdx),%edi
  406115:	c4 c1 52 58 2c be    	vaddss (%r14,%rdi,4),%xmm5,%xmm5
  40611b:	41 8d 74 12 06       	lea    0x6(%r10,%rdx,1),%esi
  406120:	41 8d 5c 11 04       	lea    0x4(%r9,%rdx,1),%ebx
  406125:	41 8d 7c 12 07       	lea    0x7(%r10,%rdx,1),%edi
  40612a:	49 89 c1             	mov    %rax,%r9
  40612d:	c4 c1 5a 58 24 b6    	vaddss (%r14,%rsi,4),%xmm4,%xmm4
  406133:	c5 da 5c e5          	vsubss %xmm5,%xmm4,%xmm4
  406137:	c5 da 59 e3          	vmulss %xmm3,%xmm4,%xmm4
  40613b:	c4 c1 7a 11 24 98    	vmovss %xmm4,(%r8,%rbx,4)
  406141:	c7 04 99 00 00 00 00 	movl   $0x0,(%rcx,%rbx,4)
  406148:	c4 c1 7a 10 64 bd 00 	vmovss 0x0(%r13,%rdi,4),%xmm4
  40614f:	41 8d 7c 12 05       	lea    0x5(%r10,%rdx,1),%edi
  406154:	49 89 ea             	mov    %rbp,%r10
  406157:	4c 89 fd             	mov    %r15,%rbp
  40615a:	44 8d 7c 10 07       	lea    0x7(%rax,%rdx,1),%r15d
  40615f:	c4 c1 7a 10 6c bd 00 	vmovss 0x0(%r13,%rdi,4),%xmm5
  406166:	8d 7c 10 08          	lea    0x8(%rax,%rdx,1),%edi
  40616a:	c4 c1 52 58 2c 9e    	vaddss (%r14,%rbx,4),%xmm5,%xmm5
  406170:	8d 5c 10 09          	lea    0x9(%rax,%rdx,1),%ebx
  406174:	4c 89 d8             	mov    %r11,%rax
  406177:	c4 c1 5a 58 24 be    	vaddss (%r14,%rdi,4),%xmm4,%xmm4
  40617d:	c5 da 5c e5          	vsubss %xmm5,%xmm4,%xmm4
  406181:	c5 da 59 e3          	vmulss %xmm3,%xmm4,%xmm4
  406185:	c4 c1 7a 11 24 b0    	vmovss %xmm4,(%r8,%rsi,4)
  40618b:	c7 04 b1 00 00 00 00 	movl   $0x0,(%rcx,%rsi,4)
  406192:	c4 c1 7a 10 64 9d 00 	vmovss 0x0(%r13,%rbx,4),%xmm4
  406199:	41 8d 5c 13 0a       	lea    0xa(%r11,%rdx,1),%ebx
  40619e:	c4 81 7a 10 6c bd 00 	vmovss 0x0(%r13,%r15,4),%xmm5
  4061a5:	49 89 ef             	mov    %rbp,%r15
  4061a8:	c4 c1 52 58 2c b6    	vaddss (%r14,%rsi,4),%xmm5,%xmm5
  4061ae:	41 8d 74 13 0b       	lea    0xb(%r11,%rdx,1),%esi
  4061b3:	c4 c1 5a 58 24 9e    	vaddss (%r14,%rbx,4),%xmm4,%xmm4
  4061b9:	c5 da 5c e5          	vsubss %xmm5,%xmm4,%xmm4
  4061bd:	c5 da 59 e3          	vmulss %xmm3,%xmm4,%xmm4
  4061c1:	c4 c1 7a 11 24 b8    	vmovss %xmm4,(%r8,%rdi,4)
  4061c7:	c7 04 b9 00 00 00 00 	movl   $0x0,(%rcx,%rdi,4)
  4061ce:	c4 c1 7a 10 64 b5 00 	vmovss 0x0(%r13,%rsi,4),%xmm4
  4061d5:	41 8d 74 13 09       	lea    0x9(%r11,%rdx,1),%esi
  4061da:	4c 8b 5c 24 d8       	mov    -0x28(%rsp),%r11
  4061df:	c4 c1 7a 10 6c b5 00 	vmovss 0x0(%r13,%rsi,4),%xmm5
  4061e6:	c4 c1 52 58 2c be    	vaddss (%r14,%rdi,4),%xmm5,%xmm5
  4061ec:	41 8d 6c 13 0c       	lea    0xc(%r11,%rdx,1),%ebp
  4061f1:	41 8d 74 13 0d       	lea    0xd(%r11,%rdx,1),%esi
  4061f6:	c4 c1 5a 58 24 ae    	vaddss (%r14,%rbp,4),%xmm4,%xmm4
  4061fc:	c5 da 5c e5          	vsubss %xmm5,%xmm4,%xmm4
  406200:	c5 da 59 e3          	vmulss %xmm3,%xmm4,%xmm4
  406204:	c4 c1 7a 11 24 98    	vmovss %xmm4,(%r8,%rbx,4)
  40620a:	c7 04 99 00 00 00 00 	movl   $0x0,(%rcx,%rbx,4)
  406211:	c4 c1 7a 10 64 b5 00 	vmovss 0x0(%r13,%rsi,4),%xmm4
  406218:	41 8d 74 13 0b       	lea    0xb(%r11,%rdx,1),%esi
  40621d:	4c 8b 5c 24 b8       	mov    -0x48(%rsp),%r11
  406222:	c4 c1 7a 10 6c b5 00 	vmovss 0x0(%r13,%rsi,4),%xmm5
  406229:	c4 c1 52 58 2c 9e    	vaddss (%r14,%rbx,4),%xmm5,%xmm5
  40622f:	41 8d 7c 13 0e       	lea    0xe(%r11,%rdx,1),%edi
  406234:	41 8d 74 13 0f       	lea    0xf(%r11,%rdx,1),%esi
  406239:	41 8d 5c 13 0d       	lea    0xd(%r11,%rdx,1),%ebx
  40623e:	49 89 c3             	mov    %rax,%r11
  406241:	4c 89 c8             	mov    %r9,%rax
  406244:	4c 8b 4c 24 c0       	mov    -0x40(%rsp),%r9
  406249:	c4 c1 5a 58 24 be    	vaddss (%r14,%rdi,4),%xmm4,%xmm4
  40624f:	c5 da 5c e5          	vsubss %xmm5,%xmm4,%xmm4
  406253:	c5 da 59 e3          	vmulss %xmm3,%xmm4,%xmm4
  406257:	c4 c1 7a 11 24 a8    	vmovss %xmm4,(%r8,%rbp,4)
  40625d:	c7 04 a9 00 00 00 00 	movl   $0x0,(%rcx,%rbp,4)
  406264:	c4 c1 7a 10 64 b5 00 	vmovss 0x0(%r13,%rsi,4),%xmm4
  40626b:	41 8d 74 12 10       	lea    0x10(%r10,%rdx,1),%esi
  406270:	c4 c1 7a 10 6c 9d 00 	vmovss 0x0(%r13,%rbx,4),%xmm5
  406277:	c4 c1 52 58 2c ae    	vaddss (%r14,%rbp,4),%xmm5,%xmm5
  40627d:	4c 89 d5             	mov    %r10,%rbp
  406280:	8d 5c 15 11          	lea    0x11(%rbp,%rdx,1),%ebx
  406284:	4c 8b 54 24 b0       	mov    -0x50(%rsp),%r10
  406289:	c4 c1 5a 58 24 b6    	vaddss (%r14,%rsi,4),%xmm4,%xmm4
  40628f:	c5 da 5c e5          	vsubss %xmm5,%xmm4,%xmm4
  406293:	c5 da 59 e3          	vmulss %xmm3,%xmm4,%xmm4
  406297:	c4 c1 7a 11 24 b8    	vmovss %xmm4,(%r8,%rdi,4)
  40629d:	c7 04 b9 00 00 00 00 	movl   $0x0,(%rcx,%rdi,4)
  4062a4:	c4 c1 7a 10 64 9d 00 	vmovss 0x0(%r13,%rbx,4),%xmm4
  4062ab:	8d 5c 15 0f          	lea    0xf(%rbp,%rdx,1),%ebx
  4062af:	c4 c1 7a 10 6c 9d 00 	vmovss 0x0(%r13,%rbx,4),%xmm5
  4062b6:	41 8d 5c 17 12       	lea    0x12(%r15,%rdx,1),%ebx
  4062bb:	c4 c1 52 58 2c be    	vaddss (%r14,%rdi,4),%xmm5,%xmm5
  4062c1:	41 8d 7c 17 13       	lea    0x13(%r15,%rdx,1),%edi
  4062c6:	c4 c1 5a 58 24 9e    	vaddss (%r14,%rbx,4),%xmm4,%xmm4
  4062cc:	c5 da 5c e5          	vsubss %xmm5,%xmm4,%xmm4
  4062d0:	c5 da 59 e3          	vmulss %xmm3,%xmm4,%xmm4
  4062d4:	c4 c1 7a 11 24 b0    	vmovss %xmm4,(%r8,%rsi,4)
  4062da:	c7 04 b1 00 00 00 00 	movl   $0x0,(%rcx,%rsi,4)
  4062e1:	c4 c1 7a 10 64 bd 00 	vmovss 0x0(%r13,%rdi,4),%xmm4
  4062e8:	41 8d 7c 17 11       	lea    0x11(%r15,%rdx,1),%edi
  4062ed:	c4 c1 7a 10 6c bd 00 	vmovss 0x0(%r13,%rdi,4),%xmm5
  4062f4:	41 8d 3c 11          	lea    (%r9,%rdx,1),%edi
  4062f8:	4c 8b 4c 24 80       	mov    -0x80(%rsp),%r9
  4062fd:	c4 c1 5a 58 24 be    	vaddss (%r14,%rdi,4),%xmm4,%xmm4
  406303:	c4 c1 52 58 2c b6    	vaddss (%r14,%rsi,4),%xmm5,%xmm5
  406309:	8b 7c 24 88          	mov    -0x78(%rsp),%edi
  40630d:	4b 8d 74 22 08       	lea    0x8(%r10,%r12,1),%rsi
  406312:	49 83 c4 08          	add    $0x8,%r12
  406316:	01 fa                	add    %edi,%edx
  406318:	c5 da 5c e5          	vsubss %xmm5,%xmm4,%xmm4
  40631c:	c5 da 59 e3          	vmulss %xmm3,%xmm4,%xmm4
  406320:	c4 c1 7a 11 24 98    	vmovss %xmm4,(%r8,%rbx,4)
  406326:	c7 04 99 00 00 00 00 	movl   $0x0,(%rcx,%rbx,4)
  40632d:	48 83 fe 01          	cmp    $0x1,%rsi
  406331:	0f 85 b9 fd ff ff    	jne    4060f0 <project+0x2e00>
  406337:	f6 04 24 07          	testb  $0x7,(%rsp)
  40633b:	48 8b 74 24 a0       	mov    -0x60(%rsp),%rsi
  406340:	0f 84 2a fa ff ff    	je     405d70 <project+0x2a80>
  406346:	41 8d 54 24 01       	lea    0x1(%r12),%edx
  40634b:	41 8d 7c 24 ff       	lea    -0x1(%r12),%edi
  406350:	48 8b 6c 24 28       	mov    0x28(%rsp),%rbp
  406355:	8b 44 24 c8          	mov    -0x38(%rsp),%eax
  406359:	44 0f af e6          	imul   %esi,%r12d
  40635d:	0f af d6             	imul   %esi,%edx
  406360:	0f af fe             	imul   %esi,%edi
  406363:	83 c2 02             	add    $0x2,%edx
  406366:	83 c7 02             	add    $0x2,%edi
  406369:	89 c6                	mov    %eax,%esi
  40636b:	0f 1f 44 00 00       	nopl   0x0(%rax,%rax,1)
  406370:	4c 8b 4c 24 d0       	mov    -0x30(%rsp),%r9
  406375:	48 8b 44 24 d0       	mov    -0x30(%rsp),%rax
  40637a:	41 8d 5c 34 03       	lea    0x3(%r12,%rsi,1),%ebx
  40637f:	45 8d 7c 34 01       	lea    0x1(%r12,%rsi,1),%r15d
  406384:	44 8d 34 37          	lea    (%rdi,%rsi,1),%r14d
  406388:	c4 81 7a 10 6c bd 00 	vmovss 0x0(%r13,%r15,4),%xmm5
  40638f:	c4 c1 7a 10 64 9d 00 	vmovss 0x0(%r13,%rbx,4),%xmm4
  406396:	44 8d 3c 32          	lea    (%rdx,%rsi,1),%r15d
  40639a:	41 8d 5c 34 02       	lea    0x2(%r12,%rsi,1),%ebx
  40639f:	03 74 24 a0          	add    -0x60(%rsp),%esi
  4063a3:	48 ff c5             	inc    %rbp
  4063a6:	c4 a1 52 58 2c b0    	vaddss (%rax,%r14,4),%xmm5,%xmm5
  4063ac:	c4 81 5a 58 24 b9    	vaddss (%r9,%r15,4),%xmm4,%xmm4
  4063b2:	4c 8b 74 24 d0       	mov    -0x30(%rsp),%r14
  4063b7:	c5 da 5c e5          	vsubss %xmm5,%xmm4,%xmm4
  4063bb:	c5 da 59 e2          	vmulss %xmm2,%xmm4,%xmm4
  4063bf:	c5 da 59 e1          	vmulss %xmm1,%xmm4,%xmm4
  4063c3:	c4 c1 7a 11 24 98    	vmovss %xmm4,(%r8,%rbx,4)
  4063c9:	c7 04 99 00 00 00 00 	movl   $0x0,(%rcx,%rbx,4)
  4063d0:	75 9e                	jne    406370 <project+0x3080>
  4063d2:	e9 99 f9 ff ff       	jmp    405d70 <project+0x2a80>
  4063d7:	66 0f 1f 84 00 00 00 	nopw   0x0(%rax,%rax,1)
  4063de:	00 00 

00000000004063e0 <set_bnd>:
  4063e0:	55                   	push   %rbp
  4063e1:	41 57                	push   %r15
  4063e3:	41 56                	push   %r14
  4063e5:	41 55                	push   %r13
  4063e7:	41 54                	push   %r12
  4063e9:	53                   	push   %rbx
  4063ea:	41 89 f9             	mov    %edi,%r9d
  4063ed:	45 8d 61 02          	lea    0x2(%r9),%r12d
  4063f1:	41 8d 69 01          	lea    0x1(%r9),%ebp
  4063f5:	41 89 fa             	mov    %edi,%r10d
  4063f8:	85 ff                	test   %edi,%edi
  4063fa:	0f 84 44 04 00 00    	je     406844 <set_bnd+0x464>
  406400:	45 89 e7             	mov    %r12d,%r15d
  406403:	45 89 e6             	mov    %r12d,%r14d
  406406:	45 0f af f9          	imul   %r9d,%r15d
  40640a:	44 0f af f5          	imul   %ebp,%r14d
  40640e:	4c 89 4c 24 b8       	mov    %r9,-0x48(%rsp)
  406413:	83 fe 01             	cmp    $0x1,%esi
  406416:	0f 84 36 04 00 00    	je     406852 <set_bnd+0x472>
  40641c:	83 fe 02             	cmp    $0x2,%esi
  40641f:	0f 85 7f 08 00 00    	jne    406ca4 <set_bnd+0x8c4>
  406425:	83 fd 03             	cmp    $0x3,%ebp
  406428:	b8 02 00 00 00       	mov    $0x2,%eax
  40642d:	41 bb 01 00 00 00    	mov    $0x1,%r11d
  406433:	0f 43 c5             	cmovae %ebp,%eax
  406436:	4c 8d 68 ff          	lea    -0x1(%rax),%r13
  40643a:	48 83 c0 fe          	add    $0xfffffffffffffffe,%rax
  40643e:	4c 89 6c 24 b0       	mov    %r13,-0x50(%rsp)
  406443:	41 83 e5 07          	and    $0x7,%r13d
  406447:	48 83 f8 07          	cmp    $0x7,%rax
  40644b:	0f 82 60 03 00 00    	jb     4067b1 <set_bnd+0x3d1>
  406451:	c4 e2 79 18 05 c6 7b 	vbroadcastss 0x7bc6(%rip),%xmm0        # 40e020 <_IO_stdin_used+0x20>
  406458:	00 00 
  40645a:	48 83 64 24 b0 f8    	andq   $0xfffffffffffffff8,-0x50(%rsp)
  406460:	43 8d 04 c9          	lea    (%r9,%r9,8),%eax
  406464:	4c 89 6c 24 d8       	mov    %r13,-0x28(%rsp)
  406469:	46 8d 2c cd 00 00 00 	lea    0x0(,%r9,8),%r13d
  406470:	00 
  406471:	47 8d 04 09          	lea    (%r9,%r9,1),%r8d
  406475:	89 6c 24 a8          	mov    %ebp,-0x58(%rsp)
  406479:	43 8d 2c 89          	lea    (%r9,%r9,4),%ebp
  40647d:	42 8d 34 8d 00 00 00 	lea    0x0(,%r9,4),%esi
  406484:	00 
  406485:	43 8d 1c 49          	lea    (%r9,%r9,2),%ebx
  406489:	4c 89 64 24 c0       	mov    %r12,-0x40(%rsp)
  40648e:	4c 89 74 24 d0       	mov    %r14,-0x30(%rsp)
  406493:	4c 89 7c 24 c8       	mov    %r15,-0x38(%rsp)
  406498:	45 89 f6             	mov    %r14d,%r14d
  40649b:	45 89 ff             	mov    %r15d,%r15d
  40649e:	45 31 e4             	xor    %r12d,%r12d
  4064a1:	45 31 db             	xor    %r11d,%r11d
  4064a4:	43 8d 0c 40          	lea    (%r8,%r8,2),%ecx
  4064a8:	48 89 44 24 e8       	mov    %rax,-0x18(%rsp)
  4064ad:	42 8d 04 cd 10 00 00 	lea    0x10(,%r9,8),%eax
  4064b4:	00 
  4064b5:	4c 89 6c 24 e0       	mov    %r13,-0x20(%rsp)
  4064ba:	45 29 cd             	sub    %r9d,%r13d
  4064bd:	89 44 24 ac          	mov    %eax,-0x54(%rsp)
  4064c1:	66 66 66 66 66 66 2e 	data16 data16 data16 data16 data16 cs nopw 0x0(%rax,%rax,1)
  4064c8:	0f 1f 84 00 00 00 00 
  4064cf:	00 
  4064d0:	43 8d 7c 21 03       	lea    0x3(%r9,%r12,1),%edi
  4064d5:	48 8b 44 24 e0       	mov    -0x20(%rsp),%rax
  4064da:	c5 fa 10 0c ba       	vmovss (%rdx,%rdi,4),%xmm1
  4064df:	43 8d 7c 21 02       	lea    0x2(%r9,%r12,1),%edi
  4064e4:	c5 fa 11 0c ba       	vmovss %xmm1,(%rdx,%rdi,4)
  4064e9:	43 8d 7c 20 02       	lea    0x2(%r8,%r12,1),%edi
  4064ee:	c5 fa 10 0c ba       	vmovss (%rdx,%rdi,4),%xmm1
  4064f3:	43 8d 7c 20 03       	lea    0x3(%r8,%r12,1),%edi
  4064f8:	c5 fa 11 0c ba       	vmovss %xmm1,(%rdx,%rdi,4)
  4064fd:	43 8d 7c 1a 03       	lea    0x3(%r10,%r11,1),%edi
  406502:	c5 fa 10 0c ba       	vmovss (%rdx,%rdi,4),%xmm1
  406507:	43 8d 7c 1f 01       	lea    0x1(%r15,%r11,1),%edi
  40650c:	c5 f0 57 c8          	vxorps %xmm0,%xmm1,%xmm1
  406510:	c4 a1 7a 11 4c 9a 04 	vmovss %xmm1,0x4(%rdx,%r11,4)
  406517:	c5 fa 10 0c ba       	vmovss (%rdx,%rdi,4),%xmm1
  40651c:	43 8d 7c 1e 01       	lea    0x1(%r14,%r11,1),%edi
  406521:	c5 f0 57 c8          	vxorps %xmm0,%xmm1,%xmm1
  406525:	c5 fa 11 0c ba       	vmovss %xmm1,(%rdx,%rdi,4)
  40652a:	43 8d 7c 20 05       	lea    0x5(%r8,%r12,1),%edi
  40652f:	c5 fa 10 0c ba       	vmovss (%rdx,%rdi,4),%xmm1
  406534:	43 8d 7c 20 04       	lea    0x4(%r8,%r12,1),%edi
  406539:	c5 fa 11 0c ba       	vmovss %xmm1,(%rdx,%rdi,4)
  40653e:	42 8d 7c 23 04       	lea    0x4(%rbx,%r12,1),%edi
  406543:	c5 fa 10 0c ba       	vmovss (%rdx,%rdi,4),%xmm1
  406548:	42 8d 7c 23 05       	lea    0x5(%rbx,%r12,1),%edi
  40654d:	c5 fa 11 0c ba       	vmovss %xmm1,(%rdx,%rdi,4)
  406552:	43 8d 7c 1a 04       	lea    0x4(%r10,%r11,1),%edi
  406557:	c5 fa 10 0c ba       	vmovss (%rdx,%rdi,4),%xmm1
  40655c:	43 8d 7c 1f 02       	lea    0x2(%r15,%r11,1),%edi
  406561:	c5 f0 57 c8          	vxorps %xmm0,%xmm1,%xmm1
  406565:	c4 a1 7a 11 4c 9a 08 	vmovss %xmm1,0x8(%rdx,%r11,4)
  40656c:	c5 fa 10 0c ba       	vmovss (%rdx,%rdi,4),%xmm1
  406571:	43 8d 7c 1e 02       	lea    0x2(%r14,%r11,1),%edi
  406576:	c5 f0 57 c8          	vxorps %xmm0,%xmm1,%xmm1
  40657a:	c5 fa 11 0c ba       	vmovss %xmm1,(%rdx,%rdi,4)
  40657f:	42 8d 7c 23 07       	lea    0x7(%rbx,%r12,1),%edi
  406584:	c5 fa 10 0c ba       	vmovss (%rdx,%rdi,4),%xmm1
  406589:	42 8d 7c 23 06       	lea    0x6(%rbx,%r12,1),%edi
  40658e:	c5 fa 11 0c ba       	vmovss %xmm1,(%rdx,%rdi,4)
  406593:	42 8d 7c 26 06       	lea    0x6(%rsi,%r12,1),%edi
  406598:	c5 fa 10 0c ba       	vmovss (%rdx,%rdi,4),%xmm1
  40659d:	42 8d 7c 26 07       	lea    0x7(%rsi,%r12,1),%edi
  4065a2:	c5 fa 11 0c ba       	vmovss %xmm1,(%rdx,%rdi,4)
  4065a7:	43 8d 7c 1a 05       	lea    0x5(%r10,%r11,1),%edi
  4065ac:	c5 fa 10 0c ba       	vmovss (%rdx,%rdi,4),%xmm1
  4065b1:	43 8d 7c 1f 03       	lea    0x3(%r15,%r11,1),%edi
  4065b6:	c5 f0 57 c8          	vxorps %xmm0,%xmm1,%xmm1
  4065ba:	c4 a1 7a 11 4c 9a 0c 	vmovss %xmm1,0xc(%rdx,%r11,4)
  4065c1:	c5 fa 10 0c ba       	vmovss (%rdx,%rdi,4),%xmm1
  4065c6:	43 8d 7c 1e 03       	lea    0x3(%r14,%r11,1),%edi
  4065cb:	c5 f0 57 c8          	vxorps %xmm0,%xmm1,%xmm1
  4065cf:	c5 fa 11 0c ba       	vmovss %xmm1,(%rdx,%rdi,4)
  4065d4:	42 8d 7c 26 09       	lea    0x9(%rsi,%r12,1),%edi
  4065d9:	c5 fa 10 0c ba       	vmovss (%rdx,%rdi,4),%xmm1
  4065de:	42 8d 7c 26 08       	lea    0x8(%rsi,%r12,1),%edi
  4065e3:	c5 fa 11 0c ba       	vmovss %xmm1,(%rdx,%rdi,4)
  4065e8:	42 8d 7c 25 08       	lea    0x8(%rbp,%r12,1),%edi
  4065ed:	c5 fa 10 0c ba       	vmovss (%rdx,%rdi,4),%xmm1
  4065f2:	42 8d 7c 25 09       	lea    0x9(%rbp,%r12,1),%edi
  4065f7:	c5 fa 11 0c ba       	vmovss %xmm1,(%rdx,%rdi,4)
  4065fc:	43 8d 7c 1a 06       	lea    0x6(%r10,%r11,1),%edi
  406601:	c5 fa 10 0c ba       	vmovss (%rdx,%rdi,4),%xmm1
  406606:	43 8d 7c 1f 04       	lea    0x4(%r15,%r11,1),%edi
  40660b:	c5 f0 57 c8          	vxorps %xmm0,%xmm1,%xmm1
  40660f:	c4 a1 7a 11 4c 9a 10 	vmovss %xmm1,0x10(%rdx,%r11,4)
  406616:	c5 fa 10 0c ba       	vmovss (%rdx,%rdi,4),%xmm1
  40661b:	43 8d 7c 1e 04       	lea    0x4(%r14,%r11,1),%edi
  406620:	c5 f0 57 c8          	vxorps %xmm0,%xmm1,%xmm1
  406624:	c5 fa 11 0c ba       	vmovss %xmm1,(%rdx,%rdi,4)
  406629:	42 8d 7c 25 0b       	lea    0xb(%rbp,%r12,1),%edi
  40662e:	c5 fa 10 0c ba       	vmovss (%rdx,%rdi,4),%xmm1
  406633:	42 8d 7c 25 0a       	lea    0xa(%rbp,%r12,1),%edi
  406638:	c5 fa 11 0c ba       	vmovss %xmm1,(%rdx,%rdi,4)
  40663d:	42 8d 7c 21 0a       	lea    0xa(%rcx,%r12,1),%edi
  406642:	c5 fa 10 0c ba       	vmovss (%rdx,%rdi,4),%xmm1
  406647:	42 8d 7c 21 0b       	lea    0xb(%rcx,%r12,1),%edi
  40664c:	c5 fa 11 0c ba       	vmovss %xmm1,(%rdx,%rdi,4)
  406651:	43 8d 7c 1a 07       	lea    0x7(%r10,%r11,1),%edi
  406656:	c5 fa 10 0c ba       	vmovss (%rdx,%rdi,4),%xmm1
  40665b:	43 8d 7c 1f 05       	lea    0x5(%r15,%r11,1),%edi
  406660:	c5 f0 57 c8          	vxorps %xmm0,%xmm1,%xmm1
  406664:	c4 a1 7a 11 4c 9a 14 	vmovss %xmm1,0x14(%rdx,%r11,4)
  40666b:	c5 fa 10 0c ba       	vmovss (%rdx,%rdi,4),%xmm1
  406670:	43 8d 7c 1e 05       	lea    0x5(%r14,%r11,1),%edi
  406675:	c5 f0 57 c8          	vxorps %xmm0,%xmm1,%xmm1
  406679:	c5 fa 11 0c ba       	vmovss %xmm1,(%rdx,%rdi,4)
  40667e:	42 8d 7c 21 0d       	lea    0xd(%rcx,%r12,1),%edi
  406683:	c5 fa 10 0c ba       	vmovss (%rdx,%rdi,4),%xmm1
  406688:	42 8d 7c 21 0c       	lea    0xc(%rcx,%r12,1),%edi
  40668d:	c5 fa 11 0c ba       	vmovss %xmm1,(%rdx,%rdi,4)
  406692:	43 8d 7c 25 0c       	lea    0xc(%r13,%r12,1),%edi
  406697:	c5 fa 10 0c ba       	vmovss (%rdx,%rdi,4),%xmm1
  40669c:	43 8d 7c 25 0d       	lea    0xd(%r13,%r12,1),%edi
  4066a1:	c5 fa 11 0c ba       	vmovss %xmm1,(%rdx,%rdi,4)
  4066a6:	43 8d 7c 1a 08       	lea    0x8(%r10,%r11,1),%edi
  4066ab:	c5 fa 10 0c ba       	vmovss (%rdx,%rdi,4),%xmm1
  4066b0:	43 8d 7c 1f 06       	lea    0x6(%r15,%r11,1),%edi
  4066b5:	c5 f0 57 c8          	vxorps %xmm0,%xmm1,%xmm1
  4066b9:	c4 a1 7a 11 4c 9a 18 	vmovss %xmm1,0x18(%rdx,%r11,4)
  4066c0:	c5 fa 10 0c ba       	vmovss (%rdx,%rdi,4),%xmm1
  4066c5:	43 8d 7c 1e 06       	lea    0x6(%r14,%r11,1),%edi
  4066ca:	c5 f0 57 c8          	vxorps %xmm0,%xmm1,%xmm1
  4066ce:	c5 fa 11 0c ba       	vmovss %xmm1,(%rdx,%rdi,4)
  4066d3:	43 8d 7c 25 0f       	lea    0xf(%r13,%r12,1),%edi
  4066d8:	c5 fa 10 0c ba       	vmovss (%rdx,%rdi,4),%xmm1
  4066dd:	43 8d 7c 25 0e       	lea    0xe(%r13,%r12,1),%edi
  4066e2:	c5 fa 11 0c ba       	vmovss %xmm1,(%rdx,%rdi,4)
  4066e7:	42 8d 7c 20 0e       	lea    0xe(%rax,%r12,1),%edi
  4066ec:	c5 fa 10 0c ba       	vmovss (%rdx,%rdi,4),%xmm1
  4066f1:	42 8d 7c 20 0f       	lea    0xf(%rax,%r12,1),%edi
  4066f6:	c5 fa 11 0c ba       	vmovss %xmm1,(%rdx,%rdi,4)
  4066fb:	43 8d 7c 1a 09       	lea    0x9(%r10,%r11,1),%edi
  406700:	c5 fa 10 0c ba       	vmovss (%rdx,%rdi,4),%xmm1
  406705:	43 8d 7c 1f 07       	lea    0x7(%r15,%r11,1),%edi
  40670a:	c5 f0 57 c8          	vxorps %xmm0,%xmm1,%xmm1
  40670e:	c4 a1 7a 11 4c 9a 1c 	vmovss %xmm1,0x1c(%rdx,%r11,4)
  406715:	c5 fa 10 0c ba       	vmovss (%rdx,%rdi,4),%xmm1
  40671a:	43 8d 7c 1e 07       	lea    0x7(%r14,%r11,1),%edi
  40671f:	c5 f0 57 c8          	vxorps %xmm0,%xmm1,%xmm1
  406723:	c5 fa 11 0c ba       	vmovss %xmm1,(%rdx,%rdi,4)
  406728:	42 8d 7c 20 11       	lea    0x11(%rax,%r12,1),%edi
  40672d:	c5 fa 10 0c ba       	vmovss (%rdx,%rdi,4),%xmm1
  406732:	42 8d 7c 20 10       	lea    0x10(%rax,%r12,1),%edi
  406737:	48 8b 44 24 e8       	mov    -0x18(%rsp),%rax
  40673c:	c5 fa 11 0c ba       	vmovss %xmm1,(%rdx,%rdi,4)
  406741:	42 8d 7c 20 10       	lea    0x10(%rax,%r12,1),%edi
  406746:	c5 fa 10 0c ba       	vmovss (%rdx,%rdi,4),%xmm1
  40674b:	42 8d 7c 20 11       	lea    0x11(%rax,%r12,1),%edi
  406750:	44 03 64 24 ac       	add    -0x54(%rsp),%r12d
  406755:	c5 fa 11 0c ba       	vmovss %xmm1,(%rdx,%rdi,4)
  40675a:	43 8d 7c 1a 0a       	lea    0xa(%r10,%r11,1),%edi
  40675f:	c5 fa 10 0c ba       	vmovss (%rdx,%rdi,4),%xmm1
  406764:	43 8d 7c 1f 08       	lea    0x8(%r15,%r11,1),%edi
  406769:	c5 f0 57 c8          	vxorps %xmm0,%xmm1,%xmm1
  40676d:	c4 a1 7a 11 4c 9a 20 	vmovss %xmm1,0x20(%rdx,%r11,4)
  406774:	c5 fa 10 0c ba       	vmovss (%rdx,%rdi,4),%xmm1
  406779:	43 8d 7c 1e 08       	lea    0x8(%r14,%r11,1),%edi
  40677e:	49 83 c3 08          	add    $0x8,%r11
  406782:	c5 f0 57 c8          	vxorps %xmm0,%xmm1,%xmm1
  406786:	c5 fa 11 0c ba       	vmovss %xmm1,(%rdx,%rdi,4)
  40678b:	4c 39 5c 24 b0       	cmp    %r11,-0x50(%rsp)
  406790:	0f 85 3a fd ff ff    	jne    4064d0 <set_bnd+0xf0>
  406796:	8b 6c 24 a8          	mov    -0x58(%rsp),%ebp
  40679a:	4c 8b 74 24 d0       	mov    -0x30(%rsp),%r14
  40679f:	4c 8b 7c 24 c8       	mov    -0x38(%rsp),%r15
  4067a4:	4c 8b 64 24 c0       	mov    -0x40(%rsp),%r12
  4067a9:	4c 8b 6c 24 d8       	mov    -0x28(%rsp),%r13
  4067ae:	49 ff c3             	inc    %r11
  4067b1:	4d 85 ed             	test   %r13,%r13
  4067b4:	0f 84 e2 08 00 00    	je     40709c <set_bnd+0xcbc>
  4067ba:	c4 e2 79 18 05 5d 78 	vbroadcastss 0x785d(%rip),%xmm0        # 40e020 <_IO_stdin_used+0x20>
  4067c1:	00 00 
  4067c3:	4a 8d 04 9a          	lea    (%rdx,%r11,4),%rax
  4067c7:	43 8d 0c 1e          	lea    (%r14,%r11,1),%ecx
  4067cb:	43 8d 34 1f          	lea    (%r15,%r11,1),%esi
  4067cf:	43 8d 7c 19 02       	lea    0x2(%r9,%r11,1),%edi
  4067d4:	45 0f af dc          	imul   %r12d,%r11d
  4067d8:	31 db                	xor    %ebx,%ebx
  4067da:	47 8d 04 19          	lea    (%r9,%r11,1),%r8d
  4067de:	66 90                	xchg   %ax,%ax
  4067e0:	45 8d 4b 01          	lea    0x1(%r11),%r9d
  4067e4:	c4 a1 7a 10 0c 8a    	vmovss (%rdx,%r9,4),%xmm1
  4067ea:	45 89 d9             	mov    %r11d,%r9d
  4067ed:	45 01 e3             	add    %r12d,%r11d
  4067f0:	c4 a1 7a 11 0c 8a    	vmovss %xmm1,(%rdx,%r9,4)
  4067f6:	45 89 c1             	mov    %r8d,%r9d
  4067f9:	c4 a1 7a 10 0c 8a    	vmovss (%rdx,%r9,4),%xmm1
  4067ff:	45 8d 48 01          	lea    0x1(%r8),%r9d
  406803:	45 01 e0             	add    %r12d,%r8d
  406806:	c4 a1 7a 11 0c 8a    	vmovss %xmm1,(%rdx,%r9,4)
  40680c:	44 8d 0c 1f          	lea    (%rdi,%rbx,1),%r9d
  406810:	c4 a1 7a 10 0c 8a    	vmovss (%rdx,%r9,4),%xmm1
  406816:	44 8d 0c 1e          	lea    (%rsi,%rbx,1),%r9d
  40681a:	c5 f0 57 c8          	vxorps %xmm0,%xmm1,%xmm1
  40681e:	c5 fa 11 0c 98       	vmovss %xmm1,(%rax,%rbx,4)
  406823:	c4 a1 7a 10 0c 8a    	vmovss (%rdx,%r9,4),%xmm1
  406829:	44 8d 0c 19          	lea    (%rcx,%rbx,1),%r9d
  40682d:	48 ff c3             	inc    %rbx
  406830:	c5 f0 57 c8          	vxorps %xmm0,%xmm1,%xmm1
  406834:	c4 a1 7a 11 0c 8a    	vmovss %xmm1,(%rdx,%r9,4)
  40683a:	49 39 dd             	cmp    %rbx,%r13
  40683d:	75 a1                	jne    4067e0 <set_bnd+0x400>
  40683f:	e9 53 08 00 00       	jmp    407097 <set_bnd+0xcb7>
  406844:	41 be 02 00 00 00    	mov    $0x2,%r14d
  40684a:	45 31 ff             	xor    %r15d,%r15d
  40684d:	e9 4a 08 00 00       	jmp    40709c <set_bnd+0xcbc>
  406852:	83 fd 03             	cmp    $0x3,%ebp
  406855:	b8 02 00 00 00       	mov    $0x2,%eax
  40685a:	41 bb 01 00 00 00    	mov    $0x1,%r11d
  406860:	0f 43 c5             	cmovae %ebp,%eax
  406863:	4c 8d 68 ff          	lea    -0x1(%rax),%r13
  406867:	48 83 c0 fe          	add    $0xfffffffffffffffe,%rax
  40686b:	4c 89 6c 24 b0       	mov    %r13,-0x50(%rsp)
  406870:	41 83 e5 07          	and    $0x7,%r13d
  406874:	48 83 f8 07          	cmp    $0x7,%rax
  406878:	0f 82 90 03 00 00    	jb     406c0e <set_bnd+0x82e>
  40687e:	c4 e2 79 18 05 99 77 	vbroadcastss 0x7799(%rip),%xmm0        # 40e020 <_IO_stdin_used+0x20>
  406885:	00 00 
  406887:	43 8d 04 c9          	lea    (%r9,%r9,8),%eax
  40688b:	42 8d 0c cd 10 00 00 	lea    0x10(,%r9,8),%ecx
  406892:	00 
  406893:	48 83 64 24 b0 f8    	andq   $0xfffffffffffffff8,-0x50(%rsp)
  406899:	89 6c 24 a8          	mov    %ebp,-0x58(%rsp)
  40689d:	43 8d 2c 89          	lea    (%r9,%r9,4),%ebp
  4068a1:	42 8d 34 8d 00 00 00 	lea    0x0(,%r9,4),%esi
  4068a8:	00 
  4068a9:	43 8d 1c 49          	lea    (%r9,%r9,2),%ebx
  4068ad:	4c 89 64 24 c0       	mov    %r12,-0x40(%rsp)
  4068b2:	4c 89 74 24 d0       	mov    %r14,-0x30(%rsp)
  4068b7:	4c 89 7c 24 c8       	mov    %r15,-0x38(%rsp)
  4068bc:	4c 89 6c 24 f0       	mov    %r13,-0x10(%rsp)
  4068c1:	45 89 f6             	mov    %r14d,%r14d
  4068c4:	45 89 ff             	mov    %r15d,%r15d
  4068c7:	45 31 e4             	xor    %r12d,%r12d
  4068ca:	45 31 db             	xor    %r11d,%r11d
  4068cd:	48 89 44 24 e8       	mov    %rax,-0x18(%rsp)
  4068d2:	42 8d 04 cd 00 00 00 	lea    0x0(,%r9,8),%eax
  4068d9:	00 
  4068da:	89 4c 24 ac          	mov    %ecx,-0x54(%rsp)
  4068de:	43 8d 0c 09          	lea    (%r9,%r9,1),%ecx
  4068e2:	48 89 4c 24 d8       	mov    %rcx,-0x28(%rsp)
  4068e7:	8d 0c 49             	lea    (%rcx,%rcx,2),%ecx
  4068ea:	48 89 44 24 e0       	mov    %rax,-0x20(%rsp)
  4068ef:	44 29 c8             	sub    %r9d,%eax
  4068f2:	66 66 66 66 66 2e 0f 	data16 data16 data16 data16 cs nopw 0x0(%rax,%rax,1)
  4068f9:	1f 84 00 00 00 00 00 
  406900:	4c 8b 44 24 b8       	mov    -0x48(%rsp),%r8
  406905:	43 8d 7c 21 02       	lea    0x2(%r9,%r12,1),%edi
  40690a:	47 8d 4c 20 03       	lea    0x3(%r8,%r12,1),%r9d
  40690f:	4c 8b 44 24 d8       	mov    -0x28(%rsp),%r8
  406914:	c4 a1 7a 10 0c 8a    	vmovss (%rdx,%r9,4),%xmm1
  40691a:	47 8d 6c 20 02       	lea    0x2(%r8,%r12,1),%r13d
  40691f:	47 8d 4c 20 03       	lea    0x3(%r8,%r12,1),%r9d
  406924:	c5 f0 57 c8          	vxorps %xmm0,%xmm1,%xmm1
  406928:	c5 fa 11 0c ba       	vmovss %xmm1,(%rdx,%rdi,4)
  40692d:	43 8d 7c 1a 03       	lea    0x3(%r10,%r11,1),%edi
  406932:	c4 a1 7a 10 0c aa    	vmovss (%rdx,%r13,4),%xmm1
  406938:	47 8d 6c 20 05       	lea    0x5(%r8,%r12,1),%r13d
  40693d:	c5 f0 57 c8          	vxorps %xmm0,%xmm1,%xmm1
  406941:	c4 a1 7a 11 0c 8a    	vmovss %xmm1,(%rdx,%r9,4)
  406947:	47 8d 4c 20 04       	lea    0x4(%r8,%r12,1),%r9d
  40694c:	4c 8b 44 24 e0       	mov    -0x20(%rsp),%r8
  406951:	c5 fa 10 0c ba       	vmovss (%rdx,%rdi,4),%xmm1
  406956:	43 8d 7c 1f 01       	lea    0x1(%r15,%r11,1),%edi
  40695b:	c4 a1 7a 11 4c 9a 04 	vmovss %xmm1,0x4(%rdx,%r11,4)
  406962:	c5 fa 10 0c ba       	vmovss (%rdx,%rdi,4),%xmm1
  406967:	43 8d 7c 1e 01       	lea    0x1(%r14,%r11,1),%edi
  40696c:	c5 fa 11 0c ba       	vmovss %xmm1,(%rdx,%rdi,4)
  406971:	42 8d 7c 23 04       	lea    0x4(%rbx,%r12,1),%edi
  406976:	c4 a1 7a 10 0c aa    	vmovss (%rdx,%r13,4),%xmm1
  40697c:	46 8d 6c 23 05       	lea    0x5(%rbx,%r12,1),%r13d
  406981:	c5 f0 57 c8          	vxorps %xmm0,%xmm1,%xmm1
  406985:	c4 a1 7a 11 0c 8a    	vmovss %xmm1,(%rdx,%r9,4)
  40698b:	47 8d 4c 1a 04       	lea    0x4(%r10,%r11,1),%r9d
  406990:	c5 fa 10 0c ba       	vmovss (%rdx,%rdi,4),%xmm1
  406995:	43 8d 7c 1f 02       	lea    0x2(%r15,%r11,1),%edi
  40699a:	c5 f0 57 c8          	vxorps %xmm0,%xmm1,%xmm1
  40699e:	c4 a1 7a 11 0c aa    	vmovss %xmm1,(%rdx,%r13,4)
  4069a4:	46 8d 6c 23 07       	lea    0x7(%rbx,%r12,1),%r13d
  4069a9:	c4 a1 7a 10 0c 8a    	vmovss (%rdx,%r9,4),%xmm1
  4069af:	46 8d 4c 23 06       	lea    0x6(%rbx,%r12,1),%r9d
  4069b4:	c4 a1 7a 11 4c 9a 08 	vmovss %xmm1,0x8(%rdx,%r11,4)
  4069bb:	c5 fa 10 0c ba       	vmovss (%rdx,%rdi,4),%xmm1
  4069c0:	43 8d 7c 1e 02       	lea    0x2(%r14,%r11,1),%edi
  4069c5:	c5 fa 11 0c ba       	vmovss %xmm1,(%rdx,%rdi,4)
  4069ca:	42 8d 7c 26 06       	lea    0x6(%rsi,%r12,1),%edi
  4069cf:	c4 a1 7a 10 0c aa    	vmovss (%rdx,%r13,4),%xmm1
  4069d5:	46 8d 6c 26 07       	lea    0x7(%rsi,%r12,1),%r13d
  4069da:	c5 f0 57 c8          	vxorps %xmm0,%xmm1,%xmm1
  4069de:	c4 a1 7a 11 0c 8a    	vmovss %xmm1,(%rdx,%r9,4)
  4069e4:	47 8d 4c 1a 05       	lea    0x5(%r10,%r11,1),%r9d
  4069e9:	c5 fa 10 0c ba       	vmovss (%rdx,%rdi,4),%xmm1
  4069ee:	43 8d 7c 1f 03       	lea    0x3(%r15,%r11,1),%edi
  4069f3:	c5 f0 57 c8          	vxorps %xmm0,%xmm1,%xmm1
  4069f7:	c4 a1 7a 11 0c aa    	vmovss %xmm1,(%rdx,%r13,4)
  4069fd:	46 8d 6c 26 09       	lea    0x9(%rsi,%r12,1),%r13d
  406a02:	c4 a1 7a 10 0c 8a    	vmovss (%rdx,%r9,4),%xmm1
  406a08:	46 8d 4c 26 08       	lea    0x8(%rsi,%r12,1),%r9d
  406a0d:	c4 a1 7a 11 4c 9a 0c 	vmovss %xmm1,0xc(%rdx,%r11,4)
  406a14:	c5 fa 10 0c ba       	vmovss (%rdx,%rdi,4),%xmm1
  406a19:	43 8d 7c 1e 03       	lea    0x3(%r14,%r11,1),%edi
  406a1e:	c5 fa 11 0c ba       	vmovss %xmm1,(%rdx,%rdi,4)
  406a23:	42 8d 7c 25 08       	lea    0x8(%rbp,%r12,1),%edi
  406a28:	c4 a1 7a 10 0c aa    	vmovss (%rdx,%r13,4),%xmm1
  406a2e:	46 8d 6c 25 09       	lea    0x9(%rbp,%r12,1),%r13d
  406a33:	c5 f0 57 c8          	vxorps %xmm0,%xmm1,%xmm1
  406a37:	c4 a1 7a 11 0c 8a    	vmovss %xmm1,(%rdx,%r9,4)
  406a3d:	47 8d 4c 1a 06       	lea    0x6(%r10,%r11,1),%r9d
  406a42:	c5 fa 10 0c ba       	vmovss (%rdx,%rdi,4),%xmm1
  406a47:	43 8d 7c 1f 04       	lea    0x4(%r15,%r11,1),%edi
  406a4c:	c5 f0 57 c8          	vxorps %xmm0,%xmm1,%xmm1
  406a50:	c4 a1 7a 11 0c aa    	vmovss %xmm1,(%rdx,%r13,4)
  406a56:	46 8d 6c 25 0b       	lea    0xb(%rbp,%r12,1),%r13d
  406a5b:	c4 a1 7a 10 0c 8a    	vmovss (%rdx,%r9,4),%xmm1
  406a61:	46 8d 4c 25 0a       	lea    0xa(%rbp,%r12,1),%r9d
  406a66:	c4 a1 7a 11 4c 9a 10 	vmovss %xmm1,0x10(%rdx,%r11,4)
  406a6d:	c5 fa 10 0c ba       	vmovss (%rdx,%rdi,4),%xmm1
  406a72:	43 8d 7c 1e 04       	lea    0x4(%r14,%r11,1),%edi
  406a77:	c5 fa 11 0c ba       	vmovss %xmm1,(%rdx,%rdi,4)
  406a7c:	42 8d 7c 21 0a       	lea    0xa(%rcx,%r12,1),%edi
  406a81:	c4 a1 7a 10 0c aa    	vmovss (%rdx,%r13,4),%xmm1
  406a87:	46 8d 6c 21 0b       	lea    0xb(%rcx,%r12,1),%r13d
  406a8c:	c5 f0 57 c8          	vxorps %xmm0,%xmm1,%xmm1
  406a90:	c4 a1 7a 11 0c 8a    	vmovss %xmm1,(%rdx,%r9,4)
  406a96:	47 8d 4c 1a 07       	lea    0x7(%r10,%r11,1),%r9d
  406a9b:	c5 fa 10 0c ba       	vmovss (%rdx,%rdi,4),%xmm1
  406aa0:	43 8d 7c 1f 05       	lea    0x5(%r15,%r11,1),%edi
  406aa5:	c5 f0 57 c8          	vxorps %xmm0,%xmm1,%xmm1
  406aa9:	c4 a1 7a 11 0c aa    	vmovss %xmm1,(%rdx,%r13,4)
  406aaf:	46 8d 6c 21 0d       	lea    0xd(%rcx,%r12,1),%r13d
  406ab4:	c4 a1 7a 10 0c 8a    	vmovss (%rdx,%r9,4),%xmm1
  406aba:	46 8d 4c 21 0c       	lea    0xc(%rcx,%r12,1),%r9d
  406abf:	c4 a1 7a 11 4c 9a 14 	vmovss %xmm1,0x14(%rdx,%r11,4)
  406ac6:	c5 fa 10 0c ba       	vmovss (%rdx,%rdi,4),%xmm1
  406acb:	43 8d 7c 1e 05       	lea    0x5(%r14,%r11,1),%edi
  406ad0:	c5 fa 11 0c ba       	vmovss %xmm1,(%rdx,%rdi,4)
  406ad5:	42 8d 7c 20 0c       	lea    0xc(%rax,%r12,1),%edi
  406ada:	c4 a1 7a 10 0c aa    	vmovss (%rdx,%r13,4),%xmm1
  406ae0:	46 8d 6c 20 0d       	lea    0xd(%rax,%r12,1),%r13d
  406ae5:	c5 f0 57 c8          	vxorps %xmm0,%xmm1,%xmm1
  406ae9:	c4 a1 7a 11 0c 8a    	vmovss %xmm1,(%rdx,%r9,4)
  406aef:	47 8d 4c 1a 08       	lea    0x8(%r10,%r11,1),%r9d
  406af4:	c5 fa 10 0c ba       	vmovss (%rdx,%rdi,4),%xmm1
  406af9:	43 8d 7c 1f 06       	lea    0x6(%r15,%r11,1),%edi
  406afe:	c5 f0 57 c8          	vxorps %xmm0,%xmm1,%xmm1
  406b02:	c4 a1 7a 11 0c aa    	vmovss %xmm1,(%rdx,%r13,4)
  406b08:	46 8d 6c 20 0f       	lea    0xf(%rax,%r12,1),%r13d
  406b0d:	c4 a1 7a 10 0c 8a    	vmovss (%rdx,%r9,4),%xmm1
  406b13:	46 8d 4c 20 0e       	lea    0xe(%rax,%r12,1),%r9d
  406b18:	c4 a1 7a 11 4c 9a 18 	vmovss %xmm1,0x18(%rdx,%r11,4)
  406b1f:	c5 fa 10 0c ba       	vmovss (%rdx,%rdi,4),%xmm1
  406b24:	43 8d 7c 1e 06       	lea    0x6(%r14,%r11,1),%edi
  406b29:	c5 fa 11 0c ba       	vmovss %xmm1,(%rdx,%rdi,4)
  406b2e:	43 8d 7c 20 0e       	lea    0xe(%r8,%r12,1),%edi
  406b33:	c4 a1 7a 10 0c aa    	vmovss (%rdx,%r13,4),%xmm1
  406b39:	47 8d 6c 20 0f       	lea    0xf(%r8,%r12,1),%r13d
  406b3e:	c5 f0 57 c8          	vxorps %xmm0,%xmm1,%xmm1
  406b42:	c4 a1 7a 11 0c 8a    	vmovss %xmm1,(%rdx,%r9,4)
  406b48:	47 8d 4c 1a 09       	lea    0x9(%r10,%r11,1),%r9d
  406b4d:	c5 fa 10 0c ba       	vmovss (%rdx,%rdi,4),%xmm1
  406b52:	43 8d 7c 1f 07       	lea    0x7(%r15,%r11,1),%edi
  406b57:	c5 f0 57 c8          	vxorps %xmm0,%xmm1,%xmm1
  406b5b:	c4 a1 7a 11 0c aa    	vmovss %xmm1,(%rdx,%r13,4)
  406b61:	47 8d 6c 20 11       	lea    0x11(%r8,%r12,1),%r13d
  406b66:	c4 a1 7a 10 0c 8a    	vmovss (%rdx,%r9,4),%xmm1
  406b6c:	47 8d 4c 20 10       	lea    0x10(%r8,%r12,1),%r9d
  406b71:	c4 a1 7a 11 4c 9a 1c 	vmovss %xmm1,0x1c(%rdx,%r11,4)
  406b78:	c5 fa 10 0c ba       	vmovss (%rdx,%rdi,4),%xmm1
  406b7d:	43 8d 7c 1e 07       	lea    0x7(%r14,%r11,1),%edi
  406b82:	c5 fa 11 0c ba       	vmovss %xmm1,(%rdx,%rdi,4)
  406b87:	c4 a1 7a 10 0c aa    	vmovss (%rdx,%r13,4),%xmm1
  406b8d:	4c 8b 6c 24 e8       	mov    -0x18(%rsp),%r13
  406b92:	43 8d 7c 25 10       	lea    0x10(%r13,%r12,1),%edi
  406b97:	c5 f0 57 c8          	vxorps %xmm0,%xmm1,%xmm1
  406b9b:	c4 a1 7a 11 0c 8a    	vmovss %xmm1,(%rdx,%r9,4)
  406ba1:	47 8d 4c 25 11       	lea    0x11(%r13,%r12,1),%r9d
  406ba6:	44 03 64 24 ac       	add    -0x54(%rsp),%r12d
  406bab:	c5 fa 10 0c ba       	vmovss (%rdx,%rdi,4),%xmm1
  406bb0:	43 8d 7c 1a 0a       	lea    0xa(%r10,%r11,1),%edi
  406bb5:	c5 f0 57 c8          	vxorps %xmm0,%xmm1,%xmm1
  406bb9:	c4 a1 7a 11 0c 8a    	vmovss %xmm1,(%rdx,%r9,4)
  406bbf:	4c 8b 4c 24 b8       	mov    -0x48(%rsp),%r9
  406bc4:	c5 fa 10 0c ba       	vmovss (%rdx,%rdi,4),%xmm1
  406bc9:	43 8d 7c 1f 08       	lea    0x8(%r15,%r11,1),%edi
  406bce:	c4 a1 7a 11 4c 9a 20 	vmovss %xmm1,0x20(%rdx,%r11,4)
  406bd5:	c5 fa 10 0c ba       	vmovss (%rdx,%rdi,4),%xmm1
  406bda:	43 8d 7c 1e 08       	lea    0x8(%r14,%r11,1),%edi
  406bdf:	49 83 c3 08          	add    $0x8,%r11
  406be3:	c5 fa 11 0c ba       	vmovss %xmm1,(%rdx,%rdi,4)
  406be8:	4c 39 5c 24 b0       	cmp    %r11,-0x50(%rsp)
  406bed:	0f 85 0d fd ff ff    	jne    406900 <set_bnd+0x520>
  406bf3:	8b 6c 24 a8          	mov    -0x58(%rsp),%ebp
  406bf7:	4c 8b 74 24 d0       	mov    -0x30(%rsp),%r14
  406bfc:	4c 8b 7c 24 c8       	mov    -0x38(%rsp),%r15
  406c01:	4c 8b 64 24 c0       	mov    -0x40(%rsp),%r12
  406c06:	4c 8b 6c 24 f0       	mov    -0x10(%rsp),%r13
  406c0b:	49 ff c3             	inc    %r11
  406c0e:	4d 85 ed             	test   %r13,%r13
  406c11:	0f 84 85 04 00 00    	je     40709c <set_bnd+0xcbc>
  406c17:	c4 e2 79 18 05 00 74 	vbroadcastss 0x7400(%rip),%xmm0        # 40e020 <_IO_stdin_used+0x20>
  406c1e:	00 00 
  406c20:	4a 8d 04 9a          	lea    (%rdx,%r11,4),%rax
  406c24:	43 8d 0c 1e          	lea    (%r14,%r11,1),%ecx
  406c28:	43 8d 34 1f          	lea    (%r15,%r11,1),%esi
  406c2c:	43 8d 7c 19 02       	lea    0x2(%r9,%r11,1),%edi
  406c31:	45 0f af dc          	imul   %r12d,%r11d
  406c35:	31 db                	xor    %ebx,%ebx
  406c37:	47 8d 04 19          	lea    (%r9,%r11,1),%r8d
  406c3b:	0f 1f 44 00 00       	nopl   0x0(%rax,%rax,1)
  406c40:	45 8d 4b 01          	lea    0x1(%r11),%r9d
  406c44:	c4 a1 7a 10 0c 8a    	vmovss (%rdx,%r9,4),%xmm1
  406c4a:	45 89 d9             	mov    %r11d,%r9d
  406c4d:	45 01 e3             	add    %r12d,%r11d
  406c50:	c5 f0 57 c8          	vxorps %xmm0,%xmm1,%xmm1
  406c54:	c4 a1 7a 11 0c 8a    	vmovss %xmm1,(%rdx,%r9,4)
  406c5a:	45 89 c1             	mov    %r8d,%r9d
  406c5d:	c4 a1 7a 10 0c 8a    	vmovss (%rdx,%r9,4),%xmm1
  406c63:	45 8d 48 01          	lea    0x1(%r8),%r9d
  406c67:	45 01 e0             	add    %r12d,%r8d
  406c6a:	c5 f0 57 c8          	vxorps %xmm0,%xmm1,%xmm1
  406c6e:	c4 a1 7a 11 0c 8a    	vmovss %xmm1,(%rdx,%r9,4)
  406c74:	44 8d 0c 1f          	lea    (%rdi,%rbx,1),%r9d
  406c78:	c4 a1 7a 10 0c 8a    	vmovss (%rdx,%r9,4),%xmm1
  406c7e:	44 8d 0c 1e          	lea    (%rsi,%rbx,1),%r9d
  406c82:	c5 fa 11 0c 98       	vmovss %xmm1,(%rax,%rbx,4)
  406c87:	c4 a1 7a 10 0c 8a    	vmovss (%rdx,%r9,4),%xmm1
  406c8d:	44 8d 0c 19          	lea    (%rcx,%rbx,1),%r9d
  406c91:	48 ff c3             	inc    %rbx
  406c94:	c4 a1 7a 11 0c 8a    	vmovss %xmm1,(%rdx,%r9,4)
  406c9a:	49 39 dd             	cmp    %rbx,%r13
  406c9d:	75 a1                	jne    406c40 <set_bnd+0x860>
  406c9f:	e9 f3 03 00 00       	jmp    407097 <set_bnd+0xcb7>
  406ca4:	83 fd 03             	cmp    $0x3,%ebp
  406ca7:	b8 02 00 00 00       	mov    $0x2,%eax
  406cac:	41 bb 01 00 00 00    	mov    $0x1,%r11d
  406cb2:	0f 43 c5             	cmovae %ebp,%eax
  406cb5:	4c 8d 68 ff          	lea    -0x1(%rax),%r13
  406cb9:	48 83 c0 fe          	add    $0xfffffffffffffffe,%rax
  406cbd:	4c 89 6c 24 b0       	mov    %r13,-0x50(%rsp)
  406cc2:	41 83 e5 07          	and    $0x7,%r13d
  406cc6:	48 83 f8 07          	cmp    $0x7,%rax
  406cca:	0f 82 44 03 00 00    	jb     407014 <set_bnd+0xc34>
  406cd0:	43 8d 04 c9          	lea    (%r9,%r9,8),%eax
  406cd4:	48 83 64 24 b0 f8    	andq   $0xfffffffffffffff8,-0x50(%rsp)
  406cda:	42 8d 34 cd 10 00 00 	lea    0x10(,%r9,8),%esi
  406ce1:	00 
  406ce2:	4c 89 7c 24 c8       	mov    %r15,-0x38(%rsp)
  406ce7:	44 89 fb             	mov    %r15d,%ebx
  406cea:	46 8d 3c cd 00 00 00 	lea    0x0(,%r9,8),%r15d
  406cf1:	00 
  406cf2:	89 6c 24 a8          	mov    %ebp,-0x58(%rsp)
  406cf6:	43 8d 2c 89          	lea    (%r9,%r9,4),%ebp
  406cfa:	4c 89 6c 24 f8       	mov    %r13,-0x8(%rsp)
  406cff:	4c 89 64 24 c0       	mov    %r12,-0x40(%rsp)
  406d04:	4c 89 74 24 d0       	mov    %r14,-0x30(%rsp)
  406d09:	44 89 f1             	mov    %r14d,%ecx
  406d0c:	45 31 c0             	xor    %r8d,%r8d
  406d0f:	45 31 db             	xor    %r11d,%r11d
  406d12:	48 89 44 24 e8       	mov    %rax,-0x18(%rsp)
  406d17:	43 8d 04 09          	lea    (%r9,%r9,1),%eax
  406d1b:	89 74 24 ac          	mov    %esi,-0x54(%rsp)
  406d1f:	42 8d 34 8d 00 00 00 	lea    0x0(,%r9,4),%esi
  406d26:	00 
  406d27:	4c 89 7c 24 e0       	mov    %r15,-0x20(%rsp)
  406d2c:	45 29 cf             	sub    %r9d,%r15d
  406d2f:	48 89 44 24 d8       	mov    %rax,-0x28(%rsp)
  406d34:	8d 04 40             	lea    (%rax,%rax,2),%eax
  406d37:	48 89 44 24 f0       	mov    %rax,-0x10(%rsp)
  406d3c:	43 8d 04 49          	lea    (%r9,%r9,2),%eax
  406d40:	48 8b 7c 24 b8       	mov    -0x48(%rsp),%rdi
  406d45:	4c 8b 74 24 b8       	mov    -0x48(%rsp),%r14
  406d4a:	4c 8b 6c 24 d8       	mov    -0x28(%rsp),%r13
  406d4f:	46 8d 4c 07 02       	lea    0x2(%rdi,%r8,1),%r9d
  406d54:	43 8d 7c 06 03       	lea    0x3(%r14,%r8,1),%edi
  406d59:	47 8d 74 05 02       	lea    0x2(%r13,%r8,1),%r14d
  406d5e:	47 8d 64 05 03       	lea    0x3(%r13,%r8,1),%r12d
  406d63:	c5 fa 10 04 ba       	vmovss (%rdx,%rdi,4),%xmm0
  406d68:	43 8d 7c 1a 03       	lea    0x3(%r10,%r11,1),%edi
  406d6d:	c4 a1 7a 11 04 8a    	vmovss %xmm0,(%rdx,%r9,4)
  406d73:	47 8d 4c 05 04       	lea    0x4(%r13,%r8,1),%r9d
  406d78:	c4 a1 7a 10 04 b2    	vmovss (%rdx,%r14,4),%xmm0
  406d7e:	47 8d 74 05 05       	lea    0x5(%r13,%r8,1),%r14d
  406d83:	46 8d 6c 00 05       	lea    0x5(%rax,%r8,1),%r13d
  406d88:	c4 a1 7a 11 04 a2    	vmovss %xmm0,(%rdx,%r12,4)
  406d8e:	46 8d 64 00 04       	lea    0x4(%rax,%r8,1),%r12d
  406d93:	c5 fa 10 04 ba       	vmovss (%rdx,%rdi,4),%xmm0
  406d98:	42 8d 7c 1b 01       	lea    0x1(%rbx,%r11,1),%edi
  406d9d:	c4 a1 7a 11 44 9a 04 	vmovss %xmm0,0x4(%rdx,%r11,4)
  406da4:	c5 fa 10 04 ba       	vmovss (%rdx,%rdi,4),%xmm0
  406da9:	42 8d 7c 19 01       	lea    0x1(%rcx,%r11,1),%edi
  406dae:	c5 fa 11 04 ba       	vmovss %xmm0,(%rdx,%rdi,4)
  406db3:	43 8d 7c 1a 04       	lea    0x4(%r10,%r11,1),%edi
  406db8:	c4 a1 7a 10 04 b2    	vmovss (%rdx,%r14,4),%xmm0
  406dbe:	46 8d 74 00 07       	lea    0x7(%rax,%r8,1),%r14d
  406dc3:	c4 a1 7a 11 04 8a    	vmovss %xmm0,(%rdx,%r9,4)
  406dc9:	46 8d 4c 00 06       	lea    0x6(%rax,%r8,1),%r9d
  406dce:	c4 a1 7a 10 04 a2    	vmovss (%rdx,%r12,4),%xmm0
  406dd4:	46 8d 64 06 07       	lea    0x7(%rsi,%r8,1),%r12d
  406dd9:	c4 a1 7a 11 04 aa    	vmovss %xmm0,(%rdx,%r13,4)
  406ddf:	c5 fa 10 04 ba       	vmovss (%rdx,%rdi,4),%xmm0
  406de4:	42 8d 7c 1b 02       	lea    0x2(%rbx,%r11,1),%edi
  406de9:	c4 a1 7a 11 44 9a 08 	vmovss %xmm0,0x8(%rdx,%r11,4)
  406df0:	c5 fa 10 04 ba       	vmovss (%rdx,%rdi,4),%xmm0
  406df5:	42 8d 7c 19 02       	lea    0x2(%rcx,%r11,1),%edi
  406dfa:	c5 fa 11 04 ba       	vmovss %xmm0,(%rdx,%rdi,4)
  406dff:	42 8d 7c 06 06       	lea    0x6(%rsi,%r8,1),%edi
  406e04:	c4 a1 7a 10 04 b2    	vmovss (%rdx,%r14,4),%xmm0
  406e0a:	47 8d 74 1a 05       	lea    0x5(%r10,%r11,1),%r14d
  406e0f:	c4 a1 7a 11 04 8a    	vmovss %xmm0,(%rdx,%r9,4)
  406e15:	46 8d 4c 06 08       	lea    0x8(%rsi,%r8,1),%r9d
  406e1a:	c5 fa 10 04 ba       	vmovss (%rdx,%rdi,4),%xmm0
  406e1f:	42 8d 7c 1b 03       	lea    0x3(%rbx,%r11,1),%edi
  406e24:	c4 a1 7a 11 04 a2    	vmovss %xmm0,(%rdx,%r12,4)
  406e2a:	46 8d 64 05 08       	lea    0x8(%rbp,%r8,1),%r12d
  406e2f:	c4 a1 7a 10 04 b2    	vmovss (%rdx,%r14,4),%xmm0
  406e35:	46 8d 74 06 09       	lea    0x9(%rsi,%r8,1),%r14d
  406e3a:	c4 a1 7a 11 44 9a 0c 	vmovss %xmm0,0xc(%rdx,%r11,4)
  406e41:	c5 fa 10 04 ba       	vmovss (%rdx,%rdi,4),%xmm0
  406e46:	42 8d 7c 19 03       	lea    0x3(%rcx,%r11,1),%edi
  406e4b:	c5 fa 11 04 ba       	vmovss %xmm0,(%rdx,%rdi,4)
  406e50:	42 8d 7c 05 09       	lea    0x9(%rbp,%r8,1),%edi
  406e55:	c4 a1 7a 10 04 b2    	vmovss (%rdx,%r14,4),%xmm0
  406e5b:	47 8d 74 1a 06       	lea    0x6(%r10,%r11,1),%r14d
  406e60:	c4 a1 7a 11 04 8a    	vmovss %xmm0,(%rdx,%r9,4)
  406e66:	46 8d 4c 05 0a       	lea    0xa(%rbp,%r8,1),%r9d
  406e6b:	c4 a1 7a 10 04 a2    	vmovss (%rdx,%r12,4),%xmm0
  406e71:	4c 8b 64 24 f0       	mov    -0x10(%rsp),%r12
  406e76:	c5 fa 11 04 ba       	vmovss %xmm0,(%rdx,%rdi,4)
  406e7b:	42 8d 7c 1b 04       	lea    0x4(%rbx,%r11,1),%edi
  406e80:	c4 a1 7a 10 04 b2    	vmovss (%rdx,%r14,4),%xmm0
  406e86:	47 8d 74 04 0a       	lea    0xa(%r12,%r8,1),%r14d
  406e8b:	c4 a1 7a 11 44 9a 10 	vmovss %xmm0,0x10(%rdx,%r11,4)
  406e92:	c5 fa 10 04 ba       	vmovss (%rdx,%rdi,4),%xmm0
  406e97:	42 8d 7c 19 04       	lea    0x4(%rcx,%r11,1),%edi
  406e9c:	c5 fa 11 04 ba       	vmovss %xmm0,(%rdx,%rdi,4)
  406ea1:	42 8d 7c 05 0b       	lea    0xb(%rbp,%r8,1),%edi
  406ea6:	c5 fa 10 04 ba       	vmovss (%rdx,%rdi,4),%xmm0
  406eab:	43 8d 7c 04 0b       	lea    0xb(%r12,%r8,1),%edi
  406eb0:	c4 a1 7a 11 04 8a    	vmovss %xmm0,(%rdx,%r9,4)
  406eb6:	47 8d 4c 1a 07       	lea    0x7(%r10,%r11,1),%r9d
  406ebb:	c4 a1 7a 10 04 b2    	vmovss (%rdx,%r14,4),%xmm0
  406ec1:	47 8d 74 04 0d       	lea    0xd(%r12,%r8,1),%r14d
  406ec6:	c5 fa 11 04 ba       	vmovss %xmm0,(%rdx,%rdi,4)
  406ecb:	42 8d 7c 1b 05       	lea    0x5(%rbx,%r11,1),%edi
  406ed0:	c4 a1 7a 10 04 8a    	vmovss (%rdx,%r9,4),%xmm0
  406ed6:	47 8d 4c 04 0c       	lea    0xc(%r12,%r8,1),%r9d
  406edb:	c4 a1 7a 11 44 9a 14 	vmovss %xmm0,0x14(%rdx,%r11,4)
  406ee2:	c5 fa 10 04 ba       	vmovss (%rdx,%rdi,4),%xmm0
  406ee7:	42 8d 7c 19 05       	lea    0x5(%rcx,%r11,1),%edi
  406eec:	c5 fa 11 04 ba       	vmovss %xmm0,(%rdx,%rdi,4)
  406ef1:	43 8d 7c 07 0c       	lea    0xc(%r15,%r8,1),%edi
  406ef6:	c4 a1 7a 10 04 b2    	vmovss (%rdx,%r14,4),%xmm0
  406efc:	47 8d 74 07 0d       	lea    0xd(%r15,%r8,1),%r14d
  406f01:	c4 a1 7a 11 04 8a    	vmovss %xmm0,(%rdx,%r9,4)
  406f07:	47 8d 4c 07 0f       	lea    0xf(%r15,%r8,1),%r9d
  406f0c:	c5 fa 10 04 ba       	vmovss (%rdx,%rdi,4),%xmm0
  406f11:	43 8d 7c 1a 08       	lea    0x8(%r10,%r11,1),%edi
  406f16:	c4 a1 7a 11 04 b2    	vmovss %xmm0,(%rdx,%r14,4)
  406f1c:	4c 8b 74 24 e0       	mov    -0x20(%rsp),%r14
  406f21:	c5 fa 10 04 ba       	vmovss (%rdx,%rdi,4),%xmm0
  406f26:	42 8d 7c 1b 06       	lea    0x6(%rbx,%r11,1),%edi
  406f2b:	c4 a1 7a 11 44 9a 18 	vmovss %xmm0,0x18(%rdx,%r11,4)
  406f32:	c5 fa 10 04 ba       	vmovss (%rdx,%rdi,4),%xmm0
  406f37:	42 8d 7c 19 06       	lea    0x6(%rcx,%r11,1),%edi
  406f3c:	c5 fa 11 04 ba       	vmovss %xmm0,(%rdx,%rdi,4)
  406f41:	43 8d 7c 07 0e       	lea    0xe(%r15,%r8,1),%edi
  406f46:	c4 a1 7a 10 04 8a    	vmovss (%rdx,%r9,4),%xmm0
  406f4c:	47 8d 4c 06 0e       	lea    0xe(%r14,%r8,1),%r9d
  406f51:	c5 fa 11 04 ba       	vmovss %xmm0,(%rdx,%rdi,4)
  406f56:	43 8d 7c 06 0f       	lea    0xf(%r14,%r8,1),%edi
  406f5b:	c4 a1 7a 10 04 8a    	vmovss (%rdx,%r9,4),%xmm0
  406f61:	47 8d 4c 1a 09       	lea    0x9(%r10,%r11,1),%r9d
  406f66:	c5 fa 11 04 ba       	vmovss %xmm0,(%rdx,%rdi,4)
  406f6b:	42 8d 7c 1b 07       	lea    0x7(%rbx,%r11,1),%edi
  406f70:	c4 a1 7a 10 04 8a    	vmovss (%rdx,%r9,4),%xmm0
  406f76:	47 8d 4c 06 10       	lea    0x10(%r14,%r8,1),%r9d
  406f7b:	c4 a1 7a 11 44 9a 1c 	vmovss %xmm0,0x1c(%rdx,%r11,4)
  406f82:	c5 fa 10 04 ba       	vmovss (%rdx,%rdi,4),%xmm0
  406f87:	42 8d 7c 19 07       	lea    0x7(%rcx,%r11,1),%edi
  406f8c:	c5 fa 11 04 ba       	vmovss %xmm0,(%rdx,%rdi,4)
  406f91:	43 8d 7c 06 11       	lea    0x11(%r14,%r8,1),%edi
  406f96:	4c 8b 74 24 e8       	mov    -0x18(%rsp),%r14
  406f9b:	c5 fa 10 04 ba       	vmovss (%rdx,%rdi,4),%xmm0
  406fa0:	43 8d 7c 06 10       	lea    0x10(%r14,%r8,1),%edi
  406fa5:	c4 a1 7a 11 04 8a    	vmovss %xmm0,(%rdx,%r9,4)
  406fab:	47 8d 4c 06 11       	lea    0x11(%r14,%r8,1),%r9d
  406fb0:	44 03 44 24 ac       	add    -0x54(%rsp),%r8d
  406fb5:	c5 fa 10 04 ba       	vmovss (%rdx,%rdi,4),%xmm0
  406fba:	43 8d 7c 1a 0a       	lea    0xa(%r10,%r11,1),%edi
  406fbf:	c4 a1 7a 11 04 8a    	vmovss %xmm0,(%rdx,%r9,4)
  406fc5:	4c 8b 4c 24 b8       	mov    -0x48(%rsp),%r9
  406fca:	c5 fa 10 04 ba       	vmovss (%rdx,%rdi,4),%xmm0
  406fcf:	42 8d 7c 1b 08       	lea    0x8(%rbx,%r11,1),%edi
  406fd4:	c4 a1 7a 11 44 9a 20 	vmovss %xmm0,0x20(%rdx,%r11,4)
  406fdb:	c5 fa 10 04 ba       	vmovss (%rdx,%rdi,4),%xmm0
  406fe0:	42 8d 7c 19 08       	lea    0x8(%rcx,%r11,1),%edi
  406fe5:	49 83 c3 08          	add    $0x8,%r11
  406fe9:	c5 fa 11 04 ba       	vmovss %xmm0,(%rdx,%rdi,4)
  406fee:	4c 39 5c 24 b0       	cmp    %r11,-0x50(%rsp)
  406ff3:	0f 85 47 fd ff ff    	jne    406d40 <set_bnd+0x960>
  406ff9:	8b 6c 24 a8          	mov    -0x58(%rsp),%ebp
  406ffd:	4c 8b 74 24 d0       	mov    -0x30(%rsp),%r14
  407002:	4c 8b 7c 24 c8       	mov    -0x38(%rsp),%r15
  407007:	4c 8b 64 24 c0       	mov    -0x40(%rsp),%r12
  40700c:	4c 8b 6c 24 f8       	mov    -0x8(%rsp),%r13
  407011:	49 ff c3             	inc    %r11
  407014:	4d 85 ed             	test   %r13,%r13
  407017:	0f 84 7f 00 00 00    	je     40709c <set_bnd+0xcbc>
  40701d:	4a 8d 04 9a          	lea    (%rdx,%r11,4),%rax
  407021:	43 8d 0c 1e          	lea    (%r14,%r11,1),%ecx
  407025:	43 8d 34 1f          	lea    (%r15,%r11,1),%esi
  407029:	43 8d 7c 19 02       	lea    0x2(%r9,%r11,1),%edi
  40702e:	45 0f af dc          	imul   %r12d,%r11d
  407032:	31 db                	xor    %ebx,%ebx
  407034:	47 8d 04 19          	lea    (%r9,%r11,1),%r8d
  407038:	0f 1f 84 00 00 00 00 	nopl   0x0(%rax,%rax,1)
  40703f:	00 
  407040:	45 8d 4b 01          	lea    0x1(%r11),%r9d
  407044:	c4 a1 7a 10 04 8a    	vmovss (%rdx,%r9,4),%xmm0
  40704a:	45 89 d9             	mov    %r11d,%r9d
  40704d:	45 01 e3             	add    %r12d,%r11d
  407050:	c4 a1 7a 11 04 8a    	vmovss %xmm0,(%rdx,%r9,4)
  407056:	45 89 c1             	mov    %r8d,%r9d
  407059:	c4 a1 7a 10 04 8a    	vmovss (%rdx,%r9,4),%xmm0
  40705f:	45 8d 48 01          	lea    0x1(%r8),%r9d
  407063:	45 01 e0             	add    %r12d,%r8d
  407066:	c4 a1 7a 11 04 8a    	vmovss %xmm0,(%rdx,%r9,4)
  40706c:	44 8d 0c 1f          	lea    (%rdi,%rbx,1),%r9d
  407070:	c4 a1 7a 10 04 8a    	vmovss (%rdx,%r9,4),%xmm0
  407076:	44 8d 0c 1e          	lea    (%rsi,%rbx,1),%r9d
  40707a:	c5 fa 11 04 98       	vmovss %xmm0,(%rax,%rbx,4)
  40707f:	c4 a1 7a 10 04 8a    	vmovss (%rdx,%r9,4),%xmm0
  407085:	44 8d 0c 19          	lea    (%rcx,%rbx,1),%r9d
  407089:	48 ff c3             	inc    %rbx
  40708c:	c4 a1 7a 11 04 8a    	vmovss %xmm0,(%rdx,%r9,4)
  407092:	49 39 dd             	cmp    %rbx,%r13
  407095:	75 a9                	jne    407040 <set_bnd+0xc60>
  407097:	4c 8b 4c 24 b8       	mov    -0x48(%rsp),%r9
  40709c:	44 89 e0             	mov    %r12d,%eax
  40709f:	c5 fa 10 04 82       	vmovss (%rdx,%rax,4),%xmm0
  4070a4:	c5 fa 10 0d 68 6f 00 	vmovss 0x6f68(%rip),%xmm1        # 40e014 <_IO_stdin_used+0x14>
  4070ab:	00 
  4070ac:	44 89 f9             	mov    %r15d,%ecx
  4070af:	41 8d 46 01          	lea    0x1(%r14),%eax
  4070b3:	41 01 ec             	add    %ebp,%r12d
  4070b6:	41 01 ef             	add    %ebp,%r15d
  4070b9:	45 01 f1             	add    %r14d,%r9d
  4070bc:	c5 fa 58 42 04       	vaddss 0x4(%rdx),%xmm0,%xmm0
  4070c1:	c5 fa 59 c1          	vmulss %xmm1,%xmm0,%xmm0
  4070c5:	c5 fa 11 02          	vmovss %xmm0,(%rdx)
  4070c9:	c5 fa 10 04 8a       	vmovss (%rdx,%rcx,4),%xmm0
  4070ce:	c5 fa 58 04 82       	vaddss (%rdx,%rax,4),%xmm0,%xmm0
  4070d3:	44 89 f0             	mov    %r14d,%eax
  4070d6:	41 01 ee             	add    %ebp,%r14d
  4070d9:	c5 fa 59 c1          	vmulss %xmm1,%xmm0,%xmm0
  4070dd:	c5 fa 11 04 82       	vmovss %xmm0,(%rdx,%rax,4)
  4070e2:	89 e8                	mov    %ebp,%eax
  4070e4:	c4 a1 7a 10 04 a2    	vmovss (%rdx,%r12,4),%xmm0
  4070ea:	c4 a1 7a 58 04 92    	vaddss (%rdx,%r10,4),%xmm0,%xmm0
  4070f0:	c5 fa 59 c1          	vmulss %xmm1,%xmm0,%xmm0
  4070f4:	c5 fa 11 04 82       	vmovss %xmm0,(%rdx,%rax,4)
  4070f9:	c4 a1 7a 10 04 ba    	vmovss (%rdx,%r15,4),%xmm0
  4070ff:	c4 a1 7a 58 04 8a    	vaddss (%rdx,%r9,4),%xmm0,%xmm0
  407105:	c5 fa 59 c1          	vmulss %xmm1,%xmm0,%xmm0
  407109:	c4 a1 7a 11 04 b2    	vmovss %xmm0,(%rdx,%r14,4)
  40710f:	5b                   	pop    %rbx
  407110:	41 5c                	pop    %r12
  407112:	41 5d                	pop    %r13
  407114:	41 5e                	pop    %r14
  407116:	41 5f                	pop    %r15
  407118:	5d                   	pop    %rbp
  407119:	c3                   	ret
  40711a:	66 0f 1f 44 00 00    	nopw   0x0(%rax,%rax,1)

0000000000407120 <wtime>:
  407120:	48 83 ec 18          	sub    $0x18,%rsp
  407124:	48 8d 74 24 08       	lea    0x8(%rsp),%rsi
  407129:	bf 04 00 00 00       	mov    $0x4,%edi
  40712e:	e8 2d 9f ff ff       	call   401060 <clock_gettime@plt>
  407133:	c4 e1 fb 2a 4c 24 10 	vcvtsi2sdq 0x10(%rsp),%xmm0,%xmm1
  40713a:	c4 e1 fb 2a 44 24 08 	vcvtsi2sdq 0x8(%rsp),%xmm0,%xmm0
  407141:	c4 e2 f1 b9 05 06 6f 	vfmadd231sd 0x6f06(%rip),%xmm1,%xmm0        # 40e050 <_IO_stdin_used+0x50>
  407148:	00 00 
  40714a:	48 83 c4 18          	add    $0x18,%rsp
  40714e:	c3                   	ret
  40714f:	90                   	nop

0000000000407150 <__intel_get_fast_memset_impl.V>:
  407150:	48 c7 c0 10 8b 40 00 	mov    $0x408b10,%rax
  407157:	c3                   	ret
  407158:	0f 1f 84 00 00 00 00 	nopl   0x0(%rax,%rax,1)
  40715f:	00 

0000000000407160 <__intel_get_fast_memset_impl.Z>:
  407160:	48 c7 c0 40 72 40 00 	mov    $0x407240,%rax
  407167:	c3                   	ret
  407168:	0f 1f 84 00 00 00 00 	nopl   0x0(%rax,%rax,1)
  40716f:	00 

0000000000407170 <_intel_fast_memset>:
  407170:	f3 0f 1e fa          	endbr64
  407174:	48 8b 05 05 b0 00 00 	mov    0xb005(%rip),%rax        # 412180 <__real_memset_impl>
  40717b:	48 85 c0             	test   %rax,%rax
  40717e:	0f 84 0c 00 00 00    	je     407190 <__real_memset_impl_setup>
  407184:	ff e0                	jmp    *%rax
  407186:	66 2e 0f 1f 84 00 00 	cs nopw 0x0(%rax,%rax,1)
  40718d:	00 00 00 

0000000000407190 <__real_memset_impl_setup>:
  407190:	55                   	push   %rbp
  407191:	41 56                	push   %r14
  407193:	53                   	push   %rbx
  407194:	48 89 d3             	mov    %rdx,%rbx
  407197:	89 f5                	mov    %esi,%ebp
  407199:	49 89 fe             	mov    %rdi,%r14
  40719c:	48 c7 c1 a0 21 41 00 	mov    $0x4121a0,%rcx
  4071a3:	48 8b 01             	mov    (%rcx),%rax
  4071a6:	48 85 c0             	test   %rax,%rax
  4071a9:	75 12                	jne    4071bd <__real_memset_impl_setup+0x2d>
  4071ab:	0f 1f 44 00 00       	nopl   0x0(%rax,%rax,1)
  4071b0:	e8 eb 46 00 00       	call   40b8a0 <__intel_cpu_features_init_x>
  4071b5:	48 8b 01             	mov    (%rcx),%rax
  4071b8:	48 85 c0             	test   %rax,%rax
  4071bb:	74 f3                	je     4071b0 <__real_memset_impl_setup+0x20>
  4071bd:	48 89 c1             	mov    %rax,%rcx
  4071c0:	48 f7 d1             	not    %rcx
  4071c3:	48 ba ec 9f 9d 18 07 	movabs $0x7189d9fec,%rdx
  4071ca:	00 00 00 
  4071cd:	48 85 d1             	test   %rdx,%rcx
  4071d0:	75 07                	jne    4071d9 <__real_memset_impl_setup+0x49>
  4071d2:	e8 89 ff ff ff       	call   407160 <__intel_get_fast_memset_impl.Z>
  4071d7:	eb 29                	jmp    407202 <__real_memset_impl_setup+0x72>
  4071d9:	89 c1                	mov    %eax,%ecx
  4071db:	f7 d1                	not    %ecx
  4071dd:	f7 c1 ec 9f 9d 00    	test   $0x9d9fec,%ecx
  4071e3:	75 07                	jne    4071ec <__real_memset_impl_setup+0x5c>
  4071e5:	e8 66 ff ff ff       	call   407150 <__intel_get_fast_memset_impl.V>
  4071ea:	eb 16                	jmp    407202 <__real_memset_impl_setup+0x72>
  4071ec:	f7 d0                	not    %eax
  4071ee:	a8 6c                	test   $0x6c,%al
  4071f0:	75 09                	jne    4071fb <__real_memset_impl_setup+0x6b>
  4071f2:	48 c7 c0 e0 9b 40 00 	mov    $0x409be0,%rax
  4071f9:	eb 07                	jmp    407202 <__real_memset_impl_setup+0x72>
  4071fb:	48 8b 05 be ad 00 00 	mov    0xadbe(%rip),%rax        # 411fc0 <memset@GLIBC_2.2.5>
  407202:	48 89 05 77 af 00 00 	mov    %rax,0xaf77(%rip)        # 412180 <__real_memset_impl>
  407209:	4c 89 f7             	mov    %r14,%rdi
  40720c:	89 ee                	mov    %ebp,%esi
  40720e:	48 89 da             	mov    %rbx,%rdx
  407211:	5b                   	pop    %rbx
  407212:	41 5e                	pop    %r14
  407214:	5d                   	pop    %rbp
  407215:	ff e0                	jmp    *%rax
  407217:	90                   	nop
  407218:	66 2e 0f 1f 84 00 00 	cs nopw 0x0(%rax,%rax,1)
  40721f:	00 00 00 
  407222:	66 2e 0f 1f 84 00 00 	cs nopw 0x0(%rax,%rax,1)
  407229:	00 00 00 
  40722c:	66 2e 0f 1f 84 00 00 	cs nopw 0x0(%rax,%rax,1)
  407233:	00 00 00 
  407236:	66 2e 0f 1f 84 00 00 	cs nopw 0x0(%rax,%rax,1)
  40723d:	00 00 00 

0000000000407240 <__intel_mic_avx512f_memset>:
  407240:	f3 0f 1e fa          	endbr64
  407244:	48 89 f8             	mov    %rdi,%rax
  407247:	48 c7 c1 d0 20 41 00 	mov    $0x4120d0,%rcx
  40724e:	49 b8 01 01 01 01 01 	movabs $0x101010101010101,%r8
  407255:	01 01 01 
  407258:	4c 0f b6 ce          	movzbq %sil,%r9
  40725c:	4d 0f af c8          	imul   %r8,%r9
  407260:	48 8d 35 99 14 00 00 	lea    0x1499(%rip),%rsi        # 408700 <__intel_mic_avx512f_memset+0x14c0>
  407267:	62 d2 7d 48 7c c1    	vpbroadcastd %r9d,%zmm0
  40726d:	48 81 fa 80 00 00 00 	cmp    $0x80,%rdx
  407274:	7d 0c                	jge    407282 <__intel_mic_avx512f_memset+0x42>
  407276:	49 89 f8             	mov    %rdi,%r8
  407279:	49 01 d0             	add    %rdx,%r8
  40727c:	48 2b 34 d6          	sub    (%rsi,%rdx,8),%rsi
  407280:	ff e6                	jmp    *%rsi
  407282:	48 8d 35 77 02 00 00 	lea    0x277(%rip),%rsi        # 407500 <__intel_mic_avx512f_memset+0x2c0>
  407289:	49 89 fa             	mov    %rdi,%r10
  40728c:	49 f7 da             	neg    %r10
  40728f:	49 83 c2 40          	add    $0x40,%r10
  407293:	49 83 e2 3f          	and    $0x3f,%r10
  407297:	74 12                	je     4072ab <__intel_mic_avx512f_memset+0x6b>
  407299:	4c 29 d2             	sub    %r10,%rdx
  40729c:	49 89 f8             	mov    %rdi,%r8
  40729f:	4d 01 d0             	add    %r10,%r8
  4072a2:	4a 2b 34 d6          	sub    (%rsi,%r10,8),%rsi
  4072a6:	ff e6                	jmp    *%rsi
  4072a8:	4c 01 d7             	add    %r10,%rdi
  4072ab:	48 81 fa 00 02 00 00 	cmp    $0x200,%rdx
  4072b2:	0f 8c 21 01 00 00    	jl     4073d9 <__intel_mic_avx512f_memset+0x199>
  4072b8:	48 3b 11             	cmp    (%rcx),%rdx
  4072bb:	73 53                	jae    407310 <__intel_mic_avx512f_memset+0xd0>
  4072bd:	62 f1 7c 48 29 07    	vmovaps %zmm0,(%rdi)
  4072c3:	62 f1 7c 48 29 47 01 	vmovaps %zmm0,0x40(%rdi)
  4072ca:	62 f1 7c 48 29 47 02 	vmovaps %zmm0,0x80(%rdi)
  4072d1:	62 f1 7c 48 29 47 03 	vmovaps %zmm0,0xc0(%rdi)
  4072d8:	48 8d bf 00 02 00 00 	lea    0x200(%rdi),%rdi
  4072df:	48 81 ea 00 02 00 00 	sub    $0x200,%rdx
  4072e6:	62 f1 7c 48 29 47 fc 	vmovaps %zmm0,-0x100(%rdi)
  4072ed:	62 f1 7c 48 29 47 fd 	vmovaps %zmm0,-0xc0(%rdi)
  4072f4:	62 f1 7c 48 29 47 fe 	vmovaps %zmm0,-0x80(%rdi)
  4072fb:	62 f1 7c 48 29 47 ff 	vmovaps %zmm0,-0x40(%rdi)
  407302:	48 81 fa 00 02 00 00 	cmp    $0x200,%rdx
  407309:	7d b2                	jge    4072bd <__intel_mic_avx512f_memset+0x7d>
  40730b:	e9 c9 00 00 00       	jmp    4073d9 <__intel_mic_avx512f_memset+0x199>
  407310:	62 f1 7d 48 e7 07    	vmovntdq %zmm0,(%rdi)
  407316:	62 f1 7d 48 e7 47 01 	vmovntdq %zmm0,0x40(%rdi)
  40731d:	62 f1 7d 48 e7 47 02 	vmovntdq %zmm0,0x80(%rdi)
  407324:	62 f1 7d 48 e7 47 03 	vmovntdq %zmm0,0xc0(%rdi)
  40732b:	48 8d bf 00 02 00 00 	lea    0x200(%rdi),%rdi
  407332:	48 81 ea 00 02 00 00 	sub    $0x200,%rdx
  407339:	62 f1 7d 48 e7 47 fc 	vmovntdq %zmm0,-0x100(%rdi)
  407340:	62 f1 7d 48 e7 47 fd 	vmovntdq %zmm0,-0xc0(%rdi)
  407347:	62 f1 7d 48 e7 47 fe 	vmovntdq %zmm0,-0x80(%rdi)
  40734e:	62 f1 7d 48 e7 47 ff 	vmovntdq %zmm0,-0x40(%rdi)
  407355:	48 81 fa 00 02 00 00 	cmp    $0x200,%rdx
  40735c:	7d b2                	jge    407310 <__intel_mic_avx512f_memset+0xd0>
  40735e:	0f ae f8             	sfence
  407361:	eb 76                	jmp    4073d9 <__intel_mic_avx512f_memset+0x199>
  407363:	44 88 0f             	mov    %r9b,(%rdi)
  407366:	e9 3d ff ff ff       	jmp    4072a8 <__intel_mic_avx512f_memset+0x68>
  40736b:	66 44 89 0f          	mov    %r9w,(%rdi)
  40736f:	e9 34 ff ff ff       	jmp    4072a8 <__intel_mic_avx512f_memset+0x68>
  407374:	66 44 89 0f          	mov    %r9w,(%rdi)
  407378:	44 88 4f 02          	mov    %r9b,0x2(%rdi)
  40737c:	e9 27 ff ff ff       	jmp    4072a8 <__intel_mic_avx512f_memset+0x68>
  407381:	44 89 0f             	mov    %r9d,(%rdi)
  407384:	e9 1f ff ff ff       	jmp    4072a8 <__intel_mic_avx512f_memset+0x68>
  407389:	44 89 0f             	mov    %r9d,(%rdi)
  40738c:	45 89 48 fc          	mov    %r9d,-0x4(%r8)
  407390:	e9 13 ff ff ff       	jmp    4072a8 <__intel_mic_avx512f_memset+0x68>
  407395:	4c 89 0f             	mov    %r9,(%rdi)
  407398:	e9 0b ff ff ff       	jmp    4072a8 <__intel_mic_avx512f_memset+0x68>
  40739d:	4c 89 0f             	mov    %r9,(%rdi)
  4073a0:	4d 89 48 f8          	mov    %r9,-0x8(%r8)
  4073a4:	e9 ff fe ff ff       	jmp    4072a8 <__intel_mic_avx512f_memset+0x68>
  4073a9:	c5 f8 11 07          	vmovups %xmm0,(%rdi)
  4073ad:	e9 f6 fe ff ff       	jmp    4072a8 <__intel_mic_avx512f_memset+0x68>
  4073b2:	c5 f8 11 07          	vmovups %xmm0,(%rdi)
  4073b6:	c4 c1 78 11 40 f0    	vmovups %xmm0,-0x10(%r8)
  4073bc:	e9 e7 fe ff ff       	jmp    4072a8 <__intel_mic_avx512f_memset+0x68>
  4073c1:	c5 fc 11 07          	vmovups %ymm0,(%rdi)
  4073c5:	e9 de fe ff ff       	jmp    4072a8 <__intel_mic_avx512f_memset+0x68>
  4073ca:	c5 fc 11 07          	vmovups %ymm0,(%rdi)
  4073ce:	c4 c1 7c 11 40 e0    	vmovups %ymm0,-0x20(%r8)
  4073d4:	e9 cf fe ff ff       	jmp    4072a8 <__intel_mic_avx512f_memset+0x68>
  4073d9:	49 89 f8             	mov    %rdi,%r8
  4073dc:	49 01 d0             	add    %rdx,%r8
  4073df:	48 01 d7             	add    %rdx,%rdi
  4073e2:	48 83 e7 c0          	and    $0xffffffffffffffc0,%rdi
  4073e6:	48 8d 35 13 03 00 00 	lea    0x313(%rip),%rsi        # 407700 <__intel_mic_avx512f_memset+0x4c0>
  4073ed:	48 2b 34 d6          	sub    (%rsi,%rdx,8),%rsi
  4073f1:	ff e6                	jmp    *%rsi
  4073f3:	62 f1 7c 48 29 47 f9 	vmovaps %zmm0,-0x1c0(%rdi)
  4073fa:	62 f1 7c 48 29 47 fa 	vmovaps %zmm0,-0x180(%rdi)
  407401:	62 f1 7c 48 29 47 fb 	vmovaps %zmm0,-0x140(%rdi)
  407408:	62 f1 7c 48 29 47 fc 	vmovaps %zmm0,-0x100(%rdi)
  40740f:	62 f1 7c 48 29 47 fd 	vmovaps %zmm0,-0xc0(%rdi)
  407416:	62 f1 7c 48 29 47 fe 	vmovaps %zmm0,-0x80(%rdi)
  40741d:	62 f1 7c 48 29 47 ff 	vmovaps %zmm0,-0x40(%rdi)
  407424:	4c 89 c2             	mov    %r8,%rdx
  407427:	48 83 e2 3f          	and    $0x3f,%rdx
  40742b:	48 8d 35 ce 02 00 00 	lea    0x2ce(%rip),%rsi        # 407700 <__intel_mic_avx512f_memset+0x4c0>
  407432:	48 2b 34 d6          	sub    (%rsi,%rdx,8),%rsi
  407436:	ff e6                	jmp    *%rsi
  407438:	44 88 0f             	mov    %r9b,(%rdi)
  40743b:	e9 c0 16 00 00       	jmp    408b00 <__intel_mic_avx512f_memset+0x18c0>
  407440:	e9 bb 16 00 00       	jmp    408b00 <__intel_mic_avx512f_memset+0x18c0>
  407445:	66 44 89 0f          	mov    %r9w,(%rdi)
  407449:	e9 b2 16 00 00       	jmp    408b00 <__intel_mic_avx512f_memset+0x18c0>
  40744e:	66 44 89 0f          	mov    %r9w,(%rdi)
  407452:	44 88 4f 02          	mov    %r9b,0x2(%rdi)
  407456:	e9 a5 16 00 00       	jmp    408b00 <__intel_mic_avx512f_memset+0x18c0>
  40745b:	44 89 0f             	mov    %r9d,(%rdi)
  40745e:	e9 9d 16 00 00       	jmp    408b00 <__intel_mic_avx512f_memset+0x18c0>
  407463:	44 89 0f             	mov    %r9d,(%rdi)
  407466:	45 89 48 fc          	mov    %r9d,-0x4(%r8)
  40746a:	e9 91 16 00 00       	jmp    408b00 <__intel_mic_avx512f_memset+0x18c0>
  40746f:	4c 89 0f             	mov    %r9,(%rdi)
  407472:	e9 89 16 00 00       	jmp    408b00 <__intel_mic_avx512f_memset+0x18c0>
  407477:	4c 89 0f             	mov    %r9,(%rdi)
  40747a:	4d 89 48 f8          	mov    %r9,-0x8(%r8)
  40747e:	e9 7d 16 00 00       	jmp    408b00 <__intel_mic_avx512f_memset+0x18c0>
  407483:	c5 f8 11 07          	vmovups %xmm0,(%rdi)
  407487:	e9 74 16 00 00       	jmp    408b00 <__intel_mic_avx512f_memset+0x18c0>
  40748c:	c5 f8 11 07          	vmovups %xmm0,(%rdi)
  407490:	c4 c1 78 11 40 f0    	vmovups %xmm0,-0x10(%r8)
  407496:	e9 65 16 00 00       	jmp    408b00 <__intel_mic_avx512f_memset+0x18c0>
  40749b:	c5 fc 11 07          	vmovups %ymm0,(%rdi)
  40749f:	e9 5c 16 00 00       	jmp    408b00 <__intel_mic_avx512f_memset+0x18c0>
  4074a4:	c5 fc 11 07          	vmovups %ymm0,(%rdi)
  4074a8:	c4 c1 7c 11 40 e0    	vmovups %ymm0,-0x20(%r8)
  4074ae:	e9 4d 16 00 00       	jmp    408b00 <__intel_mic_avx512f_memset+0x18c0>
  4074b3:	62 f1 7c 48 11 07    	vmovups %zmm0,(%rdi)
  4074b9:	e9 42 16 00 00       	jmp    408b00 <__intel_mic_avx512f_memset+0x18c0>
  4074be:	62 f1 7c 48 11 07    	vmovups %zmm0,(%rdi)
  4074c4:	62 d1 7c 48 11 40 ff 	vmovups %zmm0,-0x40(%r8)
  4074cb:	e9 30 16 00 00       	jmp    408b00 <__intel_mic_avx512f_memset+0x18c0>
  4074d0:	66 66 66 66 66 66 2e 	data16 data16 data16 data16 data16 cs nopw 0x0(%rax,%rax,1)
  4074d7:	0f 1f 84 00 00 00 00 
  4074de:	00 
  4074df:	66 66 66 66 66 66 2e 	data16 data16 data16 data16 data16 cs nopw 0x0(%rax,%rax,1)
  4074e6:	0f 1f 84 00 00 00 00 
  4074ed:	00 
  4074ee:	66 66 66 66 66 66 2e 	data16 data16 data16 data16 data16 cs nopw 0x0(%rax,%rax,1)
  4074f5:	0f 1f 84 00 00 00 00 
  4074fc:	00 
  4074fd:	0f 1f 00             	nopl   (%rax)
  407500:	9a                   	(bad)
  407501:	01 00                	add    %eax,(%rax)
  407503:	00 00                	add    %al,(%rax)
  407505:	00 00                	add    %al,(%rax)
  407507:	00 9d 01 00 00 00    	add    %bl,0x1(%rbp)
  40750d:	00 00                	add    %al,(%rax)
  40750f:	00 95 01 00 00 00    	add    %dl,0x1(%rbp)
  407515:	00 00                	add    %al,(%rax)
  407517:	00 8c 01 00 00 00 00 	add    %cl,0x0(%rcx,%rax,1)
  40751e:	00 00                	add    %al,(%rax)
  407520:	7f 01                	jg     407523 <__intel_mic_avx512f_memset+0x2e3>
  407522:	00 00                	add    %al,(%rax)
  407524:	00 00                	add    %al,(%rax)
  407526:	00 00                	add    %al,(%rax)
  407528:	77 01                	ja     40752b <__intel_mic_avx512f_memset+0x2eb>
  40752a:	00 00                	add    %al,(%rax)
  40752c:	00 00                	add    %al,(%rax)
  40752e:	00 00                	add    %al,(%rax)
  407530:	77 01                	ja     407533 <__intel_mic_avx512f_memset+0x2f3>
  407532:	00 00                	add    %al,(%rax)
  407534:	00 00                	add    %al,(%rax)
  407536:	00 00                	add    %al,(%rax)
  407538:	77 01                	ja     40753b <__intel_mic_avx512f_memset+0x2fb>
  40753a:	00 00                	add    %al,(%rax)
  40753c:	00 00                	add    %al,(%rax)
  40753e:	00 00                	add    %al,(%rax)
  407540:	6b 01 00             	imul   $0x0,(%rcx),%eax
  407543:	00 00                	add    %al,(%rax)
  407545:	00 00                	add    %al,(%rax)
  407547:	00 63 01             	add    %ah,0x1(%rbx)
  40754a:	00 00                	add    %al,(%rax)
  40754c:	00 00                	add    %al,(%rax)
  40754e:	00 00                	add    %al,(%rax)
  407550:	63 01                	movsxd (%rcx),%eax
  407552:	00 00                	add    %al,(%rax)
  407554:	00 00                	add    %al,(%rax)
  407556:	00 00                	add    %al,(%rax)
  407558:	63 01                	movsxd (%rcx),%eax
  40755a:	00 00                	add    %al,(%rax)
  40755c:	00 00                	add    %al,(%rax)
  40755e:	00 00                	add    %al,(%rax)
  407560:	63 01                	movsxd (%rcx),%eax
  407562:	00 00                	add    %al,(%rax)
  407564:	00 00                	add    %al,(%rax)
  407566:	00 00                	add    %al,(%rax)
  407568:	63 01                	movsxd (%rcx),%eax
  40756a:	00 00                	add    %al,(%rax)
  40756c:	00 00                	add    %al,(%rax)
  40756e:	00 00                	add    %al,(%rax)
  407570:	63 01                	movsxd (%rcx),%eax
  407572:	00 00                	add    %al,(%rax)
  407574:	00 00                	add    %al,(%rax)
  407576:	00 00                	add    %al,(%rax)
  407578:	63 01                	movsxd (%rcx),%eax
  40757a:	00 00                	add    %al,(%rax)
  40757c:	00 00                	add    %al,(%rax)
  40757e:	00 00                	add    %al,(%rax)
  407580:	57                   	push   %rdi
  407581:	01 00                	add    %eax,(%rax)
  407583:	00 00                	add    %al,(%rax)
  407585:	00 00                	add    %al,(%rax)
  407587:	00 4e 01             	add    %cl,0x1(%rsi)
  40758a:	00 00                	add    %al,(%rax)
  40758c:	00 00                	add    %al,(%rax)
  40758e:	00 00                	add    %al,(%rax)
  407590:	4e 01 00             	rex.WRX add %r8,(%rax)
  407593:	00 00                	add    %al,(%rax)
  407595:	00 00                	add    %al,(%rax)
  407597:	00 4e 01             	add    %cl,0x1(%rsi)
  40759a:	00 00                	add    %al,(%rax)
  40759c:	00 00                	add    %al,(%rax)
  40759e:	00 00                	add    %al,(%rax)
  4075a0:	4e 01 00             	rex.WRX add %r8,(%rax)
  4075a3:	00 00                	add    %al,(%rax)
  4075a5:	00 00                	add    %al,(%rax)
  4075a7:	00 4e 01             	add    %cl,0x1(%rsi)
  4075aa:	00 00                	add    %al,(%rax)
  4075ac:	00 00                	add    %al,(%rax)
  4075ae:	00 00                	add    %al,(%rax)
  4075b0:	4e 01 00             	rex.WRX add %r8,(%rax)
  4075b3:	00 00                	add    %al,(%rax)
  4075b5:	00 00                	add    %al,(%rax)
  4075b7:	00 4e 01             	add    %cl,0x1(%rsi)
  4075ba:	00 00                	add    %al,(%rax)
  4075bc:	00 00                	add    %al,(%rax)
  4075be:	00 00                	add    %al,(%rax)
  4075c0:	4e 01 00             	rex.WRX add %r8,(%rax)
  4075c3:	00 00                	add    %al,(%rax)
  4075c5:	00 00                	add    %al,(%rax)
  4075c7:	00 4e 01             	add    %cl,0x1(%rsi)
  4075ca:	00 00                	add    %al,(%rax)
  4075cc:	00 00                	add    %al,(%rax)
  4075ce:	00 00                	add    %al,(%rax)
  4075d0:	4e 01 00             	rex.WRX add %r8,(%rax)
  4075d3:	00 00                	add    %al,(%rax)
  4075d5:	00 00                	add    %al,(%rax)
  4075d7:	00 4e 01             	add    %cl,0x1(%rsi)
  4075da:	00 00                	add    %al,(%rax)
  4075dc:	00 00                	add    %al,(%rax)
  4075de:	00 00                	add    %al,(%rax)
  4075e0:	4e 01 00             	rex.WRX add %r8,(%rax)
  4075e3:	00 00                	add    %al,(%rax)
  4075e5:	00 00                	add    %al,(%rax)
  4075e7:	00 4e 01             	add    %cl,0x1(%rsi)
  4075ea:	00 00                	add    %al,(%rax)
  4075ec:	00 00                	add    %al,(%rax)
  4075ee:	00 00                	add    %al,(%rax)
  4075f0:	4e 01 00             	rex.WRX add %r8,(%rax)
  4075f3:	00 00                	add    %al,(%rax)
  4075f5:	00 00                	add    %al,(%rax)
  4075f7:	00 4e 01             	add    %cl,0x1(%rsi)
  4075fa:	00 00                	add    %al,(%rax)
  4075fc:	00 00                	add    %al,(%rax)
  4075fe:	00 00                	add    %al,(%rax)
  407600:	3f                   	(bad)
  407601:	01 00                	add    %eax,(%rax)
  407603:	00 00                	add    %al,(%rax)
  407605:	00 00                	add    %al,(%rax)
  407607:	00 36                	add    %dh,(%rsi)
  407609:	01 00                	add    %eax,(%rax)
  40760b:	00 00                	add    %al,(%rax)
  40760d:	00 00                	add    %al,(%rax)
  40760f:	00 36                	add    %dh,(%rsi)
  407611:	01 00                	add    %eax,(%rax)
  407613:	00 00                	add    %al,(%rax)
  407615:	00 00                	add    %al,(%rax)
  407617:	00 36                	add    %dh,(%rsi)
  407619:	01 00                	add    %eax,(%rax)
  40761b:	00 00                	add    %al,(%rax)
  40761d:	00 00                	add    %al,(%rax)
  40761f:	00 36                	add    %dh,(%rsi)
  407621:	01 00                	add    %eax,(%rax)
  407623:	00 00                	add    %al,(%rax)
  407625:	00 00                	add    %al,(%rax)
  407627:	00 36                	add    %dh,(%rsi)
  407629:	01 00                	add    %eax,(%rax)
  40762b:	00 00                	add    %al,(%rax)
  40762d:	00 00                	add    %al,(%rax)
  40762f:	00 36                	add    %dh,(%rsi)
  407631:	01 00                	add    %eax,(%rax)
  407633:	00 00                	add    %al,(%rax)
  407635:	00 00                	add    %al,(%rax)
  407637:	00 36                	add    %dh,(%rsi)
  407639:	01 00                	add    %eax,(%rax)
  40763b:	00 00                	add    %al,(%rax)
  40763d:	00 00                	add    %al,(%rax)
  40763f:	00 36                	add    %dh,(%rsi)
  407641:	01 00                	add    %eax,(%rax)
  407643:	00 00                	add    %al,(%rax)
  407645:	00 00                	add    %al,(%rax)
  407647:	00 36                	add    %dh,(%rsi)
  407649:	01 00                	add    %eax,(%rax)
  40764b:	00 00                	add    %al,(%rax)
  40764d:	00 00                	add    %al,(%rax)
  40764f:	00 36                	add    %dh,(%rsi)
  407651:	01 00                	add    %eax,(%rax)
  407653:	00 00                	add    %al,(%rax)
  407655:	00 00                	add    %al,(%rax)
  407657:	00 36                	add    %dh,(%rsi)
  407659:	01 00                	add    %eax,(%rax)
  40765b:	00 00                	add    %al,(%rax)
  40765d:	00 00                	add    %al,(%rax)
  40765f:	00 36                	add    %dh,(%rsi)
  407661:	01 00                	add    %eax,(%rax)
  407663:	00 00                	add    %al,(%rax)
  407665:	00 00                	add    %al,(%rax)
  407667:	00 36                	add    %dh,(%rsi)
  407669:	01 00                	add    %eax,(%rax)
  40766b:	00 00                	add    %al,(%rax)
  40766d:	00 00                	add    %al,(%rax)
  40766f:	00 36                	add    %dh,(%rsi)
  407671:	01 00                	add    %eax,(%rax)
  407673:	00 00                	add    %al,(%rax)
  407675:	00 00                	add    %al,(%rax)
  407677:	00 36                	add    %dh,(%rsi)
  407679:	01 00                	add    %eax,(%rax)
  40767b:	00 00                	add    %al,(%rax)
  40767d:	00 00                	add    %al,(%rax)
  40767f:	00 36                	add    %dh,(%rsi)
  407681:	01 00                	add    %eax,(%rax)
  407683:	00 00                	add    %al,(%rax)
  407685:	00 00                	add    %al,(%rax)
  407687:	00 36                	add    %dh,(%rsi)
  407689:	01 00                	add    %eax,(%rax)
  40768b:	00 00                	add    %al,(%rax)
  40768d:	00 00                	add    %al,(%rax)
  40768f:	00 36                	add    %dh,(%rsi)
  407691:	01 00                	add    %eax,(%rax)
  407693:	00 00                	add    %al,(%rax)
  407695:	00 00                	add    %al,(%rax)
  407697:	00 36                	add    %dh,(%rsi)
  407699:	01 00                	add    %eax,(%rax)
  40769b:	00 00                	add    %al,(%rax)
  40769d:	00 00                	add    %al,(%rax)
  40769f:	00 36                	add    %dh,(%rsi)
  4076a1:	01 00                	add    %eax,(%rax)
  4076a3:	00 00                	add    %al,(%rax)
  4076a5:	00 00                	add    %al,(%rax)
  4076a7:	00 36                	add    %dh,(%rsi)
  4076a9:	01 00                	add    %eax,(%rax)
  4076ab:	00 00                	add    %al,(%rax)
  4076ad:	00 00                	add    %al,(%rax)
  4076af:	00 36                	add    %dh,(%rsi)
  4076b1:	01 00                	add    %eax,(%rax)
  4076b3:	00 00                	add    %al,(%rax)
  4076b5:	00 00                	add    %al,(%rax)
  4076b7:	00 36                	add    %dh,(%rsi)
  4076b9:	01 00                	add    %eax,(%rax)
  4076bb:	00 00                	add    %al,(%rax)
  4076bd:	00 00                	add    %al,(%rax)
  4076bf:	00 36                	add    %dh,(%rsi)
  4076c1:	01 00                	add    %eax,(%rax)
  4076c3:	00 00                	add    %al,(%rax)
  4076c5:	00 00                	add    %al,(%rax)
  4076c7:	00 36                	add    %dh,(%rsi)
  4076c9:	01 00                	add    %eax,(%rax)
  4076cb:	00 00                	add    %al,(%rax)
  4076cd:	00 00                	add    %al,(%rax)
  4076cf:	00 36                	add    %dh,(%rsi)
  4076d1:	01 00                	add    %eax,(%rax)
  4076d3:	00 00                	add    %al,(%rax)
  4076d5:	00 00                	add    %al,(%rax)
  4076d7:	00 36                	add    %dh,(%rsi)
  4076d9:	01 00                	add    %eax,(%rax)
  4076db:	00 00                	add    %al,(%rax)
  4076dd:	00 00                	add    %al,(%rax)
  4076df:	00 36                	add    %dh,(%rsi)
  4076e1:	01 00                	add    %eax,(%rax)
  4076e3:	00 00                	add    %al,(%rax)
  4076e5:	00 00                	add    %al,(%rax)
  4076e7:	00 36                	add    %dh,(%rsi)
  4076e9:	01 00                	add    %eax,(%rax)
  4076eb:	00 00                	add    %al,(%rax)
  4076ed:	00 00                	add    %al,(%rax)
  4076ef:	00 36                	add    %dh,(%rsi)
  4076f1:	01 00                	add    %eax,(%rax)
  4076f3:	00 00                	add    %al,(%rax)
  4076f5:	00 00                	add    %al,(%rax)
  4076f7:	00 36                	add    %dh,(%rsi)
  4076f9:	01 00                	add    %eax,(%rax)
  4076fb:	00 00                	add    %al,(%rax)
  4076fd:	00 00                	add    %al,(%rax)
  4076ff:	00 c0                	add    %al,%al
  407701:	02 00                	add    (%rax),%al
  407703:	00 00                	add    %al,(%rax)
  407705:	00 00                	add    %al,(%rax)
  407707:	00 c8                	add    %cl,%al
  407709:	02 00                	add    (%rax),%al
  40770b:	00 00                	add    %al,(%rax)
  40770d:	00 00                	add    %al,(%rax)
  40770f:	00 bb 02 00 00 00    	add    %bh,0x2(%rbx)
  407715:	00 00                	add    %al,(%rax)
  407717:	00 b2 02 00 00 00    	add    %dh,0x2(%rdx)
  40771d:	00 00                	add    %al,(%rax)
  40771f:	00 a5 02 00 00 00    	add    %ah,0x2(%rbp)
  407725:	00 00                	add    %al,(%rax)
  407727:	00 9d 02 00 00 00    	add    %bl,0x2(%rbp)
  40772d:	00 00                	add    %al,(%rax)
  40772f:	00 9d 02 00 00 00    	add    %bl,0x2(%rbp)
  407735:	00 00                	add    %al,(%rax)
  407737:	00 9d 02 00 00 00    	add    %bl,0x2(%rbp)
  40773d:	00 00                	add    %al,(%rax)
  40773f:	00 91 02 00 00 00    	add    %dl,0x2(%rcx)
  407745:	00 00                	add    %al,(%rax)
  407747:	00 89 02 00 00 00    	add    %cl,0x2(%rcx)
  40774d:	00 00                	add    %al,(%rax)
  40774f:	00 89 02 00 00 00    	add    %cl,0x2(%rcx)
  407755:	00 00                	add    %al,(%rax)
  407757:	00 89 02 00 00 00    	add    %cl,0x2(%rcx)
  40775d:	00 00                	add    %al,(%rax)
  40775f:	00 89 02 00 00 00    	add    %cl,0x2(%rcx)
  407765:	00 00                	add    %al,(%rax)
  407767:	00 89 02 00 00 00    	add    %cl,0x2(%rcx)
  40776d:	00 00                	add    %al,(%rax)
  40776f:	00 89 02 00 00 00    	add    %cl,0x2(%rcx)
  407775:	00 00                	add    %al,(%rax)
  407777:	00 89 02 00 00 00    	add    %cl,0x2(%rcx)
  40777d:	00 00                	add    %al,(%rax)
  40777f:	00 7d 02             	add    %bh,0x2(%rbp)
  407782:	00 00                	add    %al,(%rax)
  407784:	00 00                	add    %al,(%rax)
  407786:	00 00                	add    %al,(%rax)
  407788:	74 02                	je     40778c <__intel_mic_avx512f_memset+0x54c>
  40778a:	00 00                	add    %al,(%rax)
  40778c:	00 00                	add    %al,(%rax)
  40778e:	00 00                	add    %al,(%rax)
  407790:	74 02                	je     407794 <__intel_mic_avx512f_memset+0x554>
  407792:	00 00                	add    %al,(%rax)
  407794:	00 00                	add    %al,(%rax)
  407796:	00 00                	add    %al,(%rax)
  407798:	74 02                	je     40779c <__intel_mic_avx512f_memset+0x55c>
  40779a:	00 00                	add    %al,(%rax)
  40779c:	00 00                	add    %al,(%rax)
  40779e:	00 00                	add    %al,(%rax)
  4077a0:	74 02                	je     4077a4 <__intel_mic_avx512f_memset+0x564>
  4077a2:	00 00                	add    %al,(%rax)
  4077a4:	00 00                	add    %al,(%rax)
  4077a6:	00 00                	add    %al,(%rax)
  4077a8:	74 02                	je     4077ac <__intel_mic_avx512f_memset+0x56c>
  4077aa:	00 00                	add    %al,(%rax)
  4077ac:	00 00                	add    %al,(%rax)
  4077ae:	00 00                	add    %al,(%rax)
  4077b0:	74 02                	je     4077b4 <__intel_mic_avx512f_memset+0x574>
  4077b2:	00 00                	add    %al,(%rax)
  4077b4:	00 00                	add    %al,(%rax)
  4077b6:	00 00                	add    %al,(%rax)
  4077b8:	74 02                	je     4077bc <__intel_mic_avx512f_memset+0x57c>
  4077ba:	00 00                	add    %al,(%rax)
  4077bc:	00 00                	add    %al,(%rax)
  4077be:	00 00                	add    %al,(%rax)
  4077c0:	74 02                	je     4077c4 <__intel_mic_avx512f_memset+0x584>
  4077c2:	00 00                	add    %al,(%rax)
  4077c4:	00 00                	add    %al,(%rax)
  4077c6:	00 00                	add    %al,(%rax)
  4077c8:	74 02                	je     4077cc <__intel_mic_avx512f_memset+0x58c>
  4077ca:	00 00                	add    %al,(%rax)
  4077cc:	00 00                	add    %al,(%rax)
  4077ce:	00 00                	add    %al,(%rax)
  4077d0:	74 02                	je     4077d4 <__intel_mic_avx512f_memset+0x594>
  4077d2:	00 00                	add    %al,(%rax)
  4077d4:	00 00                	add    %al,(%rax)
  4077d6:	00 00                	add    %al,(%rax)
  4077d8:	74 02                	je     4077dc <__intel_mic_avx512f_memset+0x59c>
  4077da:	00 00                	add    %al,(%rax)
  4077dc:	00 00                	add    %al,(%rax)
  4077de:	00 00                	add    %al,(%rax)
  4077e0:	74 02                	je     4077e4 <__intel_mic_avx512f_memset+0x5a4>
  4077e2:	00 00                	add    %al,(%rax)
  4077e4:	00 00                	add    %al,(%rax)
  4077e6:	00 00                	add    %al,(%rax)
  4077e8:	74 02                	je     4077ec <__intel_mic_avx512f_memset+0x5ac>
  4077ea:	00 00                	add    %al,(%rax)
  4077ec:	00 00                	add    %al,(%rax)
  4077ee:	00 00                	add    %al,(%rax)
  4077f0:	74 02                	je     4077f4 <__intel_mic_avx512f_memset+0x5b4>
  4077f2:	00 00                	add    %al,(%rax)
  4077f4:	00 00                	add    %al,(%rax)
  4077f6:	00 00                	add    %al,(%rax)
  4077f8:	74 02                	je     4077fc <__intel_mic_avx512f_memset+0x5bc>
  4077fa:	00 00                	add    %al,(%rax)
  4077fc:	00 00                	add    %al,(%rax)
  4077fe:	00 00                	add    %al,(%rax)
  407800:	65 02 00             	add    %gs:(%rax),%al
  407803:	00 00                	add    %al,(%rax)
  407805:	00 00                	add    %al,(%rax)
  407807:	00 5c 02 00          	add    %bl,0x0(%rdx,%rax,1)
  40780b:	00 00                	add    %al,(%rax)
  40780d:	00 00                	add    %al,(%rax)
  40780f:	00 5c 02 00          	add    %bl,0x0(%rdx,%rax,1)
  407813:	00 00                	add    %al,(%rax)
  407815:	00 00                	add    %al,(%rax)
  407817:	00 5c 02 00          	add    %bl,0x0(%rdx,%rax,1)
  40781b:	00 00                	add    %al,(%rax)
  40781d:	00 00                	add    %al,(%rax)
  40781f:	00 5c 02 00          	add    %bl,0x0(%rdx,%rax,1)
  407823:	00 00                	add    %al,(%rax)
  407825:	00 00                	add    %al,(%rax)
  407827:	00 5c 02 00          	add    %bl,0x0(%rdx,%rax,1)
  40782b:	00 00                	add    %al,(%rax)
  40782d:	00 00                	add    %al,(%rax)
  40782f:	00 5c 02 00          	add    %bl,0x0(%rdx,%rax,1)
  407833:	00 00                	add    %al,(%rax)
  407835:	00 00                	add    %al,(%rax)
  407837:	00 5c 02 00          	add    %bl,0x0(%rdx,%rax,1)
  40783b:	00 00                	add    %al,(%rax)
  40783d:	00 00                	add    %al,(%rax)
  40783f:	00 5c 02 00          	add    %bl,0x0(%rdx,%rax,1)
  407843:	00 00                	add    %al,(%rax)
  407845:	00 00                	add    %al,(%rax)
  407847:	00 5c 02 00          	add    %bl,0x0(%rdx,%rax,1)
  40784b:	00 00                	add    %al,(%rax)
  40784d:	00 00                	add    %al,(%rax)
  40784f:	00 5c 02 00          	add    %bl,0x0(%rdx,%rax,1)
  407853:	00 00                	add    %al,(%rax)
  407855:	00 00                	add    %al,(%rax)
  407857:	00 5c 02 00          	add    %bl,0x0(%rdx,%rax,1)
  40785b:	00 00                	add    %al,(%rax)
  40785d:	00 00                	add    %al,(%rax)
  40785f:	00 5c 02 00          	add    %bl,0x0(%rdx,%rax,1)
  407863:	00 00                	add    %al,(%rax)
  407865:	00 00                	add    %al,(%rax)
  407867:	00 5c 02 00          	add    %bl,0x0(%rdx,%rax,1)
  40786b:	00 00                	add    %al,(%rax)
  40786d:	00 00                	add    %al,(%rax)
  40786f:	00 5c 02 00          	add    %bl,0x0(%rdx,%rax,1)
  407873:	00 00                	add    %al,(%rax)
  407875:	00 00                	add    %al,(%rax)
  407877:	00 5c 02 00          	add    %bl,0x0(%rdx,%rax,1)
  40787b:	00 00                	add    %al,(%rax)
  40787d:	00 00                	add    %al,(%rax)
  40787f:	00 5c 02 00          	add    %bl,0x0(%rdx,%rax,1)
  407883:	00 00                	add    %al,(%rax)
  407885:	00 00                	add    %al,(%rax)
  407887:	00 5c 02 00          	add    %bl,0x0(%rdx,%rax,1)
  40788b:	00 00                	add    %al,(%rax)
  40788d:	00 00                	add    %al,(%rax)
  40788f:	00 5c 02 00          	add    %bl,0x0(%rdx,%rax,1)
  407893:	00 00                	add    %al,(%rax)
  407895:	00 00                	add    %al,(%rax)
  407897:	00 5c 02 00          	add    %bl,0x0(%rdx,%rax,1)
  40789b:	00 00                	add    %al,(%rax)
  40789d:	00 00                	add    %al,(%rax)
  40789f:	00 5c 02 00          	add    %bl,0x0(%rdx,%rax,1)
  4078a3:	00 00                	add    %al,(%rax)
  4078a5:	00 00                	add    %al,(%rax)
  4078a7:	00 5c 02 00          	add    %bl,0x0(%rdx,%rax,1)
  4078ab:	00 00                	add    %al,(%rax)
  4078ad:	00 00                	add    %al,(%rax)
  4078af:	00 5c 02 00          	add    %bl,0x0(%rdx,%rax,1)
  4078b3:	00 00                	add    %al,(%rax)
  4078b5:	00 00                	add    %al,(%rax)
  4078b7:	00 5c 02 00          	add    %bl,0x0(%rdx,%rax,1)
  4078bb:	00 00                	add    %al,(%rax)
  4078bd:	00 00                	add    %al,(%rax)
  4078bf:	00 5c 02 00          	add    %bl,0x0(%rdx,%rax,1)
  4078c3:	00 00                	add    %al,(%rax)
  4078c5:	00 00                	add    %al,(%rax)
  4078c7:	00 5c 02 00          	add    %bl,0x0(%rdx,%rax,1)
  4078cb:	00 00                	add    %al,(%rax)
  4078cd:	00 00                	add    %al,(%rax)
  4078cf:	00 5c 02 00          	add    %bl,0x0(%rdx,%rax,1)
  4078d3:	00 00                	add    %al,(%rax)
  4078d5:	00 00                	add    %al,(%rax)
  4078d7:	00 5c 02 00          	add    %bl,0x0(%rdx,%rax,1)
  4078db:	00 00                	add    %al,(%rax)
  4078dd:	00 00                	add    %al,(%rax)
  4078df:	00 5c 02 00          	add    %bl,0x0(%rdx,%rax,1)
  4078e3:	00 00                	add    %al,(%rax)
  4078e5:	00 00                	add    %al,(%rax)
  4078e7:	00 5c 02 00          	add    %bl,0x0(%rdx,%rax,1)
  4078eb:	00 00                	add    %al,(%rax)
  4078ed:	00 00                	add    %al,(%rax)
  4078ef:	00 5c 02 00          	add    %bl,0x0(%rdx,%rax,1)
  4078f3:	00 00                	add    %al,(%rax)
  4078f5:	00 00                	add    %al,(%rax)
  4078f7:	00 5c 02 00          	add    %bl,0x0(%rdx,%rax,1)
  4078fb:	00 00                	add    %al,(%rax)
  4078fd:	00 00                	add    %al,(%rax)
  4078ff:	00 e3                	add    %ah,%bl
  407901:	02 00                	add    (%rax),%al
  407903:	00 00                	add    %al,(%rax)
  407905:	00 00                	add    %al,(%rax)
  407907:	00 e3                	add    %ah,%bl
  407909:	02 00                	add    (%rax),%al
  40790b:	00 00                	add    %al,(%rax)
  40790d:	00 00                	add    %al,(%rax)
  40790f:	00 e3                	add    %ah,%bl
  407911:	02 00                	add    (%rax),%al
  407913:	00 00                	add    %al,(%rax)
  407915:	00 00                	add    %al,(%rax)
  407917:	00 e3                	add    %ah,%bl
  407919:	02 00                	add    (%rax),%al
  40791b:	00 00                	add    %al,(%rax)
  40791d:	00 00                	add    %al,(%rax)
  40791f:	00 e3                	add    %ah,%bl
  407921:	02 00                	add    (%rax),%al
  407923:	00 00                	add    %al,(%rax)
  407925:	00 00                	add    %al,(%rax)
  407927:	00 e3                	add    %ah,%bl
  407929:	02 00                	add    (%rax),%al
  40792b:	00 00                	add    %al,(%rax)
  40792d:	00 00                	add    %al,(%rax)
  40792f:	00 e3                	add    %ah,%bl
  407931:	02 00                	add    (%rax),%al
  407933:	00 00                	add    %al,(%rax)
  407935:	00 00                	add    %al,(%rax)
  407937:	00 e3                	add    %ah,%bl
  407939:	02 00                	add    (%rax),%al
  40793b:	00 00                	add    %al,(%rax)
  40793d:	00 00                	add    %al,(%rax)
  40793f:	00 e3                	add    %ah,%bl
  407941:	02 00                	add    (%rax),%al
  407943:	00 00                	add    %al,(%rax)
  407945:	00 00                	add    %al,(%rax)
  407947:	00 e3                	add    %ah,%bl
  407949:	02 00                	add    (%rax),%al
  40794b:	00 00                	add    %al,(%rax)
  40794d:	00 00                	add    %al,(%rax)
  40794f:	00 e3                	add    %ah,%bl
  407951:	02 00                	add    (%rax),%al
  407953:	00 00                	add    %al,(%rax)
  407955:	00 00                	add    %al,(%rax)
  407957:	00 e3                	add    %ah,%bl
  407959:	02 00                	add    (%rax),%al
  40795b:	00 00                	add    %al,(%rax)
  40795d:	00 00                	add    %al,(%rax)
  40795f:	00 e3                	add    %ah,%bl
  407961:	02 00                	add    (%rax),%al
  407963:	00 00                	add    %al,(%rax)
  407965:	00 00                	add    %al,(%rax)
  407967:	00 e3                	add    %ah,%bl
  407969:	02 00                	add    (%rax),%al
  40796b:	00 00                	add    %al,(%rax)
  40796d:	00 00                	add    %al,(%rax)
  40796f:	00 e3                	add    %ah,%bl
  407971:	02 00                	add    (%rax),%al
  407973:	00 00                	add    %al,(%rax)
  407975:	00 00                	add    %al,(%rax)
  407977:	00 e3                	add    %ah,%bl
  407979:	02 00                	add    (%rax),%al
  40797b:	00 00                	add    %al,(%rax)
  40797d:	00 00                	add    %al,(%rax)
  40797f:	00 e3                	add    %ah,%bl
  407981:	02 00                	add    (%rax),%al
  407983:	00 00                	add    %al,(%rax)
  407985:	00 00                	add    %al,(%rax)
  407987:	00 e3                	add    %ah,%bl
  407989:	02 00                	add    (%rax),%al
  40798b:	00 00                	add    %al,(%rax)
  40798d:	00 00                	add    %al,(%rax)
  40798f:	00 e3                	add    %ah,%bl
  407991:	02 00                	add    (%rax),%al
  407993:	00 00                	add    %al,(%rax)
  407995:	00 00                	add    %al,(%rax)
  407997:	00 e3                	add    %ah,%bl
  407999:	02 00                	add    (%rax),%al
  40799b:	00 00                	add    %al,(%rax)
  40799d:	00 00                	add    %al,(%rax)
  40799f:	00 e3                	add    %ah,%bl
  4079a1:	02 00                	add    (%rax),%al
  4079a3:	00 00                	add    %al,(%rax)
  4079a5:	00 00                	add    %al,(%rax)
  4079a7:	00 e3                	add    %ah,%bl
  4079a9:	02 00                	add    (%rax),%al
  4079ab:	00 00                	add    %al,(%rax)
  4079ad:	00 00                	add    %al,(%rax)
  4079af:	00 e3                	add    %ah,%bl
  4079b1:	02 00                	add    (%rax),%al
  4079b3:	00 00                	add    %al,(%rax)
  4079b5:	00 00                	add    %al,(%rax)
  4079b7:	00 e3                	add    %ah,%bl
  4079b9:	02 00                	add    (%rax),%al
  4079bb:	00 00                	add    %al,(%rax)
  4079bd:	00 00                	add    %al,(%rax)
  4079bf:	00 e3                	add    %ah,%bl
  4079c1:	02 00                	add    (%rax),%al
  4079c3:	00 00                	add    %al,(%rax)
  4079c5:	00 00                	add    %al,(%rax)
  4079c7:	00 e3                	add    %ah,%bl
  4079c9:	02 00                	add    (%rax),%al
  4079cb:	00 00                	add    %al,(%rax)
  4079cd:	00 00                	add    %al,(%rax)
  4079cf:	00 e3                	add    %ah,%bl
  4079d1:	02 00                	add    (%rax),%al
  4079d3:	00 00                	add    %al,(%rax)
  4079d5:	00 00                	add    %al,(%rax)
  4079d7:	00 e3                	add    %ah,%bl
  4079d9:	02 00                	add    (%rax),%al
  4079db:	00 00                	add    %al,(%rax)
  4079dd:	00 00                	add    %al,(%rax)
  4079df:	00 e3                	add    %ah,%bl
  4079e1:	02 00                	add    (%rax),%al
  4079e3:	00 00                	add    %al,(%rax)
  4079e5:	00 00                	add    %al,(%rax)
  4079e7:	00 e3                	add    %ah,%bl
  4079e9:	02 00                	add    (%rax),%al
  4079eb:	00 00                	add    %al,(%rax)
  4079ed:	00 00                	add    %al,(%rax)
  4079ef:	00 e3                	add    %ah,%bl
  4079f1:	02 00                	add    (%rax),%al
  4079f3:	00 00                	add    %al,(%rax)
  4079f5:	00 00                	add    %al,(%rax)
  4079f7:	00 e3                	add    %ah,%bl
  4079f9:	02 00                	add    (%rax),%al
  4079fb:	00 00                	add    %al,(%rax)
  4079fd:	00 00                	add    %al,(%rax)
  4079ff:	00 e3                	add    %ah,%bl
  407a01:	02 00                	add    (%rax),%al
  407a03:	00 00                	add    %al,(%rax)
  407a05:	00 00                	add    %al,(%rax)
  407a07:	00 e3                	add    %ah,%bl
  407a09:	02 00                	add    (%rax),%al
  407a0b:	00 00                	add    %al,(%rax)
  407a0d:	00 00                	add    %al,(%rax)
  407a0f:	00 e3                	add    %ah,%bl
  407a11:	02 00                	add    (%rax),%al
  407a13:	00 00                	add    %al,(%rax)
  407a15:	00 00                	add    %al,(%rax)
  407a17:	00 e3                	add    %ah,%bl
  407a19:	02 00                	add    (%rax),%al
  407a1b:	00 00                	add    %al,(%rax)
  407a1d:	00 00                	add    %al,(%rax)
  407a1f:	00 e3                	add    %ah,%bl
  407a21:	02 00                	add    (%rax),%al
  407a23:	00 00                	add    %al,(%rax)
  407a25:	00 00                	add    %al,(%rax)
  407a27:	00 e3                	add    %ah,%bl
  407a29:	02 00                	add    (%rax),%al
  407a2b:	00 00                	add    %al,(%rax)
  407a2d:	00 00                	add    %al,(%rax)
  407a2f:	00 e3                	add    %ah,%bl
  407a31:	02 00                	add    (%rax),%al
  407a33:	00 00                	add    %al,(%rax)
  407a35:	00 00                	add    %al,(%rax)
  407a37:	00 e3                	add    %ah,%bl
  407a39:	02 00                	add    (%rax),%al
  407a3b:	00 00                	add    %al,(%rax)
  407a3d:	00 00                	add    %al,(%rax)
  407a3f:	00 e3                	add    %ah,%bl
  407a41:	02 00                	add    (%rax),%al
  407a43:	00 00                	add    %al,(%rax)
  407a45:	00 00                	add    %al,(%rax)
  407a47:	00 e3                	add    %ah,%bl
  407a49:	02 00                	add    (%rax),%al
  407a4b:	00 00                	add    %al,(%rax)
  407a4d:	00 00                	add    %al,(%rax)
  407a4f:	00 e3                	add    %ah,%bl
  407a51:	02 00                	add    (%rax),%al
  407a53:	00 00                	add    %al,(%rax)
  407a55:	00 00                	add    %al,(%rax)
  407a57:	00 e3                	add    %ah,%bl
  407a59:	02 00                	add    (%rax),%al
  407a5b:	00 00                	add    %al,(%rax)
  407a5d:	00 00                	add    %al,(%rax)
  407a5f:	00 e3                	add    %ah,%bl
  407a61:	02 00                	add    (%rax),%al
  407a63:	00 00                	add    %al,(%rax)
  407a65:	00 00                	add    %al,(%rax)
  407a67:	00 e3                	add    %ah,%bl
  407a69:	02 00                	add    (%rax),%al
  407a6b:	00 00                	add    %al,(%rax)
  407a6d:	00 00                	add    %al,(%rax)
  407a6f:	00 e3                	add    %ah,%bl
  407a71:	02 00                	add    (%rax),%al
  407a73:	00 00                	add    %al,(%rax)
  407a75:	00 00                	add    %al,(%rax)
  407a77:	00 e3                	add    %ah,%bl
  407a79:	02 00                	add    (%rax),%al
  407a7b:	00 00                	add    %al,(%rax)
  407a7d:	00 00                	add    %al,(%rax)
  407a7f:	00 e3                	add    %ah,%bl
  407a81:	02 00                	add    (%rax),%al
  407a83:	00 00                	add    %al,(%rax)
  407a85:	00 00                	add    %al,(%rax)
  407a87:	00 e3                	add    %ah,%bl
  407a89:	02 00                	add    (%rax),%al
  407a8b:	00 00                	add    %al,(%rax)
  407a8d:	00 00                	add    %al,(%rax)
  407a8f:	00 e3                	add    %ah,%bl
  407a91:	02 00                	add    (%rax),%al
  407a93:	00 00                	add    %al,(%rax)
  407a95:	00 00                	add    %al,(%rax)
  407a97:	00 e3                	add    %ah,%bl
  407a99:	02 00                	add    (%rax),%al
  407a9b:	00 00                	add    %al,(%rax)
  407a9d:	00 00                	add    %al,(%rax)
  407a9f:	00 e3                	add    %ah,%bl
  407aa1:	02 00                	add    (%rax),%al
  407aa3:	00 00                	add    %al,(%rax)
  407aa5:	00 00                	add    %al,(%rax)
  407aa7:	00 e3                	add    %ah,%bl
  407aa9:	02 00                	add    (%rax),%al
  407aab:	00 00                	add    %al,(%rax)
  407aad:	00 00                	add    %al,(%rax)
  407aaf:	00 e3                	add    %ah,%bl
  407ab1:	02 00                	add    (%rax),%al
  407ab3:	00 00                	add    %al,(%rax)
  407ab5:	00 00                	add    %al,(%rax)
  407ab7:	00 e3                	add    %ah,%bl
  407ab9:	02 00                	add    (%rax),%al
  407abb:	00 00                	add    %al,(%rax)
  407abd:	00 00                	add    %al,(%rax)
  407abf:	00 e3                	add    %ah,%bl
  407ac1:	02 00                	add    (%rax),%al
  407ac3:	00 00                	add    %al,(%rax)
  407ac5:	00 00                	add    %al,(%rax)
  407ac7:	00 e3                	add    %ah,%bl
  407ac9:	02 00                	add    (%rax),%al
  407acb:	00 00                	add    %al,(%rax)
  407acd:	00 00                	add    %al,(%rax)
  407acf:	00 e3                	add    %ah,%bl
  407ad1:	02 00                	add    (%rax),%al
  407ad3:	00 00                	add    %al,(%rax)
  407ad5:	00 00                	add    %al,(%rax)
  407ad7:	00 e3                	add    %ah,%bl
  407ad9:	02 00                	add    (%rax),%al
  407adb:	00 00                	add    %al,(%rax)
  407add:	00 00                	add    %al,(%rax)
  407adf:	00 e3                	add    %ah,%bl
  407ae1:	02 00                	add    (%rax),%al
  407ae3:	00 00                	add    %al,(%rax)
  407ae5:	00 00                	add    %al,(%rax)
  407ae7:	00 e3                	add    %ah,%bl
  407ae9:	02 00                	add    (%rax),%al
  407aeb:	00 00                	add    %al,(%rax)
  407aed:	00 00                	add    %al,(%rax)
  407aef:	00 e3                	add    %ah,%bl
  407af1:	02 00                	add    (%rax),%al
  407af3:	00 00                	add    %al,(%rax)
  407af5:	00 00                	add    %al,(%rax)
  407af7:	00 e3                	add    %ah,%bl
  407af9:	02 00                	add    (%rax),%al
  407afb:	00 00                	add    %al,(%rax)
  407afd:	00 00                	add    %al,(%rax)
  407aff:	00 ea                	add    %ch,%dl
  407b01:	02 00                	add    (%rax),%al
  407b03:	00 00                	add    %al,(%rax)
  407b05:	00 00                	add    %al,(%rax)
  407b07:	00 ea                	add    %ch,%dl
  407b09:	02 00                	add    (%rax),%al
  407b0b:	00 00                	add    %al,(%rax)
  407b0d:	00 00                	add    %al,(%rax)
  407b0f:	00 ea                	add    %ch,%dl
  407b11:	02 00                	add    (%rax),%al
  407b13:	00 00                	add    %al,(%rax)
  407b15:	00 00                	add    %al,(%rax)
  407b17:	00 ea                	add    %ch,%dl
  407b19:	02 00                	add    (%rax),%al
  407b1b:	00 00                	add    %al,(%rax)
  407b1d:	00 00                	add    %al,(%rax)
  407b1f:	00 ea                	add    %ch,%dl
  407b21:	02 00                	add    (%rax),%al
  407b23:	00 00                	add    %al,(%rax)
  407b25:	00 00                	add    %al,(%rax)
  407b27:	00 ea                	add    %ch,%dl
  407b29:	02 00                	add    (%rax),%al
  407b2b:	00 00                	add    %al,(%rax)
  407b2d:	00 00                	add    %al,(%rax)
  407b2f:	00 ea                	add    %ch,%dl
  407b31:	02 00                	add    (%rax),%al
  407b33:	00 00                	add    %al,(%rax)
  407b35:	00 00                	add    %al,(%rax)
  407b37:	00 ea                	add    %ch,%dl
  407b39:	02 00                	add    (%rax),%al
  407b3b:	00 00                	add    %al,(%rax)
  407b3d:	00 00                	add    %al,(%rax)
  407b3f:	00 ea                	add    %ch,%dl
  407b41:	02 00                	add    (%rax),%al
  407b43:	00 00                	add    %al,(%rax)
  407b45:	00 00                	add    %al,(%rax)
  407b47:	00 ea                	add    %ch,%dl
  407b49:	02 00                	add    (%rax),%al
  407b4b:	00 00                	add    %al,(%rax)
  407b4d:	00 00                	add    %al,(%rax)
  407b4f:	00 ea                	add    %ch,%dl
  407b51:	02 00                	add    (%rax),%al
  407b53:	00 00                	add    %al,(%rax)
  407b55:	00 00                	add    %al,(%rax)
  407b57:	00 ea                	add    %ch,%dl
  407b59:	02 00                	add    (%rax),%al
  407b5b:	00 00                	add    %al,(%rax)
  407b5d:	00 00                	add    %al,(%rax)
  407b5f:	00 ea                	add    %ch,%dl
  407b61:	02 00                	add    (%rax),%al
  407b63:	00 00                	add    %al,(%rax)
  407b65:	00 00                	add    %al,(%rax)
  407b67:	00 ea                	add    %ch,%dl
  407b69:	02 00                	add    (%rax),%al
  407b6b:	00 00                	add    %al,(%rax)
  407b6d:	00 00                	add    %al,(%rax)
  407b6f:	00 ea                	add    %ch,%dl
  407b71:	02 00                	add    (%rax),%al
  407b73:	00 00                	add    %al,(%rax)
  407b75:	00 00                	add    %al,(%rax)
  407b77:	00 ea                	add    %ch,%dl
  407b79:	02 00                	add    (%rax),%al
  407b7b:	00 00                	add    %al,(%rax)
  407b7d:	00 00                	add    %al,(%rax)
  407b7f:	00 ea                	add    %ch,%dl
  407b81:	02 00                	add    (%rax),%al
  407b83:	00 00                	add    %al,(%rax)
  407b85:	00 00                	add    %al,(%rax)
  407b87:	00 ea                	add    %ch,%dl
  407b89:	02 00                	add    (%rax),%al
  407b8b:	00 00                	add    %al,(%rax)
  407b8d:	00 00                	add    %al,(%rax)
  407b8f:	00 ea                	add    %ch,%dl
  407b91:	02 00                	add    (%rax),%al
  407b93:	00 00                	add    %al,(%rax)
  407b95:	00 00                	add    %al,(%rax)
  407b97:	00 ea                	add    %ch,%dl
  407b99:	02 00                	add    (%rax),%al
  407b9b:	00 00                	add    %al,(%rax)
  407b9d:	00 00                	add    %al,(%rax)
  407b9f:	00 ea                	add    %ch,%dl
  407ba1:	02 00                	add    (%rax),%al
  407ba3:	00 00                	add    %al,(%rax)
  407ba5:	00 00                	add    %al,(%rax)
  407ba7:	00 ea                	add    %ch,%dl
  407ba9:	02 00                	add    (%rax),%al
  407bab:	00 00                	add    %al,(%rax)
  407bad:	00 00                	add    %al,(%rax)
  407baf:	00 ea                	add    %ch,%dl
  407bb1:	02 00                	add    (%rax),%al
  407bb3:	00 00                	add    %al,(%rax)
  407bb5:	00 00                	add    %al,(%rax)
  407bb7:	00 ea                	add    %ch,%dl
  407bb9:	02 00                	add    (%rax),%al
  407bbb:	00 00                	add    %al,(%rax)
  407bbd:	00 00                	add    %al,(%rax)
  407bbf:	00 ea                	add    %ch,%dl
  407bc1:	02 00                	add    (%rax),%al
  407bc3:	00 00                	add    %al,(%rax)
  407bc5:	00 00                	add    %al,(%rax)
  407bc7:	00 ea                	add    %ch,%dl
  407bc9:	02 00                	add    (%rax),%al
  407bcb:	00 00                	add    %al,(%rax)
  407bcd:	00 00                	add    %al,(%rax)
  407bcf:	00 ea                	add    %ch,%dl
  407bd1:	02 00                	add    (%rax),%al
  407bd3:	00 00                	add    %al,(%rax)
  407bd5:	00 00                	add    %al,(%rax)
  407bd7:	00 ea                	add    %ch,%dl
  407bd9:	02 00                	add    (%rax),%al
  407bdb:	00 00                	add    %al,(%rax)
  407bdd:	00 00                	add    %al,(%rax)
  407bdf:	00 ea                	add    %ch,%dl
  407be1:	02 00                	add    (%rax),%al
  407be3:	00 00                	add    %al,(%rax)
  407be5:	00 00                	add    %al,(%rax)
  407be7:	00 ea                	add    %ch,%dl
  407be9:	02 00                	add    (%rax),%al
  407beb:	00 00                	add    %al,(%rax)
  407bed:	00 00                	add    %al,(%rax)
  407bef:	00 ea                	add    %ch,%dl
  407bf1:	02 00                	add    (%rax),%al
  407bf3:	00 00                	add    %al,(%rax)
  407bf5:	00 00                	add    %al,(%rax)
  407bf7:	00 ea                	add    %ch,%dl
  407bf9:	02 00                	add    (%rax),%al
  407bfb:	00 00                	add    %al,(%rax)
  407bfd:	00 00                	add    %al,(%rax)
  407bff:	00 ea                	add    %ch,%dl
  407c01:	02 00                	add    (%rax),%al
  407c03:	00 00                	add    %al,(%rax)
  407c05:	00 00                	add    %al,(%rax)
  407c07:	00 ea                	add    %ch,%dl
  407c09:	02 00                	add    (%rax),%al
  407c0b:	00 00                	add    %al,(%rax)
  407c0d:	00 00                	add    %al,(%rax)
  407c0f:	00 ea                	add    %ch,%dl
  407c11:	02 00                	add    (%rax),%al
  407c13:	00 00                	add    %al,(%rax)
  407c15:	00 00                	add    %al,(%rax)
  407c17:	00 ea                	add    %ch,%dl
  407c19:	02 00                	add    (%rax),%al
  407c1b:	00 00                	add    %al,(%rax)
  407c1d:	00 00                	add    %al,(%rax)
  407c1f:	00 ea                	add    %ch,%dl
  407c21:	02 00                	add    (%rax),%al
  407c23:	00 00                	add    %al,(%rax)
  407c25:	00 00                	add    %al,(%rax)
  407c27:	00 ea                	add    %ch,%dl
  407c29:	02 00                	add    (%rax),%al
  407c2b:	00 00                	add    %al,(%rax)
  407c2d:	00 00                	add    %al,(%rax)
  407c2f:	00 ea                	add    %ch,%dl
  407c31:	02 00                	add    (%rax),%al
  407c33:	00 00                	add    %al,(%rax)
  407c35:	00 00                	add    %al,(%rax)
  407c37:	00 ea                	add    %ch,%dl
  407c39:	02 00                	add    (%rax),%al
  407c3b:	00 00                	add    %al,(%rax)
  407c3d:	00 00                	add    %al,(%rax)
  407c3f:	00 ea                	add    %ch,%dl
  407c41:	02 00                	add    (%rax),%al
  407c43:	00 00                	add    %al,(%rax)
  407c45:	00 00                	add    %al,(%rax)
  407c47:	00 ea                	add    %ch,%dl
  407c49:	02 00                	add    (%rax),%al
  407c4b:	00 00                	add    %al,(%rax)
  407c4d:	00 00                	add    %al,(%rax)
  407c4f:	00 ea                	add    %ch,%dl
  407c51:	02 00                	add    (%rax),%al
  407c53:	00 00                	add    %al,(%rax)
  407c55:	00 00                	add    %al,(%rax)
  407c57:	00 ea                	add    %ch,%dl
  407c59:	02 00                	add    (%rax),%al
  407c5b:	00 00                	add    %al,(%rax)
  407c5d:	00 00                	add    %al,(%rax)
  407c5f:	00 ea                	add    %ch,%dl
  407c61:	02 00                	add    (%rax),%al
  407c63:	00 00                	add    %al,(%rax)
  407c65:	00 00                	add    %al,(%rax)
  407c67:	00 ea                	add    %ch,%dl
  407c69:	02 00                	add    (%rax),%al
  407c6b:	00 00                	add    %al,(%rax)
  407c6d:	00 00                	add    %al,(%rax)
  407c6f:	00 ea                	add    %ch,%dl
  407c71:	02 00                	add    (%rax),%al
  407c73:	00 00                	add    %al,(%rax)
  407c75:	00 00                	add    %al,(%rax)
  407c77:	00 ea                	add    %ch,%dl
  407c79:	02 00                	add    (%rax),%al
  407c7b:	00 00                	add    %al,(%rax)
  407c7d:	00 00                	add    %al,(%rax)
  407c7f:	00 ea                	add    %ch,%dl
  407c81:	02 00                	add    (%rax),%al
  407c83:	00 00                	add    %al,(%rax)
  407c85:	00 00                	add    %al,(%rax)
  407c87:	00 ea                	add    %ch,%dl
  407c89:	02 00                	add    (%rax),%al
  407c8b:	00 00                	add    %al,(%rax)
  407c8d:	00 00                	add    %al,(%rax)
  407c8f:	00 ea                	add    %ch,%dl
  407c91:	02 00                	add    (%rax),%al
  407c93:	00 00                	add    %al,(%rax)
  407c95:	00 00                	add    %al,(%rax)
  407c97:	00 ea                	add    %ch,%dl
  407c99:	02 00                	add    (%rax),%al
  407c9b:	00 00                	add    %al,(%rax)
  407c9d:	00 00                	add    %al,(%rax)
  407c9f:	00 ea                	add    %ch,%dl
  407ca1:	02 00                	add    (%rax),%al
  407ca3:	00 00                	add    %al,(%rax)
  407ca5:	00 00                	add    %al,(%rax)
  407ca7:	00 ea                	add    %ch,%dl
  407ca9:	02 00                	add    (%rax),%al
  407cab:	00 00                	add    %al,(%rax)
  407cad:	00 00                	add    %al,(%rax)
  407caf:	00 ea                	add    %ch,%dl
  407cb1:	02 00                	add    (%rax),%al
  407cb3:	00 00                	add    %al,(%rax)
  407cb5:	00 00                	add    %al,(%rax)
  407cb7:	00 ea                	add    %ch,%dl
  407cb9:	02 00                	add    (%rax),%al
  407cbb:	00 00                	add    %al,(%rax)
  407cbd:	00 00                	add    %al,(%rax)
  407cbf:	00 ea                	add    %ch,%dl
  407cc1:	02 00                	add    (%rax),%al
  407cc3:	00 00                	add    %al,(%rax)
  407cc5:	00 00                	add    %al,(%rax)
  407cc7:	00 ea                	add    %ch,%dl
  407cc9:	02 00                	add    (%rax),%al
  407ccb:	00 00                	add    %al,(%rax)
  407ccd:	00 00                	add    %al,(%rax)
  407ccf:	00 ea                	add    %ch,%dl
  407cd1:	02 00                	add    (%rax),%al
  407cd3:	00 00                	add    %al,(%rax)
  407cd5:	00 00                	add    %al,(%rax)
  407cd7:	00 ea                	add    %ch,%dl
  407cd9:	02 00                	add    (%rax),%al
  407cdb:	00 00                	add    %al,(%rax)
  407cdd:	00 00                	add    %al,(%rax)
  407cdf:	00 ea                	add    %ch,%dl
  407ce1:	02 00                	add    (%rax),%al
  407ce3:	00 00                	add    %al,(%rax)
  407ce5:	00 00                	add    %al,(%rax)
  407ce7:	00 ea                	add    %ch,%dl
  407ce9:	02 00                	add    (%rax),%al
  407ceb:	00 00                	add    %al,(%rax)
  407ced:	00 00                	add    %al,(%rax)
  407cef:	00 ea                	add    %ch,%dl
  407cf1:	02 00                	add    (%rax),%al
  407cf3:	00 00                	add    %al,(%rax)
  407cf5:	00 00                	add    %al,(%rax)
  407cf7:	00 ea                	add    %ch,%dl
  407cf9:	02 00                	add    (%rax),%al
  407cfb:	00 00                	add    %al,(%rax)
  407cfd:	00 00                	add    %al,(%rax)
  407cff:	00 f1                	add    %dh,%cl
  407d01:	02 00                	add    (%rax),%al
  407d03:	00 00                	add    %al,(%rax)
  407d05:	00 00                	add    %al,(%rax)
  407d07:	00 f1                	add    %dh,%cl
  407d09:	02 00                	add    (%rax),%al
  407d0b:	00 00                	add    %al,(%rax)
  407d0d:	00 00                	add    %al,(%rax)
  407d0f:	00 f1                	add    %dh,%cl
  407d11:	02 00                	add    (%rax),%al
  407d13:	00 00                	add    %al,(%rax)
  407d15:	00 00                	add    %al,(%rax)
  407d17:	00 f1                	add    %dh,%cl
  407d19:	02 00                	add    (%rax),%al
  407d1b:	00 00                	add    %al,(%rax)
  407d1d:	00 00                	add    %al,(%rax)
  407d1f:	00 f1                	add    %dh,%cl
  407d21:	02 00                	add    (%rax),%al
  407d23:	00 00                	add    %al,(%rax)
  407d25:	00 00                	add    %al,(%rax)
  407d27:	00 f1                	add    %dh,%cl
  407d29:	02 00                	add    (%rax),%al
  407d2b:	00 00                	add    %al,(%rax)
  407d2d:	00 00                	add    %al,(%rax)
  407d2f:	00 f1                	add    %dh,%cl
  407d31:	02 00                	add    (%rax),%al
  407d33:	00 00                	add    %al,(%rax)
  407d35:	00 00                	add    %al,(%rax)
  407d37:	00 f1                	add    %dh,%cl
  407d39:	02 00                	add    (%rax),%al
  407d3b:	00 00                	add    %al,(%rax)
  407d3d:	00 00                	add    %al,(%rax)
  407d3f:	00 f1                	add    %dh,%cl
  407d41:	02 00                	add    (%rax),%al
  407d43:	00 00                	add    %al,(%rax)
  407d45:	00 00                	add    %al,(%rax)
  407d47:	00 f1                	add    %dh,%cl
  407d49:	02 00                	add    (%rax),%al
  407d4b:	00 00                	add    %al,(%rax)
  407d4d:	00 00                	add    %al,(%rax)
  407d4f:	00 f1                	add    %dh,%cl
  407d51:	02 00                	add    (%rax),%al
  407d53:	00 00                	add    %al,(%rax)
  407d55:	00 00                	add    %al,(%rax)
  407d57:	00 f1                	add    %dh,%cl
  407d59:	02 00                	add    (%rax),%al
  407d5b:	00 00                	add    %al,(%rax)
  407d5d:	00 00                	add    %al,(%rax)
  407d5f:	00 f1                	add    %dh,%cl
  407d61:	02 00                	add    (%rax),%al
  407d63:	00 00                	add    %al,(%rax)
  407d65:	00 00                	add    %al,(%rax)
  407d67:	00 f1                	add    %dh,%cl
  407d69:	02 00                	add    (%rax),%al
  407d6b:	00 00                	add    %al,(%rax)
  407d6d:	00 00                	add    %al,(%rax)
  407d6f:	00 f1                	add    %dh,%cl
  407d71:	02 00                	add    (%rax),%al
  407d73:	00 00                	add    %al,(%rax)
  407d75:	00 00                	add    %al,(%rax)
  407d77:	00 f1                	add    %dh,%cl
  407d79:	02 00                	add    (%rax),%al
  407d7b:	00 00                	add    %al,(%rax)
  407d7d:	00 00                	add    %al,(%rax)
  407d7f:	00 f1                	add    %dh,%cl
  407d81:	02 00                	add    (%rax),%al
  407d83:	00 00                	add    %al,(%rax)
  407d85:	00 00                	add    %al,(%rax)
  407d87:	00 f1                	add    %dh,%cl
  407d89:	02 00                	add    (%rax),%al
  407d8b:	00 00                	add    %al,(%rax)
  407d8d:	00 00                	add    %al,(%rax)
  407d8f:	00 f1                	add    %dh,%cl
  407d91:	02 00                	add    (%rax),%al
  407d93:	00 00                	add    %al,(%rax)
  407d95:	00 00                	add    %al,(%rax)
  407d97:	00 f1                	add    %dh,%cl
  407d99:	02 00                	add    (%rax),%al
  407d9b:	00 00                	add    %al,(%rax)
  407d9d:	00 00                	add    %al,(%rax)
  407d9f:	00 f1                	add    %dh,%cl
  407da1:	02 00                	add    (%rax),%al
  407da3:	00 00                	add    %al,(%rax)
  407da5:	00 00                	add    %al,(%rax)
  407da7:	00 f1                	add    %dh,%cl
  407da9:	02 00                	add    (%rax),%al
  407dab:	00 00                	add    %al,(%rax)
  407dad:	00 00                	add    %al,(%rax)
  407daf:	00 f1                	add    %dh,%cl
  407db1:	02 00                	add    (%rax),%al
  407db3:	00 00                	add    %al,(%rax)
  407db5:	00 00                	add    %al,(%rax)
  407db7:	00 f1                	add    %dh,%cl
  407db9:	02 00                	add    (%rax),%al
  407dbb:	00 00                	add    %al,(%rax)
  407dbd:	00 00                	add    %al,(%rax)
  407dbf:	00 f1                	add    %dh,%cl
  407dc1:	02 00                	add    (%rax),%al
  407dc3:	00 00                	add    %al,(%rax)
  407dc5:	00 00                	add    %al,(%rax)
  407dc7:	00 f1                	add    %dh,%cl
  407dc9:	02 00                	add    (%rax),%al
  407dcb:	00 00                	add    %al,(%rax)
  407dcd:	00 00                	add    %al,(%rax)
  407dcf:	00 f1                	add    %dh,%cl
  407dd1:	02 00                	add    (%rax),%al
  407dd3:	00 00                	add    %al,(%rax)
  407dd5:	00 00                	add    %al,(%rax)
  407dd7:	00 f1                	add    %dh,%cl
  407dd9:	02 00                	add    (%rax),%al
  407ddb:	00 00                	add    %al,(%rax)
  407ddd:	00 00                	add    %al,(%rax)
  407ddf:	00 f1                	add    %dh,%cl
  407de1:	02 00                	add    (%rax),%al
  407de3:	00 00                	add    %al,(%rax)
  407de5:	00 00                	add    %al,(%rax)
  407de7:	00 f1                	add    %dh,%cl
  407de9:	02 00                	add    (%rax),%al
  407deb:	00 00                	add    %al,(%rax)
  407ded:	00 00                	add    %al,(%rax)
  407def:	00 f1                	add    %dh,%cl
  407df1:	02 00                	add    (%rax),%al
  407df3:	00 00                	add    %al,(%rax)
  407df5:	00 00                	add    %al,(%rax)
  407df7:	00 f1                	add    %dh,%cl
  407df9:	02 00                	add    (%rax),%al
  407dfb:	00 00                	add    %al,(%rax)
  407dfd:	00 00                	add    %al,(%rax)
  407dff:	00 f1                	add    %dh,%cl
  407e01:	02 00                	add    (%rax),%al
  407e03:	00 00                	add    %al,(%rax)
  407e05:	00 00                	add    %al,(%rax)
  407e07:	00 f1                	add    %dh,%cl
  407e09:	02 00                	add    (%rax),%al
  407e0b:	00 00                	add    %al,(%rax)
  407e0d:	00 00                	add    %al,(%rax)
  407e0f:	00 f1                	add    %dh,%cl
  407e11:	02 00                	add    (%rax),%al
  407e13:	00 00                	add    %al,(%rax)
  407e15:	00 00                	add    %al,(%rax)
  407e17:	00 f1                	add    %dh,%cl
  407e19:	02 00                	add    (%rax),%al
  407e1b:	00 00                	add    %al,(%rax)
  407e1d:	00 00                	add    %al,(%rax)
  407e1f:	00 f1                	add    %dh,%cl
  407e21:	02 00                	add    (%rax),%al
  407e23:	00 00                	add    %al,(%rax)
  407e25:	00 00                	add    %al,(%rax)
  407e27:	00 f1                	add    %dh,%cl
  407e29:	02 00                	add    (%rax),%al
  407e2b:	00 00                	add    %al,(%rax)
  407e2d:	00 00                	add    %al,(%rax)
  407e2f:	00 f1                	add    %dh,%cl
  407e31:	02 00                	add    (%rax),%al
  407e33:	00 00                	add    %al,(%rax)
  407e35:	00 00                	add    %al,(%rax)
  407e37:	00 f1                	add    %dh,%cl
  407e39:	02 00                	add    (%rax),%al
  407e3b:	00 00                	add    %al,(%rax)
  407e3d:	00 00                	add    %al,(%rax)
  407e3f:	00 f1                	add    %dh,%cl
  407e41:	02 00                	add    (%rax),%al
  407e43:	00 00                	add    %al,(%rax)
  407e45:	00 00                	add    %al,(%rax)
  407e47:	00 f1                	add    %dh,%cl
  407e49:	02 00                	add    (%rax),%al
  407e4b:	00 00                	add    %al,(%rax)
  407e4d:	00 00                	add    %al,(%rax)
  407e4f:	00 f1                	add    %dh,%cl
  407e51:	02 00                	add    (%rax),%al
  407e53:	00 00                	add    %al,(%rax)
  407e55:	00 00                	add    %al,(%rax)
  407e57:	00 f1                	add    %dh,%cl
  407e59:	02 00                	add    (%rax),%al
  407e5b:	00 00                	add    %al,(%rax)
  407e5d:	00 00                	add    %al,(%rax)
  407e5f:	00 f1                	add    %dh,%cl
  407e61:	02 00                	add    (%rax),%al
  407e63:	00 00                	add    %al,(%rax)
  407e65:	00 00                	add    %al,(%rax)
  407e67:	00 f1                	add    %dh,%cl
  407e69:	02 00                	add    (%rax),%al
  407e6b:	00 00                	add    %al,(%rax)
  407e6d:	00 00                	add    %al,(%rax)
  407e6f:	00 f1                	add    %dh,%cl
  407e71:	02 00                	add    (%rax),%al
  407e73:	00 00                	add    %al,(%rax)
  407e75:	00 00                	add    %al,(%rax)
  407e77:	00 f1                	add    %dh,%cl
  407e79:	02 00                	add    (%rax),%al
  407e7b:	00 00                	add    %al,(%rax)
  407e7d:	00 00                	add    %al,(%rax)
  407e7f:	00 f1                	add    %dh,%cl
  407e81:	02 00                	add    (%rax),%al
  407e83:	00 00                	add    %al,(%rax)
  407e85:	00 00                	add    %al,(%rax)
  407e87:	00 f1                	add    %dh,%cl
  407e89:	02 00                	add    (%rax),%al
  407e8b:	00 00                	add    %al,(%rax)
  407e8d:	00 00                	add    %al,(%rax)
  407e8f:	00 f1                	add    %dh,%cl
  407e91:	02 00                	add    (%rax),%al
  407e93:	00 00                	add    %al,(%rax)
  407e95:	00 00                	add    %al,(%rax)
  407e97:	00 f1                	add    %dh,%cl
  407e99:	02 00                	add    (%rax),%al
  407e9b:	00 00                	add    %al,(%rax)
  407e9d:	00 00                	add    %al,(%rax)
  407e9f:	00 f1                	add    %dh,%cl
  407ea1:	02 00                	add    (%rax),%al
  407ea3:	00 00                	add    %al,(%rax)
  407ea5:	00 00                	add    %al,(%rax)
  407ea7:	00 f1                	add    %dh,%cl
  407ea9:	02 00                	add    (%rax),%al
  407eab:	00 00                	add    %al,(%rax)
  407ead:	00 00                	add    %al,(%rax)
  407eaf:	00 f1                	add    %dh,%cl
  407eb1:	02 00                	add    (%rax),%al
  407eb3:	00 00                	add    %al,(%rax)
  407eb5:	00 00                	add    %al,(%rax)
  407eb7:	00 f1                	add    %dh,%cl
  407eb9:	02 00                	add    (%rax),%al
  407ebb:	00 00                	add    %al,(%rax)
  407ebd:	00 00                	add    %al,(%rax)
  407ebf:	00 f1                	add    %dh,%cl
  407ec1:	02 00                	add    (%rax),%al
  407ec3:	00 00                	add    %al,(%rax)
  407ec5:	00 00                	add    %al,(%rax)
  407ec7:	00 f1                	add    %dh,%cl
  407ec9:	02 00                	add    (%rax),%al
  407ecb:	00 00                	add    %al,(%rax)
  407ecd:	00 00                	add    %al,(%rax)
  407ecf:	00 f1                	add    %dh,%cl
  407ed1:	02 00                	add    (%rax),%al
  407ed3:	00 00                	add    %al,(%rax)
  407ed5:	00 00                	add    %al,(%rax)
  407ed7:	00 f1                	add    %dh,%cl
  407ed9:	02 00                	add    (%rax),%al
  407edb:	00 00                	add    %al,(%rax)
  407edd:	00 00                	add    %al,(%rax)
  407edf:	00 f1                	add    %dh,%cl
  407ee1:	02 00                	add    (%rax),%al
  407ee3:	00 00                	add    %al,(%rax)
  407ee5:	00 00                	add    %al,(%rax)
  407ee7:	00 f1                	add    %dh,%cl
  407ee9:	02 00                	add    (%rax),%al
  407eeb:	00 00                	add    %al,(%rax)
  407eed:	00 00                	add    %al,(%rax)
  407eef:	00 f1                	add    %dh,%cl
  407ef1:	02 00                	add    (%rax),%al
  407ef3:	00 00                	add    %al,(%rax)
  407ef5:	00 00                	add    %al,(%rax)
  407ef7:	00 f1                	add    %dh,%cl
  407ef9:	02 00                	add    (%rax),%al
  407efb:	00 00                	add    %al,(%rax)
  407efd:	00 00                	add    %al,(%rax)
  407eff:	00 f8                	add    %bh,%al
  407f01:	02 00                	add    (%rax),%al
  407f03:	00 00                	add    %al,(%rax)
  407f05:	00 00                	add    %al,(%rax)
  407f07:	00 f8                	add    %bh,%al
  407f09:	02 00                	add    (%rax),%al
  407f0b:	00 00                	add    %al,(%rax)
  407f0d:	00 00                	add    %al,(%rax)
  407f0f:	00 f8                	add    %bh,%al
  407f11:	02 00                	add    (%rax),%al
  407f13:	00 00                	add    %al,(%rax)
  407f15:	00 00                	add    %al,(%rax)
  407f17:	00 f8                	add    %bh,%al
  407f19:	02 00                	add    (%rax),%al
  407f1b:	00 00                	add    %al,(%rax)
  407f1d:	00 00                	add    %al,(%rax)
  407f1f:	00 f8                	add    %bh,%al
  407f21:	02 00                	add    (%rax),%al
  407f23:	00 00                	add    %al,(%rax)
  407f25:	00 00                	add    %al,(%rax)
  407f27:	00 f8                	add    %bh,%al
  407f29:	02 00                	add    (%rax),%al
  407f2b:	00 00                	add    %al,(%rax)
  407f2d:	00 00                	add    %al,(%rax)
  407f2f:	00 f8                	add    %bh,%al
  407f31:	02 00                	add    (%rax),%al
  407f33:	00 00                	add    %al,(%rax)
  407f35:	00 00                	add    %al,(%rax)
  407f37:	00 f8                	add    %bh,%al
  407f39:	02 00                	add    (%rax),%al
  407f3b:	00 00                	add    %al,(%rax)
  407f3d:	00 00                	add    %al,(%rax)
  407f3f:	00 f8                	add    %bh,%al
  407f41:	02 00                	add    (%rax),%al
  407f43:	00 00                	add    %al,(%rax)
  407f45:	00 00                	add    %al,(%rax)
  407f47:	00 f8                	add    %bh,%al
  407f49:	02 00                	add    (%rax),%al
  407f4b:	00 00                	add    %al,(%rax)
  407f4d:	00 00                	add    %al,(%rax)
  407f4f:	00 f8                	add    %bh,%al
  407f51:	02 00                	add    (%rax),%al
  407f53:	00 00                	add    %al,(%rax)
  407f55:	00 00                	add    %al,(%rax)
  407f57:	00 f8                	add    %bh,%al
  407f59:	02 00                	add    (%rax),%al
  407f5b:	00 00                	add    %al,(%rax)
  407f5d:	00 00                	add    %al,(%rax)
  407f5f:	00 f8                	add    %bh,%al
  407f61:	02 00                	add    (%rax),%al
  407f63:	00 00                	add    %al,(%rax)
  407f65:	00 00                	add    %al,(%rax)
  407f67:	00 f8                	add    %bh,%al
  407f69:	02 00                	add    (%rax),%al
  407f6b:	00 00                	add    %al,(%rax)
  407f6d:	00 00                	add    %al,(%rax)
  407f6f:	00 f8                	add    %bh,%al
  407f71:	02 00                	add    (%rax),%al
  407f73:	00 00                	add    %al,(%rax)
  407f75:	00 00                	add    %al,(%rax)
  407f77:	00 f8                	add    %bh,%al
  407f79:	02 00                	add    (%rax),%al
  407f7b:	00 00                	add    %al,(%rax)
  407f7d:	00 00                	add    %al,(%rax)
  407f7f:	00 f8                	add    %bh,%al
  407f81:	02 00                	add    (%rax),%al
  407f83:	00 00                	add    %al,(%rax)
  407f85:	00 00                	add    %al,(%rax)
  407f87:	00 f8                	add    %bh,%al
  407f89:	02 00                	add    (%rax),%al
  407f8b:	00 00                	add    %al,(%rax)
  407f8d:	00 00                	add    %al,(%rax)
  407f8f:	00 f8                	add    %bh,%al
  407f91:	02 00                	add    (%rax),%al
  407f93:	00 00                	add    %al,(%rax)
  407f95:	00 00                	add    %al,(%rax)
  407f97:	00 f8                	add    %bh,%al
  407f99:	02 00                	add    (%rax),%al
  407f9b:	00 00                	add    %al,(%rax)
  407f9d:	00 00                	add    %al,(%rax)
  407f9f:	00 f8                	add    %bh,%al
  407fa1:	02 00                	add    (%rax),%al
  407fa3:	00 00                	add    %al,(%rax)
  407fa5:	00 00                	add    %al,(%rax)
  407fa7:	00 f8                	add    %bh,%al
  407fa9:	02 00                	add    (%rax),%al
  407fab:	00 00                	add    %al,(%rax)
  407fad:	00 00                	add    %al,(%rax)
  407faf:	00 f8                	add    %bh,%al
  407fb1:	02 00                	add    (%rax),%al
  407fb3:	00 00                	add    %al,(%rax)
  407fb5:	00 00                	add    %al,(%rax)
  407fb7:	00 f8                	add    %bh,%al
  407fb9:	02 00                	add    (%rax),%al
  407fbb:	00 00                	add    %al,(%rax)
  407fbd:	00 00                	add    %al,(%rax)
  407fbf:	00 f8                	add    %bh,%al
  407fc1:	02 00                	add    (%rax),%al
  407fc3:	00 00                	add    %al,(%rax)
  407fc5:	00 00                	add    %al,(%rax)
  407fc7:	00 f8                	add    %bh,%al
  407fc9:	02 00                	add    (%rax),%al
  407fcb:	00 00                	add    %al,(%rax)
  407fcd:	00 00                	add    %al,(%rax)
  407fcf:	00 f8                	add    %bh,%al
  407fd1:	02 00                	add    (%rax),%al
  407fd3:	00 00                	add    %al,(%rax)
  407fd5:	00 00                	add    %al,(%rax)
  407fd7:	00 f8                	add    %bh,%al
  407fd9:	02 00                	add    (%rax),%al
  407fdb:	00 00                	add    %al,(%rax)
  407fdd:	00 00                	add    %al,(%rax)
  407fdf:	00 f8                	add    %bh,%al
  407fe1:	02 00                	add    (%rax),%al
  407fe3:	00 00                	add    %al,(%rax)
  407fe5:	00 00                	add    %al,(%rax)
  407fe7:	00 f8                	add    %bh,%al
  407fe9:	02 00                	add    (%rax),%al
  407feb:	00 00                	add    %al,(%rax)
  407fed:	00 00                	add    %al,(%rax)
  407fef:	00 f8                	add    %bh,%al
  407ff1:	02 00                	add    (%rax),%al
  407ff3:	00 00                	add    %al,(%rax)
  407ff5:	00 00                	add    %al,(%rax)
  407ff7:	00 f8                	add    %bh,%al
  407ff9:	02 00                	add    (%rax),%al
  407ffb:	00 00                	add    %al,(%rax)
  407ffd:	00 00                	add    %al,(%rax)
  407fff:	00 f8                	add    %bh,%al
  408001:	02 00                	add    (%rax),%al
  408003:	00 00                	add    %al,(%rax)
  408005:	00 00                	add    %al,(%rax)
  408007:	00 f8                	add    %bh,%al
  408009:	02 00                	add    (%rax),%al
  40800b:	00 00                	add    %al,(%rax)
  40800d:	00 00                	add    %al,(%rax)
  40800f:	00 f8                	add    %bh,%al
  408011:	02 00                	add    (%rax),%al
  408013:	00 00                	add    %al,(%rax)
  408015:	00 00                	add    %al,(%rax)
  408017:	00 f8                	add    %bh,%al
  408019:	02 00                	add    (%rax),%al
  40801b:	00 00                	add    %al,(%rax)
  40801d:	00 00                	add    %al,(%rax)
  40801f:	00 f8                	add    %bh,%al
  408021:	02 00                	add    (%rax),%al
  408023:	00 00                	add    %al,(%rax)
  408025:	00 00                	add    %al,(%rax)
  408027:	00 f8                	add    %bh,%al
  408029:	02 00                	add    (%rax),%al
  40802b:	00 00                	add    %al,(%rax)
  40802d:	00 00                	add    %al,(%rax)
  40802f:	00 f8                	add    %bh,%al
  408031:	02 00                	add    (%rax),%al
  408033:	00 00                	add    %al,(%rax)
  408035:	00 00                	add    %al,(%rax)
  408037:	00 f8                	add    %bh,%al
  408039:	02 00                	add    (%rax),%al
  40803b:	00 00                	add    %al,(%rax)
  40803d:	00 00                	add    %al,(%rax)
  40803f:	00 f8                	add    %bh,%al
  408041:	02 00                	add    (%rax),%al
  408043:	00 00                	add    %al,(%rax)
  408045:	00 00                	add    %al,(%rax)
  408047:	00 f8                	add    %bh,%al
  408049:	02 00                	add    (%rax),%al
  40804b:	00 00                	add    %al,(%rax)
  40804d:	00 00                	add    %al,(%rax)
  40804f:	00 f8                	add    %bh,%al
  408051:	02 00                	add    (%rax),%al
  408053:	00 00                	add    %al,(%rax)
  408055:	00 00                	add    %al,(%rax)
  408057:	00 f8                	add    %bh,%al
  408059:	02 00                	add    (%rax),%al
  40805b:	00 00                	add    %al,(%rax)
  40805d:	00 00                	add    %al,(%rax)
  40805f:	00 f8                	add    %bh,%al
  408061:	02 00                	add    (%rax),%al
  408063:	00 00                	add    %al,(%rax)
  408065:	00 00                	add    %al,(%rax)
  408067:	00 f8                	add    %bh,%al
  408069:	02 00                	add    (%rax),%al
  40806b:	00 00                	add    %al,(%rax)
  40806d:	00 00                	add    %al,(%rax)
  40806f:	00 f8                	add    %bh,%al
  408071:	02 00                	add    (%rax),%al
  408073:	00 00                	add    %al,(%rax)
  408075:	00 00                	add    %al,(%rax)
  408077:	00 f8                	add    %bh,%al
  408079:	02 00                	add    (%rax),%al
  40807b:	00 00                	add    %al,(%rax)
  40807d:	00 00                	add    %al,(%rax)
  40807f:	00 f8                	add    %bh,%al
  408081:	02 00                	add    (%rax),%al
  408083:	00 00                	add    %al,(%rax)
  408085:	00 00                	add    %al,(%rax)
  408087:	00 f8                	add    %bh,%al
  408089:	02 00                	add    (%rax),%al
  40808b:	00 00                	add    %al,(%rax)
  40808d:	00 00                	add    %al,(%rax)
  40808f:	00 f8                	add    %bh,%al
  408091:	02 00                	add    (%rax),%al
  408093:	00 00                	add    %al,(%rax)
  408095:	00 00                	add    %al,(%rax)
  408097:	00 f8                	add    %bh,%al
  408099:	02 00                	add    (%rax),%al
  40809b:	00 00                	add    %al,(%rax)
  40809d:	00 00                	add    %al,(%rax)
  40809f:	00 f8                	add    %bh,%al
  4080a1:	02 00                	add    (%rax),%al
  4080a3:	00 00                	add    %al,(%rax)
  4080a5:	00 00                	add    %al,(%rax)
  4080a7:	00 f8                	add    %bh,%al
  4080a9:	02 00                	add    (%rax),%al
  4080ab:	00 00                	add    %al,(%rax)
  4080ad:	00 00                	add    %al,(%rax)
  4080af:	00 f8                	add    %bh,%al
  4080b1:	02 00                	add    (%rax),%al
  4080b3:	00 00                	add    %al,(%rax)
  4080b5:	00 00                	add    %al,(%rax)
  4080b7:	00 f8                	add    %bh,%al
  4080b9:	02 00                	add    (%rax),%al
  4080bb:	00 00                	add    %al,(%rax)
  4080bd:	00 00                	add    %al,(%rax)
  4080bf:	00 f8                	add    %bh,%al
  4080c1:	02 00                	add    (%rax),%al
  4080c3:	00 00                	add    %al,(%rax)
  4080c5:	00 00                	add    %al,(%rax)
  4080c7:	00 f8                	add    %bh,%al
  4080c9:	02 00                	add    (%rax),%al
  4080cb:	00 00                	add    %al,(%rax)
  4080cd:	00 00                	add    %al,(%rax)
  4080cf:	00 f8                	add    %bh,%al
  4080d1:	02 00                	add    (%rax),%al
  4080d3:	00 00                	add    %al,(%rax)
  4080d5:	00 00                	add    %al,(%rax)
  4080d7:	00 f8                	add    %bh,%al
  4080d9:	02 00                	add    (%rax),%al
  4080db:	00 00                	add    %al,(%rax)
  4080dd:	00 00                	add    %al,(%rax)
  4080df:	00 f8                	add    %bh,%al
  4080e1:	02 00                	add    (%rax),%al
  4080e3:	00 00                	add    %al,(%rax)
  4080e5:	00 00                	add    %al,(%rax)
  4080e7:	00 f8                	add    %bh,%al
  4080e9:	02 00                	add    (%rax),%al
  4080eb:	00 00                	add    %al,(%rax)
  4080ed:	00 00                	add    %al,(%rax)
  4080ef:	00 f8                	add    %bh,%al
  4080f1:	02 00                	add    (%rax),%al
  4080f3:	00 00                	add    %al,(%rax)
  4080f5:	00 00                	add    %al,(%rax)
  4080f7:	00 f8                	add    %bh,%al
  4080f9:	02 00                	add    (%rax),%al
  4080fb:	00 00                	add    %al,(%rax)
  4080fd:	00 00                	add    %al,(%rax)
  4080ff:	00 ff                	add    %bh,%bh
  408101:	02 00                	add    (%rax),%al
  408103:	00 00                	add    %al,(%rax)
  408105:	00 00                	add    %al,(%rax)
  408107:	00 ff                	add    %bh,%bh
  408109:	02 00                	add    (%rax),%al
  40810b:	00 00                	add    %al,(%rax)
  40810d:	00 00                	add    %al,(%rax)
  40810f:	00 ff                	add    %bh,%bh
  408111:	02 00                	add    (%rax),%al
  408113:	00 00                	add    %al,(%rax)
  408115:	00 00                	add    %al,(%rax)
  408117:	00 ff                	add    %bh,%bh
  408119:	02 00                	add    (%rax),%al
  40811b:	00 00                	add    %al,(%rax)
  40811d:	00 00                	add    %al,(%rax)
  40811f:	00 ff                	add    %bh,%bh
  408121:	02 00                	add    (%rax),%al
  408123:	00 00                	add    %al,(%rax)
  408125:	00 00                	add    %al,(%rax)
  408127:	00 ff                	add    %bh,%bh
  408129:	02 00                	add    (%rax),%al
  40812b:	00 00                	add    %al,(%rax)
  40812d:	00 00                	add    %al,(%rax)
  40812f:	00 ff                	add    %bh,%bh
  408131:	02 00                	add    (%rax),%al
  408133:	00 00                	add    %al,(%rax)
  408135:	00 00                	add    %al,(%rax)
  408137:	00 ff                	add    %bh,%bh
  408139:	02 00                	add    (%rax),%al
  40813b:	00 00                	add    %al,(%rax)
  40813d:	00 00                	add    %al,(%rax)
  40813f:	00 ff                	add    %bh,%bh
  408141:	02 00                	add    (%rax),%al
  408143:	00 00                	add    %al,(%rax)
  408145:	00 00                	add    %al,(%rax)
  408147:	00 ff                	add    %bh,%bh
  408149:	02 00                	add    (%rax),%al
  40814b:	00 00                	add    %al,(%rax)
  40814d:	00 00                	add    %al,(%rax)
  40814f:	00 ff                	add    %bh,%bh
  408151:	02 00                	add    (%rax),%al
  408153:	00 00                	add    %al,(%rax)
  408155:	00 00                	add    %al,(%rax)
  408157:	00 ff                	add    %bh,%bh
  408159:	02 00                	add    (%rax),%al
  40815b:	00 00                	add    %al,(%rax)
  40815d:	00 00                	add    %al,(%rax)
  40815f:	00 ff                	add    %bh,%bh
  408161:	02 00                	add    (%rax),%al
  408163:	00 00                	add    %al,(%rax)
  408165:	00 00                	add    %al,(%rax)
  408167:	00 ff                	add    %bh,%bh
  408169:	02 00                	add    (%rax),%al
  40816b:	00 00                	add    %al,(%rax)
  40816d:	00 00                	add    %al,(%rax)
  40816f:	00 ff                	add    %bh,%bh
  408171:	02 00                	add    (%rax),%al
  408173:	00 00                	add    %al,(%rax)
  408175:	00 00                	add    %al,(%rax)
  408177:	00 ff                	add    %bh,%bh
  408179:	02 00                	add    (%rax),%al
  40817b:	00 00                	add    %al,(%rax)
  40817d:	00 00                	add    %al,(%rax)
  40817f:	00 ff                	add    %bh,%bh
  408181:	02 00                	add    (%rax),%al
  408183:	00 00                	add    %al,(%rax)
  408185:	00 00                	add    %al,(%rax)
  408187:	00 ff                	add    %bh,%bh
  408189:	02 00                	add    (%rax),%al
  40818b:	00 00                	add    %al,(%rax)
  40818d:	00 00                	add    %al,(%rax)
  40818f:	00 ff                	add    %bh,%bh
  408191:	02 00                	add    (%rax),%al
  408193:	00 00                	add    %al,(%rax)
  408195:	00 00                	add    %al,(%rax)
  408197:	00 ff                	add    %bh,%bh
  408199:	02 00                	add    (%rax),%al
  40819b:	00 00                	add    %al,(%rax)
  40819d:	00 00                	add    %al,(%rax)
  40819f:	00 ff                	add    %bh,%bh
  4081a1:	02 00                	add    (%rax),%al
  4081a3:	00 00                	add    %al,(%rax)
  4081a5:	00 00                	add    %al,(%rax)
  4081a7:	00 ff                	add    %bh,%bh
  4081a9:	02 00                	add    (%rax),%al
  4081ab:	00 00                	add    %al,(%rax)
  4081ad:	00 00                	add    %al,(%rax)
  4081af:	00 ff                	add    %bh,%bh
  4081b1:	02 00                	add    (%rax),%al
  4081b3:	00 00                	add    %al,(%rax)
  4081b5:	00 00                	add    %al,(%rax)
  4081b7:	00 ff                	add    %bh,%bh
  4081b9:	02 00                	add    (%rax),%al
  4081bb:	00 00                	add    %al,(%rax)
  4081bd:	00 00                	add    %al,(%rax)
  4081bf:	00 ff                	add    %bh,%bh
  4081c1:	02 00                	add    (%rax),%al
  4081c3:	00 00                	add    %al,(%rax)
  4081c5:	00 00                	add    %al,(%rax)
  4081c7:	00 ff                	add    %bh,%bh
  4081c9:	02 00                	add    (%rax),%al
  4081cb:	00 00                	add    %al,(%rax)
  4081cd:	00 00                	add    %al,(%rax)
  4081cf:	00 ff                	add    %bh,%bh
  4081d1:	02 00                	add    (%rax),%al
  4081d3:	00 00                	add    %al,(%rax)
  4081d5:	00 00                	add    %al,(%rax)
  4081d7:	00 ff                	add    %bh,%bh
  4081d9:	02 00                	add    (%rax),%al
  4081db:	00 00                	add    %al,(%rax)
  4081dd:	00 00                	add    %al,(%rax)
  4081df:	00 ff                	add    %bh,%bh
  4081e1:	02 00                	add    (%rax),%al
  4081e3:	00 00                	add    %al,(%rax)
  4081e5:	00 00                	add    %al,(%rax)
  4081e7:	00 ff                	add    %bh,%bh
  4081e9:	02 00                	add    (%rax),%al
  4081eb:	00 00                	add    %al,(%rax)
  4081ed:	00 00                	add    %al,(%rax)
  4081ef:	00 ff                	add    %bh,%bh
  4081f1:	02 00                	add    (%rax),%al
  4081f3:	00 00                	add    %al,(%rax)
  4081f5:	00 00                	add    %al,(%rax)
  4081f7:	00 ff                	add    %bh,%bh
  4081f9:	02 00                	add    (%rax),%al
  4081fb:	00 00                	add    %al,(%rax)
  4081fd:	00 00                	add    %al,(%rax)
  4081ff:	00 ff                	add    %bh,%bh
  408201:	02 00                	add    (%rax),%al
  408203:	00 00                	add    %al,(%rax)
  408205:	00 00                	add    %al,(%rax)
  408207:	00 ff                	add    %bh,%bh
  408209:	02 00                	add    (%rax),%al
  40820b:	00 00                	add    %al,(%rax)
  40820d:	00 00                	add    %al,(%rax)
  40820f:	00 ff                	add    %bh,%bh
  408211:	02 00                	add    (%rax),%al
  408213:	00 00                	add    %al,(%rax)
  408215:	00 00                	add    %al,(%rax)
  408217:	00 ff                	add    %bh,%bh
  408219:	02 00                	add    (%rax),%al
  40821b:	00 00                	add    %al,(%rax)
  40821d:	00 00                	add    %al,(%rax)
  40821f:	00 ff                	add    %bh,%bh
  408221:	02 00                	add    (%rax),%al
  408223:	00 00                	add    %al,(%rax)
  408225:	00 00                	add    %al,(%rax)
  408227:	00 ff                	add    %bh,%bh
  408229:	02 00                	add    (%rax),%al
  40822b:	00 00                	add    %al,(%rax)
  40822d:	00 00                	add    %al,(%rax)
  40822f:	00 ff                	add    %bh,%bh
  408231:	02 00                	add    (%rax),%al
  408233:	00 00                	add    %al,(%rax)
  408235:	00 00                	add    %al,(%rax)
  408237:	00 ff                	add    %bh,%bh
  408239:	02 00                	add    (%rax),%al
  40823b:	00 00                	add    %al,(%rax)
  40823d:	00 00                	add    %al,(%rax)
  40823f:	00 ff                	add    %bh,%bh
  408241:	02 00                	add    (%rax),%al
  408243:	00 00                	add    %al,(%rax)
  408245:	00 00                	add    %al,(%rax)
  408247:	00 ff                	add    %bh,%bh
  408249:	02 00                	add    (%rax),%al
  40824b:	00 00                	add    %al,(%rax)
  40824d:	00 00                	add    %al,(%rax)
  40824f:	00 ff                	add    %bh,%bh
  408251:	02 00                	add    (%rax),%al
  408253:	00 00                	add    %al,(%rax)
  408255:	00 00                	add    %al,(%rax)
  408257:	00 ff                	add    %bh,%bh
  408259:	02 00                	add    (%rax),%al
  40825b:	00 00                	add    %al,(%rax)
  40825d:	00 00                	add    %al,(%rax)
  40825f:	00 ff                	add    %bh,%bh
  408261:	02 00                	add    (%rax),%al
  408263:	00 00                	add    %al,(%rax)
  408265:	00 00                	add    %al,(%rax)
  408267:	00 ff                	add    %bh,%bh
  408269:	02 00                	add    (%rax),%al
  40826b:	00 00                	add    %al,(%rax)
  40826d:	00 00                	add    %al,(%rax)
  40826f:	00 ff                	add    %bh,%bh
  408271:	02 00                	add    (%rax),%al
  408273:	00 00                	add    %al,(%rax)
  408275:	00 00                	add    %al,(%rax)
  408277:	00 ff                	add    %bh,%bh
  408279:	02 00                	add    (%rax),%al
  40827b:	00 00                	add    %al,(%rax)
  40827d:	00 00                	add    %al,(%rax)
  40827f:	00 ff                	add    %bh,%bh
  408281:	02 00                	add    (%rax),%al
  408283:	00 00                	add    %al,(%rax)
  408285:	00 00                	add    %al,(%rax)
  408287:	00 ff                	add    %bh,%bh
  408289:	02 00                	add    (%rax),%al
  40828b:	00 00                	add    %al,(%rax)
  40828d:	00 00                	add    %al,(%rax)
  40828f:	00 ff                	add    %bh,%bh
  408291:	02 00                	add    (%rax),%al
  408293:	00 00                	add    %al,(%rax)
  408295:	00 00                	add    %al,(%rax)
  408297:	00 ff                	add    %bh,%bh
  408299:	02 00                	add    (%rax),%al
  40829b:	00 00                	add    %al,(%rax)
  40829d:	00 00                	add    %al,(%rax)
  40829f:	00 ff                	add    %bh,%bh
  4082a1:	02 00                	add    (%rax),%al
  4082a3:	00 00                	add    %al,(%rax)
  4082a5:	00 00                	add    %al,(%rax)
  4082a7:	00 ff                	add    %bh,%bh
  4082a9:	02 00                	add    (%rax),%al
  4082ab:	00 00                	add    %al,(%rax)
  4082ad:	00 00                	add    %al,(%rax)
  4082af:	00 ff                	add    %bh,%bh
  4082b1:	02 00                	add    (%rax),%al
  4082b3:	00 00                	add    %al,(%rax)
  4082b5:	00 00                	add    %al,(%rax)
  4082b7:	00 ff                	add    %bh,%bh
  4082b9:	02 00                	add    (%rax),%al
  4082bb:	00 00                	add    %al,(%rax)
  4082bd:	00 00                	add    %al,(%rax)
  4082bf:	00 ff                	add    %bh,%bh
  4082c1:	02 00                	add    (%rax),%al
  4082c3:	00 00                	add    %al,(%rax)
  4082c5:	00 00                	add    %al,(%rax)
  4082c7:	00 ff                	add    %bh,%bh
  4082c9:	02 00                	add    (%rax),%al
  4082cb:	00 00                	add    %al,(%rax)
  4082cd:	00 00                	add    %al,(%rax)
  4082cf:	00 ff                	add    %bh,%bh
  4082d1:	02 00                	add    (%rax),%al
  4082d3:	00 00                	add    %al,(%rax)
  4082d5:	00 00                	add    %al,(%rax)
  4082d7:	00 ff                	add    %bh,%bh
  4082d9:	02 00                	add    (%rax),%al
  4082db:	00 00                	add    %al,(%rax)
  4082dd:	00 00                	add    %al,(%rax)
  4082df:	00 ff                	add    %bh,%bh
  4082e1:	02 00                	add    (%rax),%al
  4082e3:	00 00                	add    %al,(%rax)
  4082e5:	00 00                	add    %al,(%rax)
  4082e7:	00 ff                	add    %bh,%bh
  4082e9:	02 00                	add    (%rax),%al
  4082eb:	00 00                	add    %al,(%rax)
  4082ed:	00 00                	add    %al,(%rax)
  4082ef:	00 ff                	add    %bh,%bh
  4082f1:	02 00                	add    (%rax),%al
  4082f3:	00 00                	add    %al,(%rax)
  4082f5:	00 00                	add    %al,(%rax)
  4082f7:	00 ff                	add    %bh,%bh
  4082f9:	02 00                	add    (%rax),%al
  4082fb:	00 00                	add    %al,(%rax)
  4082fd:	00 00                	add    %al,(%rax)
  4082ff:	00 06                	add    %al,(%rsi)
  408301:	03 00                	add    (%rax),%eax
  408303:	00 00                	add    %al,(%rax)
  408305:	00 00                	add    %al,(%rax)
  408307:	00 06                	add    %al,(%rsi)
  408309:	03 00                	add    (%rax),%eax
  40830b:	00 00                	add    %al,(%rax)
  40830d:	00 00                	add    %al,(%rax)
  40830f:	00 06                	add    %al,(%rsi)
  408311:	03 00                	add    (%rax),%eax
  408313:	00 00                	add    %al,(%rax)
  408315:	00 00                	add    %al,(%rax)
  408317:	00 06                	add    %al,(%rsi)
  408319:	03 00                	add    (%rax),%eax
  40831b:	00 00                	add    %al,(%rax)
  40831d:	00 00                	add    %al,(%rax)
  40831f:	00 06                	add    %al,(%rsi)
  408321:	03 00                	add    (%rax),%eax
  408323:	00 00                	add    %al,(%rax)
  408325:	00 00                	add    %al,(%rax)
  408327:	00 06                	add    %al,(%rsi)
  408329:	03 00                	add    (%rax),%eax
  40832b:	00 00                	add    %al,(%rax)
  40832d:	00 00                	add    %al,(%rax)
  40832f:	00 06                	add    %al,(%rsi)
  408331:	03 00                	add    (%rax),%eax
  408333:	00 00                	add    %al,(%rax)
  408335:	00 00                	add    %al,(%rax)
  408337:	00 06                	add    %al,(%rsi)
  408339:	03 00                	add    (%rax),%eax
  40833b:	00 00                	add    %al,(%rax)
  40833d:	00 00                	add    %al,(%rax)
  40833f:	00 06                	add    %al,(%rsi)
  408341:	03 00                	add    (%rax),%eax
  408343:	00 00                	add    %al,(%rax)
  408345:	00 00                	add    %al,(%rax)
  408347:	00 06                	add    %al,(%rsi)
  408349:	03 00                	add    (%rax),%eax
  40834b:	00 00                	add    %al,(%rax)
  40834d:	00 00                	add    %al,(%rax)
  40834f:	00 06                	add    %al,(%rsi)
  408351:	03 00                	add    (%rax),%eax
  408353:	00 00                	add    %al,(%rax)
  408355:	00 00                	add    %al,(%rax)
  408357:	00 06                	add    %al,(%rsi)
  408359:	03 00                	add    (%rax),%eax
  40835b:	00 00                	add    %al,(%rax)
  40835d:	00 00                	add    %al,(%rax)
  40835f:	00 06                	add    %al,(%rsi)
  408361:	03 00                	add    (%rax),%eax
  408363:	00 00                	add    %al,(%rax)
  408365:	00 00                	add    %al,(%rax)
  408367:	00 06                	add    %al,(%rsi)
  408369:	03 00                	add    (%rax),%eax
  40836b:	00 00                	add    %al,(%rax)
  40836d:	00 00                	add    %al,(%rax)
  40836f:	00 06                	add    %al,(%rsi)
  408371:	03 00                	add    (%rax),%eax
  408373:	00 00                	add    %al,(%rax)
  408375:	00 00                	add    %al,(%rax)
  408377:	00 06                	add    %al,(%rsi)
  408379:	03 00                	add    (%rax),%eax
  40837b:	00 00                	add    %al,(%rax)
  40837d:	00 00                	add    %al,(%rax)
  40837f:	00 06                	add    %al,(%rsi)
  408381:	03 00                	add    (%rax),%eax
  408383:	00 00                	add    %al,(%rax)
  408385:	00 00                	add    %al,(%rax)
  408387:	00 06                	add    %al,(%rsi)
  408389:	03 00                	add    (%rax),%eax
  40838b:	00 00                	add    %al,(%rax)
  40838d:	00 00                	add    %al,(%rax)
  40838f:	00 06                	add    %al,(%rsi)
  408391:	03 00                	add    (%rax),%eax
  408393:	00 00                	add    %al,(%rax)
  408395:	00 00                	add    %al,(%rax)
  408397:	00 06                	add    %al,(%rsi)
  408399:	03 00                	add    (%rax),%eax
  40839b:	00 00                	add    %al,(%rax)
  40839d:	00 00                	add    %al,(%rax)
  40839f:	00 06                	add    %al,(%rsi)
  4083a1:	03 00                	add    (%rax),%eax
  4083a3:	00 00                	add    %al,(%rax)
  4083a5:	00 00                	add    %al,(%rax)
  4083a7:	00 06                	add    %al,(%rsi)
  4083a9:	03 00                	add    (%rax),%eax
  4083ab:	00 00                	add    %al,(%rax)
  4083ad:	00 00                	add    %al,(%rax)
  4083af:	00 06                	add    %al,(%rsi)
  4083b1:	03 00                	add    (%rax),%eax
  4083b3:	00 00                	add    %al,(%rax)
  4083b5:	00 00                	add    %al,(%rax)
  4083b7:	00 06                	add    %al,(%rsi)
  4083b9:	03 00                	add    (%rax),%eax
  4083bb:	00 00                	add    %al,(%rax)
  4083bd:	00 00                	add    %al,(%rax)
  4083bf:	00 06                	add    %al,(%rsi)
  4083c1:	03 00                	add    (%rax),%eax
  4083c3:	00 00                	add    %al,(%rax)
  4083c5:	00 00                	add    %al,(%rax)
  4083c7:	00 06                	add    %al,(%rsi)
  4083c9:	03 00                	add    (%rax),%eax
  4083cb:	00 00                	add    %al,(%rax)
  4083cd:	00 00                	add    %al,(%rax)
  4083cf:	00 06                	add    %al,(%rsi)
  4083d1:	03 00                	add    (%rax),%eax
  4083d3:	00 00                	add    %al,(%rax)
  4083d5:	00 00                	add    %al,(%rax)
  4083d7:	00 06                	add    %al,(%rsi)
  4083d9:	03 00                	add    (%rax),%eax
  4083db:	00 00                	add    %al,(%rax)
  4083dd:	00 00                	add    %al,(%rax)
  4083df:	00 06                	add    %al,(%rsi)
  4083e1:	03 00                	add    (%rax),%eax
  4083e3:	00 00                	add    %al,(%rax)
  4083e5:	00 00                	add    %al,(%rax)
  4083e7:	00 06                	add    %al,(%rsi)
  4083e9:	03 00                	add    (%rax),%eax
  4083eb:	00 00                	add    %al,(%rax)
  4083ed:	00 00                	add    %al,(%rax)
  4083ef:	00 06                	add    %al,(%rsi)
  4083f1:	03 00                	add    (%rax),%eax
  4083f3:	00 00                	add    %al,(%rax)
  4083f5:	00 00                	add    %al,(%rax)
  4083f7:	00 06                	add    %al,(%rsi)
  4083f9:	03 00                	add    (%rax),%eax
  4083fb:	00 00                	add    %al,(%rax)
  4083fd:	00 00                	add    %al,(%rax)
  4083ff:	00 06                	add    %al,(%rsi)
  408401:	03 00                	add    (%rax),%eax
  408403:	00 00                	add    %al,(%rax)
  408405:	00 00                	add    %al,(%rax)
  408407:	00 06                	add    %al,(%rsi)
  408409:	03 00                	add    (%rax),%eax
  40840b:	00 00                	add    %al,(%rax)
  40840d:	00 00                	add    %al,(%rax)
  40840f:	00 06                	add    %al,(%rsi)
  408411:	03 00                	add    (%rax),%eax
  408413:	00 00                	add    %al,(%rax)
  408415:	00 00                	add    %al,(%rax)
  408417:	00 06                	add    %al,(%rsi)
  408419:	03 00                	add    (%rax),%eax
  40841b:	00 00                	add    %al,(%rax)
  40841d:	00 00                	add    %al,(%rax)
  40841f:	00 06                	add    %al,(%rsi)
  408421:	03 00                	add    (%rax),%eax
  408423:	00 00                	add    %al,(%rax)
  408425:	00 00                	add    %al,(%rax)
  408427:	00 06                	add    %al,(%rsi)
  408429:	03 00                	add    (%rax),%eax
  40842b:	00 00                	add    %al,(%rax)
  40842d:	00 00                	add    %al,(%rax)
  40842f:	00 06                	add    %al,(%rsi)
  408431:	03 00                	add    (%rax),%eax
  408433:	00 00                	add    %al,(%rax)
  408435:	00 00                	add    %al,(%rax)
  408437:	00 06                	add    %al,(%rsi)
  408439:	03 00                	add    (%rax),%eax
  40843b:	00 00                	add    %al,(%rax)
  40843d:	00 00                	add    %al,(%rax)
  40843f:	00 06                	add    %al,(%rsi)
  408441:	03 00                	add    (%rax),%eax
  408443:	00 00                	add    %al,(%rax)
  408445:	00 00                	add    %al,(%rax)
  408447:	00 06                	add    %al,(%rsi)
  408449:	03 00                	add    (%rax),%eax
  40844b:	00 00                	add    %al,(%rax)
  40844d:	00 00                	add    %al,(%rax)
  40844f:	00 06                	add    %al,(%rsi)
  408451:	03 00                	add    (%rax),%eax
  408453:	00 00                	add    %al,(%rax)
  408455:	00 00                	add    %al,(%rax)
  408457:	00 06                	add    %al,(%rsi)
  408459:	03 00                	add    (%rax),%eax
  40845b:	00 00                	add    %al,(%rax)
  40845d:	00 00                	add    %al,(%rax)
  40845f:	00 06                	add    %al,(%rsi)
  408461:	03 00                	add    (%rax),%eax
  408463:	00 00                	add    %al,(%rax)
  408465:	00 00                	add    %al,(%rax)
  408467:	00 06                	add    %al,(%rsi)
  408469:	03 00                	add    (%rax),%eax
  40846b:	00 00                	add    %al,(%rax)
  40846d:	00 00                	add    %al,(%rax)
  40846f:	00 06                	add    %al,(%rsi)
  408471:	03 00                	add    (%rax),%eax
  408473:	00 00                	add    %al,(%rax)
  408475:	00 00                	add    %al,(%rax)
  408477:	00 06                	add    %al,(%rsi)
  408479:	03 00                	add    (%rax),%eax
  40847b:	00 00                	add    %al,(%rax)
  40847d:	00 00                	add    %al,(%rax)
  40847f:	00 06                	add    %al,(%rsi)
  408481:	03 00                	add    (%rax),%eax
  408483:	00 00                	add    %al,(%rax)
  408485:	00 00                	add    %al,(%rax)
  408487:	00 06                	add    %al,(%rsi)
  408489:	03 00                	add    (%rax),%eax
  40848b:	00 00                	add    %al,(%rax)
  40848d:	00 00                	add    %al,(%rax)
  40848f:	00 06                	add    %al,(%rsi)
  408491:	03 00                	add    (%rax),%eax
  408493:	00 00                	add    %al,(%rax)
  408495:	00 00                	add    %al,(%rax)
  408497:	00 06                	add    %al,(%rsi)
  408499:	03 00                	add    (%rax),%eax
  40849b:	00 00                	add    %al,(%rax)
  40849d:	00 00                	add    %al,(%rax)
  40849f:	00 06                	add    %al,(%rsi)
  4084a1:	03 00                	add    (%rax),%eax
  4084a3:	00 00                	add    %al,(%rax)
  4084a5:	00 00                	add    %al,(%rax)
  4084a7:	00 06                	add    %al,(%rsi)
  4084a9:	03 00                	add    (%rax),%eax
  4084ab:	00 00                	add    %al,(%rax)
  4084ad:	00 00                	add    %al,(%rax)
  4084af:	00 06                	add    %al,(%rsi)
  4084b1:	03 00                	add    (%rax),%eax
  4084b3:	00 00                	add    %al,(%rax)
  4084b5:	00 00                	add    %al,(%rax)
  4084b7:	00 06                	add    %al,(%rsi)
  4084b9:	03 00                	add    (%rax),%eax
  4084bb:	00 00                	add    %al,(%rax)
  4084bd:	00 00                	add    %al,(%rax)
  4084bf:	00 06                	add    %al,(%rsi)
  4084c1:	03 00                	add    (%rax),%eax
  4084c3:	00 00                	add    %al,(%rax)
  4084c5:	00 00                	add    %al,(%rax)
  4084c7:	00 06                	add    %al,(%rsi)
  4084c9:	03 00                	add    (%rax),%eax
  4084cb:	00 00                	add    %al,(%rax)
  4084cd:	00 00                	add    %al,(%rax)
  4084cf:	00 06                	add    %al,(%rsi)
  4084d1:	03 00                	add    (%rax),%eax
  4084d3:	00 00                	add    %al,(%rax)
  4084d5:	00 00                	add    %al,(%rax)
  4084d7:	00 06                	add    %al,(%rsi)
  4084d9:	03 00                	add    (%rax),%eax
  4084db:	00 00                	add    %al,(%rax)
  4084dd:	00 00                	add    %al,(%rax)
  4084df:	00 06                	add    %al,(%rsi)
  4084e1:	03 00                	add    (%rax),%eax
  4084e3:	00 00                	add    %al,(%rax)
  4084e5:	00 00                	add    %al,(%rax)
  4084e7:	00 06                	add    %al,(%rsi)
  4084e9:	03 00                	add    (%rax),%eax
  4084eb:	00 00                	add    %al,(%rax)
  4084ed:	00 00                	add    %al,(%rax)
  4084ef:	00 06                	add    %al,(%rsi)
  4084f1:	03 00                	add    (%rax),%eax
  4084f3:	00 00                	add    %al,(%rax)
  4084f5:	00 00                	add    %al,(%rax)
  4084f7:	00 06                	add    %al,(%rsi)
  4084f9:	03 00                	add    (%rax),%eax
  4084fb:	00 00                	add    %al,(%rax)
  4084fd:	00 00                	add    %al,(%rax)
  4084ff:	00 0d 03 00 00 00    	add    %cl,0x3(%rip)        # 408508 <__intel_mic_avx512f_memset+0x12c8>
  408505:	00 00                	add    %al,(%rax)
  408507:	00 0d 03 00 00 00    	add    %cl,0x3(%rip)        # 408510 <__intel_mic_avx512f_memset+0x12d0>
  40850d:	00 00                	add    %al,(%rax)
  40850f:	00 0d 03 00 00 00    	add    %cl,0x3(%rip)        # 408518 <__intel_mic_avx512f_memset+0x12d8>
  408515:	00 00                	add    %al,(%rax)
  408517:	00 0d 03 00 00 00    	add    %cl,0x3(%rip)        # 408520 <__intel_mic_avx512f_memset+0x12e0>
  40851d:	00 00                	add    %al,(%rax)
  40851f:	00 0d 03 00 00 00    	add    %cl,0x3(%rip)        # 408528 <__intel_mic_avx512f_memset+0x12e8>
  408525:	00 00                	add    %al,(%rax)
  408527:	00 0d 03 00 00 00    	add    %cl,0x3(%rip)        # 408530 <__intel_mic_avx512f_memset+0x12f0>
  40852d:	00 00                	add    %al,(%rax)
  40852f:	00 0d 03 00 00 00    	add    %cl,0x3(%rip)        # 408538 <__intel_mic_avx512f_memset+0x12f8>
  408535:	00 00                	add    %al,(%rax)
  408537:	00 0d 03 00 00 00    	add    %cl,0x3(%rip)        # 408540 <__intel_mic_avx512f_memset+0x1300>
  40853d:	00 00                	add    %al,(%rax)
  40853f:	00 0d 03 00 00 00    	add    %cl,0x3(%rip)        # 408548 <__intel_mic_avx512f_memset+0x1308>
  408545:	00 00                	add    %al,(%rax)
  408547:	00 0d 03 00 00 00    	add    %cl,0x3(%rip)        # 408550 <__intel_mic_avx512f_memset+0x1310>
  40854d:	00 00                	add    %al,(%rax)
  40854f:	00 0d 03 00 00 00    	add    %cl,0x3(%rip)        # 408558 <__intel_mic_avx512f_memset+0x1318>
  408555:	00 00                	add    %al,(%rax)
  408557:	00 0d 03 00 00 00    	add    %cl,0x3(%rip)        # 408560 <__intel_mic_avx512f_memset+0x1320>
  40855d:	00 00                	add    %al,(%rax)
  40855f:	00 0d 03 00 00 00    	add    %cl,0x3(%rip)        # 408568 <__intel_mic_avx512f_memset+0x1328>
  408565:	00 00                	add    %al,(%rax)
  408567:	00 0d 03 00 00 00    	add    %cl,0x3(%rip)        # 408570 <__intel_mic_avx512f_memset+0x1330>
  40856d:	00 00                	add    %al,(%rax)
  40856f:	00 0d 03 00 00 00    	add    %cl,0x3(%rip)        # 408578 <__intel_mic_avx512f_memset+0x1338>
  408575:	00 00                	add    %al,(%rax)
  408577:	00 0d 03 00 00 00    	add    %cl,0x3(%rip)        # 408580 <__intel_mic_avx512f_memset+0x1340>
  40857d:	00 00                	add    %al,(%rax)
  40857f:	00 0d 03 00 00 00    	add    %cl,0x3(%rip)        # 408588 <__intel_mic_avx512f_memset+0x1348>
  408585:	00 00                	add    %al,(%rax)
  408587:	00 0d 03 00 00 00    	add    %cl,0x3(%rip)        # 408590 <__intel_mic_avx512f_memset+0x1350>
  40858d:	00 00                	add    %al,(%rax)
  40858f:	00 0d 03 00 00 00    	add    %cl,0x3(%rip)        # 408598 <__intel_mic_avx512f_memset+0x1358>
  408595:	00 00                	add    %al,(%rax)
  408597:	00 0d 03 00 00 00    	add    %cl,0x3(%rip)        # 4085a0 <__intel_mic_avx512f_memset+0x1360>
  40859d:	00 00                	add    %al,(%rax)
  40859f:	00 0d 03 00 00 00    	add    %cl,0x3(%rip)        # 4085a8 <__intel_mic_avx512f_memset+0x1368>
  4085a5:	00 00                	add    %al,(%rax)
  4085a7:	00 0d 03 00 00 00    	add    %cl,0x3(%rip)        # 4085b0 <__intel_mic_avx512f_memset+0x1370>
  4085ad:	00 00                	add    %al,(%rax)
  4085af:	00 0d 03 00 00 00    	add    %cl,0x3(%rip)        # 4085b8 <__intel_mic_avx512f_memset+0x1378>
  4085b5:	00 00                	add    %al,(%rax)
  4085b7:	00 0d 03 00 00 00    	add    %cl,0x3(%rip)        # 4085c0 <__intel_mic_avx512f_memset+0x1380>
  4085bd:	00 00                	add    %al,(%rax)
  4085bf:	00 0d 03 00 00 00    	add    %cl,0x3(%rip)        # 4085c8 <__intel_mic_avx512f_memset+0x1388>
  4085c5:	00 00                	add    %al,(%rax)
  4085c7:	00 0d 03 00 00 00    	add    %cl,0x3(%rip)        # 4085d0 <__intel_mic_avx512f_memset+0x1390>
  4085cd:	00 00                	add    %al,(%rax)
  4085cf:	00 0d 03 00 00 00    	add    %cl,0x3(%rip)        # 4085d8 <__intel_mic_avx512f_memset+0x1398>
  4085d5:	00 00                	add    %al,(%rax)
  4085d7:	00 0d 03 00 00 00    	add    %cl,0x3(%rip)        # 4085e0 <__intel_mic_avx512f_memset+0x13a0>
  4085dd:	00 00                	add    %al,(%rax)
  4085df:	00 0d 03 00 00 00    	add    %cl,0x3(%rip)        # 4085e8 <__intel_mic_avx512f_memset+0x13a8>
  4085e5:	00 00                	add    %al,(%rax)
  4085e7:	00 0d 03 00 00 00    	add    %cl,0x3(%rip)        # 4085f0 <__intel_mic_avx512f_memset+0x13b0>
  4085ed:	00 00                	add    %al,(%rax)
  4085ef:	00 0d 03 00 00 00    	add    %cl,0x3(%rip)        # 4085f8 <__intel_mic_avx512f_memset+0x13b8>
  4085f5:	00 00                	add    %al,(%rax)
  4085f7:	00 0d 03 00 00 00    	add    %cl,0x3(%rip)        # 408600 <__intel_mic_avx512f_memset+0x13c0>
  4085fd:	00 00                	add    %al,(%rax)
  4085ff:	00 0d 03 00 00 00    	add    %cl,0x3(%rip)        # 408608 <__intel_mic_avx512f_memset+0x13c8>
  408605:	00 00                	add    %al,(%rax)
  408607:	00 0d 03 00 00 00    	add    %cl,0x3(%rip)        # 408610 <__intel_mic_avx512f_memset+0x13d0>
  40860d:	00 00                	add    %al,(%rax)
  40860f:	00 0d 03 00 00 00    	add    %cl,0x3(%rip)        # 408618 <__intel_mic_avx512f_memset+0x13d8>
  408615:	00 00                	add    %al,(%rax)
  408617:	00 0d 03 00 00 00    	add    %cl,0x3(%rip)        # 408620 <__intel_mic_avx512f_memset+0x13e0>
  40861d:	00 00                	add    %al,(%rax)
  40861f:	00 0d 03 00 00 00    	add    %cl,0x3(%rip)        # 408628 <__intel_mic_avx512f_memset+0x13e8>
  408625:	00 00                	add    %al,(%rax)
  408627:	00 0d 03 00 00 00    	add    %cl,0x3(%rip)        # 408630 <__intel_mic_avx512f_memset+0x13f0>
  40862d:	00 00                	add    %al,(%rax)
  40862f:	00 0d 03 00 00 00    	add    %cl,0x3(%rip)        # 408638 <__intel_mic_avx512f_memset+0x13f8>
  408635:	00 00                	add    %al,(%rax)
  408637:	00 0d 03 00 00 00    	add    %cl,0x3(%rip)        # 408640 <__intel_mic_avx512f_memset+0x1400>
  40863d:	00 00                	add    %al,(%rax)
  40863f:	00 0d 03 00 00 00    	add    %cl,0x3(%rip)        # 408648 <__intel_mic_avx512f_memset+0x1408>
  408645:	00 00                	add    %al,(%rax)
  408647:	00 0d 03 00 00 00    	add    %cl,0x3(%rip)        # 408650 <__intel_mic_avx512f_memset+0x1410>
  40864d:	00 00                	add    %al,(%rax)
  40864f:	00 0d 03 00 00 00    	add    %cl,0x3(%rip)        # 408658 <__intel_mic_avx512f_memset+0x1418>
  408655:	00 00                	add    %al,(%rax)
  408657:	00 0d 03 00 00 00    	add    %cl,0x3(%rip)        # 408660 <__intel_mic_avx512f_memset+0x1420>
  40865d:	00 00                	add    %al,(%rax)
  40865f:	00 0d 03 00 00 00    	add    %cl,0x3(%rip)        # 408668 <__intel_mic_avx512f_memset+0x1428>
  408665:	00 00                	add    %al,(%rax)
  408667:	00 0d 03 00 00 00    	add    %cl,0x3(%rip)        # 408670 <__intel_mic_avx512f_memset+0x1430>
  40866d:	00 00                	add    %al,(%rax)
  40866f:	00 0d 03 00 00 00    	add    %cl,0x3(%rip)        # 408678 <__intel_mic_avx512f_memset+0x1438>
  408675:	00 00                	add    %al,(%rax)
  408677:	00 0d 03 00 00 00    	add    %cl,0x3(%rip)        # 408680 <__intel_mic_avx512f_memset+0x1440>
  40867d:	00 00                	add    %al,(%rax)
  40867f:	00 0d 03 00 00 00    	add    %cl,0x3(%rip)        # 408688 <__intel_mic_avx512f_memset+0x1448>
  408685:	00 00                	add    %al,(%rax)
  408687:	00 0d 03 00 00 00    	add    %cl,0x3(%rip)        # 408690 <__intel_mic_avx512f_memset+0x1450>
  40868d:	00 00                	add    %al,(%rax)
  40868f:	00 0d 03 00 00 00    	add    %cl,0x3(%rip)        # 408698 <__intel_mic_avx512f_memset+0x1458>
  408695:	00 00                	add    %al,(%rax)
  408697:	00 0d 03 00 00 00    	add    %cl,0x3(%rip)        # 4086a0 <__intel_mic_avx512f_memset+0x1460>
  40869d:	00 00                	add    %al,(%rax)
  40869f:	00 0d 03 00 00 00    	add    %cl,0x3(%rip)        # 4086a8 <__intel_mic_avx512f_memset+0x1468>
  4086a5:	00 00                	add    %al,(%rax)
  4086a7:	00 0d 03 00 00 00    	add    %cl,0x3(%rip)        # 4086b0 <__intel_mic_avx512f_memset+0x1470>
  4086ad:	00 00                	add    %al,(%rax)
  4086af:	00 0d 03 00 00 00    	add    %cl,0x3(%rip)        # 4086b8 <__intel_mic_avx512f_memset+0x1478>
  4086b5:	00 00                	add    %al,(%rax)
  4086b7:	00 0d 03 00 00 00    	add    %cl,0x3(%rip)        # 4086c0 <__intel_mic_avx512f_memset+0x1480>
  4086bd:	00 00                	add    %al,(%rax)
  4086bf:	00 0d 03 00 00 00    	add    %cl,0x3(%rip)        # 4086c8 <__intel_mic_avx512f_memset+0x1488>
  4086c5:	00 00                	add    %al,(%rax)
  4086c7:	00 0d 03 00 00 00    	add    %cl,0x3(%rip)        # 4086d0 <__intel_mic_avx512f_memset+0x1490>
  4086cd:	00 00                	add    %al,(%rax)
  4086cf:	00 0d 03 00 00 00    	add    %cl,0x3(%rip)        # 4086d8 <__intel_mic_avx512f_memset+0x1498>
  4086d5:	00 00                	add    %al,(%rax)
  4086d7:	00 0d 03 00 00 00    	add    %cl,0x3(%rip)        # 4086e0 <__intel_mic_avx512f_memset+0x14a0>
  4086dd:	00 00                	add    %al,(%rax)
  4086df:	00 0d 03 00 00 00    	add    %cl,0x3(%rip)        # 4086e8 <__intel_mic_avx512f_memset+0x14a8>
  4086e5:	00 00                	add    %al,(%rax)
  4086e7:	00 0d 03 00 00 00    	add    %cl,0x3(%rip)        # 4086f0 <__intel_mic_avx512f_memset+0x14b0>
  4086ed:	00 00                	add    %al,(%rax)
  4086ef:	00 0d 03 00 00 00    	add    %cl,0x3(%rip)        # 4086f8 <__intel_mic_avx512f_memset+0x14b8>
  4086f5:	00 00                	add    %al,(%rax)
  4086f7:	00 0d 03 00 00 00    	add    %cl,0x3(%rip)        # 408700 <__intel_mic_avx512f_memset+0x14c0>
  4086fd:	00 00                	add    %al,(%rax)
  4086ff:	00 c0                	add    %al,%al
  408701:	12 00                	adc    (%rax),%al
  408703:	00 00                	add    %al,(%rax)
  408705:	00 00                	add    %al,(%rax)
  408707:	00 c8                	add    %cl,%al
  408709:	12 00                	adc    (%rax),%al
  40870b:	00 00                	add    %al,(%rax)
  40870d:	00 00                	add    %al,(%rax)
  40870f:	00 bb 12 00 00 00    	add    %bh,0x12(%rbx)
  408715:	00 00                	add    %al,(%rax)
  408717:	00 b2 12 00 00 00    	add    %dh,0x12(%rdx)
  40871d:	00 00                	add    %al,(%rax)
  40871f:	00 a5 12 00 00 00    	add    %ah,0x12(%rbp)
  408725:	00 00                	add    %al,(%rax)
  408727:	00 9d 12 00 00 00    	add    %bl,0x12(%rbp)
  40872d:	00 00                	add    %al,(%rax)
  40872f:	00 9d 12 00 00 00    	add    %bl,0x12(%rbp)
  408735:	00 00                	add    %al,(%rax)
  408737:	00 9d 12 00 00 00    	add    %bl,0x12(%rbp)
  40873d:	00 00                	add    %al,(%rax)
  40873f:	00 91 12 00 00 00    	add    %dl,0x12(%rcx)
  408745:	00 00                	add    %al,(%rax)
  408747:	00 89 12 00 00 00    	add    %cl,0x12(%rcx)
  40874d:	00 00                	add    %al,(%rax)
  40874f:	00 89 12 00 00 00    	add    %cl,0x12(%rcx)
  408755:	00 00                	add    %al,(%rax)
  408757:	00 89 12 00 00 00    	add    %cl,0x12(%rcx)
  40875d:	00 00                	add    %al,(%rax)
  40875f:	00 89 12 00 00 00    	add    %cl,0x12(%rcx)
  408765:	00 00                	add    %al,(%rax)
  408767:	00 89 12 00 00 00    	add    %cl,0x12(%rcx)
  40876d:	00 00                	add    %al,(%rax)
  40876f:	00 89 12 00 00 00    	add    %cl,0x12(%rcx)
  408775:	00 00                	add    %al,(%rax)
  408777:	00 89 12 00 00 00    	add    %cl,0x12(%rcx)
  40877d:	00 00                	add    %al,(%rax)
  40877f:	00 7d 12             	add    %bh,0x12(%rbp)
  408782:	00 00                	add    %al,(%rax)
  408784:	00 00                	add    %al,(%rax)
  408786:	00 00                	add    %al,(%rax)
  408788:	74 12                	je     40879c <__intel_mic_avx512f_memset+0x155c>
  40878a:	00 00                	add    %al,(%rax)
  40878c:	00 00                	add    %al,(%rax)
  40878e:	00 00                	add    %al,(%rax)
  408790:	74 12                	je     4087a4 <__intel_mic_avx512f_memset+0x1564>
  408792:	00 00                	add    %al,(%rax)
  408794:	00 00                	add    %al,(%rax)
  408796:	00 00                	add    %al,(%rax)
  408798:	74 12                	je     4087ac <__intel_mic_avx512f_memset+0x156c>
  40879a:	00 00                	add    %al,(%rax)
  40879c:	00 00                	add    %al,(%rax)
  40879e:	00 00                	add    %al,(%rax)
  4087a0:	74 12                	je     4087b4 <__intel_mic_avx512f_memset+0x1574>
  4087a2:	00 00                	add    %al,(%rax)
  4087a4:	00 00                	add    %al,(%rax)
  4087a6:	00 00                	add    %al,(%rax)
  4087a8:	74 12                	je     4087bc <__intel_mic_avx512f_memset+0x157c>
  4087aa:	00 00                	add    %al,(%rax)
  4087ac:	00 00                	add    %al,(%rax)
  4087ae:	00 00                	add    %al,(%rax)
  4087b0:	74 12                	je     4087c4 <__intel_mic_avx512f_memset+0x1584>
  4087b2:	00 00                	add    %al,(%rax)
  4087b4:	00 00                	add    %al,(%rax)
  4087b6:	00 00                	add    %al,(%rax)
  4087b8:	74 12                	je     4087cc <__intel_mic_avx512f_memset+0x158c>
  4087ba:	00 00                	add    %al,(%rax)
  4087bc:	00 00                	add    %al,(%rax)
  4087be:	00 00                	add    %al,(%rax)
  4087c0:	74 12                	je     4087d4 <__intel_mic_avx512f_memset+0x1594>
  4087c2:	00 00                	add    %al,(%rax)
  4087c4:	00 00                	add    %al,(%rax)
  4087c6:	00 00                	add    %al,(%rax)
  4087c8:	74 12                	je     4087dc <__intel_mic_avx512f_memset+0x159c>
  4087ca:	00 00                	add    %al,(%rax)
  4087cc:	00 00                	add    %al,(%rax)
  4087ce:	00 00                	add    %al,(%rax)
  4087d0:	74 12                	je     4087e4 <__intel_mic_avx512f_memset+0x15a4>
  4087d2:	00 00                	add    %al,(%rax)
  4087d4:	00 00                	add    %al,(%rax)
  4087d6:	00 00                	add    %al,(%rax)
  4087d8:	74 12                	je     4087ec <__intel_mic_avx512f_memset+0x15ac>
  4087da:	00 00                	add    %al,(%rax)
  4087dc:	00 00                	add    %al,(%rax)
  4087de:	00 00                	add    %al,(%rax)
  4087e0:	74 12                	je     4087f4 <__intel_mic_avx512f_memset+0x15b4>
  4087e2:	00 00                	add    %al,(%rax)
  4087e4:	00 00                	add    %al,(%rax)
  4087e6:	00 00                	add    %al,(%rax)
  4087e8:	74 12                	je     4087fc <__intel_mic_avx512f_memset+0x15bc>
  4087ea:	00 00                	add    %al,(%rax)
  4087ec:	00 00                	add    %al,(%rax)
  4087ee:	00 00                	add    %al,(%rax)
  4087f0:	74 12                	je     408804 <__intel_mic_avx512f_memset+0x15c4>
  4087f2:	00 00                	add    %al,(%rax)
  4087f4:	00 00                	add    %al,(%rax)
  4087f6:	00 00                	add    %al,(%rax)
  4087f8:	74 12                	je     40880c <__intel_mic_avx512f_memset+0x15cc>
  4087fa:	00 00                	add    %al,(%rax)
  4087fc:	00 00                	add    %al,(%rax)
  4087fe:	00 00                	add    %al,(%rax)
  408800:	65 12 00             	adc    %gs:(%rax),%al
  408803:	00 00                	add    %al,(%rax)
  408805:	00 00                	add    %al,(%rax)
  408807:	00 5c 12 00          	add    %bl,0x0(%rdx,%rdx,1)
  40880b:	00 00                	add    %al,(%rax)
  40880d:	00 00                	add    %al,(%rax)
  40880f:	00 5c 12 00          	add    %bl,0x0(%rdx,%rdx,1)
  408813:	00 00                	add    %al,(%rax)
  408815:	00 00                	add    %al,(%rax)
  408817:	00 5c 12 00          	add    %bl,0x0(%rdx,%rdx,1)
  40881b:	00 00                	add    %al,(%rax)
  40881d:	00 00                	add    %al,(%rax)
  40881f:	00 5c 12 00          	add    %bl,0x0(%rdx,%rdx,1)
  408823:	00 00                	add    %al,(%rax)
  408825:	00 00                	add    %al,(%rax)
  408827:	00 5c 12 00          	add    %bl,0x0(%rdx,%rdx,1)
  40882b:	00 00                	add    %al,(%rax)
  40882d:	00 00                	add    %al,(%rax)
  40882f:	00 5c 12 00          	add    %bl,0x0(%rdx,%rdx,1)
  408833:	00 00                	add    %al,(%rax)
  408835:	00 00                	add    %al,(%rax)
  408837:	00 5c 12 00          	add    %bl,0x0(%rdx,%rdx,1)
  40883b:	00 00                	add    %al,(%rax)
  40883d:	00 00                	add    %al,(%rax)
  40883f:	00 5c 12 00          	add    %bl,0x0(%rdx,%rdx,1)
  408843:	00 00                	add    %al,(%rax)
  408845:	00 00                	add    %al,(%rax)
  408847:	00 5c 12 00          	add    %bl,0x0(%rdx,%rdx,1)
  40884b:	00 00                	add    %al,(%rax)
  40884d:	00 00                	add    %al,(%rax)
  40884f:	00 5c 12 00          	add    %bl,0x0(%rdx,%rdx,1)
  408853:	00 00                	add    %al,(%rax)
  408855:	00 00                	add    %al,(%rax)
  408857:	00 5c 12 00          	add    %bl,0x0(%rdx,%rdx,1)
  40885b:	00 00                	add    %al,(%rax)
  40885d:	00 00                	add    %al,(%rax)
  40885f:	00 5c 12 00          	add    %bl,0x0(%rdx,%rdx,1)
  408863:	00 00                	add    %al,(%rax)
  408865:	00 00                	add    %al,(%rax)
  408867:	00 5c 12 00          	add    %bl,0x0(%rdx,%rdx,1)
  40886b:	00 00                	add    %al,(%rax)
  40886d:	00 00                	add    %al,(%rax)
  40886f:	00 5c 12 00          	add    %bl,0x0(%rdx,%rdx,1)
  408873:	00 00                	add    %al,(%rax)
  408875:	00 00                	add    %al,(%rax)
  408877:	00 5c 12 00          	add    %bl,0x0(%rdx,%rdx,1)
  40887b:	00 00                	add    %al,(%rax)
  40887d:	00 00                	add    %al,(%rax)
  40887f:	00 5c 12 00          	add    %bl,0x0(%rdx,%rdx,1)
  408883:	00 00                	add    %al,(%rax)
  408885:	00 00                	add    %al,(%rax)
  408887:	00 5c 12 00          	add    %bl,0x0(%rdx,%rdx,1)
  40888b:	00 00                	add    %al,(%rax)
  40888d:	00 00                	add    %al,(%rax)
  40888f:	00 5c 12 00          	add    %bl,0x0(%rdx,%rdx,1)
  408893:	00 00                	add    %al,(%rax)
  408895:	00 00                	add    %al,(%rax)
  408897:	00 5c 12 00          	add    %bl,0x0(%rdx,%rdx,1)
  40889b:	00 00                	add    %al,(%rax)
  40889d:	00 00                	add    %al,(%rax)
  40889f:	00 5c 12 00          	add    %bl,0x0(%rdx,%rdx,1)
  4088a3:	00 00                	add    %al,(%rax)
  4088a5:	00 00                	add    %al,(%rax)
  4088a7:	00 5c 12 00          	add    %bl,0x0(%rdx,%rdx,1)
  4088ab:	00 00                	add    %al,(%rax)
  4088ad:	00 00                	add    %al,(%rax)
  4088af:	00 5c 12 00          	add    %bl,0x0(%rdx,%rdx,1)
  4088b3:	00 00                	add    %al,(%rax)
  4088b5:	00 00                	add    %al,(%rax)
  4088b7:	00 5c 12 00          	add    %bl,0x0(%rdx,%rdx,1)
  4088bb:	00 00                	add    %al,(%rax)
  4088bd:	00 00                	add    %al,(%rax)
  4088bf:	00 5c 12 00          	add    %bl,0x0(%rdx,%rdx,1)
  4088c3:	00 00                	add    %al,(%rax)
  4088c5:	00 00                	add    %al,(%rax)
  4088c7:	00 5c 12 00          	add    %bl,0x0(%rdx,%rdx,1)
  4088cb:	00 00                	add    %al,(%rax)
  4088cd:	00 00                	add    %al,(%rax)
  4088cf:	00 5c 12 00          	add    %bl,0x0(%rdx,%rdx,1)
  4088d3:	00 00                	add    %al,(%rax)
  4088d5:	00 00                	add    %al,(%rax)
  4088d7:	00 5c 12 00          	add    %bl,0x0(%rdx,%rdx,1)
  4088db:	00 00                	add    %al,(%rax)
  4088dd:	00 00                	add    %al,(%rax)
  4088df:	00 5c 12 00          	add    %bl,0x0(%rdx,%rdx,1)
  4088e3:	00 00                	add    %al,(%rax)
  4088e5:	00 00                	add    %al,(%rax)
  4088e7:	00 5c 12 00          	add    %bl,0x0(%rdx,%rdx,1)
  4088eb:	00 00                	add    %al,(%rax)
  4088ed:	00 00                	add    %al,(%rax)
  4088ef:	00 5c 12 00          	add    %bl,0x0(%rdx,%rdx,1)
  4088f3:	00 00                	add    %al,(%rax)
  4088f5:	00 00                	add    %al,(%rax)
  4088f7:	00 5c 12 00          	add    %bl,0x0(%rdx,%rdx,1)
  4088fb:	00 00                	add    %al,(%rax)
  4088fd:	00 00                	add    %al,(%rax)
  4088ff:	00 4d 12             	add    %cl,0x12(%rbp)
  408902:	00 00                	add    %al,(%rax)
  408904:	00 00                	add    %al,(%rax)
  408906:	00 00                	add    %al,(%rax)
  408908:	42 12 00             	rex.X adc (%rax),%al
  40890b:	00 00                	add    %al,(%rax)
  40890d:	00 00                	add    %al,(%rax)
  40890f:	00 42 12             	add    %al,0x12(%rdx)
  408912:	00 00                	add    %al,(%rax)
  408914:	00 00                	add    %al,(%rax)
  408916:	00 00                	add    %al,(%rax)
  408918:	42 12 00             	rex.X adc (%rax),%al
  40891b:	00 00                	add    %al,(%rax)
  40891d:	00 00                	add    %al,(%rax)
  40891f:	00 42 12             	add    %al,0x12(%rdx)
  408922:	00 00                	add    %al,(%rax)
  408924:	00 00                	add    %al,(%rax)
  408926:	00 00                	add    %al,(%rax)
  408928:	42 12 00             	rex.X adc (%rax),%al
  40892b:	00 00                	add    %al,(%rax)
  40892d:	00 00                	add    %al,(%rax)
  40892f:	00 42 12             	add    %al,0x12(%rdx)
  408932:	00 00                	add    %al,(%rax)
  408934:	00 00                	add    %al,(%rax)
  408936:	00 00                	add    %al,(%rax)
  408938:	42 12 00             	rex.X adc (%rax),%al
  40893b:	00 00                	add    %al,(%rax)
  40893d:	00 00                	add    %al,(%rax)
  40893f:	00 42 12             	add    %al,0x12(%rdx)
  408942:	00 00                	add    %al,(%rax)
  408944:	00 00                	add    %al,(%rax)
  408946:	00 00                	add    %al,(%rax)
  408948:	42 12 00             	rex.X adc (%rax),%al
  40894b:	00 00                	add    %al,(%rax)
  40894d:	00 00                	add    %al,(%rax)
  40894f:	00 42 12             	add    %al,0x12(%rdx)
  408952:	00 00                	add    %al,(%rax)
  408954:	00 00                	add    %al,(%rax)
  408956:	00 00                	add    %al,(%rax)
  408958:	42 12 00             	rex.X adc (%rax),%al
  40895b:	00 00                	add    %al,(%rax)
  40895d:	00 00                	add    %al,(%rax)
  40895f:	00 42 12             	add    %al,0x12(%rdx)
  408962:	00 00                	add    %al,(%rax)
  408964:	00 00                	add    %al,(%rax)
  408966:	00 00                	add    %al,(%rax)
  408968:	42 12 00             	rex.X adc (%rax),%al
  40896b:	00 00                	add    %al,(%rax)
  40896d:	00 00                	add    %al,(%rax)
  40896f:	00 42 12             	add    %al,0x12(%rdx)
  408972:	00 00                	add    %al,(%rax)
  408974:	00 00                	add    %al,(%rax)
  408976:	00 00                	add    %al,(%rax)
  408978:	42 12 00             	rex.X adc (%rax),%al
  40897b:	00 00                	add    %al,(%rax)
  40897d:	00 00                	add    %al,(%rax)
  40897f:	00 42 12             	add    %al,0x12(%rdx)
  408982:	00 00                	add    %al,(%rax)
  408984:	00 00                	add    %al,(%rax)
  408986:	00 00                	add    %al,(%rax)
  408988:	42 12 00             	rex.X adc (%rax),%al
  40898b:	00 00                	add    %al,(%rax)
  40898d:	00 00                	add    %al,(%rax)
  40898f:	00 42 12             	add    %al,0x12(%rdx)
  408992:	00 00                	add    %al,(%rax)
  408994:	00 00                	add    %al,(%rax)
  408996:	00 00                	add    %al,(%rax)
  408998:	42 12 00             	rex.X adc (%rax),%al
  40899b:	00 00                	add    %al,(%rax)
  40899d:	00 00                	add    %al,(%rax)
  40899f:	00 42 12             	add    %al,0x12(%rdx)
  4089a2:	00 00                	add    %al,(%rax)
  4089a4:	00 00                	add    %al,(%rax)
  4089a6:	00 00                	add    %al,(%rax)
  4089a8:	42 12 00             	rex.X adc (%rax),%al
  4089ab:	00 00                	add    %al,(%rax)
  4089ad:	00 00                	add    %al,(%rax)
  4089af:	00 42 12             	add    %al,0x12(%rdx)
  4089b2:	00 00                	add    %al,(%rax)
  4089b4:	00 00                	add    %al,(%rax)
  4089b6:	00 00                	add    %al,(%rax)
  4089b8:	42 12 00             	rex.X adc (%rax),%al
  4089bb:	00 00                	add    %al,(%rax)
  4089bd:	00 00                	add    %al,(%rax)
  4089bf:	00 42 12             	add    %al,0x12(%rdx)
  4089c2:	00 00                	add    %al,(%rax)
  4089c4:	00 00                	add    %al,(%rax)
  4089c6:	00 00                	add    %al,(%rax)
  4089c8:	42 12 00             	rex.X adc (%rax),%al
  4089cb:	00 00                	add    %al,(%rax)
  4089cd:	00 00                	add    %al,(%rax)
  4089cf:	00 42 12             	add    %al,0x12(%rdx)
  4089d2:	00 00                	add    %al,(%rax)
  4089d4:	00 00                	add    %al,(%rax)
  4089d6:	00 00                	add    %al,(%rax)
  4089d8:	42 12 00             	rex.X adc (%rax),%al
  4089db:	00 00                	add    %al,(%rax)
  4089dd:	00 00                	add    %al,(%rax)
  4089df:	00 42 12             	add    %al,0x12(%rdx)
  4089e2:	00 00                	add    %al,(%rax)
  4089e4:	00 00                	add    %al,(%rax)
  4089e6:	00 00                	add    %al,(%rax)
  4089e8:	42 12 00             	rex.X adc (%rax),%al
  4089eb:	00 00                	add    %al,(%rax)
  4089ed:	00 00                	add    %al,(%rax)
  4089ef:	00 42 12             	add    %al,0x12(%rdx)
  4089f2:	00 00                	add    %al,(%rax)
  4089f4:	00 00                	add    %al,(%rax)
  4089f6:	00 00                	add    %al,(%rax)
  4089f8:	42 12 00             	rex.X adc (%rax),%al
  4089fb:	00 00                	add    %al,(%rax)
  4089fd:	00 00                	add    %al,(%rax)
  4089ff:	00 42 12             	add    %al,0x12(%rdx)
  408a02:	00 00                	add    %al,(%rax)
  408a04:	00 00                	add    %al,(%rax)
  408a06:	00 00                	add    %al,(%rax)
  408a08:	42 12 00             	rex.X adc (%rax),%al
  408a0b:	00 00                	add    %al,(%rax)
  408a0d:	00 00                	add    %al,(%rax)
  408a0f:	00 42 12             	add    %al,0x12(%rdx)
  408a12:	00 00                	add    %al,(%rax)
  408a14:	00 00                	add    %al,(%rax)
  408a16:	00 00                	add    %al,(%rax)
  408a18:	42 12 00             	rex.X adc (%rax),%al
  408a1b:	00 00                	add    %al,(%rax)
  408a1d:	00 00                	add    %al,(%rax)
  408a1f:	00 42 12             	add    %al,0x12(%rdx)
  408a22:	00 00                	add    %al,(%rax)
  408a24:	00 00                	add    %al,(%rax)
  408a26:	00 00                	add    %al,(%rax)
  408a28:	42 12 00             	rex.X adc (%rax),%al
  408a2b:	00 00                	add    %al,(%rax)
  408a2d:	00 00                	add    %al,(%rax)
  408a2f:	00 42 12             	add    %al,0x12(%rdx)
  408a32:	00 00                	add    %al,(%rax)
  408a34:	00 00                	add    %al,(%rax)
  408a36:	00 00                	add    %al,(%rax)
  408a38:	42 12 00             	rex.X adc (%rax),%al
  408a3b:	00 00                	add    %al,(%rax)
  408a3d:	00 00                	add    %al,(%rax)
  408a3f:	00 42 12             	add    %al,0x12(%rdx)
  408a42:	00 00                	add    %al,(%rax)
  408a44:	00 00                	add    %al,(%rax)
  408a46:	00 00                	add    %al,(%rax)
  408a48:	42 12 00             	rex.X adc (%rax),%al
  408a4b:	00 00                	add    %al,(%rax)
  408a4d:	00 00                	add    %al,(%rax)
  408a4f:	00 42 12             	add    %al,0x12(%rdx)
  408a52:	00 00                	add    %al,(%rax)
  408a54:	00 00                	add    %al,(%rax)
  408a56:	00 00                	add    %al,(%rax)
  408a58:	42 12 00             	rex.X adc (%rax),%al
  408a5b:	00 00                	add    %al,(%rax)
  408a5d:	00 00                	add    %al,(%rax)
  408a5f:	00 42 12             	add    %al,0x12(%rdx)
  408a62:	00 00                	add    %al,(%rax)
  408a64:	00 00                	add    %al,(%rax)
  408a66:	00 00                	add    %al,(%rax)
  408a68:	42 12 00             	rex.X adc (%rax),%al
  408a6b:	00 00                	add    %al,(%rax)
  408a6d:	00 00                	add    %al,(%rax)
  408a6f:	00 42 12             	add    %al,0x12(%rdx)
  408a72:	00 00                	add    %al,(%rax)
  408a74:	00 00                	add    %al,(%rax)
  408a76:	00 00                	add    %al,(%rax)
  408a78:	42 12 00             	rex.X adc (%rax),%al
  408a7b:	00 00                	add    %al,(%rax)
  408a7d:	00 00                	add    %al,(%rax)
  408a7f:	00 42 12             	add    %al,0x12(%rdx)
  408a82:	00 00                	add    %al,(%rax)
  408a84:	00 00                	add    %al,(%rax)
  408a86:	00 00                	add    %al,(%rax)
  408a88:	42 12 00             	rex.X adc (%rax),%al
  408a8b:	00 00                	add    %al,(%rax)
  408a8d:	00 00                	add    %al,(%rax)
  408a8f:	00 42 12             	add    %al,0x12(%rdx)
  408a92:	00 00                	add    %al,(%rax)
  408a94:	00 00                	add    %al,(%rax)
  408a96:	00 00                	add    %al,(%rax)
  408a98:	42 12 00             	rex.X adc (%rax),%al
  408a9b:	00 00                	add    %al,(%rax)
  408a9d:	00 00                	add    %al,(%rax)
  408a9f:	00 42 12             	add    %al,0x12(%rdx)
  408aa2:	00 00                	add    %al,(%rax)
  408aa4:	00 00                	add    %al,(%rax)
  408aa6:	00 00                	add    %al,(%rax)
  408aa8:	42 12 00             	rex.X adc (%rax),%al
  408aab:	00 00                	add    %al,(%rax)
  408aad:	00 00                	add    %al,(%rax)
  408aaf:	00 42 12             	add    %al,0x12(%rdx)
  408ab2:	00 00                	add    %al,(%rax)
  408ab4:	00 00                	add    %al,(%rax)
  408ab6:	00 00                	add    %al,(%rax)
  408ab8:	42 12 00             	rex.X adc (%rax),%al
  408abb:	00 00                	add    %al,(%rax)
  408abd:	00 00                	add    %al,(%rax)
  408abf:	00 42 12             	add    %al,0x12(%rdx)
  408ac2:	00 00                	add    %al,(%rax)
  408ac4:	00 00                	add    %al,(%rax)
  408ac6:	00 00                	add    %al,(%rax)
  408ac8:	42 12 00             	rex.X adc (%rax),%al
  408acb:	00 00                	add    %al,(%rax)
  408acd:	00 00                	add    %al,(%rax)
  408acf:	00 42 12             	add    %al,0x12(%rdx)
  408ad2:	00 00                	add    %al,(%rax)
  408ad4:	00 00                	add    %al,(%rax)
  408ad6:	00 00                	add    %al,(%rax)
  408ad8:	42 12 00             	rex.X adc (%rax),%al
  408adb:	00 00                	add    %al,(%rax)
  408add:	00 00                	add    %al,(%rax)
  408adf:	00 42 12             	add    %al,0x12(%rdx)
  408ae2:	00 00                	add    %al,(%rax)
  408ae4:	00 00                	add    %al,(%rax)
  408ae6:	00 00                	add    %al,(%rax)
  408ae8:	42 12 00             	rex.X adc (%rax),%al
  408aeb:	00 00                	add    %al,(%rax)
  408aed:	00 00                	add    %al,(%rax)
  408aef:	00 42 12             	add    %al,0x12(%rdx)
  408af2:	00 00                	add    %al,(%rax)
  408af4:	00 00                	add    %al,(%rax)
  408af6:	00 00                	add    %al,(%rax)
  408af8:	42 12 00             	rex.X adc (%rax),%al
  408afb:	00 00                	add    %al,(%rax)
  408afd:	00 00                	add    %al,(%rax)
  408aff:	00 c3                	add    %al,%bl
  408b01:	0f 1f 00             	nopl   (%rax)
  408b04:	66 2e 0f 1f 84 00 00 	cs nopw 0x0(%rax,%rax,1)
  408b0b:	00 00 00 
  408b0e:	66 90                	xchg   %ax,%ax

0000000000408b10 <__intel_avx_rep_memset>:
  408b10:	f3 0f 1e fa          	endbr64
  408b14:	49 89 f8             	mov    %rdi,%r8
  408b17:	49 c7 c2 c0 20 41 00 	mov    $0x4120c0,%r10
  408b1e:	49 89 fb             	mov    %rdi,%r11
  408b21:	48 b8 01 01 01 01 01 	movabs $0x101010101010101,%rax
  408b28:	01 01 01 
  408b2b:	4c 0f b6 ce          	movzbq %sil,%r9
  408b2f:	4c 0f af c8          	imul   %rax,%r9
  408b33:	48 8d 35 86 0c 00 00 	lea    0xc86(%rip),%rsi        # 4097c0 <__intel_avx_rep_memset+0xcb0>
  408b3a:	c4 c1 f9 6e c1       	vmovq  %r9,%xmm0
  408b3f:	48 81 fa 80 00 00 00 	cmp    $0x80,%rdx
  408b46:	77 18                	ja     408b60 <__intel_avx_rep_memset+0x50>
  408b48:	4c 89 df             	mov    %r11,%rdi
  408b4b:	48 01 d7             	add    %rdx,%rdi
  408b4e:	48 2b 34 d6          	sub    (%rsi,%rdx,8),%rsi
  408b52:	3e ff e6             	notrack jmp *%rsi
  408b55:	66 66 2e 0f 1f 84 00 	data16 cs nopw 0x0(%rax,%rax,1)
  408b5c:	00 00 00 00 
  408b60:	48 8d 35 59 03 00 00 	lea    0x359(%rip),%rsi        # 408ec0 <__intel_avx_rep_memset+0x3b0>
  408b67:	4c 89 d9             	mov    %r11,%rcx
  408b6a:	48 83 e1 1f          	and    $0x1f,%rcx
  408b6e:	74 23                	je     408b93 <__intel_avx_rep_memset+0x83>
  408b70:	48 f7 d9             	neg    %rcx
  408b73:	48 83 c1 20          	add    $0x20,%rcx
  408b77:	48 29 ca             	sub    %rcx,%rdx
  408b7a:	4c 89 df             	mov    %r11,%rdi
  408b7d:	48 01 cf             	add    %rcx,%rdi
  408b80:	48 2b 34 ce          	sub    (%rsi,%rcx,8),%rsi
  408b84:	3e ff e6             	notrack jmp *%rsi
  408b87:	66 0f 1f 84 00 00 00 	nopw   0x0(%rax,%rax,1)
  408b8e:	00 00 
  408b90:	49 01 cb             	add    %rcx,%r11
  408b93:	48 81 fa 00 01 00 00 	cmp    $0x100,%rdx
  408b9a:	0f 8c 30 01 00 00    	jl     408cd0 <__intel_avx_rep_memset+0x1c0>
  408ba0:	49 8b 0a             	mov    (%r10),%rcx
  408ba3:	48 89 cf             	mov    %rcx,%rdi
  408ba6:	48 c1 e9 04          	shr    $0x4,%rcx
  408baa:	48 29 cf             	sub    %rcx,%rdi
  408bad:	48 39 fa             	cmp    %rdi,%rdx
  408bb0:	73 5e                	jae    408c10 <__intel_avx_rep_memset+0x100>
  408bb2:	c4 e2 7d 58 c0       	vpbroadcastd %xmm0,%ymm0
  408bb7:	c4 c1 7d 7f 03       	vmovdqa %ymm0,(%r11)
  408bbc:	c4 c1 7d 7f 43 20    	vmovdqa %ymm0,0x20(%r11)
  408bc2:	c4 c1 7d 7f 43 40    	vmovdqa %ymm0,0x40(%r11)
  408bc8:	c4 c1 7d 7f 43 60    	vmovdqa %ymm0,0x60(%r11)
  408bce:	49 81 c3 00 01 00 00 	add    $0x100,%r11
  408bd5:	48 81 ea 00 01 00 00 	sub    $0x100,%rdx
  408bdc:	c4 c1 7d 7f 43 80    	vmovdqa %ymm0,-0x80(%r11)
  408be2:	c4 c1 7d 7f 43 a0    	vmovdqa %ymm0,-0x60(%r11)
  408be8:	c4 c1 7d 7f 43 c0    	vmovdqa %ymm0,-0x40(%r11)
  408bee:	c4 c1 7d 7f 43 e0    	vmovdqa %ymm0,-0x20(%r11)
  408bf4:	48 81 fa 00 01 00 00 	cmp    $0x100,%rdx
  408bfb:	7d ba                	jge    408bb7 <__intel_avx_rep_memset+0xa7>
  408bfd:	e9 de 00 00 00       	jmp    408ce0 <__intel_avx_rep_memset+0x1d0>
  408c02:	66 66 66 66 66 2e 0f 	data16 data16 data16 data16 cs nopw 0x0(%rax,%rax,1)
  408c09:	1f 84 00 00 00 00 00 
  408c10:	4c 89 df             	mov    %r11,%rdi
  408c13:	4c 89 c8             	mov    %r9,%rax
  408c16:	48 89 d1             	mov    %rdx,%rcx
  408c19:	fc                   	cld
  408c1a:	f3 aa                	rep stos %al,%es:(%rdi)
  408c1c:	e9 af 0f 00 00       	jmp    409bd0 <__intel_avx_rep_memset+0x10c0>
  408c21:	66 66 66 66 66 66 2e 	data16 data16 data16 data16 data16 cs nopw 0x0(%rax,%rax,1)
  408c28:	0f 1f 84 00 00 00 00 
  408c2f:	00 
  408c30:	45 88 0b             	mov    %r9b,(%r11)
  408c33:	e9 58 ff ff ff       	jmp    408b90 <__intel_avx_rep_memset+0x80>
  408c38:	0f 1f 84 00 00 00 00 	nopl   0x0(%rax,%rax,1)
  408c3f:	00 
  408c40:	66 45 89 0b          	mov    %r9w,(%r11)
  408c44:	e9 47 ff ff ff       	jmp    408b90 <__intel_avx_rep_memset+0x80>
  408c49:	0f 1f 80 00 00 00 00 	nopl   0x0(%rax)
  408c50:	66 45 89 0b          	mov    %r9w,(%r11)
  408c54:	45 88 4b 02          	mov    %r9b,0x2(%r11)
  408c58:	e9 33 ff ff ff       	jmp    408b90 <__intel_avx_rep_memset+0x80>
  408c5d:	0f 1f 00             	nopl   (%rax)
  408c60:	45 89 0b             	mov    %r9d,(%r11)
  408c63:	e9 28 ff ff ff       	jmp    408b90 <__intel_avx_rep_memset+0x80>
  408c68:	0f 1f 84 00 00 00 00 	nopl   0x0(%rax,%rax,1)
  408c6f:	00 
  408c70:	45 89 0b             	mov    %r9d,(%r11)
  408c73:	44 89 4f fc          	mov    %r9d,-0x4(%rdi)
  408c77:	e9 14 ff ff ff       	jmp    408b90 <__intel_avx_rep_memset+0x80>
  408c7c:	0f 1f 40 00          	nopl   0x0(%rax)
  408c80:	4d 89 0b             	mov    %r9,(%r11)
  408c83:	e9 08 ff ff ff       	jmp    408b90 <__intel_avx_rep_memset+0x80>
  408c88:	0f 1f 84 00 00 00 00 	nopl   0x0(%rax,%rax,1)
  408c8f:	00 
  408c90:	4d 89 0b             	mov    %r9,(%r11)
  408c93:	4c 89 4f f8          	mov    %r9,-0x8(%rdi)
  408c97:	e9 f4 fe ff ff       	jmp    408b90 <__intel_avx_rep_memset+0x80>
  408c9c:	0f 1f 40 00          	nopl   0x0(%rax)
  408ca0:	4d 89 0b             	mov    %r9,(%r11)
  408ca3:	4d 89 4b 08          	mov    %r9,0x8(%r11)
  408ca7:	e9 e4 fe ff ff       	jmp    408b90 <__intel_avx_rep_memset+0x80>
  408cac:	0f 1f 40 00          	nopl   0x0(%rax)
  408cb0:	4d 89 0b             	mov    %r9,(%r11)
  408cb3:	4d 89 4b 08          	mov    %r9,0x8(%r11)
  408cb7:	4c 89 4f f0          	mov    %r9,-0x10(%rdi)
  408cbb:	4c 89 4f f8          	mov    %r9,-0x8(%rdi)
  408cbf:	e9 cc fe ff ff       	jmp    408b90 <__intel_avx_rep_memset+0x80>
  408cc4:	66 66 66 2e 0f 1f 84 	data16 data16 cs nopw 0x0(%rax,%rax,1)
  408ccb:	00 00 00 00 00 
  408cd0:	c4 e2 7d 58 c0       	vpbroadcastd %xmm0,%ymm0
  408cd5:	66 66 2e 0f 1f 84 00 	data16 cs nopw 0x0(%rax,%rax,1)
  408cdc:	00 00 00 00 
  408ce0:	49 01 d3             	add    %rdx,%r11
  408ce3:	4c 89 df             	mov    %r11,%rdi
  408ce6:	49 83 e3 e0          	and    $0xffffffffffffffe0,%r11
  408cea:	48 8d 35 cf 02 00 00 	lea    0x2cf(%rip),%rsi        # 408fc0 <__intel_avx_rep_memset+0x4b0>
  408cf1:	48 2b 34 d6          	sub    (%rsi,%rdx,8),%rsi
  408cf5:	3e ff e6             	notrack jmp *%rsi
  408cf8:	0f 1f 84 00 00 00 00 	nopl   0x0(%rax,%rax,1)
  408cff:	00 
  408d00:	c4 c1 7c 29 83 20 ff 	vmovaps %ymm0,-0xe0(%r11)
  408d07:	ff ff 
  408d09:	c4 c1 7c 29 83 40 ff 	vmovaps %ymm0,-0xc0(%r11)
  408d10:	ff ff 
  408d12:	c4 c1 7c 29 83 60 ff 	vmovaps %ymm0,-0xa0(%r11)
  408d19:	ff ff 
  408d1b:	0f 1f 44 00 00       	nopl   0x0(%rax,%rax,1)
  408d20:	c4 c1 7c 29 43 80    	vmovaps %ymm0,-0x80(%r11)
  408d26:	c4 c1 7c 29 43 a0    	vmovaps %ymm0,-0x60(%r11)
  408d2c:	c4 c1 7c 29 43 c0    	vmovaps %ymm0,-0x40(%r11)
  408d32:	c4 c1 7c 29 43 e0    	vmovaps %ymm0,-0x20(%r11)
  408d38:	48 89 fa             	mov    %rdi,%rdx
  408d3b:	48 83 e2 1f          	and    $0x1f,%rdx
  408d3f:	48 8d 35 7a 02 00 00 	lea    0x27a(%rip),%rsi        # 408fc0 <__intel_avx_rep_memset+0x4b0>
  408d46:	48 2b 34 d6          	sub    (%rsi,%rdx,8),%rsi
  408d4a:	3e ff e6             	notrack jmp *%rsi
  408d4d:	0f 1f 00             	nopl   (%rax)
  408d50:	45 88 0b             	mov    %r9b,(%r11)
  408d53:	e9 78 0e 00 00       	jmp    409bd0 <__intel_avx_rep_memset+0x10c0>
  408d58:	0f 1f 84 00 00 00 00 	nopl   0x0(%rax,%rax,1)
  408d5f:	00 
  408d60:	e9 6b 0e 00 00       	jmp    409bd0 <__intel_avx_rep_memset+0x10c0>
  408d65:	66 66 2e 0f 1f 84 00 	data16 cs nopw 0x0(%rax,%rax,1)
  408d6c:	00 00 00 00 
  408d70:	66 45 89 0b          	mov    %r9w,(%r11)
  408d74:	e9 57 0e 00 00       	jmp    409bd0 <__intel_avx_rep_memset+0x10c0>
  408d79:	0f 1f 80 00 00 00 00 	nopl   0x0(%rax)
  408d80:	66 45 89 0b          	mov    %r9w,(%r11)
  408d84:	45 88 4b 02          	mov    %r9b,0x2(%r11)
  408d88:	e9 43 0e 00 00       	jmp    409bd0 <__intel_avx_rep_memset+0x10c0>
  408d8d:	0f 1f 00             	nopl   (%rax)
  408d90:	45 89 0b             	mov    %r9d,(%r11)
  408d93:	e9 38 0e 00 00       	jmp    409bd0 <__intel_avx_rep_memset+0x10c0>
  408d98:	0f 1f 84 00 00 00 00 	nopl   0x0(%rax,%rax,1)
  408d9f:	00 
  408da0:	45 89 0b             	mov    %r9d,(%r11)
  408da3:	44 89 4f fc          	mov    %r9d,-0x4(%rdi)
  408da7:	e9 24 0e 00 00       	jmp    409bd0 <__intel_avx_rep_memset+0x10c0>
  408dac:	0f 1f 40 00          	nopl   0x0(%rax)
  408db0:	4d 89 0b             	mov    %r9,(%r11)
  408db3:	e9 18 0e 00 00       	jmp    409bd0 <__intel_avx_rep_memset+0x10c0>
  408db8:	0f 1f 84 00 00 00 00 	nopl   0x0(%rax,%rax,1)
  408dbf:	00 
  408dc0:	4d 89 0b             	mov    %r9,(%r11)
  408dc3:	4c 89 4f f8          	mov    %r9,-0x8(%rdi)
  408dc7:	e9 04 0e 00 00       	jmp    409bd0 <__intel_avx_rep_memset+0x10c0>
  408dcc:	0f 1f 40 00          	nopl   0x0(%rax)
  408dd0:	c4 c1 78 11 03       	vmovups %xmm0,(%r11)
  408dd5:	e9 f6 0d 00 00       	jmp    409bd0 <__intel_avx_rep_memset+0x10c0>
  408dda:	66 0f 1f 44 00 00    	nopw   0x0(%rax,%rax,1)
  408de0:	c4 c1 78 11 03       	vmovups %xmm0,(%r11)
  408de5:	c5 f8 11 47 f0       	vmovups %xmm0,-0x10(%rdi)
  408dea:	e9 e1 0d 00 00       	jmp    409bd0 <__intel_avx_rep_memset+0x10c0>
  408def:	90                   	nop
  408df0:	c4 e2 7d 58 c0       	vpbroadcastd %xmm0,%ymm0
  408df5:	c4 c1 7c 11 03       	vmovups %ymm0,(%r11)
  408dfa:	e9 d1 0d 00 00       	jmp    409bd0 <__intel_avx_rep_memset+0x10c0>
  408dff:	90                   	nop
  408e00:	c4 e2 7d 58 c0       	vpbroadcastd %xmm0,%ymm0
  408e05:	c4 c1 7c 11 03       	vmovups %ymm0,(%r11)
  408e0a:	c5 fc 11 47 e0       	vmovups %ymm0,-0x20(%rdi)
  408e0f:	e9 bc 0d 00 00       	jmp    409bd0 <__intel_avx_rep_memset+0x10c0>
  408e14:	66 66 66 2e 0f 1f 84 	data16 data16 cs nopw 0x0(%rax,%rax,1)
  408e1b:	00 00 00 00 00 
  408e20:	c4 e2 7d 58 c0       	vpbroadcastd %xmm0,%ymm0
  408e25:	c4 c1 7c 11 03       	vmovups %ymm0,(%r11)
  408e2a:	c4 c1 7c 11 43 20    	vmovups %ymm0,0x20(%r11)
  408e30:	e9 9b 0d 00 00       	jmp    409bd0 <__intel_avx_rep_memset+0x10c0>
  408e35:	66 66 2e 0f 1f 84 00 	data16 cs nopw 0x0(%rax,%rax,1)
  408e3c:	00 00 00 00 
  408e40:	c4 e2 7d 58 c0       	vpbroadcastd %xmm0,%ymm0
  408e45:	c4 c1 7c 11 03       	vmovups %ymm0,(%r11)
  408e4a:	c4 c1 7c 11 43 20    	vmovups %ymm0,0x20(%r11)
  408e50:	c5 fc 11 47 e0       	vmovups %ymm0,-0x20(%rdi)
  408e55:	c5 fc 11 47 c0       	vmovups %ymm0,-0x40(%rdi)
  408e5a:	e9 71 0d 00 00       	jmp    409bd0 <__intel_avx_rep_memset+0x10c0>
  408e5f:	90                   	nop
  408e60:	c4 e2 7d 58 c0       	vpbroadcastd %xmm0,%ymm0
  408e65:	c4 c1 7c 11 03       	vmovups %ymm0,(%r11)
  408e6a:	c4 c1 7c 11 43 20    	vmovups %ymm0,0x20(%r11)
  408e70:	c4 c1 7c 11 43 40    	vmovups %ymm0,0x40(%r11)
  408e76:	c4 c1 7c 11 43 60    	vmovups %ymm0,0x60(%r11)
  408e7c:	e9 4f 0d 00 00       	jmp    409bd0 <__intel_avx_rep_memset+0x10c0>
  408e81:	66 66 66 66 66 66 2e 	data16 data16 data16 data16 data16 cs nopw 0x0(%rax,%rax,1)
  408e88:	0f 1f 84 00 00 00 00 
  408e8f:	00 
  408e90:	66 0f 6c c0          	punpcklqdq %xmm0,%xmm0
  408e94:	c4 c1 78 11 03       	vmovups %xmm0,(%r11)
  408e99:	e9 32 0d 00 00       	jmp    409bd0 <__intel_avx_rep_memset+0x10c0>
  408e9e:	66 90                	xchg   %ax,%ax
  408ea0:	66 0f 6c c0          	punpcklqdq %xmm0,%xmm0
  408ea4:	c4 c1 78 11 03       	vmovups %xmm0,(%r11)
  408ea9:	c5 f8 11 47 f0       	vmovups %xmm0,-0x10(%rdi)
  408eae:	e9 1d 0d 00 00       	jmp    409bd0 <__intel_avx_rep_memset+0x10c0>
  408eb3:	66 66 66 66 2e 0f 1f 	data16 data16 data16 cs nopw 0x0(%rax,%rax,1)
  408eba:	84 00 00 00 00 00 
  408ec0:	8d 02                	lea    (%rdx),%eax
  408ec2:	00 00                	add    %al,(%rax)
  408ec4:	00 00                	add    %al,(%rax)
  408ec6:	00 00                	add    %al,(%rax)
  408ec8:	90                   	nop
  408ec9:	02 00                	add    (%rax),%al
  408ecb:	00 00                	add    %al,(%rax)
  408ecd:	00 00                	add    %al,(%rax)
  408ecf:	00 80 02 00 00 00    	add    %al,0x2(%rax)
  408ed5:	00 00                	add    %al,(%rax)
  408ed7:	00 70 02             	add    %dh,0x2(%rax)
  408eda:	00 00                	add    %al,(%rax)
  408edc:	00 00                	add    %al,(%rax)
  408ede:	00 00                	add    %al,(%rax)
  408ee0:	60                   	(bad)
  408ee1:	02 00                	add    (%rax),%al
  408ee3:	00 00                	add    %al,(%rax)
  408ee5:	00 00                	add    %al,(%rax)
  408ee7:	00 50 02             	add    %dl,0x2(%rax)
  408eea:	00 00                	add    %al,(%rax)
  408eec:	00 00                	add    %al,(%rax)
  408eee:	00 00                	add    %al,(%rax)
  408ef0:	50                   	push   %rax
  408ef1:	02 00                	add    (%rax),%al
  408ef3:	00 00                	add    %al,(%rax)
  408ef5:	00 00                	add    %al,(%rax)
  408ef7:	00 50 02             	add    %dl,0x2(%rax)
  408efa:	00 00                	add    %al,(%rax)
  408efc:	00 00                	add    %al,(%rax)
  408efe:	00 00                	add    %al,(%rax)
  408f00:	40 02 00             	rex add (%rax),%al
  408f03:	00 00                	add    %al,(%rax)
  408f05:	00 00                	add    %al,(%rax)
  408f07:	00 30                	add    %dh,(%rax)
  408f09:	02 00                	add    (%rax),%al
  408f0b:	00 00                	add    %al,(%rax)
  408f0d:	00 00                	add    %al,(%rax)
  408f0f:	00 30                	add    %dh,(%rax)
  408f11:	02 00                	add    (%rax),%al
  408f13:	00 00                	add    %al,(%rax)
  408f15:	00 00                	add    %al,(%rax)
  408f17:	00 30                	add    %dh,(%rax)
  408f19:	02 00                	add    (%rax),%al
  408f1b:	00 00                	add    %al,(%rax)
  408f1d:	00 00                	add    %al,(%rax)
  408f1f:	00 30                	add    %dh,(%rax)
  408f21:	02 00                	add    (%rax),%al
  408f23:	00 00                	add    %al,(%rax)
  408f25:	00 00                	add    %al,(%rax)
  408f27:	00 30                	add    %dh,(%rax)
  408f29:	02 00                	add    (%rax),%al
  408f2b:	00 00                	add    %al,(%rax)
  408f2d:	00 00                	add    %al,(%rax)
  408f2f:	00 30                	add    %dh,(%rax)
  408f31:	02 00                	add    (%rax),%al
  408f33:	00 00                	add    %al,(%rax)
  408f35:	00 00                	add    %al,(%rax)
  408f37:	00 30                	add    %dh,(%rax)
  408f39:	02 00                	add    (%rax),%al
  408f3b:	00 00                	add    %al,(%rax)
  408f3d:	00 00                	add    %al,(%rax)
  408f3f:	00 20                	add    %ah,(%rax)
  408f41:	02 00                	add    (%rax),%al
  408f43:	00 00                	add    %al,(%rax)
  408f45:	00 00                	add    %al,(%rax)
  408f47:	00 10                	add    %dl,(%rax)
  408f49:	02 00                	add    (%rax),%al
  408f4b:	00 00                	add    %al,(%rax)
  408f4d:	00 00                	add    %al,(%rax)
  408f4f:	00 10                	add    %dl,(%rax)
  408f51:	02 00                	add    (%rax),%al
  408f53:	00 00                	add    %al,(%rax)
  408f55:	00 00                	add    %al,(%rax)
  408f57:	00 10                	add    %dl,(%rax)
  408f59:	02 00                	add    (%rax),%al
  408f5b:	00 00                	add    %al,(%rax)
  408f5d:	00 00                	add    %al,(%rax)
  408f5f:	00 10                	add    %dl,(%rax)
  408f61:	02 00                	add    (%rax),%al
  408f63:	00 00                	add    %al,(%rax)
  408f65:	00 00                	add    %al,(%rax)
  408f67:	00 10                	add    %dl,(%rax)
  408f69:	02 00                	add    (%rax),%al
  408f6b:	00 00                	add    %al,(%rax)
  408f6d:	00 00                	add    %al,(%rax)
  408f6f:	00 10                	add    %dl,(%rax)
  408f71:	02 00                	add    (%rax),%al
  408f73:	00 00                	add    %al,(%rax)
  408f75:	00 00                	add    %al,(%rax)
  408f77:	00 10                	add    %dl,(%rax)
  408f79:	02 00                	add    (%rax),%al
  408f7b:	00 00                	add    %al,(%rax)
  408f7d:	00 00                	add    %al,(%rax)
  408f7f:	00 10                	add    %dl,(%rax)
  408f81:	02 00                	add    (%rax),%al
  408f83:	00 00                	add    %al,(%rax)
  408f85:	00 00                	add    %al,(%rax)
  408f87:	00 10                	add    %dl,(%rax)
  408f89:	02 00                	add    (%rax),%al
  408f8b:	00 00                	add    %al,(%rax)
  408f8d:	00 00                	add    %al,(%rax)
  408f8f:	00 10                	add    %dl,(%rax)
  408f91:	02 00                	add    (%rax),%al
  408f93:	00 00                	add    %al,(%rax)
  408f95:	00 00                	add    %al,(%rax)
  408f97:	00 10                	add    %dl,(%rax)
  408f99:	02 00                	add    (%rax),%al
  408f9b:	00 00                	add    %al,(%rax)
  408f9d:	00 00                	add    %al,(%rax)
  408f9f:	00 10                	add    %dl,(%rax)
  408fa1:	02 00                	add    (%rax),%al
  408fa3:	00 00                	add    %al,(%rax)
  408fa5:	00 00                	add    %al,(%rax)
  408fa7:	00 10                	add    %dl,(%rax)
  408fa9:	02 00                	add    (%rax),%al
  408fab:	00 00                	add    %al,(%rax)
  408fad:	00 00                	add    %al,(%rax)
  408faf:	00 10                	add    %dl,(%rax)
  408fb1:	02 00                	add    (%rax),%al
  408fb3:	00 00                	add    %al,(%rax)
  408fb5:	00 00                	add    %al,(%rax)
  408fb7:	00 10                	add    %dl,(%rax)
  408fb9:	02 00                	add    (%rax),%al
  408fbb:	00 00                	add    %al,(%rax)
  408fbd:	00 00                	add    %al,(%rax)
  408fbf:	00 60 02             	add    %ah,0x2(%rax)
  408fc2:	00 00                	add    %al,(%rax)
  408fc4:	00 00                	add    %al,(%rax)
  408fc6:	00 00                	add    %al,(%rax)
  408fc8:	70 02                	jo     408fcc <__intel_avx_rep_memset+0x4bc>
  408fca:	00 00                	add    %al,(%rax)
  408fcc:	00 00                	add    %al,(%rax)
  408fce:	00 00                	add    %al,(%rax)
  408fd0:	50                   	push   %rax
  408fd1:	02 00                	add    (%rax),%al
  408fd3:	00 00                	add    %al,(%rax)
  408fd5:	00 00                	add    %al,(%rax)
  408fd7:	00 40 02             	add    %al,0x2(%rax)
  408fda:	00 00                	add    %al,(%rax)
  408fdc:	00 00                	add    %al,(%rax)
  408fde:	00 00                	add    %al,(%rax)
  408fe0:	30 02                	xor    %al,(%rdx)
  408fe2:	00 00                	add    %al,(%rax)
  408fe4:	00 00                	add    %al,(%rax)
  408fe6:	00 00                	add    %al,(%rax)
  408fe8:	20 02                	and    %al,(%rdx)
  408fea:	00 00                	add    %al,(%rax)
  408fec:	00 00                	add    %al,(%rax)
  408fee:	00 00                	add    %al,(%rax)
  408ff0:	20 02                	and    %al,(%rdx)
  408ff2:	00 00                	add    %al,(%rax)
  408ff4:	00 00                	add    %al,(%rax)
  408ff6:	00 00                	add    %al,(%rax)
  408ff8:	20 02                	and    %al,(%rdx)
  408ffa:	00 00                	add    %al,(%rax)
  408ffc:	00 00                	add    %al,(%rax)
  408ffe:	00 00                	add    %al,(%rax)
  409000:	10 02                	adc    %al,(%rdx)
  409002:	00 00                	add    %al,(%rax)
  409004:	00 00                	add    %al,(%rax)
  409006:	00 00                	add    %al,(%rax)
  409008:	00 02                	add    %al,(%rdx)
  40900a:	00 00                	add    %al,(%rax)
  40900c:	00 00                	add    %al,(%rax)
  40900e:	00 00                	add    %al,(%rax)
  409010:	00 02                	add    %al,(%rdx)
  409012:	00 00                	add    %al,(%rax)
  409014:	00 00                	add    %al,(%rax)
  409016:	00 00                	add    %al,(%rax)
  409018:	00 02                	add    %al,(%rdx)
  40901a:	00 00                	add    %al,(%rax)
  40901c:	00 00                	add    %al,(%rax)
  40901e:	00 00                	add    %al,(%rax)
  409020:	00 02                	add    %al,(%rdx)
  409022:	00 00                	add    %al,(%rax)
  409024:	00 00                	add    %al,(%rax)
  409026:	00 00                	add    %al,(%rax)
  409028:	00 02                	add    %al,(%rdx)
  40902a:	00 00                	add    %al,(%rax)
  40902c:	00 00                	add    %al,(%rax)
  40902e:	00 00                	add    %al,(%rax)
  409030:	00 02                	add    %al,(%rdx)
  409032:	00 00                	add    %al,(%rax)
  409034:	00 00                	add    %al,(%rax)
  409036:	00 00                	add    %al,(%rax)
  409038:	00 02                	add    %al,(%rdx)
  40903a:	00 00                	add    %al,(%rax)
  40903c:	00 00                	add    %al,(%rax)
  40903e:	00 00                	add    %al,(%rax)
  409040:	f0 01 00             	lock add %eax,(%rax)
  409043:	00 00                	add    %al,(%rax)
  409045:	00 00                	add    %al,(%rax)
  409047:	00 e0                	add    %ah,%al
  409049:	01 00                	add    %eax,(%rax)
  40904b:	00 00                	add    %al,(%rax)
  40904d:	00 00                	add    %al,(%rax)
  40904f:	00 e0                	add    %ah,%al
  409051:	01 00                	add    %eax,(%rax)
  409053:	00 00                	add    %al,(%rax)
  409055:	00 00                	add    %al,(%rax)
  409057:	00 e0                	add    %ah,%al
  409059:	01 00                	add    %eax,(%rax)
  40905b:	00 00                	add    %al,(%rax)
  40905d:	00 00                	add    %al,(%rax)
  40905f:	00 e0                	add    %ah,%al
  409061:	01 00                	add    %eax,(%rax)
  409063:	00 00                	add    %al,(%rax)
  409065:	00 00                	add    %al,(%rax)
  409067:	00 e0                	add    %ah,%al
  409069:	01 00                	add    %eax,(%rax)
  40906b:	00 00                	add    %al,(%rax)
  40906d:	00 00                	add    %al,(%rax)
  40906f:	00 e0                	add    %ah,%al
  409071:	01 00                	add    %eax,(%rax)
  409073:	00 00                	add    %al,(%rax)
  409075:	00 00                	add    %al,(%rax)
  409077:	00 e0                	add    %ah,%al
  409079:	01 00                	add    %eax,(%rax)
  40907b:	00 00                	add    %al,(%rax)
  40907d:	00 00                	add    %al,(%rax)
  40907f:	00 e0                	add    %ah,%al
  409081:	01 00                	add    %eax,(%rax)
  409083:	00 00                	add    %al,(%rax)
  409085:	00 00                	add    %al,(%rax)
  409087:	00 e0                	add    %ah,%al
  409089:	01 00                	add    %eax,(%rax)
  40908b:	00 00                	add    %al,(%rax)
  40908d:	00 00                	add    %al,(%rax)
  40908f:	00 e0                	add    %ah,%al
  409091:	01 00                	add    %eax,(%rax)
  409093:	00 00                	add    %al,(%rax)
  409095:	00 00                	add    %al,(%rax)
  409097:	00 e0                	add    %ah,%al
  409099:	01 00                	add    %eax,(%rax)
  40909b:	00 00                	add    %al,(%rax)
  40909d:	00 00                	add    %al,(%rax)
  40909f:	00 e0                	add    %ah,%al
  4090a1:	01 00                	add    %eax,(%rax)
  4090a3:	00 00                	add    %al,(%rax)
  4090a5:	00 00                	add    %al,(%rax)
  4090a7:	00 e0                	add    %ah,%al
  4090a9:	01 00                	add    %eax,(%rax)
  4090ab:	00 00                	add    %al,(%rax)
  4090ad:	00 00                	add    %al,(%rax)
  4090af:	00 e0                	add    %ah,%al
  4090b1:	01 00                	add    %eax,(%rax)
  4090b3:	00 00                	add    %al,(%rax)
  4090b5:	00 00                	add    %al,(%rax)
  4090b7:	00 e0                	add    %ah,%al
  4090b9:	01 00                	add    %eax,(%rax)
  4090bb:	00 00                	add    %al,(%rax)
  4090bd:	00 00                	add    %al,(%rax)
  4090bf:	00 8e 02 00 00 00    	add    %cl,0x2(%rsi)
  4090c5:	00 00                	add    %al,(%rax)
  4090c7:	00 8e 02 00 00 00    	add    %cl,0x2(%rsi)
  4090cd:	00 00                	add    %al,(%rax)
  4090cf:	00 8e 02 00 00 00    	add    %cl,0x2(%rsi)
  4090d5:	00 00                	add    %al,(%rax)
  4090d7:	00 8e 02 00 00 00    	add    %cl,0x2(%rsi)
  4090dd:	00 00                	add    %al,(%rax)
  4090df:	00 8e 02 00 00 00    	add    %cl,0x2(%rsi)
  4090e5:	00 00                	add    %al,(%rax)
  4090e7:	00 8e 02 00 00 00    	add    %cl,0x2(%rsi)
  4090ed:	00 00                	add    %al,(%rax)
  4090ef:	00 8e 02 00 00 00    	add    %cl,0x2(%rsi)
  4090f5:	00 00                	add    %al,(%rax)
  4090f7:	00 8e 02 00 00 00    	add    %cl,0x2(%rsi)
  4090fd:	00 00                	add    %al,(%rax)
  4090ff:	00 8e 02 00 00 00    	add    %cl,0x2(%rsi)
  409105:	00 00                	add    %al,(%rax)
  409107:	00 8e 02 00 00 00    	add    %cl,0x2(%rsi)
  40910d:	00 00                	add    %al,(%rax)
  40910f:	00 8e 02 00 00 00    	add    %cl,0x2(%rsi)
  409115:	00 00                	add    %al,(%rax)
  409117:	00 8e 02 00 00 00    	add    %cl,0x2(%rsi)
  40911d:	00 00                	add    %al,(%rax)
  40911f:	00 8e 02 00 00 00    	add    %cl,0x2(%rsi)
  409125:	00 00                	add    %al,(%rax)
  409127:	00 8e 02 00 00 00    	add    %cl,0x2(%rsi)
  40912d:	00 00                	add    %al,(%rax)
  40912f:	00 8e 02 00 00 00    	add    %cl,0x2(%rsi)
  409135:	00 00                	add    %al,(%rax)
  409137:	00 8e 02 00 00 00    	add    %cl,0x2(%rsi)
  40913d:	00 00                	add    %al,(%rax)
  40913f:	00 8e 02 00 00 00    	add    %cl,0x2(%rsi)
  409145:	00 00                	add    %al,(%rax)
  409147:	00 8e 02 00 00 00    	add    %cl,0x2(%rsi)
  40914d:	00 00                	add    %al,(%rax)
  40914f:	00 8e 02 00 00 00    	add    %cl,0x2(%rsi)
  409155:	00 00                	add    %al,(%rax)
  409157:	00 8e 02 00 00 00    	add    %cl,0x2(%rsi)
  40915d:	00 00                	add    %al,(%rax)
  40915f:	00 8e 02 00 00 00    	add    %cl,0x2(%rsi)
  409165:	00 00                	add    %al,(%rax)
  409167:	00 8e 02 00 00 00    	add    %cl,0x2(%rsi)
  40916d:	00 00                	add    %al,(%rax)
  40916f:	00 8e 02 00 00 00    	add    %cl,0x2(%rsi)
  409175:	00 00                	add    %al,(%rax)
  409177:	00 8e 02 00 00 00    	add    %cl,0x2(%rsi)
  40917d:	00 00                	add    %al,(%rax)
  40917f:	00 8e 02 00 00 00    	add    %cl,0x2(%rsi)
  409185:	00 00                	add    %al,(%rax)
  409187:	00 8e 02 00 00 00    	add    %cl,0x2(%rsi)
  40918d:	00 00                	add    %al,(%rax)
  40918f:	00 8e 02 00 00 00    	add    %cl,0x2(%rsi)
  409195:	00 00                	add    %al,(%rax)
  409197:	00 8e 02 00 00 00    	add    %cl,0x2(%rsi)
  40919d:	00 00                	add    %al,(%rax)
  40919f:	00 8e 02 00 00 00    	add    %cl,0x2(%rsi)
  4091a5:	00 00                	add    %al,(%rax)
  4091a7:	00 8e 02 00 00 00    	add    %cl,0x2(%rsi)
  4091ad:	00 00                	add    %al,(%rax)
  4091af:	00 8e 02 00 00 00    	add    %cl,0x2(%rsi)
  4091b5:	00 00                	add    %al,(%rax)
  4091b7:	00 8e 02 00 00 00    	add    %cl,0x2(%rsi)
  4091bd:	00 00                	add    %al,(%rax)
  4091bf:	00 94 02 00 00 00 00 	add    %dl,0x0(%rdx,%rax,1)
  4091c6:	00 00                	add    %al,(%rax)
  4091c8:	94                   	xchg   %eax,%esp
  4091c9:	02 00                	add    (%rax),%al
  4091cb:	00 00                	add    %al,(%rax)
  4091cd:	00 00                	add    %al,(%rax)
  4091cf:	00 94 02 00 00 00 00 	add    %dl,0x0(%rdx,%rax,1)
  4091d6:	00 00                	add    %al,(%rax)
  4091d8:	94                   	xchg   %eax,%esp
  4091d9:	02 00                	add    (%rax),%al
  4091db:	00 00                	add    %al,(%rax)
  4091dd:	00 00                	add    %al,(%rax)
  4091df:	00 94 02 00 00 00 00 	add    %dl,0x0(%rdx,%rax,1)
  4091e6:	00 00                	add    %al,(%rax)
  4091e8:	94                   	xchg   %eax,%esp
  4091e9:	02 00                	add    (%rax),%al
  4091eb:	00 00                	add    %al,(%rax)
  4091ed:	00 00                	add    %al,(%rax)
  4091ef:	00 94 02 00 00 00 00 	add    %dl,0x0(%rdx,%rax,1)
  4091f6:	00 00                	add    %al,(%rax)
  4091f8:	94                   	xchg   %eax,%esp
  4091f9:	02 00                	add    (%rax),%al
  4091fb:	00 00                	add    %al,(%rax)
  4091fd:	00 00                	add    %al,(%rax)
  4091ff:	00 94 02 00 00 00 00 	add    %dl,0x0(%rdx,%rax,1)
  409206:	00 00                	add    %al,(%rax)
  409208:	94                   	xchg   %eax,%esp
  409209:	02 00                	add    (%rax),%al
  40920b:	00 00                	add    %al,(%rax)
  40920d:	00 00                	add    %al,(%rax)
  40920f:	00 94 02 00 00 00 00 	add    %dl,0x0(%rdx,%rax,1)
  409216:	00 00                	add    %al,(%rax)
  409218:	94                   	xchg   %eax,%esp
  409219:	02 00                	add    (%rax),%al
  40921b:	00 00                	add    %al,(%rax)
  40921d:	00 00                	add    %al,(%rax)
  40921f:	00 94 02 00 00 00 00 	add    %dl,0x0(%rdx,%rax,1)
  409226:	00 00                	add    %al,(%rax)
  409228:	94                   	xchg   %eax,%esp
  409229:	02 00                	add    (%rax),%al
  40922b:	00 00                	add    %al,(%rax)
  40922d:	00 00                	add    %al,(%rax)
  40922f:	00 94 02 00 00 00 00 	add    %dl,0x0(%rdx,%rax,1)
  409236:	00 00                	add    %al,(%rax)
  409238:	94                   	xchg   %eax,%esp
  409239:	02 00                	add    (%rax),%al
  40923b:	00 00                	add    %al,(%rax)
  40923d:	00 00                	add    %al,(%rax)
  40923f:	00 94 02 00 00 00 00 	add    %dl,0x0(%rdx,%rax,1)
  409246:	00 00                	add    %al,(%rax)
  409248:	94                   	xchg   %eax,%esp
  409249:	02 00                	add    (%rax),%al
  40924b:	00 00                	add    %al,(%rax)
  40924d:	00 00                	add    %al,(%rax)
  40924f:	00 94 02 00 00 00 00 	add    %dl,0x0(%rdx,%rax,1)
  409256:	00 00                	add    %al,(%rax)
  409258:	94                   	xchg   %eax,%esp
  409259:	02 00                	add    (%rax),%al
  40925b:	00 00                	add    %al,(%rax)
  40925d:	00 00                	add    %al,(%rax)
  40925f:	00 94 02 00 00 00 00 	add    %dl,0x0(%rdx,%rax,1)
  409266:	00 00                	add    %al,(%rax)
  409268:	94                   	xchg   %eax,%esp
  409269:	02 00                	add    (%rax),%al
  40926b:	00 00                	add    %al,(%rax)
  40926d:	00 00                	add    %al,(%rax)
  40926f:	00 94 02 00 00 00 00 	add    %dl,0x0(%rdx,%rax,1)
  409276:	00 00                	add    %al,(%rax)
  409278:	94                   	xchg   %eax,%esp
  409279:	02 00                	add    (%rax),%al
  40927b:	00 00                	add    %al,(%rax)
  40927d:	00 00                	add    %al,(%rax)
  40927f:	00 94 02 00 00 00 00 	add    %dl,0x0(%rdx,%rax,1)
  409286:	00 00                	add    %al,(%rax)
  409288:	94                   	xchg   %eax,%esp
  409289:	02 00                	add    (%rax),%al
  40928b:	00 00                	add    %al,(%rax)
  40928d:	00 00                	add    %al,(%rax)
  40928f:	00 94 02 00 00 00 00 	add    %dl,0x0(%rdx,%rax,1)
  409296:	00 00                	add    %al,(%rax)
  409298:	94                   	xchg   %eax,%esp
  409299:	02 00                	add    (%rax),%al
  40929b:	00 00                	add    %al,(%rax)
  40929d:	00 00                	add    %al,(%rax)
  40929f:	00 94 02 00 00 00 00 	add    %dl,0x0(%rdx,%rax,1)
  4092a6:	00 00                	add    %al,(%rax)
  4092a8:	94                   	xchg   %eax,%esp
  4092a9:	02 00                	add    (%rax),%al
  4092ab:	00 00                	add    %al,(%rax)
  4092ad:	00 00                	add    %al,(%rax)
  4092af:	00 94 02 00 00 00 00 	add    %dl,0x0(%rdx,%rax,1)
  4092b6:	00 00                	add    %al,(%rax)
  4092b8:	94                   	xchg   %eax,%esp
  4092b9:	02 00                	add    (%rax),%al
  4092bb:	00 00                	add    %al,(%rax)
  4092bd:	00 00                	add    %al,(%rax)
  4092bf:	00 9a 02 00 00 00    	add    %bl,0x2(%rdx)
  4092c5:	00 00                	add    %al,(%rax)
  4092c7:	00 9a 02 00 00 00    	add    %bl,0x2(%rdx)
  4092cd:	00 00                	add    %al,(%rax)
  4092cf:	00 9a 02 00 00 00    	add    %bl,0x2(%rdx)
  4092d5:	00 00                	add    %al,(%rax)
  4092d7:	00 9a 02 00 00 00    	add    %bl,0x2(%rdx)
  4092dd:	00 00                	add    %al,(%rax)
  4092df:	00 9a 02 00 00 00    	add    %bl,0x2(%rdx)
  4092e5:	00 00                	add    %al,(%rax)
  4092e7:	00 9a 02 00 00 00    	add    %bl,0x2(%rdx)
  4092ed:	00 00                	add    %al,(%rax)
  4092ef:	00 9a 02 00 00 00    	add    %bl,0x2(%rdx)
  4092f5:	00 00                	add    %al,(%rax)
  4092f7:	00 9a 02 00 00 00    	add    %bl,0x2(%rdx)
  4092fd:	00 00                	add    %al,(%rax)
  4092ff:	00 9a 02 00 00 00    	add    %bl,0x2(%rdx)
  409305:	00 00                	add    %al,(%rax)
  409307:	00 9a 02 00 00 00    	add    %bl,0x2(%rdx)
  40930d:	00 00                	add    %al,(%rax)
  40930f:	00 9a 02 00 00 00    	add    %bl,0x2(%rdx)
  409315:	00 00                	add    %al,(%rax)
  409317:	00 9a 02 00 00 00    	add    %bl,0x2(%rdx)
  40931d:	00 00                	add    %al,(%rax)
  40931f:	00 9a 02 00 00 00    	add    %bl,0x2(%rdx)
  409325:	00 00                	add    %al,(%rax)
  409327:	00 9a 02 00 00 00    	add    %bl,0x2(%rdx)
  40932d:	00 00                	add    %al,(%rax)
  40932f:	00 9a 02 00 00 00    	add    %bl,0x2(%rdx)
  409335:	00 00                	add    %al,(%rax)
  409337:	00 9a 02 00 00 00    	add    %bl,0x2(%rdx)
  40933d:	00 00                	add    %al,(%rax)
  40933f:	00 9a 02 00 00 00    	add    %bl,0x2(%rdx)
  409345:	00 00                	add    %al,(%rax)
  409347:	00 9a 02 00 00 00    	add    %bl,0x2(%rdx)
  40934d:	00 00                	add    %al,(%rax)
  40934f:	00 9a 02 00 00 00    	add    %bl,0x2(%rdx)
  409355:	00 00                	add    %al,(%rax)
  409357:	00 9a 02 00 00 00    	add    %bl,0x2(%rdx)
  40935d:	00 00                	add    %al,(%rax)
  40935f:	00 9a 02 00 00 00    	add    %bl,0x2(%rdx)
  409365:	00 00                	add    %al,(%rax)
  409367:	00 9a 02 00 00 00    	add    %bl,0x2(%rdx)
  40936d:	00 00                	add    %al,(%rax)
  40936f:	00 9a 02 00 00 00    	add    %bl,0x2(%rdx)
  409375:	00 00                	add    %al,(%rax)
  409377:	00 9a 02 00 00 00    	add    %bl,0x2(%rdx)
  40937d:	00 00                	add    %al,(%rax)
  40937f:	00 9a 02 00 00 00    	add    %bl,0x2(%rdx)
  409385:	00 00                	add    %al,(%rax)
  409387:	00 9a 02 00 00 00    	add    %bl,0x2(%rdx)
  40938d:	00 00                	add    %al,(%rax)
  40938f:	00 9a 02 00 00 00    	add    %bl,0x2(%rdx)
  409395:	00 00                	add    %al,(%rax)
  409397:	00 9a 02 00 00 00    	add    %bl,0x2(%rdx)
  40939d:	00 00                	add    %al,(%rax)
  40939f:	00 9a 02 00 00 00    	add    %bl,0x2(%rdx)
  4093a5:	00 00                	add    %al,(%rax)
  4093a7:	00 9a 02 00 00 00    	add    %bl,0x2(%rdx)
  4093ad:	00 00                	add    %al,(%rax)
  4093af:	00 9a 02 00 00 00    	add    %bl,0x2(%rdx)
  4093b5:	00 00                	add    %al,(%rax)
  4093b7:	00 9a 02 00 00 00    	add    %bl,0x2(%rdx)
  4093bd:	00 00                	add    %al,(%rax)
  4093bf:	00 a0 02 00 00 00    	add    %ah,0x2(%rax)
  4093c5:	00 00                	add    %al,(%rax)
  4093c7:	00 a0 02 00 00 00    	add    %ah,0x2(%rax)
  4093cd:	00 00                	add    %al,(%rax)
  4093cf:	00 a0 02 00 00 00    	add    %ah,0x2(%rax)
  4093d5:	00 00                	add    %al,(%rax)
  4093d7:	00 a0 02 00 00 00    	add    %ah,0x2(%rax)
  4093dd:	00 00                	add    %al,(%rax)
  4093df:	00 a0 02 00 00 00    	add    %ah,0x2(%rax)
  4093e5:	00 00                	add    %al,(%rax)
  4093e7:	00 a0 02 00 00 00    	add    %ah,0x2(%rax)
  4093ed:	00 00                	add    %al,(%rax)
  4093ef:	00 a0 02 00 00 00    	add    %ah,0x2(%rax)
  4093f5:	00 00                	add    %al,(%rax)
  4093f7:	00 a0 02 00 00 00    	add    %ah,0x2(%rax)
  4093fd:	00 00                	add    %al,(%rax)
  4093ff:	00 a0 02 00 00 00    	add    %ah,0x2(%rax)
  409405:	00 00                	add    %al,(%rax)
  409407:	00 a0 02 00 00 00    	add    %ah,0x2(%rax)
  40940d:	00 00                	add    %al,(%rax)
  40940f:	00 a0 02 00 00 00    	add    %ah,0x2(%rax)
  409415:	00 00                	add    %al,(%rax)
  409417:	00 a0 02 00 00 00    	add    %ah,0x2(%rax)
  40941d:	00 00                	add    %al,(%rax)
  40941f:	00 a0 02 00 00 00    	add    %ah,0x2(%rax)
  409425:	00 00                	add    %al,(%rax)
  409427:	00 a0 02 00 00 00    	add    %ah,0x2(%rax)
  40942d:	00 00                	add    %al,(%rax)
  40942f:	00 a0 02 00 00 00    	add    %ah,0x2(%rax)
  409435:	00 00                	add    %al,(%rax)
  409437:	00 a0 02 00 00 00    	add    %ah,0x2(%rax)
  40943d:	00 00                	add    %al,(%rax)
  40943f:	00 a0 02 00 00 00    	add    %ah,0x2(%rax)
  409445:	00 00                	add    %al,(%rax)
  409447:	00 a0 02 00 00 00    	add    %ah,0x2(%rax)
  40944d:	00 00                	add    %al,(%rax)
  40944f:	00 a0 02 00 00 00    	add    %ah,0x2(%rax)
  409455:	00 00                	add    %al,(%rax)
  409457:	00 a0 02 00 00 00    	add    %ah,0x2(%rax)
  40945d:	00 00                	add    %al,(%rax)
  40945f:	00 a0 02 00 00 00    	add    %ah,0x2(%rax)
  409465:	00 00                	add    %al,(%rax)
  409467:	00 a0 02 00 00 00    	add    %ah,0x2(%rax)
  40946d:	00 00                	add    %al,(%rax)
  40946f:	00 a0 02 00 00 00    	add    %ah,0x2(%rax)
  409475:	00 00                	add    %al,(%rax)
  409477:	00 a0 02 00 00 00    	add    %ah,0x2(%rax)
  40947d:	00 00                	add    %al,(%rax)
  40947f:	00 a0 02 00 00 00    	add    %ah,0x2(%rax)
  409485:	00 00                	add    %al,(%rax)
  409487:	00 a0 02 00 00 00    	add    %ah,0x2(%rax)
  40948d:	00 00                	add    %al,(%rax)
  40948f:	00 a0 02 00 00 00    	add    %ah,0x2(%rax)
  409495:	00 00                	add    %al,(%rax)
  409497:	00 a0 02 00 00 00    	add    %ah,0x2(%rax)
  40949d:	00 00                	add    %al,(%rax)
  40949f:	00 a0 02 00 00 00    	add    %ah,0x2(%rax)
  4094a5:	00 00                	add    %al,(%rax)
  4094a7:	00 a0 02 00 00 00    	add    %ah,0x2(%rax)
  4094ad:	00 00                	add    %al,(%rax)
  4094af:	00 a0 02 00 00 00    	add    %ah,0x2(%rax)
  4094b5:	00 00                	add    %al,(%rax)
  4094b7:	00 a0 02 00 00 00    	add    %ah,0x2(%rax)
  4094bd:	00 00                	add    %al,(%rax)
  4094bf:	00 ae 02 00 00 00    	add    %ch,0x2(%rsi)
  4094c5:	00 00                	add    %al,(%rax)
  4094c7:	00 ae 02 00 00 00    	add    %ch,0x2(%rsi)
  4094cd:	00 00                	add    %al,(%rax)
  4094cf:	00 ae 02 00 00 00    	add    %ch,0x2(%rsi)
  4094d5:	00 00                	add    %al,(%rax)
  4094d7:	00 ae 02 00 00 00    	add    %ch,0x2(%rsi)
  4094dd:	00 00                	add    %al,(%rax)
  4094df:	00 ae 02 00 00 00    	add    %ch,0x2(%rsi)
  4094e5:	00 00                	add    %al,(%rax)
  4094e7:	00 ae 02 00 00 00    	add    %ch,0x2(%rsi)
  4094ed:	00 00                	add    %al,(%rax)
  4094ef:	00 ae 02 00 00 00    	add    %ch,0x2(%rsi)
  4094f5:	00 00                	add    %al,(%rax)
  4094f7:	00 ae 02 00 00 00    	add    %ch,0x2(%rsi)
  4094fd:	00 00                	add    %al,(%rax)
  4094ff:	00 ae 02 00 00 00    	add    %ch,0x2(%rsi)
  409505:	00 00                	add    %al,(%rax)
  409507:	00 ae 02 00 00 00    	add    %ch,0x2(%rsi)
  40950d:	00 00                	add    %al,(%rax)
  40950f:	00 ae 02 00 00 00    	add    %ch,0x2(%rsi)
  409515:	00 00                	add    %al,(%rax)
  409517:	00 ae 02 00 00 00    	add    %ch,0x2(%rsi)
  40951d:	00 00                	add    %al,(%rax)
  40951f:	00 ae 02 00 00 00    	add    %ch,0x2(%rsi)
  409525:	00 00                	add    %al,(%rax)
  409527:	00 ae 02 00 00 00    	add    %ch,0x2(%rsi)
  40952d:	00 00                	add    %al,(%rax)
  40952f:	00 ae 02 00 00 00    	add    %ch,0x2(%rsi)
  409535:	00 00                	add    %al,(%rax)
  409537:	00 ae 02 00 00 00    	add    %ch,0x2(%rsi)
  40953d:	00 00                	add    %al,(%rax)
  40953f:	00 ae 02 00 00 00    	add    %ch,0x2(%rsi)
  409545:	00 00                	add    %al,(%rax)
  409547:	00 ae 02 00 00 00    	add    %ch,0x2(%rsi)
  40954d:	00 00                	add    %al,(%rax)
  40954f:	00 ae 02 00 00 00    	add    %ch,0x2(%rsi)
  409555:	00 00                	add    %al,(%rax)
  409557:	00 ae 02 00 00 00    	add    %ch,0x2(%rsi)
  40955d:	00 00                	add    %al,(%rax)
  40955f:	00 ae 02 00 00 00    	add    %ch,0x2(%rsi)
  409565:	00 00                	add    %al,(%rax)
  409567:	00 ae 02 00 00 00    	add    %ch,0x2(%rsi)
  40956d:	00 00                	add    %al,(%rax)
  40956f:	00 ae 02 00 00 00    	add    %ch,0x2(%rsi)
  409575:	00 00                	add    %al,(%rax)
  409577:	00 ae 02 00 00 00    	add    %ch,0x2(%rsi)
  40957d:	00 00                	add    %al,(%rax)
  40957f:	00 ae 02 00 00 00    	add    %ch,0x2(%rsi)
  409585:	00 00                	add    %al,(%rax)
  409587:	00 ae 02 00 00 00    	add    %ch,0x2(%rsi)
  40958d:	00 00                	add    %al,(%rax)
  40958f:	00 ae 02 00 00 00    	add    %ch,0x2(%rsi)
  409595:	00 00                	add    %al,(%rax)
  409597:	00 ae 02 00 00 00    	add    %ch,0x2(%rsi)
  40959d:	00 00                	add    %al,(%rax)
  40959f:	00 ae 02 00 00 00    	add    %ch,0x2(%rsi)
  4095a5:	00 00                	add    %al,(%rax)
  4095a7:	00 ae 02 00 00 00    	add    %ch,0x2(%rsi)
  4095ad:	00 00                	add    %al,(%rax)
  4095af:	00 ae 02 00 00 00    	add    %ch,0x2(%rsi)
  4095b5:	00 00                	add    %al,(%rax)
  4095b7:	00 ae 02 00 00 00    	add    %ch,0x2(%rsi)
  4095bd:	00 00                	add    %al,(%rax)
  4095bf:	00 b7 02 00 00 00    	add    %dh,0x2(%rdi)
  4095c5:	00 00                	add    %al,(%rax)
  4095c7:	00 b7 02 00 00 00    	add    %dh,0x2(%rdi)
  4095cd:	00 00                	add    %al,(%rax)
  4095cf:	00 b7 02 00 00 00    	add    %dh,0x2(%rdi)
  4095d5:	00 00                	add    %al,(%rax)
  4095d7:	00 b7 02 00 00 00    	add    %dh,0x2(%rdi)
  4095dd:	00 00                	add    %al,(%rax)
  4095df:	00 b7 02 00 00 00    	add    %dh,0x2(%rdi)
  4095e5:	00 00                	add    %al,(%rax)
  4095e7:	00 b7 02 00 00 00    	add    %dh,0x2(%rdi)
  4095ed:	00 00                	add    %al,(%rax)
  4095ef:	00 b7 02 00 00 00    	add    %dh,0x2(%rdi)
  4095f5:	00 00                	add    %al,(%rax)
  4095f7:	00 b7 02 00 00 00    	add    %dh,0x2(%rdi)
  4095fd:	00 00                	add    %al,(%rax)
  4095ff:	00 b7 02 00 00 00    	add    %dh,0x2(%rdi)
  409605:	00 00                	add    %al,(%rax)
  409607:	00 b7 02 00 00 00    	add    %dh,0x2(%rdi)
  40960d:	00 00                	add    %al,(%rax)
  40960f:	00 b7 02 00 00 00    	add    %dh,0x2(%rdi)
  409615:	00 00                	add    %al,(%rax)
  409617:	00 b7 02 00 00 00    	add    %dh,0x2(%rdi)
  40961d:	00 00                	add    %al,(%rax)
  40961f:	00 b7 02 00 00 00    	add    %dh,0x2(%rdi)
  409625:	00 00                	add    %al,(%rax)
  409627:	00 b7 02 00 00 00    	add    %dh,0x2(%rdi)
  40962d:	00 00                	add    %al,(%rax)
  40962f:	00 b7 02 00 00 00    	add    %dh,0x2(%rdi)
  409635:	00 00                	add    %al,(%rax)
  409637:	00 b7 02 00 00 00    	add    %dh,0x2(%rdi)
  40963d:	00 00                	add    %al,(%rax)
  40963f:	00 b7 02 00 00 00    	add    %dh,0x2(%rdi)
  409645:	00 00                	add    %al,(%rax)
  409647:	00 b7 02 00 00 00    	add    %dh,0x2(%rdi)
  40964d:	00 00                	add    %al,(%rax)
  40964f:	00 b7 02 00 00 00    	add    %dh,0x2(%rdi)
  409655:	00 00                	add    %al,(%rax)
  409657:	00 b7 02 00 00 00    	add    %dh,0x2(%rdi)
  40965d:	00 00                	add    %al,(%rax)
  40965f:	00 b7 02 00 00 00    	add    %dh,0x2(%rdi)
  409665:	00 00                	add    %al,(%rax)
  409667:	00 b7 02 00 00 00    	add    %dh,0x2(%rdi)
  40966d:	00 00                	add    %al,(%rax)
  40966f:	00 b7 02 00 00 00    	add    %dh,0x2(%rdi)
  409675:	00 00                	add    %al,(%rax)
  409677:	00 b7 02 00 00 00    	add    %dh,0x2(%rdi)
  40967d:	00 00                	add    %al,(%rax)
  40967f:	00 b7 02 00 00 00    	add    %dh,0x2(%rdi)
  409685:	00 00                	add    %al,(%rax)
  409687:	00 b7 02 00 00 00    	add    %dh,0x2(%rdi)
  40968d:	00 00                	add    %al,(%rax)
  40968f:	00 b7 02 00 00 00    	add    %dh,0x2(%rdi)
  409695:	00 00                	add    %al,(%rax)
  409697:	00 b7 02 00 00 00    	add    %dh,0x2(%rdi)
  40969d:	00 00                	add    %al,(%rax)
  40969f:	00 b7 02 00 00 00    	add    %dh,0x2(%rdi)
  4096a5:	00 00                	add    %al,(%rax)
  4096a7:	00 b7 02 00 00 00    	add    %dh,0x2(%rdi)
  4096ad:	00 00                	add    %al,(%rax)
  4096af:	00 b7 02 00 00 00    	add    %dh,0x2(%rdi)
  4096b5:	00 00                	add    %al,(%rax)
  4096b7:	00 b7 02 00 00 00    	add    %dh,0x2(%rdi)
  4096bd:	00 00                	add    %al,(%rax)
  4096bf:	00 c0                	add    %al,%al
  4096c1:	02 00                	add    (%rax),%al
  4096c3:	00 00                	add    %al,(%rax)
  4096c5:	00 00                	add    %al,(%rax)
  4096c7:	00 c0                	add    %al,%al
  4096c9:	02 00                	add    (%rax),%al
  4096cb:	00 00                	add    %al,(%rax)
  4096cd:	00 00                	add    %al,(%rax)
  4096cf:	00 c0                	add    %al,%al
  4096d1:	02 00                	add    (%rax),%al
  4096d3:	00 00                	add    %al,(%rax)
  4096d5:	00 00                	add    %al,(%rax)
  4096d7:	00 c0                	add    %al,%al
  4096d9:	02 00                	add    (%rax),%al
  4096db:	00 00                	add    %al,(%rax)
  4096dd:	00 00                	add    %al,(%rax)
  4096df:	00 c0                	add    %al,%al
  4096e1:	02 00                	add    (%rax),%al
  4096e3:	00 00                	add    %al,(%rax)
  4096e5:	00 00                	add    %al,(%rax)
  4096e7:	00 c0                	add    %al,%al
  4096e9:	02 00                	add    (%rax),%al
  4096eb:	00 00                	add    %al,(%rax)
  4096ed:	00 00                	add    %al,(%rax)
  4096ef:	00 c0                	add    %al,%al
  4096f1:	02 00                	add    (%rax),%al
  4096f3:	00 00                	add    %al,(%rax)
  4096f5:	00 00                	add    %al,(%rax)
  4096f7:	00 c0                	add    %al,%al
  4096f9:	02 00                	add    (%rax),%al
  4096fb:	00 00                	add    %al,(%rax)
  4096fd:	00 00                	add    %al,(%rax)
  4096ff:	00 c0                	add    %al,%al
  409701:	02 00                	add    (%rax),%al
  409703:	00 00                	add    %al,(%rax)
  409705:	00 00                	add    %al,(%rax)
  409707:	00 c0                	add    %al,%al
  409709:	02 00                	add    (%rax),%al
  40970b:	00 00                	add    %al,(%rax)
  40970d:	00 00                	add    %al,(%rax)
  40970f:	00 c0                	add    %al,%al
  409711:	02 00                	add    (%rax),%al
  409713:	00 00                	add    %al,(%rax)
  409715:	00 00                	add    %al,(%rax)
  409717:	00 c0                	add    %al,%al
  409719:	02 00                	add    (%rax),%al
  40971b:	00 00                	add    %al,(%rax)
  40971d:	00 00                	add    %al,(%rax)
  40971f:	00 c0                	add    %al,%al
  409721:	02 00                	add    (%rax),%al
  409723:	00 00                	add    %al,(%rax)
  409725:	00 00                	add    %al,(%rax)
  409727:	00 c0                	add    %al,%al
  409729:	02 00                	add    (%rax),%al
  40972b:	00 00                	add    %al,(%rax)
  40972d:	00 00                	add    %al,(%rax)
  40972f:	00 c0                	add    %al,%al
  409731:	02 00                	add    (%rax),%al
  409733:	00 00                	add    %al,(%rax)
  409735:	00 00                	add    %al,(%rax)
  409737:	00 c0                	add    %al,%al
  409739:	02 00                	add    (%rax),%al
  40973b:	00 00                	add    %al,(%rax)
  40973d:	00 00                	add    %al,(%rax)
  40973f:	00 c0                	add    %al,%al
  409741:	02 00                	add    (%rax),%al
  409743:	00 00                	add    %al,(%rax)
  409745:	00 00                	add    %al,(%rax)
  409747:	00 c0                	add    %al,%al
  409749:	02 00                	add    (%rax),%al
  40974b:	00 00                	add    %al,(%rax)
  40974d:	00 00                	add    %al,(%rax)
  40974f:	00 c0                	add    %al,%al
  409751:	02 00                	add    (%rax),%al
  409753:	00 00                	add    %al,(%rax)
  409755:	00 00                	add    %al,(%rax)
  409757:	00 c0                	add    %al,%al
  409759:	02 00                	add    (%rax),%al
  40975b:	00 00                	add    %al,(%rax)
  40975d:	00 00                	add    %al,(%rax)
  40975f:	00 c0                	add    %al,%al
  409761:	02 00                	add    (%rax),%al
  409763:	00 00                	add    %al,(%rax)
  409765:	00 00                	add    %al,(%rax)
  409767:	00 c0                	add    %al,%al
  409769:	02 00                	add    (%rax),%al
  40976b:	00 00                	add    %al,(%rax)
  40976d:	00 00                	add    %al,(%rax)
  40976f:	00 c0                	add    %al,%al
  409771:	02 00                	add    (%rax),%al
  409773:	00 00                	add    %al,(%rax)
  409775:	00 00                	add    %al,(%rax)
  409777:	00 c0                	add    %al,%al
  409779:	02 00                	add    (%rax),%al
  40977b:	00 00                	add    %al,(%rax)
  40977d:	00 00                	add    %al,(%rax)
  40977f:	00 c0                	add    %al,%al
  409781:	02 00                	add    (%rax),%al
  409783:	00 00                	add    %al,(%rax)
  409785:	00 00                	add    %al,(%rax)
  409787:	00 c0                	add    %al,%al
  409789:	02 00                	add    (%rax),%al
  40978b:	00 00                	add    %al,(%rax)
  40978d:	00 00                	add    %al,(%rax)
  40978f:	00 c0                	add    %al,%al
  409791:	02 00                	add    (%rax),%al
  409793:	00 00                	add    %al,(%rax)
  409795:	00 00                	add    %al,(%rax)
  409797:	00 c0                	add    %al,%al
  409799:	02 00                	add    (%rax),%al
  40979b:	00 00                	add    %al,(%rax)
  40979d:	00 00                	add    %al,(%rax)
  40979f:	00 c0                	add    %al,%al
  4097a1:	02 00                	add    (%rax),%al
  4097a3:	00 00                	add    %al,(%rax)
  4097a5:	00 00                	add    %al,(%rax)
  4097a7:	00 c0                	add    %al,%al
  4097a9:	02 00                	add    (%rax),%al
  4097ab:	00 00                	add    %al,(%rax)
  4097ad:	00 00                	add    %al,(%rax)
  4097af:	00 c0                	add    %al,%al
  4097b1:	02 00                	add    (%rax),%al
  4097b3:	00 00                	add    %al,(%rax)
  4097b5:	00 00                	add    %al,(%rax)
  4097b7:	00 c0                	add    %al,%al
  4097b9:	02 00                	add    (%rax),%al
  4097bb:	00 00                	add    %al,(%rax)
  4097bd:	00 00                	add    %al,(%rax)
  4097bf:	00 60 0a             	add    %ah,0xa(%rax)
  4097c2:	00 00                	add    %al,(%rax)
  4097c4:	00 00                	add    %al,(%rax)
  4097c6:	00 00                	add    %al,(%rax)
  4097c8:	70 0a                	jo     4097d4 <__intel_avx_rep_memset+0xcc4>
  4097ca:	00 00                	add    %al,(%rax)
  4097cc:	00 00                	add    %al,(%rax)
  4097ce:	00 00                	add    %al,(%rax)
  4097d0:	50                   	push   %rax
  4097d1:	0a 00                	or     (%rax),%al
  4097d3:	00 00                	add    %al,(%rax)
  4097d5:	00 00                	add    %al,(%rax)
  4097d7:	00 40 0a             	add    %al,0xa(%rax)
  4097da:	00 00                	add    %al,(%rax)
  4097dc:	00 00                	add    %al,(%rax)
  4097de:	00 00                	add    %al,(%rax)
  4097e0:	30 0a                	xor    %cl,(%rdx)
  4097e2:	00 00                	add    %al,(%rax)
  4097e4:	00 00                	add    %al,(%rax)
  4097e6:	00 00                	add    %al,(%rax)
  4097e8:	20 0a                	and    %cl,(%rdx)
  4097ea:	00 00                	add    %al,(%rax)
  4097ec:	00 00                	add    %al,(%rax)
  4097ee:	00 00                	add    %al,(%rax)
  4097f0:	20 0a                	and    %cl,(%rdx)
  4097f2:	00 00                	add    %al,(%rax)
  4097f4:	00 00                	add    %al,(%rax)
  4097f6:	00 00                	add    %al,(%rax)
  4097f8:	20 0a                	and    %cl,(%rdx)
  4097fa:	00 00                	add    %al,(%rax)
  4097fc:	00 00                	add    %al,(%rax)
  4097fe:	00 00                	add    %al,(%rax)
  409800:	10 0a                	adc    %cl,(%rdx)
  409802:	00 00                	add    %al,(%rax)
  409804:	00 00                	add    %al,(%rax)
  409806:	00 00                	add    %al,(%rax)
  409808:	00 0a                	add    %cl,(%rdx)
  40980a:	00 00                	add    %al,(%rax)
  40980c:	00 00                	add    %al,(%rax)
  40980e:	00 00                	add    %al,(%rax)
  409810:	00 0a                	add    %cl,(%rdx)
  409812:	00 00                	add    %al,(%rax)
  409814:	00 00                	add    %al,(%rax)
  409816:	00 00                	add    %al,(%rax)
  409818:	00 0a                	add    %cl,(%rdx)
  40981a:	00 00                	add    %al,(%rax)
  40981c:	00 00                	add    %al,(%rax)
  40981e:	00 00                	add    %al,(%rax)
  409820:	00 0a                	add    %cl,(%rdx)
  409822:	00 00                	add    %al,(%rax)
  409824:	00 00                	add    %al,(%rax)
  409826:	00 00                	add    %al,(%rax)
  409828:	00 0a                	add    %cl,(%rdx)
  40982a:	00 00                	add    %al,(%rax)
  40982c:	00 00                	add    %al,(%rax)
  40982e:	00 00                	add    %al,(%rax)
  409830:	00 0a                	add    %cl,(%rdx)
  409832:	00 00                	add    %al,(%rax)
  409834:	00 00                	add    %al,(%rax)
  409836:	00 00                	add    %al,(%rax)
  409838:	00 0a                	add    %cl,(%rdx)
  40983a:	00 00                	add    %al,(%rax)
  40983c:	00 00                	add    %al,(%rax)
  40983e:	00 00                	add    %al,(%rax)
  409840:	30 09                	xor    %cl,(%rcx)
  409842:	00 00                	add    %al,(%rax)
  409844:	00 00                	add    %al,(%rax)
  409846:	00 00                	add    %al,(%rax)
  409848:	20 09                	and    %cl,(%rcx)
  40984a:	00 00                	add    %al,(%rax)
  40984c:	00 00                	add    %al,(%rax)
  40984e:	00 00                	add    %al,(%rax)
  409850:	20 09                	and    %cl,(%rcx)
  409852:	00 00                	add    %al,(%rax)
  409854:	00 00                	add    %al,(%rax)
  409856:	00 00                	add    %al,(%rax)
  409858:	20 09                	and    %cl,(%rcx)
  40985a:	00 00                	add    %al,(%rax)
  40985c:	00 00                	add    %al,(%rax)
  40985e:	00 00                	add    %al,(%rax)
  409860:	20 09                	and    %cl,(%rcx)
  409862:	00 00                	add    %al,(%rax)
  409864:	00 00                	add    %al,(%rax)
  409866:	00 00                	add    %al,(%rax)
  409868:	20 09                	and    %cl,(%rcx)
  40986a:	00 00                	add    %al,(%rax)
  40986c:	00 00                	add    %al,(%rax)
  40986e:	00 00                	add    %al,(%rax)
  409870:	20 09                	and    %cl,(%rcx)
  409872:	00 00                	add    %al,(%rax)
  409874:	00 00                	add    %al,(%rax)
  409876:	00 00                	add    %al,(%rax)
  409878:	20 09                	and    %cl,(%rcx)
  40987a:	00 00                	add    %al,(%rax)
  40987c:	00 00                	add    %al,(%rax)
  40987e:	00 00                	add    %al,(%rax)
  409880:	20 09                	and    %cl,(%rcx)
  409882:	00 00                	add    %al,(%rax)
  409884:	00 00                	add    %al,(%rax)
  409886:	00 00                	add    %al,(%rax)
  409888:	20 09                	and    %cl,(%rcx)
  40988a:	00 00                	add    %al,(%rax)
  40988c:	00 00                	add    %al,(%rax)
  40988e:	00 00                	add    %al,(%rax)
  409890:	20 09                	and    %cl,(%rcx)
  409892:	00 00                	add    %al,(%rax)
  409894:	00 00                	add    %al,(%rax)
  409896:	00 00                	add    %al,(%rax)
  409898:	20 09                	and    %cl,(%rcx)
  40989a:	00 00                	add    %al,(%rax)
  40989c:	00 00                	add    %al,(%rax)
  40989e:	00 00                	add    %al,(%rax)
  4098a0:	20 09                	and    %cl,(%rcx)
  4098a2:	00 00                	add    %al,(%rax)
  4098a4:	00 00                	add    %al,(%rax)
  4098a6:	00 00                	add    %al,(%rax)
  4098a8:	20 09                	and    %cl,(%rcx)
  4098aa:	00 00                	add    %al,(%rax)
  4098ac:	00 00                	add    %al,(%rax)
  4098ae:	00 00                	add    %al,(%rax)
  4098b0:	20 09                	and    %cl,(%rcx)
  4098b2:	00 00                	add    %al,(%rax)
  4098b4:	00 00                	add    %al,(%rax)
  4098b6:	00 00                	add    %al,(%rax)
  4098b8:	20 09                	and    %cl,(%rcx)
  4098ba:	00 00                	add    %al,(%rax)
  4098bc:	00 00                	add    %al,(%rax)
  4098be:	00 00                	add    %al,(%rax)
  4098c0:	d0 09                	rorb   $1,(%rcx)
  4098c2:	00 00                	add    %al,(%rax)
  4098c4:	00 00                	add    %al,(%rax)
  4098c6:	00 00                	add    %al,(%rax)
  4098c8:	c0 09 00             	rorb   $0x0,(%rcx)
  4098cb:	00 00                	add    %al,(%rax)
  4098cd:	00 00                	add    %al,(%rax)
  4098cf:	00 c0                	add    %al,%al
  4098d1:	09 00                	or     %eax,(%rax)
  4098d3:	00 00                	add    %al,(%rax)
  4098d5:	00 00                	add    %al,(%rax)
  4098d7:	00 c0                	add    %al,%al
  4098d9:	09 00                	or     %eax,(%rax)
  4098db:	00 00                	add    %al,(%rax)
  4098dd:	00 00                	add    %al,(%rax)
  4098df:	00 c0                	add    %al,%al
  4098e1:	09 00                	or     %eax,(%rax)
  4098e3:	00 00                	add    %al,(%rax)
  4098e5:	00 00                	add    %al,(%rax)
  4098e7:	00 c0                	add    %al,%al
  4098e9:	09 00                	or     %eax,(%rax)
  4098eb:	00 00                	add    %al,(%rax)
  4098ed:	00 00                	add    %al,(%rax)
  4098ef:	00 c0                	add    %al,%al
  4098f1:	09 00                	or     %eax,(%rax)
  4098f3:	00 00                	add    %al,(%rax)
  4098f5:	00 00                	add    %al,(%rax)
  4098f7:	00 c0                	add    %al,%al
  4098f9:	09 00                	or     %eax,(%rax)
  4098fb:	00 00                	add    %al,(%rax)
  4098fd:	00 00                	add    %al,(%rax)
  4098ff:	00 c0                	add    %al,%al
  409901:	09 00                	or     %eax,(%rax)
  409903:	00 00                	add    %al,(%rax)
  409905:	00 00                	add    %al,(%rax)
  409907:	00 c0                	add    %al,%al
  409909:	09 00                	or     %eax,(%rax)
  40990b:	00 00                	add    %al,(%rax)
  40990d:	00 00                	add    %al,(%rax)
  40990f:	00 c0                	add    %al,%al
  409911:	09 00                	or     %eax,(%rax)
  409913:	00 00                	add    %al,(%rax)
  409915:	00 00                	add    %al,(%rax)
  409917:	00 c0                	add    %al,%al
  409919:	09 00                	or     %eax,(%rax)
  40991b:	00 00                	add    %al,(%rax)
  40991d:	00 00                	add    %al,(%rax)
  40991f:	00 c0                	add    %al,%al
  409921:	09 00                	or     %eax,(%rax)
  409923:	00 00                	add    %al,(%rax)
  409925:	00 00                	add    %al,(%rax)
  409927:	00 c0                	add    %al,%al
  409929:	09 00                	or     %eax,(%rax)
  40992b:	00 00                	add    %al,(%rax)
  40992d:	00 00                	add    %al,(%rax)
  40992f:	00 c0                	add    %al,%al
  409931:	09 00                	or     %eax,(%rax)
  409933:	00 00                	add    %al,(%rax)
  409935:	00 00                	add    %al,(%rax)
  409937:	00 c0                	add    %al,%al
  409939:	09 00                	or     %eax,(%rax)
  40993b:	00 00                	add    %al,(%rax)
  40993d:	00 00                	add    %al,(%rax)
  40993f:	00 c0                	add    %al,%al
  409941:	09 00                	or     %eax,(%rax)
  409943:	00 00                	add    %al,(%rax)
  409945:	00 00                	add    %al,(%rax)
  409947:	00 c0                	add    %al,%al
  409949:	09 00                	or     %eax,(%rax)
  40994b:	00 00                	add    %al,(%rax)
  40994d:	00 00                	add    %al,(%rax)
  40994f:	00 c0                	add    %al,%al
  409951:	09 00                	or     %eax,(%rax)
  409953:	00 00                	add    %al,(%rax)
  409955:	00 00                	add    %al,(%rax)
  409957:	00 c0                	add    %al,%al
  409959:	09 00                	or     %eax,(%rax)
  40995b:	00 00                	add    %al,(%rax)
  40995d:	00 00                	add    %al,(%rax)
  40995f:	00 c0                	add    %al,%al
  409961:	09 00                	or     %eax,(%rax)
  409963:	00 00                	add    %al,(%rax)
  409965:	00 00                	add    %al,(%rax)
  409967:	00 c0                	add    %al,%al
  409969:	09 00                	or     %eax,(%rax)
  40996b:	00 00                	add    %al,(%rax)
  40996d:	00 00                	add    %al,(%rax)
  40996f:	00 c0                	add    %al,%al
  409971:	09 00                	or     %eax,(%rax)
  409973:	00 00                	add    %al,(%rax)
  409975:	00 00                	add    %al,(%rax)
  409977:	00 c0                	add    %al,%al
  409979:	09 00                	or     %eax,(%rax)
  40997b:	00 00                	add    %al,(%rax)
  40997d:	00 00                	add    %al,(%rax)
  40997f:	00 c0                	add    %al,%al
  409981:	09 00                	or     %eax,(%rax)
  409983:	00 00                	add    %al,(%rax)
  409985:	00 00                	add    %al,(%rax)
  409987:	00 c0                	add    %al,%al
  409989:	09 00                	or     %eax,(%rax)
  40998b:	00 00                	add    %al,(%rax)
  40998d:	00 00                	add    %al,(%rax)
  40998f:	00 c0                	add    %al,%al
  409991:	09 00                	or     %eax,(%rax)
  409993:	00 00                	add    %al,(%rax)
  409995:	00 00                	add    %al,(%rax)
  409997:	00 c0                	add    %al,%al
  409999:	09 00                	or     %eax,(%rax)
  40999b:	00 00                	add    %al,(%rax)
  40999d:	00 00                	add    %al,(%rax)
  40999f:	00 c0                	add    %al,%al
  4099a1:	09 00                	or     %eax,(%rax)
  4099a3:	00 00                	add    %al,(%rax)
  4099a5:	00 00                	add    %al,(%rax)
  4099a7:	00 c0                	add    %al,%al
  4099a9:	09 00                	or     %eax,(%rax)
  4099ab:	00 00                	add    %al,(%rax)
  4099ad:	00 00                	add    %al,(%rax)
  4099af:	00 c0                	add    %al,%al
  4099b1:	09 00                	or     %eax,(%rax)
  4099b3:	00 00                	add    %al,(%rax)
  4099b5:	00 00                	add    %al,(%rax)
  4099b7:	00 c0                	add    %al,%al
  4099b9:	09 00                	or     %eax,(%rax)
  4099bb:	00 00                	add    %al,(%rax)
  4099bd:	00 00                	add    %al,(%rax)
  4099bf:	00 a0 09 00 00 00    	add    %ah,0x9(%rax)
  4099c5:	00 00                	add    %al,(%rax)
  4099c7:	00 80 09 00 00 00    	add    %al,0x9(%rax)
  4099cd:	00 00                	add    %al,(%rax)
  4099cf:	00 80 09 00 00 00    	add    %al,0x9(%rax)
  4099d5:	00 00                	add    %al,(%rax)
  4099d7:	00 80 09 00 00 00    	add    %al,0x9(%rax)
  4099dd:	00 00                	add    %al,(%rax)
  4099df:	00 80 09 00 00 00    	add    %al,0x9(%rax)
  4099e5:	00 00                	add    %al,(%rax)
  4099e7:	00 80 09 00 00 00    	add    %al,0x9(%rax)
  4099ed:	00 00                	add    %al,(%rax)
  4099ef:	00 80 09 00 00 00    	add    %al,0x9(%rax)
  4099f5:	00 00                	add    %al,(%rax)
  4099f7:	00 80 09 00 00 00    	add    %al,0x9(%rax)
  4099fd:	00 00                	add    %al,(%rax)
  4099ff:	00 80 09 00 00 00    	add    %al,0x9(%rax)
  409a05:	00 00                	add    %al,(%rax)
  409a07:	00 80 09 00 00 00    	add    %al,0x9(%rax)
  409a0d:	00 00                	add    %al,(%rax)
  409a0f:	00 80 09 00 00 00    	add    %al,0x9(%rax)
  409a15:	00 00                	add    %al,(%rax)
  409a17:	00 80 09 00 00 00    	add    %al,0x9(%rax)
  409a1d:	00 00                	add    %al,(%rax)
  409a1f:	00 80 09 00 00 00    	add    %al,0x9(%rax)
  409a25:	00 00                	add    %al,(%rax)
  409a27:	00 80 09 00 00 00    	add    %al,0x9(%rax)
  409a2d:	00 00                	add    %al,(%rax)
  409a2f:	00 80 09 00 00 00    	add    %al,0x9(%rax)
  409a35:	00 00                	add    %al,(%rax)
  409a37:	00 80 09 00 00 00    	add    %al,0x9(%rax)
  409a3d:	00 00                	add    %al,(%rax)
  409a3f:	00 80 09 00 00 00    	add    %al,0x9(%rax)
  409a45:	00 00                	add    %al,(%rax)
  409a47:	00 80 09 00 00 00    	add    %al,0x9(%rax)
  409a4d:	00 00                	add    %al,(%rax)
  409a4f:	00 80 09 00 00 00    	add    %al,0x9(%rax)
  409a55:	00 00                	add    %al,(%rax)
  409a57:	00 80 09 00 00 00    	add    %al,0x9(%rax)
  409a5d:	00 00                	add    %al,(%rax)
  409a5f:	00 80 09 00 00 00    	add    %al,0x9(%rax)
  409a65:	00 00                	add    %al,(%rax)
  409a67:	00 80 09 00 00 00    	add    %al,0x9(%rax)
  409a6d:	00 00                	add    %al,(%rax)
  409a6f:	00 80 09 00 00 00    	add    %al,0x9(%rax)
  409a75:	00 00                	add    %al,(%rax)
  409a77:	00 80 09 00 00 00    	add    %al,0x9(%rax)
  409a7d:	00 00                	add    %al,(%rax)
  409a7f:	00 80 09 00 00 00    	add    %al,0x9(%rax)
  409a85:	00 00                	add    %al,(%rax)
  409a87:	00 80 09 00 00 00    	add    %al,0x9(%rax)
  409a8d:	00 00                	add    %al,(%rax)
  409a8f:	00 80 09 00 00 00    	add    %al,0x9(%rax)
  409a95:	00 00                	add    %al,(%rax)
  409a97:	00 80 09 00 00 00    	add    %al,0x9(%rax)
  409a9d:	00 00                	add    %al,(%rax)
  409a9f:	00 80 09 00 00 00    	add    %al,0x9(%rax)
  409aa5:	00 00                	add    %al,(%rax)
  409aa7:	00 80 09 00 00 00    	add    %al,0x9(%rax)
  409aad:	00 00                	add    %al,(%rax)
  409aaf:	00 80 09 00 00 00    	add    %al,0x9(%rax)
  409ab5:	00 00                	add    %al,(%rax)
  409ab7:	00 80 09 00 00 00    	add    %al,0x9(%rax)
  409abd:	00 00                	add    %al,(%rax)
  409abf:	00 80 09 00 00 00    	add    %al,0x9(%rax)
  409ac5:	00 00                	add    %al,(%rax)
  409ac7:	00 80 09 00 00 00    	add    %al,0x9(%rax)
  409acd:	00 00                	add    %al,(%rax)
  409acf:	00 80 09 00 00 00    	add    %al,0x9(%rax)
  409ad5:	00 00                	add    %al,(%rax)
  409ad7:	00 80 09 00 00 00    	add    %al,0x9(%rax)
  409add:	00 00                	add    %al,(%rax)
  409adf:	00 80 09 00 00 00    	add    %al,0x9(%rax)
  409ae5:	00 00                	add    %al,(%rax)
  409ae7:	00 80 09 00 00 00    	add    %al,0x9(%rax)
  409aed:	00 00                	add    %al,(%rax)
  409aef:	00 80 09 00 00 00    	add    %al,0x9(%rax)
  409af5:	00 00                	add    %al,(%rax)
  409af7:	00 80 09 00 00 00    	add    %al,0x9(%rax)
  409afd:	00 00                	add    %al,(%rax)
  409aff:	00 80 09 00 00 00    	add    %al,0x9(%rax)
  409b05:	00 00                	add    %al,(%rax)
  409b07:	00 80 09 00 00 00    	add    %al,0x9(%rax)
  409b0d:	00 00                	add    %al,(%rax)
  409b0f:	00 80 09 00 00 00    	add    %al,0x9(%rax)
  409b15:	00 00                	add    %al,(%rax)
  409b17:	00 80 09 00 00 00    	add    %al,0x9(%rax)
  409b1d:	00 00                	add    %al,(%rax)
  409b1f:	00 80 09 00 00 00    	add    %al,0x9(%rax)
  409b25:	00 00                	add    %al,(%rax)
  409b27:	00 80 09 00 00 00    	add    %al,0x9(%rax)
  409b2d:	00 00                	add    %al,(%rax)
  409b2f:	00 80 09 00 00 00    	add    %al,0x9(%rax)
  409b35:	00 00                	add    %al,(%rax)
  409b37:	00 80 09 00 00 00    	add    %al,0x9(%rax)
  409b3d:	00 00                	add    %al,(%rax)
  409b3f:	00 80 09 00 00 00    	add    %al,0x9(%rax)
  409b45:	00 00                	add    %al,(%rax)
  409b47:	00 80 09 00 00 00    	add    %al,0x9(%rax)
  409b4d:	00 00                	add    %al,(%rax)
  409b4f:	00 80 09 00 00 00    	add    %al,0x9(%rax)
  409b55:	00 00                	add    %al,(%rax)
  409b57:	00 80 09 00 00 00    	add    %al,0x9(%rax)
  409b5d:	00 00                	add    %al,(%rax)
  409b5f:	00 80 09 00 00 00    	add    %al,0x9(%rax)
  409b65:	00 00                	add    %al,(%rax)
  409b67:	00 80 09 00 00 00    	add    %al,0x9(%rax)
  409b6d:	00 00                	add    %al,(%rax)
  409b6f:	00 80 09 00 00 00    	add    %al,0x9(%rax)
  409b75:	00 00                	add    %al,(%rax)
  409b77:	00 80 09 00 00 00    	add    %al,0x9(%rax)
  409b7d:	00 00                	add    %al,(%rax)
  409b7f:	00 80 09 00 00 00    	add    %al,0x9(%rax)
  409b85:	00 00                	add    %al,(%rax)
  409b87:	00 80 09 00 00 00    	add    %al,0x9(%rax)
  409b8d:	00 00                	add    %al,(%rax)
  409b8f:	00 80 09 00 00 00    	add    %al,0x9(%rax)
  409b95:	00 00                	add    %al,(%rax)
  409b97:	00 80 09 00 00 00    	add    %al,0x9(%rax)
  409b9d:	00 00                	add    %al,(%rax)
  409b9f:	00 80 09 00 00 00    	add    %al,0x9(%rax)
  409ba5:	00 00                	add    %al,(%rax)
  409ba7:	00 80 09 00 00 00    	add    %al,0x9(%rax)
  409bad:	00 00                	add    %al,(%rax)
  409baf:	00 80 09 00 00 00    	add    %al,0x9(%rax)
  409bb5:	00 00                	add    %al,(%rax)
  409bb7:	00 80 09 00 00 00    	add    %al,0x9(%rax)
  409bbd:	00 00                	add    %al,(%rax)
  409bbf:	00 60 09             	add    %ah,0x9(%rax)
  409bc2:	00 00                	add    %al,(%rax)
  409bc4:	00 00                	add    %al,(%rax)
  409bc6:	00 00                	add    %al,(%rax)
  409bc8:	60                   	(bad)
  409bc9:	09 00                	or     %eax,(%rax)
  409bcb:	00 00                	add    %al,(%rax)
  409bcd:	00 00                	add    %al,(%rax)
  409bcf:	00 c5                	add    %al,%ch
  409bd1:	f8                   	clc
  409bd2:	77 4c                	ja     409c20 <__intel_memset+0x40>
  409bd4:	89 c0                	mov    %eax,%eax
  409bd6:	c3                   	ret
  409bd7:	66 0f 1f 84 00 00 00 	nopw   0x0(%rax,%rax,1)
  409bde:	00 00 

0000000000409be0 <__intel_memset>:
  409be0:	f3 0f 1e fa          	endbr64
  409be4:	48 83 fa 01          	cmp    $0x1,%rdx
  409be8:	48 89 f8             	mov    %rdi,%rax
  409beb:	75 04                	jne    409bf1 <__intel_memset+0x11>
  409bed:	40 88 37             	mov    %sil,(%rdi)
  409bf0:	c3                   	ret
  409bf1:	49 b9 01 01 01 01 01 	movabs $0x101010101010101,%r9
  409bf8:	01 01 01 
  409bfb:	49 89 d0             	mov    %rdx,%r8
  409bfe:	48 0f b6 d6          	movzbq %sil,%rdx
  409c02:	49 0f af d1          	imul   %r9,%rdx
  409c06:	49 83 f8 41          	cmp    $0x41,%r8
  409c0a:	0f 8d 00 04 00 00    	jge    40a010 <__intel_memset+0x430>
  409c10:	4c 8d 1d 19 00 00 00 	lea    0x19(%rip),%r11        # 409c30 <__intel_memset+0x50>
  409c17:	4c 01 c7             	add    %r8,%rdi
  409c1a:	4b 8b 0c c3          	mov    (%r11,%r8,8),%rcx
  409c1e:	4e 8d 1c 19          	lea    (%rcx,%r11,1),%r11
  409c22:	3e 41 ff e3          	notrack jmp *%r11
  409c26:	c2 00 00             	ret    $0x0
  409c29:	0f 1f 80 00 00 00 00 	nopl   0x0(%rax)
  409c30:	f6 ff                	idiv   %bh
  409c32:	ff                   	(bad)
  409c33:	ff                   	(bad)
  409c34:	ff                   	(bad)
  409c35:	ff                   	(bad)
  409c36:	ff                   	(bad)
  409c37:	ff a4 02 00 00 00 00 	jmp    *0x0(%rdx,%rax,1)
  409c3e:	00 00                	add    %al,(%rax)
  409c40:	f5                   	cmc
  409c41:	02 00                	add    (%rax),%al
  409c43:	00 00                	add    %al,(%rax)
  409c45:	00 00                	add    %al,(%rax)
  409c47:	00 20                	add    %ah,(%rax)
  409c49:	03 00                	add    (%rax),%eax
  409c4b:	00 00                	add    %al,(%rax)
  409c4d:	00 00                	add    %al,(%rax)
  409c4f:	00 4e 03             	add    %cl,0x3(%rsi)
  409c52:	00 00                	add    %al,(%rax)
  409c54:	00 00                	add    %al,(%rax)
  409c56:	00 00                	add    %al,(%rax)
  409c58:	78 03                	js     409c5d <__intel_memset+0x7d>
  409c5a:	00 00                	add    %al,(%rax)
  409c5c:	00 00                	add    %al,(%rax)
  409c5e:	00 00                	add    %al,(%rax)
  409c60:	a5                   	movsl  %ds:(%rsi),%es:(%rdi)
  409c61:	03 00                	add    (%rax),%eax
  409c63:	00 00                	add    %al,(%rax)
  409c65:	00 00                	add    %al,(%rax)
  409c67:	00 d3                	add    %dl,%bl
  409c69:	03 00                	add    (%rax),%eax
  409c6b:	00 00                	add    %al,(%rax)
  409c6d:	00 00                	add    %al,(%rax)
  409c6f:	00 ca                	add    %cl,%dl
  409c71:	02 00                	add    (%rax),%al
  409c73:	00 00                	add    %al,(%rax)
  409c75:	00 00                	add    %al,(%rax)
  409c77:	00 a0 02 00 00 00    	add    %ah,0x2(%rax)
  409c7d:	00 00                	add    %al,(%rax)
  409c7f:	00 f1                	add    %dh,%cl
  409c81:	02 00                	add    (%rax),%al
  409c83:	00 00                	add    %al,(%rax)
  409c85:	00 00                	add    %al,(%rax)
  409c87:	00 1c 03             	add    %bl,(%rbx,%rax,1)
  409c8a:	00 00                	add    %al,(%rax)
  409c8c:	00 00                	add    %al,(%rax)
  409c8e:	00 00                	add    %al,(%rax)
  409c90:	4a 03 00             	rex.WX add (%rax),%rax
  409c93:	00 00                	add    %al,(%rax)
  409c95:	00 00                	add    %al,(%rax)
  409c97:	00 74 03 00          	add    %dh,0x0(%rbx,%rax,1)
  409c9b:	00 00                	add    %al,(%rax)
  409c9d:	00 00                	add    %al,(%rax)
  409c9f:	00 a1 03 00 00 00    	add    %ah,0x3(%rcx)
  409ca5:	00 00                	add    %al,(%rax)
  409ca7:	00 cf                	add    %cl,%bh
  409ca9:	03 00                	add    (%rax),%eax
  409cab:	00 00                	add    %al,(%rax)
  409cad:	00 00                	add    %al,(%rax)
  409caf:	00 c6                	add    %al,%dh
  409cb1:	02 00                	add    (%rax),%al
  409cb3:	00 00                	add    %al,(%rax)
  409cb5:	00 00                	add    %al,(%rax)
  409cb7:	00 9c 02 00 00 00 00 	add    %bl,0x0(%rdx,%rax,1)
  409cbe:	00 00                	add    %al,(%rax)
  409cc0:	ed                   	in     (%dx),%eax
  409cc1:	02 00                	add    (%rax),%al
  409cc3:	00 00                	add    %al,(%rax)
  409cc5:	00 00                	add    %al,(%rax)
  409cc7:	00 18                	add    %bl,(%rax)
  409cc9:	03 00                	add    (%rax),%eax
  409ccb:	00 00                	add    %al,(%rax)
  409ccd:	00 00                	add    %al,(%rax)
  409ccf:	00 46 03             	add    %al,0x3(%rsi)
  409cd2:	00 00                	add    %al,(%rax)
  409cd4:	00 00                	add    %al,(%rax)
  409cd6:	00 00                	add    %al,(%rax)
  409cd8:	70 03                	jo     409cdd <__intel_memset+0xfd>
  409cda:	00 00                	add    %al,(%rax)
  409cdc:	00 00                	add    %al,(%rax)
  409cde:	00 00                	add    %al,(%rax)
  409ce0:	9d                   	popf
  409ce1:	03 00                	add    (%rax),%eax
  409ce3:	00 00                	add    %al,(%rax)
  409ce5:	00 00                	add    %al,(%rax)
  409ce7:	00 cb                	add    %cl,%bl
  409ce9:	03 00                	add    (%rax),%eax
  409ceb:	00 00                	add    %al,(%rax)
  409ced:	00 00                	add    %al,(%rax)
  409cef:	00 c2                	add    %al,%dl
  409cf1:	02 00                	add    (%rax),%al
  409cf3:	00 00                	add    %al,(%rax)
  409cf5:	00 00                	add    %al,(%rax)
  409cf7:	00 98 02 00 00 00    	add    %bl,0x2(%rax)
  409cfd:	00 00                	add    %al,(%rax)
  409cff:	00 e9                	add    %ch,%cl
  409d01:	02 00                	add    (%rax),%al
  409d03:	00 00                	add    %al,(%rax)
  409d05:	00 00                	add    %al,(%rax)
  409d07:	00 14 03             	add    %dl,(%rbx,%rax,1)
  409d0a:	00 00                	add    %al,(%rax)
  409d0c:	00 00                	add    %al,(%rax)
  409d0e:	00 00                	add    %al,(%rax)
  409d10:	42 03 00             	rex.X add (%rax),%eax
  409d13:	00 00                	add    %al,(%rax)
  409d15:	00 00                	add    %al,(%rax)
  409d17:	00 6c 03 00          	add    %ch,0x0(%rbx,%rax,1)
  409d1b:	00 00                	add    %al,(%rax)
  409d1d:	00 00                	add    %al,(%rax)
  409d1f:	00 99 03 00 00 00    	add    %bl,0x3(%rcx)
  409d25:	00 00                	add    %al,(%rax)
  409d27:	00 c7                	add    %al,%bh
  409d29:	03 00                	add    (%rax),%eax
  409d2b:	00 00                	add    %al,(%rax)
  409d2d:	00 00                	add    %al,(%rax)
  409d2f:	00 be 02 00 00 00    	add    %bh,0x2(%rsi)
  409d35:	00 00                	add    %al,(%rax)
  409d37:	00 94 02 00 00 00 00 	add    %dl,0x0(%rdx,%rax,1)
  409d3e:	00 00                	add    %al,(%rax)
  409d40:	e5 02                	in     $0x2,%eax
  409d42:	00 00                	add    %al,(%rax)
  409d44:	00 00                	add    %al,(%rax)
  409d46:	00 00                	add    %al,(%rax)
  409d48:	10 03                	adc    %al,(%rbx)
  409d4a:	00 00                	add    %al,(%rax)
  409d4c:	00 00                	add    %al,(%rax)
  409d4e:	00 00                	add    %al,(%rax)
  409d50:	3e 03 00             	ds add (%rax),%eax
  409d53:	00 00                	add    %al,(%rax)
  409d55:	00 00                	add    %al,(%rax)
  409d57:	00 68 03             	add    %ch,0x3(%rax)
  409d5a:	00 00                	add    %al,(%rax)
  409d5c:	00 00                	add    %al,(%rax)
  409d5e:	00 00                	add    %al,(%rax)
  409d60:	95                   	xchg   %eax,%ebp
  409d61:	03 00                	add    (%rax),%eax
  409d63:	00 00                	add    %al,(%rax)
  409d65:	00 00                	add    %al,(%rax)
  409d67:	00 c3                	add    %al,%bl
  409d69:	03 00                	add    (%rax),%eax
  409d6b:	00 00                	add    %al,(%rax)
  409d6d:	00 00                	add    %al,(%rax)
  409d6f:	00 ba 02 00 00 00    	add    %bh,0x2(%rdx)
  409d75:	00 00                	add    %al,(%rax)
  409d77:	00 90 02 00 00 00    	add    %dl,0x2(%rax)
  409d7d:	00 00                	add    %al,(%rax)
  409d7f:	00 e1                	add    %ah,%cl
  409d81:	02 00                	add    (%rax),%al
  409d83:	00 00                	add    %al,(%rax)
  409d85:	00 00                	add    %al,(%rax)
  409d87:	00 0c 03             	add    %cl,(%rbx,%rax,1)
  409d8a:	00 00                	add    %al,(%rax)
  409d8c:	00 00                	add    %al,(%rax)
  409d8e:	00 00                	add    %al,(%rax)
  409d90:	3a 03                	cmp    (%rbx),%al
  409d92:	00 00                	add    %al,(%rax)
  409d94:	00 00                	add    %al,(%rax)
  409d96:	00 00                	add    %al,(%rax)
  409d98:	64 03 00             	add    %fs:(%rax),%eax
  409d9b:	00 00                	add    %al,(%rax)
  409d9d:	00 00                	add    %al,(%rax)
  409d9f:	00 91 03 00 00 00    	add    %dl,0x3(%rcx)
  409da5:	00 00                	add    %al,(%rax)
  409da7:	00 bf 03 00 00 00    	add    %bh,0x3(%rdi)
  409dad:	00 00                	add    %al,(%rax)
  409daf:	00 b6 02 00 00 00    	add    %dh,0x2(%rsi)
  409db5:	00 00                	add    %al,(%rax)
  409db7:	00 8c 02 00 00 00 00 	add    %cl,0x0(%rdx,%rax,1)
  409dbe:	00 00                	add    %al,(%rax)
  409dc0:	dd 02                	fldl   (%rdx)
  409dc2:	00 00                	add    %al,(%rax)
  409dc4:	00 00                	add    %al,(%rax)
  409dc6:	00 00                	add    %al,(%rax)
  409dc8:	08 03                	or     %al,(%rbx)
  409dca:	00 00                	add    %al,(%rax)
  409dcc:	00 00                	add    %al,(%rax)
  409dce:	00 00                	add    %al,(%rax)
  409dd0:	36 03 00             	ss add (%rax),%eax
  409dd3:	00 00                	add    %al,(%rax)
  409dd5:	00 00                	add    %al,(%rax)
  409dd7:	00 60 03             	add    %ah,0x3(%rax)
  409dda:	00 00                	add    %al,(%rax)
  409ddc:	00 00                	add    %al,(%rax)
  409dde:	00 00                	add    %al,(%rax)
  409de0:	8d 03                	lea    (%rbx),%eax
  409de2:	00 00                	add    %al,(%rax)
  409de4:	00 00                	add    %al,(%rax)
  409de6:	00 00                	add    %al,(%rax)
  409de8:	bb 03 00 00 00       	mov    $0x3,%ebx
  409ded:	00 00                	add    %al,(%rax)
  409def:	00 b2 02 00 00 00    	add    %dh,0x2(%rdx)
  409df5:	00 00                	add    %al,(%rax)
  409df7:	00 88 02 00 00 00    	add    %cl,0x2(%rax)
  409dfd:	00 00                	add    %al,(%rax)
  409dff:	00 d9                	add    %bl,%cl
  409e01:	02 00                	add    (%rax),%al
  409e03:	00 00                	add    %al,(%rax)
  409e05:	00 00                	add    %al,(%rax)
  409e07:	00 04 03             	add    %al,(%rbx,%rax,1)
  409e0a:	00 00                	add    %al,(%rax)
  409e0c:	00 00                	add    %al,(%rax)
  409e0e:	00 00                	add    %al,(%rax)
  409e10:	32 03                	xor    (%rbx),%al
  409e12:	00 00                	add    %al,(%rax)
  409e14:	00 00                	add    %al,(%rax)
  409e16:	00 00                	add    %al,(%rax)
  409e18:	5c                   	pop    %rsp
  409e19:	03 00                	add    (%rax),%eax
  409e1b:	00 00                	add    %al,(%rax)
  409e1d:	00 00                	add    %al,(%rax)
  409e1f:	00 89 03 00 00 00    	add    %cl,0x3(%rcx)
  409e25:	00 00                	add    %al,(%rax)
  409e27:	00 b7 03 00 00 00    	add    %dh,0x3(%rdi)
  409e2d:	00 00                	add    %al,(%rax)
  409e2f:	00 ae 02 00 00 00    	add    %ch,0x2(%rsi)
  409e35:	00 00                	add    %al,(%rax)
  409e37:	00 84 02 00 00 00 00 	add    %al,0x0(%rdx,%rax,1)
  409e3e:	00 00                	add    %al,(%rax)
  409e40:	d5 02 00 00          	{rex2 0x2} add %al,(%rax)
  409e44:	00 00                	add    %al,(%rax)
  409e46:	00 00                	add    %al,(%rax)
  409e48:	00 03                	add    %al,(%rbx)
  409e4a:	00 00                	add    %al,(%rax)
  409e4c:	00 00                	add    %al,(%rax)
  409e4e:	00 00                	add    %al,(%rax)
  409e50:	2e 03 00             	cs add (%rax),%eax
  409e53:	00 00                	add    %al,(%rax)
  409e55:	00 00                	add    %al,(%rax)
  409e57:	00 58 03             	add    %bl,0x3(%rax)
  409e5a:	00 00                	add    %al,(%rax)
  409e5c:	00 00                	add    %al,(%rax)
  409e5e:	00 00                	add    %al,(%rax)
  409e60:	85 03                	test   %eax,(%rbx)
  409e62:	00 00                	add    %al,(%rax)
  409e64:	00 00                	add    %al,(%rax)
  409e66:	00 00                	add    %al,(%rax)
  409e68:	b3 03                	mov    $0x3,%bl
  409e6a:	00 00                	add    %al,(%rax)
  409e6c:	00 00                	add    %al,(%rax)
  409e6e:	00 00                	add    %al,(%rax)
  409e70:	aa                   	stos   %al,%es:(%rdi)
  409e71:	02 00                	add    (%rax),%al
  409e73:	00 00                	add    %al,(%rax)
  409e75:	00 00                	add    %al,(%rax)
  409e77:	00 80 02 00 00 00    	add    %al,0x2(%rax)
  409e7d:	00 00                	add    %al,(%rax)
  409e7f:	00 d1                	add    %dl,%cl
  409e81:	02 00                	add    (%rax),%al
  409e83:	00 00                	add    %al,(%rax)
  409e85:	00 00                	add    %al,(%rax)
  409e87:	00 fc                	add    %bh,%ah
  409e89:	02 00                	add    (%rax),%al
  409e8b:	00 00                	add    %al,(%rax)
  409e8d:	00 00                	add    %al,(%rax)
  409e8f:	00 2a                	add    %ch,(%rdx)
  409e91:	03 00                	add    (%rax),%eax
  409e93:	00 00                	add    %al,(%rax)
  409e95:	00 00                	add    %al,(%rax)
  409e97:	00 54 03 00          	add    %dl,0x0(%rbx,%rax,1)
  409e9b:	00 00                	add    %al,(%rax)
  409e9d:	00 00                	add    %al,(%rax)
  409e9f:	00 81 03 00 00 00    	add    %al,0x3(%rcx)
  409ea5:	00 00                	add    %al,(%rax)
  409ea7:	00 af 03 00 00 00    	add    %ch,0x3(%rdi)
  409ead:	00 00                	add    %al,(%rax)
  409eaf:	00 48 89             	add    %cl,-0x77(%rax)
  409eb2:	57                   	push   %rdi
  409eb3:	b7 48                	mov    $0x48,%bh
  409eb5:	89 57 bf             	mov    %edx,-0x41(%rdi)
  409eb8:	48 89 57 c7          	mov    %rdx,-0x39(%rdi)
  409ebc:	48 89 57 cf          	mov    %rdx,-0x31(%rdi)
  409ec0:	48 89 57 d7          	mov    %rdx,-0x29(%rdi)
  409ec4:	48 89 57 df          	mov    %rdx,-0x21(%rdi)
  409ec8:	48 89 57 e7          	mov    %rdx,-0x19(%rdi)
  409ecc:	48 89 57 ef          	mov    %rdx,-0x11(%rdi)
  409ed0:	48 89 57 f7          	mov    %rdx,-0x9(%rdi)
  409ed4:	88 57 ff             	mov    %dl,-0x1(%rdi)
  409ed7:	c2 00 00             	ret    $0x0
  409eda:	48 89 57 b8          	mov    %rdx,-0x48(%rdi)
  409ede:	48 89 57 c0          	mov    %rdx,-0x40(%rdi)
  409ee2:	48 89 57 c8          	mov    %rdx,-0x38(%rdi)
  409ee6:	48 89 57 d0          	mov    %rdx,-0x30(%rdi)
  409eea:	48 89 57 d8          	mov    %rdx,-0x28(%rdi)
  409eee:	48 89 57 e0          	mov    %rdx,-0x20(%rdi)
  409ef2:	48 89 57 e8          	mov    %rdx,-0x18(%rdi)
  409ef6:	48 89 57 f0          	mov    %rdx,-0x10(%rdi)
  409efa:	48 89 57 f8          	mov    %rdx,-0x8(%rdi)
  409efe:	c2 00 00             	ret    $0x0
  409f01:	48 89 57 b6          	mov    %rdx,-0x4a(%rdi)
  409f05:	48 89 57 be          	mov    %rdx,-0x42(%rdi)
  409f09:	48 89 57 c6          	mov    %rdx,-0x3a(%rdi)
  409f0d:	48 89 57 ce          	mov    %rdx,-0x32(%rdi)
  409f11:	48 89 57 d6          	mov    %rdx,-0x2a(%rdi)
  409f15:	48 89 57 de          	mov    %rdx,-0x22(%rdi)
  409f19:	48 89 57 e6          	mov    %rdx,-0x1a(%rdi)
  409f1d:	48 89 57 ee          	mov    %rdx,-0x12(%rdi)
  409f21:	48 89 57 f6          	mov    %rdx,-0xa(%rdi)
  409f25:	66 89 57 fe          	mov    %dx,-0x2(%rdi)
  409f29:	c2 00 00             	ret    $0x0
  409f2c:	48 89 57 b5          	mov    %rdx,-0x4b(%rdi)
  409f30:	48 89 57 bd          	mov    %rdx,-0x43(%rdi)
  409f34:	48 89 57 c5          	mov    %rdx,-0x3b(%rdi)
  409f38:	48 89 57 cd          	mov    %rdx,-0x33(%rdi)
  409f3c:	48 89 57 d5          	mov    %rdx,-0x2b(%rdi)
  409f40:	48 89 57 dd          	mov    %rdx,-0x23(%rdi)
  409f44:	48 89 57 e5          	mov    %rdx,-0x1b(%rdi)
  409f48:	48 89 57 ed          	mov    %rdx,-0x13(%rdi)
  409f4c:	48 89 57 f5          	mov    %rdx,-0xb(%rdi)
  409f50:	66 89 57 fd          	mov    %dx,-0x3(%rdi)
  409f54:	88 57 ff             	mov    %dl,-0x1(%rdi)
  409f57:	c2 00 00             	ret    $0x0
  409f5a:	48 89 57 b4          	mov    %rdx,-0x4c(%rdi)
  409f5e:	48 89 57 bc          	mov    %rdx,-0x44(%rdi)
  409f62:	48 89 57 c4          	mov    %rdx,-0x3c(%rdi)
  409f66:	48 89 57 cc          	mov    %rdx,-0x34(%rdi)
  409f6a:	48 89 57 d4          	mov    %rdx,-0x2c(%rdi)
  409f6e:	48 89 57 dc          	mov    %rdx,-0x24(%rdi)
  409f72:	48 89 57 e4          	mov    %rdx,-0x1c(%rdi)
  409f76:	48 89 57 ec          	mov    %rdx,-0x14(%rdi)
  409f7a:	48 89 57 f4          	mov    %rdx,-0xc(%rdi)
  409f7e:	89 57 fc             	mov    %edx,-0x4(%rdi)
  409f81:	c2 00 00             	ret    $0x0
  409f84:	48 89 57 b3          	mov    %rdx,-0x4d(%rdi)
  409f88:	48 89 57 bb          	mov    %rdx,-0x45(%rdi)
  409f8c:	48 89 57 c3          	mov    %rdx,-0x3d(%rdi)
  409f90:	48 89 57 cb          	mov    %rdx,-0x35(%rdi)
  409f94:	48 89 57 d3          	mov    %rdx,-0x2d(%rdi)
  409f98:	48 89 57 db          	mov    %rdx,-0x25(%rdi)
  409f9c:	48 89 57 e3          	mov    %rdx,-0x1d(%rdi)
  409fa0:	48 89 57 eb          	mov    %rdx,-0x15(%rdi)
  409fa4:	48 89 57 f3          	mov    %rdx,-0xd(%rdi)
  409fa8:	89 57 fb             	mov    %edx,-0x5(%rdi)
  409fab:	88 57 ff             	mov    %dl,-0x1(%rdi)
  409fae:	c2 00 00             	ret    $0x0
  409fb1:	48 89 57 b2          	mov    %rdx,-0x4e(%rdi)
  409fb5:	48 89 57 ba          	mov    %rdx,-0x46(%rdi)
  409fb9:	48 89 57 c2          	mov    %rdx,-0x3e(%rdi)
  409fbd:	48 89 57 ca          	mov    %rdx,-0x36(%rdi)
  409fc1:	48 89 57 d2          	mov    %rdx,-0x2e(%rdi)
  409fc5:	48 89 57 da          	mov    %rdx,-0x26(%rdi)
  409fc9:	48 89 57 e2          	mov    %rdx,-0x1e(%rdi)
  409fcd:	48 89 57 ea          	mov    %rdx,-0x16(%rdi)
  409fd1:	48 89 57 f2          	mov    %rdx,-0xe(%rdi)
  409fd5:	89 57 fa             	mov    %edx,-0x6(%rdi)
  409fd8:	66 89 57 fe          	mov    %dx,-0x2(%rdi)
  409fdc:	c2 00 00             	ret    $0x0
  409fdf:	48 89 57 b1          	mov    %rdx,-0x4f(%rdi)
  409fe3:	48 89 57 b9          	mov    %rdx,-0x47(%rdi)
  409fe7:	48 89 57 c1          	mov    %rdx,-0x3f(%rdi)
  409feb:	48 89 57 c9          	mov    %rdx,-0x37(%rdi)
  409fef:	48 89 57 d1          	mov    %rdx,-0x2f(%rdi)
  409ff3:	48 89 57 d9          	mov    %rdx,-0x27(%rdi)
  409ff7:	48 89 57 e1          	mov    %rdx,-0x1f(%rdi)
  409ffb:	48 89 57 e9          	mov    %rdx,-0x17(%rdi)
  409fff:	48 89 57 f1          	mov    %rdx,-0xf(%rdi)
  40a003:	89 57 f9             	mov    %edx,-0x7(%rdi)
  40a006:	66 89 57 fd          	mov    %dx,-0x3(%rdi)
  40a00a:	88 57 ff             	mov    %dl,-0x1(%rdi)
  40a00d:	c2 00 00             	ret    $0x0
  40a010:	83 3d 99 88 00 00 02 	cmpl   $0x2,0x8899(%rip)        # 4128b0 <__libirc_mem_ops_method>
  40a017:	0f 8c e3 06 00 00    	jl     40a700 <__intel_memset+0xb20>
  40a01d:	66 48 0f 6e c2       	movq   %rdx,%xmm0
  40a022:	4c 8d 1d 37 00 00 00 	lea    0x37(%rip),%r11        # 40a060 <__intel_memset+0x480>
  40a029:	66 0f 6c c0          	punpcklqdq %xmm0,%xmm0
  40a02d:	49 c7 c2 10 00 00 00 	mov    $0x10,%r10
  40a034:	49 89 f9             	mov    %rdi,%r9
  40a037:	49 83 e1 0f          	and    $0xf,%r9
  40a03b:	4d 29 ca             	sub    %r9,%r10
  40a03e:	49 83 e2 0f          	and    $0xf,%r10
  40a042:	4c 01 d7             	add    %r10,%rdi
  40a045:	4d 29 d0             	sub    %r10,%r8
  40a048:	4b 8b 0c d3          	mov    (%r11,%r10,8),%rcx
  40a04c:	4e 8d 1c 19          	lea    (%rcx,%r11,1),%r11
  40a050:	3e 41 ff e3          	notrack jmp *%r11
  40a054:	66 2e 0f 1f 84 00 00 	cs nopw 0x0(%rax,%rax,1)
  40a05b:	00 00 00 
  40a05e:	66 90                	xchg   %ax,%ax
  40a060:	92                   	xchg   %eax,%edx
  40a061:	00 00                	add    %al,(%rax)
  40a063:	00 00                	add    %al,(%rax)
  40a065:	00 00                	add    %al,(%rax)
  40a067:	00 9d 00 00 00 00    	add    %bl,0x0(%rbp)
  40a06d:	00 00                	add    %al,(%rax)
  40a06f:	00 b2 00 00 00 00    	add    %dh,0x0(%rdx)
  40a075:	00 00                	add    %al,(%rax)
  40a077:	00 af 00 00 00 00    	add    %ch,0x0(%rdi)
  40a07d:	00 00                	add    %al,(%rax)
  40a07f:	00 bb 00 00 00 00    	add    %bh,0x0(%rbx)
  40a085:	00 00                	add    %al,(%rax)
  40a087:	00 b8 00 00 00 00    	add    %bh,0x0(%rax)
  40a08d:	00 00                	add    %al,(%rax)
  40a08f:	00 d3                	add    %dl,%bl
  40a091:	00 00                	add    %al,(%rax)
  40a093:	00 00                	add    %al,(%rax)
  40a095:	00 00                	add    %al,(%rax)
  40a097:	00 d0                	add    %dl,%al
  40a099:	00 00                	add    %al,(%rax)
  40a09b:	00 00                	add    %al,(%rax)
  40a09d:	00 00                	add    %al,(%rax)
  40a09f:	00 8e 00 00 00 00    	add    %cl,0x0(%rsi)
  40a0a5:	00 00                	add    %al,(%rax)
  40a0a7:	00 94 00 00 00 00 00 	add    %dl,0x0(%rax,%rax,1)
  40a0ae:	00 00                	add    %al,(%rax)
  40a0b0:	a5                   	movsl  %ds:(%rsi),%es:(%rdi)
  40a0b1:	00 00                	add    %al,(%rax)
  40a0b3:	00 00                	add    %al,(%rax)
  40a0b5:	00 00                	add    %al,(%rax)
  40a0b7:	00 a2 00 00 00 00    	add    %ah,0x0(%rdx)
  40a0bd:	00 00                	add    %al,(%rax)
  40a0bf:	00 8b 00 00 00 00    	add    %cl,0x0(%rbx)
  40a0c5:	00 00                	add    %al,(%rax)
  40a0c7:	00 88 00 00 00 00    	add    %cl,0x0(%rax)
  40a0cd:	00 00                	add    %al,(%rax)
  40a0cf:	00 c3                	add    %al,%bl
  40a0d1:	00 00                	add    %al,(%rax)
  40a0d3:	00 00                	add    %al,(%rax)
  40a0d5:	00 00                	add    %al,(%rax)
  40a0d7:	00 c0                	add    %al,%al
  40a0d9:	00 00                	add    %al,(%rax)
  40a0db:	00 00                	add    %al,(%rax)
  40a0dd:	00 00                	add    %al,(%rax)
  40a0df:	00 92 00 00 00 00    	add    %dl,0x0(%rdx)
  40a0e5:	00 00                	add    %al,(%rax)
  40a0e7:	00 88 57 f3 89 57    	add    %cl,0x5789f357(%rax)
  40a0ed:	f4                   	hlt
  40a0ee:	48 89 57 f8          	mov    %rdx,-0x8(%rdi)
  40a0f2:	eb 48                	jmp    40a13c <__intel_memset+0x55c>
  40a0f4:	88 57 f7             	mov    %dl,-0x9(%rdi)
  40a0f7:	48 89 57 f8          	mov    %rdx,-0x8(%rdi)
  40a0fb:	eb 3f                	jmp    40a13c <__intel_memset+0x55c>
  40a0fd:	88 57 ff             	mov    %dl,-0x1(%rdi)
  40a100:	eb 3a                	jmp    40a13c <__intel_memset+0x55c>
  40a102:	88 57 f5             	mov    %dl,-0xb(%rdi)
  40a105:	66 89 57 f6          	mov    %dx,-0xa(%rdi)
  40a109:	48 89 57 f8          	mov    %rdx,-0x8(%rdi)
  40a10d:	eb 2d                	jmp    40a13c <__intel_memset+0x55c>
  40a10f:	88 57 fd             	mov    %dl,-0x3(%rdi)
  40a112:	66 89 57 fe          	mov    %dx,-0x2(%rdi)
  40a116:	eb 24                	jmp    40a13c <__intel_memset+0x55c>
  40a118:	88 57 fb             	mov    %dl,-0x5(%rdi)
  40a11b:	89 57 fc             	mov    %edx,-0x4(%rdi)
  40a11e:	eb 1c                	jmp    40a13c <__intel_memset+0x55c>
  40a120:	88 57 f1             	mov    %dl,-0xf(%rdi)
  40a123:	66 89 57 f2          	mov    %dx,-0xe(%rdi)
  40a127:	89 57 f4             	mov    %edx,-0xc(%rdi)
  40a12a:	48 89 57 f8          	mov    %rdx,-0x8(%rdi)
  40a12e:	eb 0c                	jmp    40a13c <__intel_memset+0x55c>
  40a130:	88 57 f9             	mov    %dl,-0x7(%rdi)
  40a133:	66 89 57 fa          	mov    %dx,-0x6(%rdi)
  40a137:	89 57 fc             	mov    %edx,-0x4(%rdi)
  40a13a:	eb 00                	jmp    40a13c <__intel_memset+0x55c>
  40a13c:	4c 8d 0d 7d 06 00 00 	lea    0x67d(%rip),%r9        # 40a7c0 <__intel_memset+0xbe0>
  40a143:	49 81 f8 b0 00 00 00 	cmp    $0xb0,%r8
  40a14a:	0f 8d d9 04 00 00    	jge    40a629 <__intel_memset+0xa49>
  40a150:	4c 01 c7             	add    %r8,%rdi
  40a153:	4b 8b 0c c1          	mov    (%r9,%r8,8),%rcx
  40a157:	4e 8d 0c 09          	lea    (%rcx,%r9,1),%r9
  40a15b:	3e 41 ff e1          	notrack jmp *%r9
  40a15f:	90                   	nop
  40a160:	66 0f 7f 87 50 ff ff 	movdqa %xmm0,-0xb0(%rdi)
  40a167:	ff 
  40a168:	66 0f 7f 87 60 ff ff 	movdqa %xmm0,-0xa0(%rdi)
  40a16f:	ff 
  40a170:	66 0f 7f 87 70 ff ff 	movdqa %xmm0,-0x90(%rdi)
  40a177:	ff 
  40a178:	66 0f 7f 47 80       	movdqa %xmm0,-0x80(%rdi)
  40a17d:	66 0f 7f 47 90       	movdqa %xmm0,-0x70(%rdi)
  40a182:	66 0f 7f 47 a0       	movdqa %xmm0,-0x60(%rdi)
  40a187:	66 0f 7f 47 b0       	movdqa %xmm0,-0x50(%rdi)
  40a18c:	66 0f 7f 47 c0       	movdqa %xmm0,-0x40(%rdi)
  40a191:	66 0f 7f 47 d0       	movdqa %xmm0,-0x30(%rdi)
  40a196:	66 0f 7f 47 e0       	movdqa %xmm0,-0x20(%rdi)
  40a19b:	66 0f 7f 47 f0       	movdqa %xmm0,-0x10(%rdi)
  40a1a0:	c3                   	ret
  40a1a1:	66 0f 7f 87 4f ff ff 	movdqa %xmm0,-0xb1(%rdi)
  40a1a8:	ff 
  40a1a9:	66 0f 7f 87 5f ff ff 	movdqa %xmm0,-0xa1(%rdi)
  40a1b0:	ff 
  40a1b1:	66 0f 7f 87 6f ff ff 	movdqa %xmm0,-0x91(%rdi)
  40a1b8:	ff 
  40a1b9:	66 0f 7f 87 7f ff ff 	movdqa %xmm0,-0x81(%rdi)
  40a1c0:	ff 
  40a1c1:	66 0f 7f 47 8f       	movdqa %xmm0,-0x71(%rdi)
  40a1c6:	66 0f 7f 47 9f       	movdqa %xmm0,-0x61(%rdi)
  40a1cb:	66 0f 7f 47 af       	movdqa %xmm0,-0x51(%rdi)
  40a1d0:	66 0f 7f 47 bf       	movdqa %xmm0,-0x41(%rdi)
  40a1d5:	66 0f 7f 47 cf       	movdqa %xmm0,-0x31(%rdi)
  40a1da:	66 0f 7f 47 df       	movdqa %xmm0,-0x21(%rdi)
  40a1df:	66 0f 7f 47 ef       	movdqa %xmm0,-0x11(%rdi)
  40a1e4:	88 57 ff             	mov    %dl,-0x1(%rdi)
  40a1e7:	c3                   	ret
  40a1e8:	66 0f 7f 87 4e ff ff 	movdqa %xmm0,-0xb2(%rdi)
  40a1ef:	ff 
  40a1f0:	66 0f 7f 87 5e ff ff 	movdqa %xmm0,-0xa2(%rdi)
  40a1f7:	ff 
  40a1f8:	66 0f 7f 87 6e ff ff 	movdqa %xmm0,-0x92(%rdi)
  40a1ff:	ff 
  40a200:	66 0f 7f 87 7e ff ff 	movdqa %xmm0,-0x82(%rdi)
  40a207:	ff 
  40a208:	66 0f 7f 47 8e       	movdqa %xmm0,-0x72(%rdi)
  40a20d:	66 0f 7f 47 9e       	movdqa %xmm0,-0x62(%rdi)
  40a212:	66 0f 7f 47 ae       	movdqa %xmm0,-0x52(%rdi)
  40a217:	66 0f 7f 47 be       	movdqa %xmm0,-0x42(%rdi)
  40a21c:	66 0f 7f 47 ce       	movdqa %xmm0,-0x32(%rdi)
  40a221:	66 0f 7f 47 de       	movdqa %xmm0,-0x22(%rdi)
  40a226:	66 0f 7f 47 ee       	movdqa %xmm0,-0x12(%rdi)
  40a22b:	66 89 57 fe          	mov    %dx,-0x2(%rdi)
  40a22f:	c2 00 00             	ret    $0x0
  40a232:	66 0f 7f 87 4d ff ff 	movdqa %xmm0,-0xb3(%rdi)
  40a239:	ff 
  40a23a:	66 0f 7f 87 5d ff ff 	movdqa %xmm0,-0xa3(%rdi)
  40a241:	ff 
  40a242:	66 0f 7f 87 6d ff ff 	movdqa %xmm0,-0x93(%rdi)
  40a249:	ff 
  40a24a:	66 0f 7f 87 7d ff ff 	movdqa %xmm0,-0x83(%rdi)
  40a251:	ff 
  40a252:	66 0f 7f 47 8d       	movdqa %xmm0,-0x73(%rdi)
  40a257:	66 0f 7f 47 9d       	movdqa %xmm0,-0x63(%rdi)
  40a25c:	66 0f 7f 47 ad       	movdqa %xmm0,-0x53(%rdi)
  40a261:	66 0f 7f 47 bd       	movdqa %xmm0,-0x43(%rdi)
  40a266:	66 0f 7f 47 cd       	movdqa %xmm0,-0x33(%rdi)
  40a26b:	66 0f 7f 47 dd       	movdqa %xmm0,-0x23(%rdi)
  40a270:	66 0f 7f 47 ed       	movdqa %xmm0,-0x13(%rdi)
  40a275:	66 89 57 fd          	mov    %dx,-0x3(%rdi)
  40a279:	88 57 ff             	mov    %dl,-0x1(%rdi)
  40a27c:	c2 00 00             	ret    $0x0
  40a27f:	66 0f 7f 87 4c ff ff 	movdqa %xmm0,-0xb4(%rdi)
  40a286:	ff 
  40a287:	66 0f 7f 87 5c ff ff 	movdqa %xmm0,-0xa4(%rdi)
  40a28e:	ff 
  40a28f:	66 0f 7f 87 6c ff ff 	movdqa %xmm0,-0x94(%rdi)
  40a296:	ff 
  40a297:	66 0f 7f 87 7c ff ff 	movdqa %xmm0,-0x84(%rdi)
  40a29e:	ff 
  40a29f:	66 0f 7f 47 8c       	movdqa %xmm0,-0x74(%rdi)
  40a2a4:	66 0f 7f 47 9c       	movdqa %xmm0,-0x64(%rdi)
  40a2a9:	66 0f 7f 47 ac       	movdqa %xmm0,-0x54(%rdi)
  40a2ae:	66 0f 7f 47 bc       	movdqa %xmm0,-0x44(%rdi)
  40a2b3:	66 0f 7f 47 cc       	movdqa %xmm0,-0x34(%rdi)
  40a2b8:	66 0f 7f 47 dc       	movdqa %xmm0,-0x24(%rdi)
  40a2bd:	66 0f 7f 47 ec       	movdqa %xmm0,-0x14(%rdi)
  40a2c2:	89 57 fc             	mov    %edx,-0x4(%rdi)
  40a2c5:	c2 00 00             	ret    $0x0
  40a2c8:	66 0f 7f 87 4b ff ff 	movdqa %xmm0,-0xb5(%rdi)
  40a2cf:	ff 
  40a2d0:	66 0f 7f 87 5b ff ff 	movdqa %xmm0,-0xa5(%rdi)
  40a2d7:	ff 
  40a2d8:	66 0f 7f 87 6b ff ff 	movdqa %xmm0,-0x95(%rdi)
  40a2df:	ff 
  40a2e0:	66 0f 7f 87 7b ff ff 	movdqa %xmm0,-0x85(%rdi)
  40a2e7:	ff 
  40a2e8:	66 0f 7f 47 8b       	movdqa %xmm0,-0x75(%rdi)
  40a2ed:	66 0f 7f 47 9b       	movdqa %xmm0,-0x65(%rdi)
  40a2f2:	66 0f 7f 47 ab       	movdqa %xmm0,-0x55(%rdi)
  40a2f7:	66 0f 7f 47 bb       	movdqa %xmm0,-0x45(%rdi)
  40a2fc:	66 0f 7f 47 cb       	movdqa %xmm0,-0x35(%rdi)
  40a301:	66 0f 7f 47 db       	movdqa %xmm0,-0x25(%rdi)
  40a306:	66 0f 7f 47 eb       	movdqa %xmm0,-0x15(%rdi)
  40a30b:	89 57 fb             	mov    %edx,-0x5(%rdi)
  40a30e:	88 57 ff             	mov    %dl,-0x1(%rdi)
  40a311:	c2 00 00             	ret    $0x0
  40a314:	66 0f 7f 87 4a ff ff 	movdqa %xmm0,-0xb6(%rdi)
  40a31b:	ff 
  40a31c:	66 0f 7f 87 5a ff ff 	movdqa %xmm0,-0xa6(%rdi)
  40a323:	ff 
  40a324:	66 0f 7f 87 6a ff ff 	movdqa %xmm0,-0x96(%rdi)
  40a32b:	ff 
  40a32c:	66 0f 7f 87 7a ff ff 	movdqa %xmm0,-0x86(%rdi)
  40a333:	ff 
  40a334:	66 0f 7f 47 8a       	movdqa %xmm0,-0x76(%rdi)
  40a339:	66 0f 7f 47 9a       	movdqa %xmm0,-0x66(%rdi)
  40a33e:	66 0f 7f 47 aa       	movdqa %xmm0,-0x56(%rdi)
  40a343:	66 0f 7f 47 ba       	movdqa %xmm0,-0x46(%rdi)
  40a348:	66 0f 7f 47 ca       	movdqa %xmm0,-0x36(%rdi)
  40a34d:	66 0f 7f 47 da       	movdqa %xmm0,-0x26(%rdi)
  40a352:	66 0f 7f 47 ea       	movdqa %xmm0,-0x16(%rdi)
  40a357:	89 57 fa             	mov    %edx,-0x6(%rdi)
  40a35a:	66 89 57 fe          	mov    %dx,-0x2(%rdi)
  40a35e:	c2 00 00             	ret    $0x0
  40a361:	66 0f 7f 87 49 ff ff 	movdqa %xmm0,-0xb7(%rdi)
  40a368:	ff 
  40a369:	66 0f 7f 87 59 ff ff 	movdqa %xmm0,-0xa7(%rdi)
  40a370:	ff 
  40a371:	66 0f 7f 87 69 ff ff 	movdqa %xmm0,-0x97(%rdi)
  40a378:	ff 
  40a379:	66 0f 7f 87 79 ff ff 	movdqa %xmm0,-0x87(%rdi)
  40a380:	ff 
  40a381:	66 0f 7f 47 89       	movdqa %xmm0,-0x77(%rdi)
  40a386:	66 0f 7f 47 99       	movdqa %xmm0,-0x67(%rdi)
  40a38b:	66 0f 7f 47 a9       	movdqa %xmm0,-0x57(%rdi)
  40a390:	66 0f 7f 47 b9       	movdqa %xmm0,-0x47(%rdi)
  40a395:	66 0f 7f 47 c9       	movdqa %xmm0,-0x37(%rdi)
  40a39a:	66 0f 7f 47 d9       	movdqa %xmm0,-0x27(%rdi)
  40a39f:	66 0f 7f 47 e9       	movdqa %xmm0,-0x17(%rdi)
  40a3a4:	89 57 f9             	mov    %edx,-0x7(%rdi)
  40a3a7:	66 89 57 fd          	mov    %dx,-0x3(%rdi)
  40a3ab:	88 57 ff             	mov    %dl,-0x1(%rdi)
  40a3ae:	c2 00 00             	ret    $0x0
  40a3b1:	66 0f 7f 87 48 ff ff 	movdqa %xmm0,-0xb8(%rdi)
  40a3b8:	ff 
  40a3b9:	66 0f 7f 87 58 ff ff 	movdqa %xmm0,-0xa8(%rdi)
  40a3c0:	ff 
  40a3c1:	66 0f 7f 87 68 ff ff 	movdqa %xmm0,-0x98(%rdi)
  40a3c8:	ff 
  40a3c9:	66 0f 7f 87 78 ff ff 	movdqa %xmm0,-0x88(%rdi)
  40a3d0:	ff 
  40a3d1:	66 0f 7f 47 88       	movdqa %xmm0,-0x78(%rdi)
  40a3d6:	66 0f 7f 47 98       	movdqa %xmm0,-0x68(%rdi)
  40a3db:	66 0f 7f 47 a8       	movdqa %xmm0,-0x58(%rdi)
  40a3e0:	66 0f 7f 47 b8       	movdqa %xmm0,-0x48(%rdi)
  40a3e5:	66 0f 7f 47 c8       	movdqa %xmm0,-0x38(%rdi)
  40a3ea:	66 0f 7f 47 d8       	movdqa %xmm0,-0x28(%rdi)
  40a3ef:	66 0f 7f 47 e8       	movdqa %xmm0,-0x18(%rdi)
  40a3f4:	48 89 57 f8          	mov    %rdx,-0x8(%rdi)
  40a3f8:	c2 00 00             	ret    $0x0
  40a3fb:	66 0f 7f 87 47 ff ff 	movdqa %xmm0,-0xb9(%rdi)
  40a402:	ff 
  40a403:	66 0f 7f 87 57 ff ff 	movdqa %xmm0,-0xa9(%rdi)
  40a40a:	ff 
  40a40b:	66 0f 7f 87 67 ff ff 	movdqa %xmm0,-0x99(%rdi)
  40a412:	ff 
  40a413:	66 0f 7f 87 77 ff ff 	movdqa %xmm0,-0x89(%rdi)
  40a41a:	ff 
  40a41b:	66 0f 7f 47 87       	movdqa %xmm0,-0x79(%rdi)
  40a420:	66 0f 7f 47 97       	movdqa %xmm0,-0x69(%rdi)
  40a425:	66 0f 7f 47 a7       	movdqa %xmm0,-0x59(%rdi)
  40a42a:	66 0f 7f 47 b7       	movdqa %xmm0,-0x49(%rdi)
  40a42f:	66 0f 7f 47 c7       	movdqa %xmm0,-0x39(%rdi)
  40a434:	66 0f 7f 47 d7       	movdqa %xmm0,-0x29(%rdi)
  40a439:	66 0f 7f 47 e7       	movdqa %xmm0,-0x19(%rdi)
  40a43e:	48 89 57 f7          	mov    %rdx,-0x9(%rdi)
  40a442:	88 57 ff             	mov    %dl,-0x1(%rdi)
  40a445:	c2 00 00             	ret    $0x0
  40a448:	66 0f 7f 87 46 ff ff 	movdqa %xmm0,-0xba(%rdi)
  40a44f:	ff 
  40a450:	66 0f 7f 87 56 ff ff 	movdqa %xmm0,-0xaa(%rdi)
  40a457:	ff 
  40a458:	66 0f 7f 87 66 ff ff 	movdqa %xmm0,-0x9a(%rdi)
  40a45f:	ff 
  40a460:	66 0f 7f 87 76 ff ff 	movdqa %xmm0,-0x8a(%rdi)
  40a467:	ff 
  40a468:	66 0f 7f 47 86       	movdqa %xmm0,-0x7a(%rdi)
  40a46d:	66 0f 7f 47 96       	movdqa %xmm0,-0x6a(%rdi)
  40a472:	66 0f 7f 47 a6       	movdqa %xmm0,-0x5a(%rdi)
  40a477:	66 0f 7f 47 b6       	movdqa %xmm0,-0x4a(%rdi)
  40a47c:	66 0f 7f 47 c6       	movdqa %xmm0,-0x3a(%rdi)
  40a481:	66 0f 7f 47 d6       	movdqa %xmm0,-0x2a(%rdi)
  40a486:	66 0f 7f 47 e6       	movdqa %xmm0,-0x1a(%rdi)
  40a48b:	48 89 57 f6          	mov    %rdx,-0xa(%rdi)
  40a48f:	66 89 57 fe          	mov    %dx,-0x2(%rdi)
  40a493:	c2 00 00             	ret    $0x0
  40a496:	66 0f 7f 87 45 ff ff 	movdqa %xmm0,-0xbb(%rdi)
  40a49d:	ff 
  40a49e:	66 0f 7f 87 55 ff ff 	movdqa %xmm0,-0xab(%rdi)
  40a4a5:	ff 
  40a4a6:	66 0f 7f 87 65 ff ff 	movdqa %xmm0,-0x9b(%rdi)
  40a4ad:	ff 
  40a4ae:	66 0f 7f 87 75 ff ff 	movdqa %xmm0,-0x8b(%rdi)
  40a4b5:	ff 
  40a4b6:	66 0f 7f 47 85       	movdqa %xmm0,-0x7b(%rdi)
  40a4bb:	66 0f 7f 47 95       	movdqa %xmm0,-0x6b(%rdi)
  40a4c0:	66 0f 7f 47 a5       	movdqa %xmm0,-0x5b(%rdi)
  40a4c5:	66 0f 7f 47 b5       	movdqa %xmm0,-0x4b(%rdi)
  40a4ca:	66 0f 7f 47 c5       	movdqa %xmm0,-0x3b(%rdi)
  40a4cf:	66 0f 7f 47 d5       	movdqa %xmm0,-0x2b(%rdi)
  40a4d4:	66 0f 7f 47 e5       	movdqa %xmm0,-0x1b(%rdi)
  40a4d9:	48 89 57 f5          	mov    %rdx,-0xb(%rdi)
  40a4dd:	66 89 57 fd          	mov    %dx,-0x3(%rdi)
  40a4e1:	88 57 ff             	mov    %dl,-0x1(%rdi)
  40a4e4:	c2 00 00             	ret    $0x0
  40a4e7:	66 0f 7f 87 44 ff ff 	movdqa %xmm0,-0xbc(%rdi)
  40a4ee:	ff 
  40a4ef:	66 0f 7f 87 54 ff ff 	movdqa %xmm0,-0xac(%rdi)
  40a4f6:	ff 
  40a4f7:	66 0f 7f 87 64 ff ff 	movdqa %xmm0,-0x9c(%rdi)
  40a4fe:	ff 
  40a4ff:	66 0f 7f 87 74 ff ff 	movdqa %xmm0,-0x8c(%rdi)
  40a506:	ff 
  40a507:	66 0f 7f 47 84       	movdqa %xmm0,-0x7c(%rdi)
  40a50c:	66 0f 7f 47 94       	movdqa %xmm0,-0x6c(%rdi)
  40a511:	66 0f 7f 47 a4       	movdqa %xmm0,-0x5c(%rdi)
  40a516:	66 0f 7f 47 b4       	movdqa %xmm0,-0x4c(%rdi)
  40a51b:	66 0f 7f 47 c4       	movdqa %xmm0,-0x3c(%rdi)
  40a520:	66 0f 7f 47 d4       	movdqa %xmm0,-0x2c(%rdi)
  40a525:	66 0f 7f 47 e4       	movdqa %xmm0,-0x1c(%rdi)
  40a52a:	48 89 57 f4          	mov    %rdx,-0xc(%rdi)
  40a52e:	89 57 fc             	mov    %edx,-0x4(%rdi)
  40a531:	c2 00 00             	ret    $0x0
  40a534:	66 0f 7f 87 43 ff ff 	movdqa %xmm0,-0xbd(%rdi)
  40a53b:	ff 
  40a53c:	66 0f 7f 87 53 ff ff 	movdqa %xmm0,-0xad(%rdi)
  40a543:	ff 
  40a544:	66 0f 7f 87 63 ff ff 	movdqa %xmm0,-0x9d(%rdi)
  40a54b:	ff 
  40a54c:	66 0f 7f 87 73 ff ff 	movdqa %xmm0,-0x8d(%rdi)
  40a553:	ff 
  40a554:	66 0f 7f 47 83       	movdqa %xmm0,-0x7d(%rdi)
  40a559:	66 0f 7f 47 93       	movdqa %xmm0,-0x6d(%rdi)
  40a55e:	66 0f 7f 47 a3       	movdqa %xmm0,-0x5d(%rdi)
  40a563:	66 0f 7f 47 b3       	movdqa %xmm0,-0x4d(%rdi)
  40a568:	66 0f 7f 47 c3       	movdqa %xmm0,-0x3d(%rdi)
  40a56d:	66 0f 7f 47 d3       	movdqa %xmm0,-0x2d(%rdi)
  40a572:	66 0f 7f 47 e3       	movdqa %xmm0,-0x1d(%rdi)
  40a577:	48 89 57 f3          	mov    %rdx,-0xd(%rdi)
  40a57b:	89 57 fb             	mov    %edx,-0x5(%rdi)
  40a57e:	88 57 ff             	mov    %dl,-0x1(%rdi)
  40a581:	c2 00 00             	ret    $0x0
  40a584:	66 0f 7f 87 42 ff ff 	movdqa %xmm0,-0xbe(%rdi)
  40a58b:	ff 
  40a58c:	66 0f 7f 87 52 ff ff 	movdqa %xmm0,-0xae(%rdi)
  40a593:	ff 
  40a594:	66 0f 7f 87 62 ff ff 	movdqa %xmm0,-0x9e(%rdi)
  40a59b:	ff 
  40a59c:	66 0f 7f 87 72 ff ff 	movdqa %xmm0,-0x8e(%rdi)
  40a5a3:	ff 
  40a5a4:	66 0f 7f 47 82       	movdqa %xmm0,-0x7e(%rdi)
  40a5a9:	66 0f 7f 47 92       	movdqa %xmm0,-0x6e(%rdi)
  40a5ae:	66 0f 7f 47 a2       	movdqa %xmm0,-0x5e(%rdi)
  40a5b3:	66 0f 7f 47 b2       	movdqa %xmm0,-0x4e(%rdi)
  40a5b8:	66 0f 7f 47 c2       	movdqa %xmm0,-0x3e(%rdi)
  40a5bd:	66 0f 7f 47 d2       	movdqa %xmm0,-0x2e(%rdi)
  40a5c2:	66 0f 7f 47 e2       	movdqa %xmm0,-0x1e(%rdi)
  40a5c7:	48 89 57 f2          	mov    %rdx,-0xe(%rdi)
  40a5cb:	89 57 fa             	mov    %edx,-0x6(%rdi)
  40a5ce:	66 89 57 fe          	mov    %dx,-0x2(%rdi)
  40a5d2:	c2 00 00             	ret    $0x0
  40a5d5:	66 0f 7f 87 41 ff ff 	movdqa %xmm0,-0xbf(%rdi)
  40a5dc:	ff 
  40a5dd:	66 0f 7f 87 51 ff ff 	movdqa %xmm0,-0xaf(%rdi)
  40a5e4:	ff 
  40a5e5:	66 0f 7f 87 61 ff ff 	movdqa %xmm0,-0x9f(%rdi)
  40a5ec:	ff 
  40a5ed:	66 0f 7f 87 71 ff ff 	movdqa %xmm0,-0x8f(%rdi)
  40a5f4:	ff 
  40a5f5:	66 0f 7f 47 81       	movdqa %xmm0,-0x7f(%rdi)
  40a5fa:	66 0f 7f 47 91       	movdqa %xmm0,-0x6f(%rdi)
  40a5ff:	66 0f 7f 47 a1       	movdqa %xmm0,-0x5f(%rdi)
  40a604:	66 0f 7f 47 b1       	movdqa %xmm0,-0x4f(%rdi)
  40a609:	66 0f 7f 47 c1       	movdqa %xmm0,-0x3f(%rdi)
  40a60e:	66 0f 7f 47 d1       	movdqa %xmm0,-0x2f(%rdi)
  40a613:	66 0f 7f 47 e1       	movdqa %xmm0,-0x1f(%rdi)
  40a618:	48 89 57 f1          	mov    %rdx,-0xf(%rdi)
  40a61c:	89 57 f9             	mov    %edx,-0x7(%rdi)
  40a61f:	66 89 57 fd          	mov    %dx,-0x3(%rdi)
  40a623:	88 57 ff             	mov    %dl,-0x1(%rdi)
  40a626:	c2 00 00             	ret    $0x0
  40a629:	4c 3b 05 80 7a 00 00 	cmp    0x7a80(%rip),%r8        # 4120b0 <__libirc_largest_cache_size>
  40a630:	7f 5f                	jg     40a691 <__intel_memset+0xab1>
  40a632:	eb 0c                	jmp    40a640 <__intel_memset+0xa60>
  40a634:	66 2e 0f 1f 84 00 00 	cs nopw 0x0(%rax,%rax,1)
  40a63b:	00 00 00 
  40a63e:	66 90                	xchg   %ax,%ax
  40a640:	4d 8d 40 80          	lea    -0x80(%r8),%r8
  40a644:	66 0f 7f 07          	movdqa %xmm0,(%rdi)
  40a648:	66 0f 7f 47 10       	movdqa %xmm0,0x10(%rdi)
  40a64d:	66 0f 7f 47 20       	movdqa %xmm0,0x20(%rdi)
  40a652:	66 0f 7f 47 30       	movdqa %xmm0,0x30(%rdi)
  40a657:	49 81 f8 80 00 00 00 	cmp    $0x80,%r8
  40a65e:	66 0f 7f 47 40       	movdqa %xmm0,0x40(%rdi)
  40a663:	66 0f 7f 47 50       	movdqa %xmm0,0x50(%rdi)
  40a668:	66 0f 7f 47 60       	movdqa %xmm0,0x60(%rdi)
  40a66d:	66 0f 7f 47 70       	movdqa %xmm0,0x70(%rdi)
  40a672:	48 8d bf 80 00 00 00 	lea    0x80(%rdi),%rdi
  40a679:	7d c5                	jge    40a640 <__intel_memset+0xa60>
  40a67b:	4c 8d 1d 3e 01 00 00 	lea    0x13e(%rip),%r11        # 40a7c0 <__intel_memset+0xbe0>
  40a682:	4c 01 c7             	add    %r8,%rdi
  40a685:	4b 8b 0c c3          	mov    (%r11,%r8,8),%rcx
  40a689:	4e 8d 1c 19          	lea    (%rcx,%r11,1),%r11
  40a68d:	3e 41 ff e3          	notrack jmp *%r11
  40a691:	49 83 f9 00          	cmp    $0x0,%r9
  40a695:	74 a9                	je     40a640 <__intel_memset+0xa60>
  40a697:	eb 07                	jmp    40a6a0 <__intel_memset+0xac0>
  40a699:	0f 1f 80 00 00 00 00 	nopl   0x0(%rax)
  40a6a0:	49 81 e8 80 00 00 00 	sub    $0x80,%r8
  40a6a7:	66 0f e7 07          	movntdq %xmm0,(%rdi)
  40a6ab:	66 0f e7 47 10       	movntdq %xmm0,0x10(%rdi)
  40a6b0:	66 0f e7 47 20       	movntdq %xmm0,0x20(%rdi)
  40a6b5:	66 0f e7 47 30       	movntdq %xmm0,0x30(%rdi)
  40a6ba:	66 0f e7 47 40       	movntdq %xmm0,0x40(%rdi)
  40a6bf:	66 0f e7 47 50       	movntdq %xmm0,0x50(%rdi)
  40a6c4:	66 0f e7 47 60       	movntdq %xmm0,0x60(%rdi)
  40a6c9:	66 0f e7 47 70       	movntdq %xmm0,0x70(%rdi)
  40a6ce:	48 81 c7 80 00 00 00 	add    $0x80,%rdi
  40a6d5:	49 81 f8 80 00 00 00 	cmp    $0x80,%r8
  40a6dc:	7d c2                	jge    40a6a0 <__intel_memset+0xac0>
  40a6de:	0f ae f8             	sfence
  40a6e1:	4c 8d 1d d8 00 00 00 	lea    0xd8(%rip),%r11        # 40a7c0 <__intel_memset+0xbe0>
  40a6e8:	4c 01 c7             	add    %r8,%rdi
  40a6eb:	4b 8b 0c c3          	mov    (%r11,%r8,8),%rcx
  40a6ef:	4e 8d 1c 19          	lea    (%rcx,%r11,1),%r11
  40a6f3:	3e 41 ff e3          	notrack jmp *%r11
  40a6f7:	66 0f 1f 84 00 00 00 	nopw   0x0(%rax,%rax,1)
  40a6fe:	00 00 
  40a700:	4c 3b 05 a9 79 00 00 	cmp    0x79a9(%rip),%r8        # 4120b0 <__libirc_largest_cache_size>
  40a707:	7f 57                	jg     40a760 <__intel_memset+0xb80>
  40a709:	eb 05                	jmp    40a710 <__intel_memset+0xb30>
  40a70b:	0f 1f 44 00 00       	nopl   0x0(%rax,%rax,1)
  40a710:	48 89 17             	mov    %rdx,(%rdi)
  40a713:	48 89 57 08          	mov    %rdx,0x8(%rdi)
  40a717:	4d 8d 40 c0          	lea    -0x40(%r8),%r8
  40a71b:	48 89 57 10          	mov    %rdx,0x10(%rdi)
  40a71f:	48 89 57 18          	mov    %rdx,0x18(%rdi)
  40a723:	49 83 f8 40          	cmp    $0x40,%r8
  40a727:	48 89 57 20          	mov    %rdx,0x20(%rdi)
  40a72b:	48 89 57 28          	mov    %rdx,0x28(%rdi)
  40a72f:	48 89 57 30          	mov    %rdx,0x30(%rdi)
  40a733:	48 89 57 38          	mov    %rdx,0x38(%rdi)
  40a737:	48 8d 7f 40          	lea    0x40(%rdi),%rdi
  40a73b:	7f d3                	jg     40a710 <__intel_memset+0xb30>
  40a73d:	4c 8d 1d ec f4 ff ff 	lea    -0xb14(%rip),%r11        # 409c30 <__intel_memset+0x50>
  40a744:	4a 8d 3c 07          	lea    (%rdi,%r8,1),%rdi
  40a748:	4b 8b 0c c3          	mov    (%r11,%r8,8),%rcx
  40a74c:	4e 8d 1c 19          	lea    (%rcx,%r11,1),%r11
  40a750:	3e 41 ff e3          	notrack jmp *%r11
  40a754:	66 2e 0f 1f 84 00 00 	cs nopw 0x0(%rax,%rax,1)
  40a75b:	00 00 00 
  40a75e:	66 90                	xchg   %ax,%ax
  40a760:	49 83 f9 00          	cmp    $0x0,%r9
  40a764:	74 aa                	je     40a710 <__intel_memset+0xb30>
  40a766:	eb 08                	jmp    40a770 <__intel_memset+0xb90>
  40a768:	0f 1f 84 00 00 00 00 	nopl   0x0(%rax,%rax,1)
  40a76f:	00 
  40a770:	48 0f c3 17          	movnti %rdx,(%rdi)
  40a774:	48 0f c3 57 08       	movnti %rdx,0x8(%rdi)
  40a779:	4d 8d 40 c0          	lea    -0x40(%r8),%r8
  40a77d:	48 0f c3 57 10       	movnti %rdx,0x10(%rdi)
  40a782:	48 0f c3 57 18       	movnti %rdx,0x18(%rdi)
  40a787:	48 0f c3 57 20       	movnti %rdx,0x20(%rdi)
  40a78c:	49 83 f8 40          	cmp    $0x40,%r8
  40a790:	48 0f c3 57 28       	movnti %rdx,0x28(%rdi)
  40a795:	48 0f c3 57 30       	movnti %rdx,0x30(%rdi)
  40a79a:	48 0f c3 57 38       	movnti %rdx,0x38(%rdi)
  40a79f:	48 8d 7f 40          	lea    0x40(%rdi),%rdi
  40a7a3:	7d cb                	jge    40a770 <__intel_memset+0xb90>
  40a7a5:	4c 8d 1d 84 f4 ff ff 	lea    -0xb7c(%rip),%r11        # 409c30 <__intel_memset+0x50>
  40a7ac:	4a 8d 3c 07          	lea    (%rdi,%r8,1),%rdi
  40a7b0:	4b 8b 0c c3          	mov    (%r11,%r8,8),%rcx
  40a7b4:	4e 8d 1c 19          	lea    (%rcx,%r11,1),%r11
  40a7b8:	3e 41 ff e3          	notrack jmp *%r11
  40a7bc:	0f 1f 40 00          	nopl   0x0(%rax)
  40a7c0:	e0 f9                	loopne 40a7bb <__intel_memset+0xbdb>
  40a7c2:	ff                   	(bad)
  40a7c3:	ff                   	(bad)
  40a7c4:	ff                   	(bad)
  40a7c5:	ff                   	(bad)
  40a7c6:	ff                   	(bad)
  40a7c7:	ff 24 fa             	jmp    *(%rdx,%rdi,8)
  40a7ca:	ff                   	(bad)
  40a7cb:	ff                   	(bad)
  40a7cc:	ff                   	(bad)
  40a7cd:	ff                   	(bad)
  40a7ce:	ff                   	(bad)
  40a7cf:	ff 6b fa             	ljmp   *-0x6(%rbx)
  40a7d2:	ff                   	(bad)
  40a7d3:	ff                   	(bad)
  40a7d4:	ff                   	(bad)
  40a7d5:	ff                   	(bad)
  40a7d6:	ff                   	(bad)
  40a7d7:	ff b5 fa ff ff ff    	push   -0x6(%rbp)
  40a7dd:	ff                   	(bad)
  40a7de:	ff                   	(bad)
  40a7df:	ff 02                	incl   (%rdx)
  40a7e1:	fb                   	sti
  40a7e2:	ff                   	(bad)
  40a7e3:	ff                   	(bad)
  40a7e4:	ff                   	(bad)
  40a7e5:	ff                   	(bad)
  40a7e6:	ff                   	(bad)
  40a7e7:	ff 4b fb             	decl   -0x5(%rbx)
  40a7ea:	ff                   	(bad)
  40a7eb:	ff                   	(bad)
  40a7ec:	ff                   	(bad)
  40a7ed:	ff                   	(bad)
  40a7ee:	ff                   	(bad)
  40a7ef:	ff 97 fb ff ff ff    	call   *-0x5(%rdi)
  40a7f5:	ff                   	(bad)
  40a7f6:	ff                   	(bad)
  40a7f7:	ff e4                	jmp    *%rsp
  40a7f9:	fb                   	sti
  40a7fa:	ff                   	(bad)
  40a7fb:	ff                   	(bad)
  40a7fc:	ff                   	(bad)
  40a7fd:	ff                   	(bad)
  40a7fe:	ff                   	(bad)
  40a7ff:	ff 34 fc             	push   (%rsp,%rdi,8)
  40a802:	ff                   	(bad)
  40a803:	ff                   	(bad)
  40a804:	ff                   	(bad)
  40a805:	ff                   	(bad)
  40a806:	ff                   	(bad)
  40a807:	ff                   	(bad)
  40a808:	7e fc                	jle    40a806 <__intel_memset+0xc26>
  40a80a:	ff                   	(bad)
  40a80b:	ff                   	(bad)
  40a80c:	ff                   	(bad)
  40a80d:	ff                   	(bad)
  40a80e:	ff                   	(bad)
  40a80f:	ff cb                	dec    %ebx
  40a811:	fc                   	cld
  40a812:	ff                   	(bad)
  40a813:	ff                   	(bad)
  40a814:	ff                   	(bad)
  40a815:	ff                   	(bad)
  40a816:	ff                   	(bad)
  40a817:	ff 19                	lcall  *(%rcx)
  40a819:	fd                   	std
  40a81a:	ff                   	(bad)
  40a81b:	ff                   	(bad)
  40a81c:	ff                   	(bad)
  40a81d:	ff                   	(bad)
  40a81e:	ff                   	(bad)
  40a81f:	ff 6a fd             	ljmp   *-0x3(%rdx)
  40a822:	ff                   	(bad)
  40a823:	ff                   	(bad)
  40a824:	ff                   	(bad)
  40a825:	ff                   	(bad)
  40a826:	ff                   	(bad)
  40a827:	ff b7 fd ff ff ff    	push   -0x3(%rdi)
  40a82d:	ff                   	(bad)
  40a82e:	ff                   	(bad)
  40a82f:	ff 07                	incl   (%rdi)
  40a831:	fe                   	(bad)
  40a832:	ff                   	(bad)
  40a833:	ff                   	(bad)
  40a834:	ff                   	(bad)
  40a835:	ff                   	(bad)
  40a836:	ff                   	(bad)
  40a837:	ff 58 fe             	lcall  *-0x2(%rax)
  40a83a:	ff                   	(bad)
  40a83b:	ff                   	(bad)
  40a83c:	ff                   	(bad)
  40a83d:	ff                   	(bad)
  40a83e:	ff                   	(bad)
  40a83f:	ff                   	lcall  (bad)
  40a840:	db f9                	(bad)
  40a842:	ff                   	(bad)
  40a843:	ff                   	(bad)
  40a844:	ff                   	(bad)
  40a845:	ff                   	(bad)
  40a846:	ff                   	(bad)
  40a847:	ff 1f                	lcall  *(%rdi)
  40a849:	fa                   	cli
  40a84a:	ff                   	(bad)
  40a84b:	ff                   	(bad)
  40a84c:	ff                   	(bad)
  40a84d:	ff                   	(bad)
  40a84e:	ff                   	(bad)
  40a84f:	ff 66 fa             	jmp    *-0x6(%rsi)
  40a852:	ff                   	(bad)
  40a853:	ff                   	(bad)
  40a854:	ff                   	(bad)
  40a855:	ff                   	(bad)
  40a856:	ff                   	(bad)
  40a857:	ff b0 fa ff ff ff    	push   -0x6(%rax)
  40a85d:	ff                   	(bad)
  40a85e:	ff                   	(bad)
  40a85f:	ff                   	(bad)
  40a860:	fd                   	std
  40a861:	fa                   	cli
  40a862:	ff                   	(bad)
  40a863:	ff                   	(bad)
  40a864:	ff                   	(bad)
  40a865:	ff                   	(bad)
  40a866:	ff                   	(bad)
  40a867:	ff 46 fb             	incl   -0x5(%rsi)
  40a86a:	ff                   	(bad)
  40a86b:	ff                   	(bad)
  40a86c:	ff                   	(bad)
  40a86d:	ff                   	(bad)
  40a86e:	ff                   	(bad)
  40a86f:	ff 92 fb ff ff ff    	call   *-0x5(%rdx)
  40a875:	ff                   	(bad)
  40a876:	ff                   	(bad)
  40a877:	ff                   	lcall  (bad)
  40a878:	df fb                	(bad)
  40a87a:	ff                   	(bad)
  40a87b:	ff                   	(bad)
  40a87c:	ff                   	(bad)
  40a87d:	ff                   	(bad)
  40a87e:	ff                   	(bad)
  40a87f:	ff 2f                	ljmp   *(%rdi)
  40a881:	fc                   	cld
  40a882:	ff                   	(bad)
  40a883:	ff                   	(bad)
  40a884:	ff                   	(bad)
  40a885:	ff                   	(bad)
  40a886:	ff                   	(bad)
  40a887:	ff                   	(bad)
  40a888:	79 fc                	jns    40a886 <__intel_memset+0xca6>
  40a88a:	ff                   	(bad)
  40a88b:	ff                   	(bad)
  40a88c:	ff                   	(bad)
  40a88d:	ff                   	(bad)
  40a88e:	ff                   	(bad)
  40a88f:	ff c6                	inc    %esi
  40a891:	fc                   	cld
  40a892:	ff                   	(bad)
  40a893:	ff                   	(bad)
  40a894:	ff                   	(bad)
  40a895:	ff                   	(bad)
  40a896:	ff                   	(bad)
  40a897:	ff 14 fd ff ff ff ff 	call   *-0x1(,%rdi,8)
  40a89e:	ff                   	(bad)
  40a89f:	ff 65 fd             	jmp    *-0x3(%rbp)
  40a8a2:	ff                   	(bad)
  40a8a3:	ff                   	(bad)
  40a8a4:	ff                   	(bad)
  40a8a5:	ff                   	(bad)
  40a8a6:	ff                   	(bad)
  40a8a7:	ff b2 fd ff ff ff    	push   -0x3(%rdx)
  40a8ad:	ff                   	(bad)
  40a8ae:	ff                   	(bad)
  40a8af:	ff 02                	incl   (%rdx)
  40a8b1:	fe                   	(bad)
  40a8b2:	ff                   	(bad)
  40a8b3:	ff                   	(bad)
  40a8b4:	ff                   	(bad)
  40a8b5:	ff                   	(bad)
  40a8b6:	ff                   	(bad)
  40a8b7:	ff 53 fe             	call   *-0x2(%rbx)
  40a8ba:	ff                   	(bad)
  40a8bb:	ff                   	(bad)
  40a8bc:	ff                   	(bad)
  40a8bd:	ff                   	(bad)
  40a8be:	ff                   	(bad)
  40a8bf:	ff d6                	call   *%rsi
  40a8c1:	f9                   	stc
  40a8c2:	ff                   	(bad)
  40a8c3:	ff                   	(bad)
  40a8c4:	ff                   	(bad)
  40a8c5:	ff                   	(bad)
  40a8c6:	ff                   	(bad)
  40a8c7:	ff 1a                	lcall  *(%rdx)
  40a8c9:	fa                   	cli
  40a8ca:	ff                   	(bad)
  40a8cb:	ff                   	(bad)
  40a8cc:	ff                   	(bad)
  40a8cd:	ff                   	(bad)
  40a8ce:	ff                   	(bad)
  40a8cf:	ff 61 fa             	jmp    *-0x6(%rcx)
  40a8d2:	ff                   	(bad)
  40a8d3:	ff                   	(bad)
  40a8d4:	ff                   	(bad)
  40a8d5:	ff                   	(bad)
  40a8d6:	ff                   	(bad)
  40a8d7:	ff ab fa ff ff ff    	ljmp   *-0x6(%rbx)
  40a8dd:	ff                   	(bad)
  40a8de:	ff                   	(bad)
  40a8df:	ff                   	(bad)
  40a8e0:	f8                   	clc
  40a8e1:	fa                   	cli
  40a8e2:	ff                   	(bad)
  40a8e3:	ff                   	(bad)
  40a8e4:	ff                   	(bad)
  40a8e5:	ff                   	(bad)
  40a8e6:	ff                   	(bad)
  40a8e7:	ff 41 fb             	incl   -0x5(%rcx)
  40a8ea:	ff                   	(bad)
  40a8eb:	ff                   	(bad)
  40a8ec:	ff                   	(bad)
  40a8ed:	ff                   	(bad)
  40a8ee:	ff                   	(bad)
  40a8ef:	ff 8d fb ff ff ff    	decl   -0x5(%rbp)
  40a8f5:	ff                   	(bad)
  40a8f6:	ff                   	(bad)
  40a8f7:	ff                   	lcall  (bad)
  40a8f8:	da fb                	(bad)
  40a8fa:	ff                   	(bad)
  40a8fb:	ff                   	(bad)
  40a8fc:	ff                   	(bad)
  40a8fd:	ff                   	(bad)
  40a8fe:	ff                   	(bad)
  40a8ff:	ff 2a                	ljmp   *(%rdx)
  40a901:	fc                   	cld
  40a902:	ff                   	(bad)
  40a903:	ff                   	(bad)
  40a904:	ff                   	(bad)
  40a905:	ff                   	(bad)
  40a906:	ff                   	(bad)
  40a907:	ff 74 fc ff          	push   -0x1(%rsp,%rdi,8)
  40a90b:	ff                   	(bad)
  40a90c:	ff                   	(bad)
  40a90d:	ff                   	(bad)
  40a90e:	ff                   	(bad)
  40a90f:	ff c1                	inc    %ecx
  40a911:	fc                   	cld
  40a912:	ff                   	(bad)
  40a913:	ff                   	(bad)
  40a914:	ff                   	(bad)
  40a915:	ff                   	(bad)
  40a916:	ff                   	(bad)
  40a917:	ff 0f                	decl   (%rdi)
  40a919:	fd                   	std
  40a91a:	ff                   	(bad)
  40a91b:	ff                   	(bad)
  40a91c:	ff                   	(bad)
  40a91d:	ff                   	(bad)
  40a91e:	ff                   	(bad)
  40a91f:	ff 60 fd             	jmp    *-0x3(%rax)
  40a922:	ff                   	(bad)
  40a923:	ff                   	(bad)
  40a924:	ff                   	(bad)
  40a925:	ff                   	(bad)
  40a926:	ff                   	(bad)
  40a927:	ff ad fd ff ff ff    	ljmp   *-0x3(%rbp)
  40a92d:	ff                   	(bad)
  40a92e:	ff                   	(bad)
  40a92f:	ff                   	(bad)
  40a930:	fd                   	std
  40a931:	fd                   	std
  40a932:	ff                   	(bad)
  40a933:	ff                   	(bad)
  40a934:	ff                   	(bad)
  40a935:	ff                   	(bad)
  40a936:	ff                   	(bad)
  40a937:	ff 4e fe             	decl   -0x2(%rsi)
  40a93a:	ff                   	(bad)
  40a93b:	ff                   	(bad)
  40a93c:	ff                   	(bad)
  40a93d:	ff                   	(bad)
  40a93e:	ff                   	(bad)
  40a93f:	ff d1                	call   *%rcx
  40a941:	f9                   	stc
  40a942:	ff                   	(bad)
  40a943:	ff                   	(bad)
  40a944:	ff                   	(bad)
  40a945:	ff                   	(bad)
  40a946:	ff                   	(bad)
  40a947:	ff 15 fa ff ff ff    	call   *-0x6(%rip)        # 40a947 <__intel_memset+0xd67>
  40a94d:	ff                   	(bad)
  40a94e:	ff                   	(bad)
  40a94f:	ff 5c fa ff          	lcall  *-0x1(%rdx,%rdi,8)
  40a953:	ff                   	(bad)
  40a954:	ff                   	(bad)
  40a955:	ff                   	(bad)
  40a956:	ff                   	(bad)
  40a957:	ff a6 fa ff ff ff    	jmp    *-0x6(%rsi)
  40a95d:	ff                   	(bad)
  40a95e:	ff                   	(bad)
  40a95f:	ff f3                	push   %rbx
  40a961:	fa                   	cli
  40a962:	ff                   	(bad)
  40a963:	ff                   	(bad)
  40a964:	ff                   	(bad)
  40a965:	ff                   	(bad)
  40a966:	ff                   	(bad)
  40a967:	ff                   	(bad)
  40a968:	3c fb                	cmp    $0xfb,%al
  40a96a:	ff                   	(bad)
  40a96b:	ff                   	(bad)
  40a96c:	ff                   	(bad)
  40a96d:	ff                   	(bad)
  40a96e:	ff                   	(bad)
  40a96f:	ff 88 fb ff ff ff    	decl   -0x5(%rax)
  40a975:	ff                   	(bad)
  40a976:	ff                   	(bad)
  40a977:	ff d5                	call   *%rbp
  40a979:	fb                   	sti
  40a97a:	ff                   	(bad)
  40a97b:	ff                   	(bad)
  40a97c:	ff                   	(bad)
  40a97d:	ff                   	(bad)
  40a97e:	ff                   	(bad)
  40a97f:	ff 25 fc ff ff ff    	jmp    *-0x4(%rip)        # 40a981 <__intel_memset+0xda1>
  40a985:	ff                   	(bad)
  40a986:	ff                   	(bad)
  40a987:	ff 6f fc             	ljmp   *-0x4(%rdi)
  40a98a:	ff                   	(bad)
  40a98b:	ff                   	(bad)
  40a98c:	ff                   	(bad)
  40a98d:	ff                   	(bad)
  40a98e:	ff                   	(bad)
  40a98f:	ff                   	(bad)
  40a990:	bc fc ff ff ff       	mov    $0xfffffffc,%esp
  40a995:	ff                   	(bad)
  40a996:	ff                   	(bad)
  40a997:	ff 0a                	decl   (%rdx)
  40a999:	fd                   	std
  40a99a:	ff                   	(bad)
  40a99b:	ff                   	(bad)
  40a99c:	ff                   	(bad)
  40a99d:	ff                   	(bad)
  40a99e:	ff                   	(bad)
  40a99f:	ff 5b fd             	lcall  *-0x3(%rbx)
  40a9a2:	ff                   	(bad)
  40a9a3:	ff                   	(bad)
  40a9a4:	ff                   	(bad)
  40a9a5:	ff                   	(bad)
  40a9a6:	ff                   	(bad)
  40a9a7:	ff a8 fd ff ff ff    	ljmp   *-0x3(%rax)
  40a9ad:	ff                   	(bad)
  40a9ae:	ff                   	(bad)
  40a9af:	ff                   	(bad)
  40a9b0:	f8                   	clc
  40a9b1:	fd                   	std
  40a9b2:	ff                   	(bad)
  40a9b3:	ff                   	(bad)
  40a9b4:	ff                   	(bad)
  40a9b5:	ff                   	(bad)
  40a9b6:	ff                   	(bad)
  40a9b7:	ff 49 fe             	decl   -0x2(%rcx)
  40a9ba:	ff                   	(bad)
  40a9bb:	ff                   	(bad)
  40a9bc:	ff                   	(bad)
  40a9bd:	ff                   	(bad)
  40a9be:	ff                   	(bad)
  40a9bf:	ff cc                	dec    %esp
  40a9c1:	f9                   	stc
  40a9c2:	ff                   	(bad)
  40a9c3:	ff                   	(bad)
  40a9c4:	ff                   	(bad)
  40a9c5:	ff                   	(bad)
  40a9c6:	ff                   	(bad)
  40a9c7:	ff 10                	call   *(%rax)
  40a9c9:	fa                   	cli
  40a9ca:	ff                   	(bad)
  40a9cb:	ff                   	(bad)
  40a9cc:	ff                   	(bad)
  40a9cd:	ff                   	(bad)
  40a9ce:	ff                   	(bad)
  40a9cf:	ff 57 fa             	call   *-0x6(%rdi)
  40a9d2:	ff                   	(bad)
  40a9d3:	ff                   	(bad)
  40a9d4:	ff                   	(bad)
  40a9d5:	ff                   	(bad)
  40a9d6:	ff                   	(bad)
  40a9d7:	ff a1 fa ff ff ff    	jmp    *-0x6(%rcx)
  40a9dd:	ff                   	(bad)
  40a9de:	ff                   	(bad)
  40a9df:	ff                   	ljmp   (bad)
  40a9e0:	ee                   	out    %al,(%dx)
  40a9e1:	fa                   	cli
  40a9e2:	ff                   	(bad)
  40a9e3:	ff                   	(bad)
  40a9e4:	ff                   	(bad)
  40a9e5:	ff                   	(bad)
  40a9e6:	ff                   	(bad)
  40a9e7:	ff 37                	push   (%rdi)
  40a9e9:	fb                   	sti
  40a9ea:	ff                   	(bad)
  40a9eb:	ff                   	(bad)
  40a9ec:	ff                   	(bad)
  40a9ed:	ff                   	(bad)
  40a9ee:	ff                   	(bad)
  40a9ef:	ff 83 fb ff ff ff    	incl   -0x5(%rbx)
  40a9f5:	ff                   	(bad)
  40a9f6:	ff                   	(bad)
  40a9f7:	ff d0                	call   *%rax
  40a9f9:	fb                   	sti
  40a9fa:	ff                   	(bad)
  40a9fb:	ff                   	(bad)
  40a9fc:	ff                   	(bad)
  40a9fd:	ff                   	(bad)
  40a9fe:	ff                   	(bad)
  40a9ff:	ff 20                	jmp    *(%rax)
  40aa01:	fc                   	cld
  40aa02:	ff                   	(bad)
  40aa03:	ff                   	(bad)
  40aa04:	ff                   	(bad)
  40aa05:	ff                   	(bad)
  40aa06:	ff                   	(bad)
  40aa07:	ff 6a fc             	ljmp   *-0x4(%rdx)
  40aa0a:	ff                   	(bad)
  40aa0b:	ff                   	(bad)
  40aa0c:	ff                   	(bad)
  40aa0d:	ff                   	(bad)
  40aa0e:	ff                   	(bad)
  40aa0f:	ff b7 fc ff ff ff    	push   -0x4(%rdi)
  40aa15:	ff                   	(bad)
  40aa16:	ff                   	(bad)
  40aa17:	ff 05 fd ff ff ff    	incl   -0x3(%rip)        # 40aa1a <__intel_memset+0xe3a>
  40aa1d:	ff                   	(bad)
  40aa1e:	ff                   	(bad)
  40aa1f:	ff 56 fd             	call   *-0x3(%rsi)
  40aa22:	ff                   	(bad)
  40aa23:	ff                   	(bad)
  40aa24:	ff                   	(bad)
  40aa25:	ff                   	(bad)
  40aa26:	ff                   	(bad)
  40aa27:	ff a3 fd ff ff ff    	jmp    *-0x3(%rbx)
  40aa2d:	ff                   	(bad)
  40aa2e:	ff                   	(bad)
  40aa2f:	ff f3                	push   %rbx
  40aa31:	fd                   	std
  40aa32:	ff                   	(bad)
  40aa33:	ff                   	(bad)
  40aa34:	ff                   	(bad)
  40aa35:	ff                   	(bad)
  40aa36:	ff                   	(bad)
  40aa37:	ff 44 fe ff          	incl   -0x1(%rsi,%rdi,8)
  40aa3b:	ff                   	(bad)
  40aa3c:	ff                   	(bad)
  40aa3d:	ff                   	(bad)
  40aa3e:	ff                   	(bad)
  40aa3f:	ff c7                	inc    %edi
  40aa41:	f9                   	stc
  40aa42:	ff                   	(bad)
  40aa43:	ff                   	(bad)
  40aa44:	ff                   	(bad)
  40aa45:	ff                   	(bad)
  40aa46:	ff                   	(bad)
  40aa47:	ff 0b                	decl   (%rbx)
  40aa49:	fa                   	cli
  40aa4a:	ff                   	(bad)
  40aa4b:	ff                   	(bad)
  40aa4c:	ff                   	(bad)
  40aa4d:	ff                   	(bad)
  40aa4e:	ff                   	(bad)
  40aa4f:	ff 52 fa             	call   *-0x6(%rdx)
  40aa52:	ff                   	(bad)
  40aa53:	ff                   	(bad)
  40aa54:	ff                   	(bad)
  40aa55:	ff                   	(bad)
  40aa56:	ff                   	(bad)
  40aa57:	ff 9c fa ff ff ff ff 	lcall  *-0x1(%rdx,%rdi,8)
  40aa5e:	ff                   	(bad)
  40aa5f:	ff                   	ljmp   (bad)
  40aa60:	e9 fa ff ff ff       	jmp    40aa5f <__intel_memset+0xe7f>
  40aa65:	ff                   	(bad)
  40aa66:	ff                   	(bad)
  40aa67:	ff 32                	push   (%rdx)
  40aa69:	fb                   	sti
  40aa6a:	ff                   	(bad)
  40aa6b:	ff                   	(bad)
  40aa6c:	ff                   	(bad)
  40aa6d:	ff                   	(bad)
  40aa6e:	ff                   	(bad)
  40aa6f:	ff                   	(bad)
  40aa70:	7e fb                	jle    40aa6d <__intel_memset+0xe8d>
  40aa72:	ff                   	(bad)
  40aa73:	ff                   	(bad)
  40aa74:	ff                   	(bad)
  40aa75:	ff                   	(bad)
  40aa76:	ff                   	(bad)
  40aa77:	ff cb                	dec    %ebx
  40aa79:	fb                   	sti
  40aa7a:	ff                   	(bad)
  40aa7b:	ff                   	(bad)
  40aa7c:	ff                   	(bad)
  40aa7d:	ff                   	(bad)
  40aa7e:	ff                   	(bad)
  40aa7f:	ff 1b                	lcall  *(%rbx)
  40aa81:	fc                   	cld
  40aa82:	ff                   	(bad)
  40aa83:	ff                   	(bad)
  40aa84:	ff                   	(bad)
  40aa85:	ff                   	(bad)
  40aa86:	ff                   	(bad)
  40aa87:	ff 65 fc             	jmp    *-0x4(%rbp)
  40aa8a:	ff                   	(bad)
  40aa8b:	ff                   	(bad)
  40aa8c:	ff                   	(bad)
  40aa8d:	ff                   	(bad)
  40aa8e:	ff                   	(bad)
  40aa8f:	ff b2 fc ff ff ff    	push   -0x4(%rdx)
  40aa95:	ff                   	(bad)
  40aa96:	ff                   	(bad)
  40aa97:	ff 00                	incl   (%rax)
  40aa99:	fd                   	std
  40aa9a:	ff                   	(bad)
  40aa9b:	ff                   	(bad)
  40aa9c:	ff                   	(bad)
  40aa9d:	ff                   	(bad)
  40aa9e:	ff                   	(bad)
  40aa9f:	ff 51 fd             	call   *-0x3(%rcx)
  40aaa2:	ff                   	(bad)
  40aaa3:	ff                   	(bad)
  40aaa4:	ff                   	(bad)
  40aaa5:	ff                   	(bad)
  40aaa6:	ff                   	(bad)
  40aaa7:	ff 9e fd ff ff ff    	lcall  *-0x3(%rsi)
  40aaad:	ff                   	(bad)
  40aaae:	ff                   	(bad)
  40aaaf:	ff                   	ljmp   (bad)
  40aab0:	ee                   	out    %al,(%dx)
  40aab1:	fd                   	std
  40aab2:	ff                   	(bad)
  40aab3:	ff                   	(bad)
  40aab4:	ff                   	(bad)
  40aab5:	ff                   	(bad)
  40aab6:	ff                   	(bad)
  40aab7:	ff                   	(bad)
  40aab8:	3f                   	(bad)
  40aab9:	fe                   	(bad)
  40aaba:	ff                   	(bad)
  40aabb:	ff                   	(bad)
  40aabc:	ff                   	(bad)
  40aabd:	ff                   	(bad)
  40aabe:	ff                   	(bad)
  40aabf:	ff c2                	inc    %edx
  40aac1:	f9                   	stc
  40aac2:	ff                   	(bad)
  40aac3:	ff                   	(bad)
  40aac4:	ff                   	(bad)
  40aac5:	ff                   	(bad)
  40aac6:	ff                   	(bad)
  40aac7:	ff 06                	incl   (%rsi)
  40aac9:	fa                   	cli
  40aaca:	ff                   	(bad)
  40aacb:	ff                   	(bad)
  40aacc:	ff                   	(bad)
  40aacd:	ff                   	(bad)
  40aace:	ff                   	(bad)
  40aacf:	ff 4d fa             	decl   -0x6(%rbp)
  40aad2:	ff                   	(bad)
  40aad3:	ff                   	(bad)
  40aad4:	ff                   	(bad)
  40aad5:	ff                   	(bad)
  40aad6:	ff                   	(bad)
  40aad7:	ff 97 fa ff ff ff    	call   *-0x6(%rdi)
  40aadd:	ff                   	(bad)
  40aade:	ff                   	(bad)
  40aadf:	ff e4                	jmp    *%rsp
  40aae1:	fa                   	cli
  40aae2:	ff                   	(bad)
  40aae3:	ff                   	(bad)
  40aae4:	ff                   	(bad)
  40aae5:	ff                   	(bad)
  40aae6:	ff                   	(bad)
  40aae7:	ff 2d fb ff ff ff    	ljmp   *-0x5(%rip)        # 40aae8 <__intel_memset+0xf08>
  40aaed:	ff                   	(bad)
  40aaee:	ff                   	(bad)
  40aaef:	ff                   	(bad)
  40aaf0:	79 fb                	jns    40aaed <__intel_memset+0xf0d>
  40aaf2:	ff                   	(bad)
  40aaf3:	ff                   	(bad)
  40aaf4:	ff                   	(bad)
  40aaf5:	ff                   	(bad)
  40aaf6:	ff                   	(bad)
  40aaf7:	ff c6                	inc    %esi
  40aaf9:	fb                   	sti
  40aafa:	ff                   	(bad)
  40aafb:	ff                   	(bad)
  40aafc:	ff                   	(bad)
  40aafd:	ff                   	(bad)
  40aafe:	ff                   	(bad)
  40aaff:	ff 16                	call   *(%rsi)
  40ab01:	fc                   	cld
  40ab02:	ff                   	(bad)
  40ab03:	ff                   	(bad)
  40ab04:	ff                   	(bad)
  40ab05:	ff                   	(bad)
  40ab06:	ff                   	(bad)
  40ab07:	ff 60 fc             	jmp    *-0x4(%rax)
  40ab0a:	ff                   	(bad)
  40ab0b:	ff                   	(bad)
  40ab0c:	ff                   	(bad)
  40ab0d:	ff                   	(bad)
  40ab0e:	ff                   	(bad)
  40ab0f:	ff ad fc ff ff ff    	ljmp   *-0x4(%rbp)
  40ab15:	ff                   	(bad)
  40ab16:	ff                   	(bad)
  40ab17:	ff                   	(bad)
  40ab18:	fb                   	sti
  40ab19:	fc                   	cld
  40ab1a:	ff                   	(bad)
  40ab1b:	ff                   	(bad)
  40ab1c:	ff                   	(bad)
  40ab1d:	ff                   	(bad)
  40ab1e:	ff                   	(bad)
  40ab1f:	ff 4c fd ff          	decl   -0x1(%rbp,%rdi,8)
  40ab23:	ff                   	(bad)
  40ab24:	ff                   	(bad)
  40ab25:	ff                   	(bad)
  40ab26:	ff                   	(bad)
  40ab27:	ff 99 fd ff ff ff    	lcall  *-0x3(%rcx)
  40ab2d:	ff                   	(bad)
  40ab2e:	ff                   	(bad)
  40ab2f:	ff                   	ljmp   (bad)
  40ab30:	e9 fd ff ff ff       	jmp    40ab32 <__intel_memset+0xf52>
  40ab35:	ff                   	(bad)
  40ab36:	ff                   	(bad)
  40ab37:	ff                   	(bad)
  40ab38:	3a fe                	cmp    %dh,%bh
  40ab3a:	ff                   	(bad)
  40ab3b:	ff                   	(bad)
  40ab3c:	ff                   	(bad)
  40ab3d:	ff                   	(bad)
  40ab3e:	ff                   	(bad)
  40ab3f:	ff                   	(bad)
  40ab40:	bd f9 ff ff ff       	mov    $0xfffffff9,%ebp
  40ab45:	ff                   	(bad)
  40ab46:	ff                   	(bad)
  40ab47:	ff 01                	incl   (%rcx)
  40ab49:	fa                   	cli
  40ab4a:	ff                   	(bad)
  40ab4b:	ff                   	(bad)
  40ab4c:	ff                   	(bad)
  40ab4d:	ff                   	(bad)
  40ab4e:	ff                   	(bad)
  40ab4f:	ff 48 fa             	decl   -0x6(%rax)
  40ab52:	ff                   	(bad)
  40ab53:	ff                   	(bad)
  40ab54:	ff                   	(bad)
  40ab55:	ff                   	(bad)
  40ab56:	ff                   	(bad)
  40ab57:	ff 92 fa ff ff ff    	call   *-0x6(%rdx)
  40ab5d:	ff                   	(bad)
  40ab5e:	ff                   	(bad)
  40ab5f:	ff                   	lcall  (bad)
  40ab60:	df fa                	(bad)
  40ab62:	ff                   	(bad)
  40ab63:	ff                   	(bad)
  40ab64:	ff                   	(bad)
  40ab65:	ff                   	(bad)
  40ab66:	ff                   	(bad)
  40ab67:	ff 28                	ljmp   *(%rax)
  40ab69:	fb                   	sti
  40ab6a:	ff                   	(bad)
  40ab6b:	ff                   	(bad)
  40ab6c:	ff                   	(bad)
  40ab6d:	ff                   	(bad)
  40ab6e:	ff                   	(bad)
  40ab6f:	ff 74 fb ff          	push   -0x1(%rbx,%rdi,8)
  40ab73:	ff                   	(bad)
  40ab74:	ff                   	(bad)
  40ab75:	ff                   	(bad)
  40ab76:	ff                   	(bad)
  40ab77:	ff c1                	inc    %ecx
  40ab79:	fb                   	sti
  40ab7a:	ff                   	(bad)
  40ab7b:	ff                   	(bad)
  40ab7c:	ff                   	(bad)
  40ab7d:	ff                   	(bad)
  40ab7e:	ff                   	(bad)
  40ab7f:	ff 11                	call   *(%rcx)
  40ab81:	fc                   	cld
  40ab82:	ff                   	(bad)
  40ab83:	ff                   	(bad)
  40ab84:	ff                   	(bad)
  40ab85:	ff                   	(bad)
  40ab86:	ff                   	(bad)
  40ab87:	ff 5b fc             	lcall  *-0x4(%rbx)
  40ab8a:	ff                   	(bad)
  40ab8b:	ff                   	(bad)
  40ab8c:	ff                   	(bad)
  40ab8d:	ff                   	(bad)
  40ab8e:	ff                   	(bad)
  40ab8f:	ff a8 fc ff ff ff    	ljmp   *-0x4(%rax)
  40ab95:	ff                   	(bad)
  40ab96:	ff                   	(bad)
  40ab97:	ff f6                	push   %rsi
  40ab99:	fc                   	cld
  40ab9a:	ff                   	(bad)
  40ab9b:	ff                   	(bad)
  40ab9c:	ff                   	(bad)
  40ab9d:	ff                   	(bad)
  40ab9e:	ff                   	(bad)
  40ab9f:	ff 47 fd             	incl   -0x3(%rdi)
  40aba2:	ff                   	(bad)
  40aba3:	ff                   	(bad)
  40aba4:	ff                   	(bad)
  40aba5:	ff                   	(bad)
  40aba6:	ff                   	(bad)
  40aba7:	ff 94 fd ff ff ff ff 	call   *-0x1(%rbp,%rdi,8)
  40abae:	ff                   	(bad)
  40abaf:	ff e4                	jmp    *%rsp
  40abb1:	fd                   	std
  40abb2:	ff                   	(bad)
  40abb3:	ff                   	(bad)
  40abb4:	ff                   	(bad)
  40abb5:	ff                   	(bad)
  40abb6:	ff                   	(bad)
  40abb7:	ff 35 fe ff ff ff    	push   -0x2(%rip)        # 40abbb <__intel_memset+0xfdb>
  40abbd:	ff                   	(bad)
  40abbe:	ff                   	(bad)
  40abbf:	ff                   	(bad)
  40abc0:	b8 f9 ff ff ff       	mov    $0xfffffff9,%eax
  40abc5:	ff                   	(bad)
  40abc6:	ff                   	(bad)
  40abc7:	ff                   	(bad)
  40abc8:	f9                   	stc
  40abc9:	f9                   	stc
  40abca:	ff                   	(bad)
  40abcb:	ff                   	(bad)
  40abcc:	ff                   	(bad)
  40abcd:	ff                   	(bad)
  40abce:	ff                   	(bad)
  40abcf:	ff 40 fa             	incl   -0x6(%rax)
  40abd2:	ff                   	(bad)
  40abd3:	ff                   	(bad)
  40abd4:	ff                   	(bad)
  40abd5:	ff                   	(bad)
  40abd6:	ff                   	(bad)
  40abd7:	ff 8a fa ff ff ff    	decl   -0x6(%rdx)
  40abdd:	ff                   	(bad)
  40abde:	ff                   	(bad)
  40abdf:	ff d7                	call   *%rdi
  40abe1:	fa                   	cli
  40abe2:	ff                   	(bad)
  40abe3:	ff                   	(bad)
  40abe4:	ff                   	(bad)
  40abe5:	ff                   	(bad)
  40abe6:	ff                   	(bad)
  40abe7:	ff 20                	jmp    *(%rax)
  40abe9:	fb                   	sti
  40abea:	ff                   	(bad)
  40abeb:	ff                   	(bad)
  40abec:	ff                   	(bad)
  40abed:	ff                   	(bad)
  40abee:	ff                   	(bad)
  40abef:	ff 6c fb ff          	ljmp   *-0x1(%rbx,%rdi,8)
  40abf3:	ff                   	(bad)
  40abf4:	ff                   	(bad)
  40abf5:	ff                   	(bad)
  40abf6:	ff                   	(bad)
  40abf7:	ff                   	(bad)
  40abf8:	b9 fb ff ff ff       	mov    $0xfffffffb,%ecx
  40abfd:	ff                   	(bad)
  40abfe:	ff                   	(bad)
  40abff:	ff 09                	decl   (%rcx)
  40ac01:	fc                   	cld
  40ac02:	ff                   	(bad)
  40ac03:	ff                   	(bad)
  40ac04:	ff                   	(bad)
  40ac05:	ff                   	(bad)
  40ac06:	ff                   	(bad)
  40ac07:	ff 53 fc             	call   *-0x4(%rbx)
  40ac0a:	ff                   	(bad)
  40ac0b:	ff                   	(bad)
  40ac0c:	ff                   	(bad)
  40ac0d:	ff                   	(bad)
  40ac0e:	ff                   	(bad)
  40ac0f:	ff a0 fc ff ff ff    	jmp    *-0x4(%rax)
  40ac15:	ff                   	(bad)
  40ac16:	ff                   	(bad)
  40ac17:	ff                   	ljmp   (bad)
  40ac18:	ee                   	out    %al,(%dx)
  40ac19:	fc                   	cld
  40ac1a:	ff                   	(bad)
  40ac1b:	ff                   	(bad)
  40ac1c:	ff                   	(bad)
  40ac1d:	ff                   	(bad)
  40ac1e:	ff                   	(bad)
  40ac1f:	ff                   	(bad)
  40ac20:	3f                   	(bad)
  40ac21:	fd                   	std
  40ac22:	ff                   	(bad)
  40ac23:	ff                   	(bad)
  40ac24:	ff                   	(bad)
  40ac25:	ff                   	(bad)
  40ac26:	ff                   	(bad)
  40ac27:	ff 8c fd ff ff ff ff 	decl   -0x1(%rbp,%rdi,8)
  40ac2e:	ff                   	(bad)
  40ac2f:	ff                   	lcall  (bad)
  40ac30:	dc fd                	fdivr  %st,%st(5)
  40ac32:	ff                   	(bad)
  40ac33:	ff                   	(bad)
  40ac34:	ff                   	(bad)
  40ac35:	ff                   	(bad)
  40ac36:	ff                   	(bad)
  40ac37:	ff 2d fe ff ff ff    	ljmp   *-0x2(%rip)        # 40ac3b <__intel_memset+0x105b>
  40ac3d:	ff                   	(bad)
  40ac3e:	ff                   	(bad)
  40ac3f:	ff b0 f9 ff ff ff    	push   -0x7(%rax)
  40ac45:	ff                   	(bad)
  40ac46:	ff                   	(bad)
  40ac47:	ff f1                	push   %rcx
  40ac49:	f9                   	stc
  40ac4a:	ff                   	(bad)
  40ac4b:	ff                   	(bad)
  40ac4c:	ff                   	(bad)
  40ac4d:	ff                   	(bad)
  40ac4e:	ff                   	(bad)
  40ac4f:	ff                   	(bad)
  40ac50:	38 fa                	cmp    %bh,%dl
  40ac52:	ff                   	(bad)
  40ac53:	ff                   	(bad)
  40ac54:	ff                   	(bad)
  40ac55:	ff                   	(bad)
  40ac56:	ff                   	(bad)
  40ac57:	ff 82 fa ff ff ff    	incl   -0x6(%rdx)
  40ac5d:	ff                   	(bad)
  40ac5e:	ff                   	(bad)
  40ac5f:	ff cf                	dec    %edi
  40ac61:	fa                   	cli
  40ac62:	ff                   	(bad)
  40ac63:	ff                   	(bad)
  40ac64:	ff                   	(bad)
  40ac65:	ff                   	(bad)
  40ac66:	ff                   	(bad)
  40ac67:	ff 18                	lcall  *(%rax)
  40ac69:	fb                   	sti
  40ac6a:	ff                   	(bad)
  40ac6b:	ff                   	(bad)
  40ac6c:	ff                   	(bad)
  40ac6d:	ff                   	(bad)
  40ac6e:	ff                   	(bad)
  40ac6f:	ff 64 fb ff          	jmp    *-0x1(%rbx,%rdi,8)
  40ac73:	ff                   	(bad)
  40ac74:	ff                   	(bad)
  40ac75:	ff                   	(bad)
  40ac76:	ff                   	(bad)
  40ac77:	ff b1 fb ff ff ff    	push   -0x5(%rcx)
  40ac7d:	ff                   	(bad)
  40ac7e:	ff                   	(bad)
  40ac7f:	ff 01                	incl   (%rcx)
  40ac81:	fc                   	cld
  40ac82:	ff                   	(bad)
  40ac83:	ff                   	(bad)
  40ac84:	ff                   	(bad)
  40ac85:	ff                   	(bad)
  40ac86:	ff                   	(bad)
  40ac87:	ff 4b fc             	decl   -0x4(%rbx)
  40ac8a:	ff                   	(bad)
  40ac8b:	ff                   	(bad)
  40ac8c:	ff                   	(bad)
  40ac8d:	ff                   	(bad)
  40ac8e:	ff                   	(bad)
  40ac8f:	ff 98 fc ff ff ff    	lcall  *-0x4(%rax)
  40ac95:	ff                   	(bad)
  40ac96:	ff                   	(bad)
  40ac97:	ff e6                	jmp    *%rsi
  40ac99:	fc                   	cld
  40ac9a:	ff                   	(bad)
  40ac9b:	ff                   	(bad)
  40ac9c:	ff                   	(bad)
  40ac9d:	ff                   	(bad)
  40ac9e:	ff                   	(bad)
  40ac9f:	ff 37                	push   (%rdi)
  40aca1:	fd                   	std
  40aca2:	ff                   	(bad)
  40aca3:	ff                   	(bad)
  40aca4:	ff                   	(bad)
  40aca5:	ff                   	(bad)
  40aca6:	ff                   	(bad)
  40aca7:	ff 84 fd ff ff ff ff 	incl   -0x1(%rbp,%rdi,8)
  40acae:	ff                   	(bad)
  40acaf:	ff d4                	call   *%rsp
  40acb1:	fd                   	std
  40acb2:	ff                   	(bad)
  40acb3:	ff                   	(bad)
  40acb4:	ff                   	(bad)
  40acb5:	ff                   	(bad)
  40acb6:	ff                   	(bad)
  40acb7:	ff 25 fe ff ff ff    	jmp    *-0x2(%rip)        # 40acbb <__intel_memset+0x10db>
  40acbd:	ff                   	(bad)
  40acbe:	ff                   	(bad)
  40acbf:	ff a8 f9 ff ff ff    	ljmp   *-0x7(%rax)
  40acc5:	ff                   	(bad)
  40acc6:	ff                   	(bad)
  40acc7:	ff                   	ljmp   (bad)
  40acc8:	e9 f9 ff ff ff       	jmp    40acc6 <__intel_memset+0x10e6>
  40accd:	ff                   	(bad)
  40acce:	ff                   	(bad)
  40accf:	ff 30                	push   (%rax)
  40acd1:	fa                   	cli
  40acd2:	ff                   	(bad)
  40acd3:	ff                   	(bad)
  40acd4:	ff                   	(bad)
  40acd5:	ff                   	(bad)
  40acd6:	ff                   	(bad)
  40acd7:	ff                   	(bad)
  40acd8:	7a fa                	jp     40acd4 <__intel_memset+0x10f4>
  40acda:	ff                   	(bad)
  40acdb:	ff                   	(bad)
  40acdc:	ff                   	(bad)
  40acdd:	ff                   	(bad)
  40acde:	ff                   	(bad)
  40acdf:	ff c7                	inc    %edi
  40ace1:	fa                   	cli
  40ace2:	ff                   	(bad)
  40ace3:	ff                   	(bad)
  40ace4:	ff                   	(bad)
  40ace5:	ff                   	(bad)
  40ace6:	ff                   	(bad)
  40ace7:	ff 10                	call   *(%rax)
  40ace9:	fb                   	sti
  40acea:	ff                   	(bad)
  40aceb:	ff                   	(bad)
  40acec:	ff                   	(bad)
  40aced:	ff                   	(bad)
  40acee:	ff                   	(bad)
  40acef:	ff 5c fb ff          	lcall  *-0x1(%rbx,%rdi,8)
  40acf3:	ff                   	(bad)
  40acf4:	ff                   	(bad)
  40acf5:	ff                   	(bad)
  40acf6:	ff                   	(bad)
  40acf7:	ff a9 fb ff ff ff    	ljmp   *-0x5(%rcx)
  40acfd:	ff                   	(bad)
  40acfe:	ff                   	(bad)
  40acff:	ff                   	(bad)
  40ad00:	f9                   	stc
  40ad01:	fb                   	sti
  40ad02:	ff                   	(bad)
  40ad03:	ff                   	(bad)
  40ad04:	ff                   	(bad)
  40ad05:	ff                   	(bad)
  40ad06:	ff                   	(bad)
  40ad07:	ff 43 fc             	incl   -0x4(%rbx)
  40ad0a:	ff                   	(bad)
  40ad0b:	ff                   	(bad)
  40ad0c:	ff                   	(bad)
  40ad0d:	ff                   	(bad)
  40ad0e:	ff                   	(bad)
  40ad0f:	ff 90 fc ff ff ff    	call   *-0x4(%rax)
  40ad15:	ff                   	(bad)
  40ad16:	ff                   	(bad)
  40ad17:	ff                   	lcall  (bad)
  40ad18:	de fc                	fdivrp %st,%st(4)
  40ad1a:	ff                   	(bad)
  40ad1b:	ff                   	(bad)
  40ad1c:	ff                   	(bad)
  40ad1d:	ff                   	(bad)
  40ad1e:	ff                   	(bad)
  40ad1f:	ff 2f                	ljmp   *(%rdi)
  40ad21:	fd                   	std
  40ad22:	ff                   	(bad)
  40ad23:	ff                   	(bad)
  40ad24:	ff                   	(bad)
  40ad25:	ff                   	(bad)
  40ad26:	ff                   	(bad)
  40ad27:	ff                   	(bad)
  40ad28:	7c fd                	jl     40ad27 <__intel_memset+0x1147>
  40ad2a:	ff                   	(bad)
  40ad2b:	ff                   	(bad)
  40ad2c:	ff                   	(bad)
  40ad2d:	ff                   	(bad)
  40ad2e:	ff                   	(bad)
  40ad2f:	ff cc                	dec    %esp
  40ad31:	fd                   	std
  40ad32:	ff                   	(bad)
  40ad33:	ff                   	(bad)
  40ad34:	ff                   	(bad)
  40ad35:	ff                   	(bad)
  40ad36:	ff                   	(bad)
  40ad37:	ff 1d fe ff ff ff    	lcall  *-0x2(%rip)        # 40ad3b <__intel_memset+0x115b>
  40ad3d:	ff                   	(bad)
  40ad3e:	ff                   	(bad)
  40ad3f:	ff a0 f9 ff ff ff    	jmp    *-0x7(%rax)
  40ad45:	ff                   	(bad)
  40ad46:	ff                   	(bad)
  40ad47:	ff e1                	jmp    *%rcx
  40ad49:	f9                   	stc
  40ad4a:	ff                   	(bad)
  40ad4b:	ff                   	(bad)
  40ad4c:	ff                   	(bad)
  40ad4d:	ff                   	(bad)
  40ad4e:	ff                   	(bad)
  40ad4f:	ff 28                	ljmp   *(%rax)
  40ad51:	fa                   	cli
  40ad52:	ff                   	(bad)
  40ad53:	ff                   	(bad)
  40ad54:	ff                   	(bad)
  40ad55:	ff                   	(bad)
  40ad56:	ff                   	(bad)
  40ad57:	ff 72 fa             	push   -0x6(%rdx)
  40ad5a:	ff                   	(bad)
  40ad5b:	ff                   	(bad)
  40ad5c:	ff                   	(bad)
  40ad5d:	ff                   	(bad)
  40ad5e:	ff                   	(bad)
  40ad5f:	ff                   	(bad)
  40ad60:	bf fa ff ff ff       	mov    $0xfffffffa,%edi
  40ad65:	ff                   	(bad)
  40ad66:	ff                   	(bad)
  40ad67:	ff 08                	decl   (%rax)
  40ad69:	fb                   	sti
  40ad6a:	ff                   	(bad)
  40ad6b:	ff                   	(bad)
  40ad6c:	ff                   	(bad)
  40ad6d:	ff                   	(bad)
  40ad6e:	ff                   	(bad)
  40ad6f:	ff 54 fb ff          	call   *-0x1(%rbx,%rdi,8)
  40ad73:	ff                   	(bad)
  40ad74:	ff                   	(bad)
  40ad75:	ff                   	(bad)
  40ad76:	ff                   	(bad)
  40ad77:	ff a1 fb ff ff ff    	jmp    *-0x5(%rcx)
  40ad7d:	ff                   	(bad)
  40ad7e:	ff                   	(bad)
  40ad7f:	ff f1                	push   %rcx
  40ad81:	fb                   	sti
  40ad82:	ff                   	(bad)
  40ad83:	ff                   	(bad)
  40ad84:	ff                   	(bad)
  40ad85:	ff                   	(bad)
  40ad86:	ff                   	(bad)
  40ad87:	ff                   	(bad)
  40ad88:	3b fc                	cmp    %esp,%edi
  40ad8a:	ff                   	(bad)
  40ad8b:	ff                   	(bad)
  40ad8c:	ff                   	(bad)
  40ad8d:	ff                   	(bad)
  40ad8e:	ff                   	(bad)
  40ad8f:	ff 88 fc ff ff ff    	decl   -0x4(%rax)
  40ad95:	ff                   	(bad)
  40ad96:	ff                   	(bad)
  40ad97:	ff d6                	call   *%rsi
  40ad99:	fc                   	cld
  40ad9a:	ff                   	(bad)
  40ad9b:	ff                   	(bad)
  40ad9c:	ff                   	(bad)
  40ad9d:	ff                   	(bad)
  40ad9e:	ff                   	(bad)
  40ad9f:	ff 27                	jmp    *(%rdi)
  40ada1:	fd                   	std
  40ada2:	ff                   	(bad)
  40ada3:	ff                   	(bad)
  40ada4:	ff                   	(bad)
  40ada5:	ff                   	(bad)
  40ada6:	ff                   	(bad)
  40ada7:	ff 74 fd ff          	push   -0x1(%rbp,%rdi,8)
  40adab:	ff                   	(bad)
  40adac:	ff                   	(bad)
  40adad:	ff                   	(bad)
  40adae:	ff                   	(bad)
  40adaf:	ff c4                	inc    %esp
  40adb1:	fd                   	std
  40adb2:	ff                   	(bad)
  40adb3:	ff                   	(bad)
  40adb4:	ff                   	(bad)
  40adb5:	ff                   	(bad)
  40adb6:	ff                   	(bad)
  40adb7:	ff 15 fe ff ff ff    	call   *-0x2(%rip)        # 40adbb <__intel_memset+0x11db>
  40adbd:	ff                   	(bad)
  40adbe:	ff                   	(bad)
  40adbf:	ff                   	.byte 0xff

000000000040adc0 <__intel_cpu_features_init>:
  40adc0:	f3 0f 1e fa          	endbr64
  40adc4:	50                   	push   %rax
  40adc5:	b8 01 00 00 00       	mov    $0x1,%eax
  40adca:	e8 11 00 00 00       	call   40ade0 <__intel_cpu_features_init_body>
  40adcf:	48 83 c4 08          	add    $0x8,%rsp
  40add3:	c3                   	ret
  40add4:	66 2e 0f 1f 84 00 00 	cs nopw 0x0(%rax,%rax,1)
  40addb:	00 00 00 
  40adde:	66 90                	xchg   %ax,%ax

000000000040ade0 <__intel_cpu_features_init_body>:
  40ade0:	41 53                	push   %r11
  40ade2:	41 52                	push   %r10
  40ade4:	41 51                	push   %r9
  40ade6:	41 50                	push   %r8
  40ade8:	52                   	push   %rdx
  40ade9:	51                   	push   %rcx
  40adea:	56                   	push   %rsi
  40adeb:	57                   	push   %rdi
  40adec:	55                   	push   %rbp
  40aded:	53                   	push   %rbx
  40adee:	48 81 ec 38 01 00 00 	sub    $0x138,%rsp
  40adf5:	44 0f 29 bc 24 20 01 	movaps %xmm15,0x120(%rsp)
  40adfc:	00 00 
  40adfe:	44 0f 29 b4 24 10 01 	movaps %xmm14,0x110(%rsp)
  40ae05:	00 00 
  40ae07:	44 0f 29 ac 24 00 01 	movaps %xmm13,0x100(%rsp)
  40ae0e:	00 00 
  40ae10:	44 0f 29 a4 24 f0 00 	movaps %xmm12,0xf0(%rsp)
  40ae17:	00 00 
  40ae19:	44 0f 29 9c 24 e0 00 	movaps %xmm11,0xe0(%rsp)
  40ae20:	00 00 
  40ae22:	44 0f 29 94 24 d0 00 	movaps %xmm10,0xd0(%rsp)
  40ae29:	00 00 
  40ae2b:	44 0f 29 8c 24 c0 00 	movaps %xmm9,0xc0(%rsp)
  40ae32:	00 00 
  40ae34:	44 0f 29 84 24 b0 00 	movaps %xmm8,0xb0(%rsp)
  40ae3b:	00 00 
  40ae3d:	0f 29 bc 24 a0 00 00 	movaps %xmm7,0xa0(%rsp)
  40ae44:	00 
  40ae45:	0f 29 b4 24 90 00 00 	movaps %xmm6,0x90(%rsp)
  40ae4c:	00 
  40ae4d:	0f 29 ac 24 80 00 00 	movaps %xmm5,0x80(%rsp)
  40ae54:	00 
  40ae55:	0f 29 64 24 70       	movaps %xmm4,0x70(%rsp)
  40ae5a:	0f 29 5c 24 60       	movaps %xmm3,0x60(%rsp)
  40ae5f:	0f 29 54 24 50       	movaps %xmm2,0x50(%rsp)
  40ae64:	0f 29 4c 24 40       	movaps %xmm1,0x40(%rsp)
  40ae69:	0f 29 44 24 30       	movaps %xmm0,0x30(%rsp)
  40ae6e:	89 c5                	mov    %eax,%ebp
  40ae70:	0f 57 c0             	xorps  %xmm0,%xmm0
  40ae73:	0f 29 04 24          	movaps %xmm0,(%rsp)
  40ae77:	0f 29 44 24 20       	movaps %xmm0,0x20(%rsp)
  40ae7c:	48 89 e0             	mov    %rsp,%rax
  40ae7f:	b9 01 00 00 00       	mov    $0x1,%ecx
  40ae84:	e8 b7 15 00 00       	call   40c440 <__libirc_set_cpu_feature>
  40ae89:	85 c0                	test   %eax,%eax
  40ae8b:	0f 85 81 03 00 00    	jne    40b212 <__intel_cpu_features_init_body+0x432>
  40ae91:	31 c0                	xor    %eax,%eax
  40ae93:	0f a2                	cpuid
  40ae95:	89 44 24 1c          	mov    %eax,0x1c(%rsp)
  40ae99:	89 5c 24 18          	mov    %ebx,0x18(%rsp)
  40ae9d:	89 4c 24 14          	mov    %ecx,0x14(%rsp)
  40aea1:	89 54 24 10          	mov    %edx,0x10(%rsp)
  40aea5:	83 7c 24 1c 00       	cmpl   $0x0,0x1c(%rsp)
  40aeaa:	0f 84 55 03 00 00    	je     40b205 <__intel_cpu_features_init_body+0x425>
  40aeb0:	83 fd 01             	cmp    $0x1,%ebp
  40aeb3:	75 2a                	jne    40aedf <__intel_cpu_features_init_body+0xff>
  40aeb5:	81 7c 24 18 47 65 6e 	cmpl   $0x756e6547,0x18(%rsp)
  40aebc:	75 
  40aebd:	0f 85 42 03 00 00    	jne    40b205 <__intel_cpu_features_init_body+0x425>
  40aec3:	81 7c 24 10 69 6e 65 	cmpl   $0x49656e69,0x10(%rsp)
  40aeca:	49 
  40aecb:	0f 85 34 03 00 00    	jne    40b205 <__intel_cpu_features_init_body+0x425>
  40aed1:	81 7c 24 14 6e 74 65 	cmpl   $0x6c65746e,0x14(%rsp)
  40aed8:	6c 
  40aed9:	0f 85 26 03 00 00    	jne    40b205 <__intel_cpu_features_init_body+0x425>
  40aedf:	b8 01 00 00 00       	mov    $0x1,%eax
  40aee4:	0f a2                	cpuid
  40aee6:	41 89 d2             	mov    %edx,%r10d
  40aee9:	41 89 c8             	mov    %ecx,%r8d
  40aeec:	41 f6 c2 01          	test   $0x1,%r10b
  40aef0:	74 15                	je     40af07 <__intel_cpu_features_init_body+0x127>
  40aef2:	48 89 e0             	mov    %rsp,%rax
  40aef5:	b9 02 00 00 00       	mov    $0x2,%ecx
  40aefa:	e8 41 15 00 00       	call   40c440 <__libirc_set_cpu_feature>
  40aeff:	85 c0                	test   %eax,%eax
  40af01:	0f 85 0b 03 00 00    	jne    40b212 <__intel_cpu_features_init_body+0x432>
  40af07:	66 45 85 d2          	test   %r10w,%r10w
  40af0b:	79 15                	jns    40af22 <__intel_cpu_features_init_body+0x142>
  40af0d:	48 89 e0             	mov    %rsp,%rax
  40af10:	b9 03 00 00 00       	mov    $0x3,%ecx
  40af15:	e8 26 15 00 00       	call   40c440 <__libirc_set_cpu_feature>
  40af1a:	85 c0                	test   %eax,%eax
  40af1c:	0f 85 f0 02 00 00    	jne    40b212 <__intel_cpu_features_init_body+0x432>
  40af22:	41 f7 c2 00 00 80 00 	test   $0x800000,%r10d
  40af29:	74 15                	je     40af40 <__intel_cpu_features_init_body+0x160>
  40af2b:	48 89 e0             	mov    %rsp,%rax
  40af2e:	b9 04 00 00 00       	mov    $0x4,%ecx
  40af33:	e8 08 15 00 00       	call   40c440 <__libirc_set_cpu_feature>
  40af38:	85 c0                	test   %eax,%eax
  40af3a:	0f 85 d2 02 00 00    	jne    40b212 <__intel_cpu_features_init_body+0x432>
  40af40:	41 f7 c2 00 00 00 01 	test   $0x1000000,%r10d
  40af47:	0f 85 54 03 00 00    	jne    40b2a1 <__intel_cpu_features_init_body+0x4c1>
  40af4d:	41 f7 c0 00 00 00 40 	test   $0x40000000,%r8d
  40af54:	74 15                	je     40af6b <__intel_cpu_features_init_body+0x18b>
  40af56:	48 89 e0             	mov    %rsp,%rax
  40af59:	b9 12 00 00 00       	mov    $0x12,%ecx
  40af5e:	e8 dd 14 00 00       	call   40c440 <__libirc_set_cpu_feature>
  40af63:	85 c0                	test   %eax,%eax
  40af65:	0f 85 a7 02 00 00    	jne    40b212 <__intel_cpu_features_init_body+0x432>
  40af6b:	41 f7 c2 00 00 00 01 	test   $0x1000000,%r10d
  40af72:	75 10                	jne    40af84 <__intel_cpu_features_init_body+0x1a4>
  40af74:	b8 07 00 00 00       	mov    $0x7,%eax
  40af79:	31 c9                	xor    %ecx,%ecx
  40af7b:	0f a2                	cpuid
  40af7d:	89 cf                	mov    %ecx,%edi
  40af7f:	89 d6                	mov    %edx,%esi
  40af81:	41 89 d9             	mov    %ebx,%r9d
  40af84:	44 89 c8             	mov    %r9d,%eax
  40af87:	f7 d0                	not    %eax
  40af89:	a9 08 01 00 00       	test   $0x108,%eax
  40af8e:	75 15                	jne    40afa5 <__intel_cpu_features_init_body+0x1c5>
  40af90:	48 89 e0             	mov    %rsp,%rax
  40af93:	b9 14 00 00 00       	mov    $0x14,%ecx
  40af98:	e8 a3 14 00 00       	call   40c440 <__libirc_set_cpu_feature>
  40af9d:	85 c0                	test   %eax,%eax
  40af9f:	0f 85 6d 02 00 00    	jne    40b212 <__intel_cpu_features_init_body+0x432>
  40afa5:	41 f6 c1 04          	test   $0x4,%r9b
  40afa9:	74 15                	je     40afc0 <__intel_cpu_features_init_body+0x1e0>
  40afab:	48 89 e0             	mov    %rsp,%rax
  40afae:	b9 36 00 00 00       	mov    $0x36,%ecx
  40afb3:	e8 88 14 00 00       	call   40c440 <__libirc_set_cpu_feature>
  40afb8:	85 c0                	test   %eax,%eax
  40afba:	0f 85 52 02 00 00    	jne    40b212 <__intel_cpu_features_init_body+0x432>
  40afc0:	41 f6 c1 10          	test   $0x10,%r9b
  40afc4:	74 15                	je     40afdb <__intel_cpu_features_init_body+0x1fb>
  40afc6:	48 89 e0             	mov    %rsp,%rax
  40afc9:	b9 16 00 00 00       	mov    $0x16,%ecx
  40afce:	e8 6d 14 00 00       	call   40c440 <__libirc_set_cpu_feature>
  40afd3:	85 c0                	test   %eax,%eax
  40afd5:	0f 85 37 02 00 00    	jne    40b212 <__intel_cpu_features_init_body+0x432>
  40afdb:	41 f7 c1 00 08 00 00 	test   $0x800,%r9d
  40afe2:	74 15                	je     40aff9 <__intel_cpu_features_init_body+0x219>
  40afe4:	48 89 e0             	mov    %rsp,%rax
  40afe7:	b9 17 00 00 00       	mov    $0x17,%ecx
  40afec:	e8 4f 14 00 00       	call   40c440 <__libirc_set_cpu_feature>
  40aff1:	85 c0                	test   %eax,%eax
  40aff3:	0f 85 19 02 00 00    	jne    40b212 <__intel_cpu_features_init_body+0x432>
  40aff9:	41 f7 c1 00 00 08 00 	test   $0x80000,%r9d
  40b000:	74 15                	je     40b017 <__intel_cpu_features_init_body+0x237>
  40b002:	48 89 e0             	mov    %rsp,%rax
  40b005:	b9 1d 00 00 00       	mov    $0x1d,%ecx
  40b00a:	e8 31 14 00 00       	call   40c440 <__libirc_set_cpu_feature>
  40b00f:	85 c0                	test   %eax,%eax
  40b011:	0f 85 fb 01 00 00    	jne    40b212 <__intel_cpu_features_init_body+0x432>
  40b017:	41 f7 c1 00 00 04 00 	test   $0x40000,%r9d
  40b01e:	74 15                	je     40b035 <__intel_cpu_features_init_body+0x255>
  40b020:	48 89 e0             	mov    %rsp,%rax
  40b023:	b9 1e 00 00 00       	mov    $0x1e,%ecx
  40b028:	e8 13 14 00 00       	call   40c440 <__libirc_set_cpu_feature>
  40b02d:	85 c0                	test   %eax,%eax
  40b02f:	0f 85 dd 01 00 00    	jne    40b212 <__intel_cpu_features_init_body+0x432>
  40b035:	41 f7 c1 00 00 00 01 	test   $0x1000000,%r9d
  40b03c:	74 15                	je     40b053 <__intel_cpu_features_init_body+0x273>
  40b03e:	48 89 e0             	mov    %rsp,%rax
  40b041:	b9 32 00 00 00       	mov    $0x32,%ecx
  40b046:	e8 f5 13 00 00       	call   40c440 <__libirc_set_cpu_feature>
  40b04b:	85 c0                	test   %eax,%eax
  40b04d:	0f 85 bf 01 00 00    	jne    40b212 <__intel_cpu_features_init_body+0x432>
  40b053:	b8 01 00 00 80       	mov    $0x80000001,%eax
  40b058:	0f a2                	cpuid
  40b05a:	f6 c1 20             	test   $0x20,%cl
  40b05d:	74 15                	je     40b074 <__intel_cpu_features_init_body+0x294>
  40b05f:	48 89 e0             	mov    %rsp,%rax
  40b062:	b9 15 00 00 00       	mov    $0x15,%ecx
  40b067:	e8 d4 13 00 00       	call   40c440 <__libirc_set_cpu_feature>
  40b06c:	85 c0                	test   %eax,%eax
  40b06e:	0f 85 9e 01 00 00    	jne    40b212 <__intel_cpu_features_init_body+0x432>
  40b074:	b8 08 00 00 80       	mov    $0x80000008,%eax
  40b079:	0f a2                	cpuid
  40b07b:	f7 c3 00 02 00 00    	test   $0x200,%ebx
  40b081:	74 15                	je     40b098 <__intel_cpu_features_init_body+0x2b8>
  40b083:	48 89 e0             	mov    %rsp,%rax
  40b086:	b9 37 00 00 00       	mov    $0x37,%ecx
  40b08b:	e8 b0 13 00 00       	call   40c440 <__libirc_set_cpu_feature>
  40b090:	85 c0                	test   %eax,%eax
  40b092:	0f 85 7a 01 00 00    	jne    40b212 <__intel_cpu_features_init_body+0x432>
  40b098:	40 f6 c7 20          	test   $0x20,%dil
  40b09c:	74 15                	je     40b0b3 <__intel_cpu_features_init_body+0x2d3>
  40b09e:	48 89 e0             	mov    %rsp,%rax
  40b0a1:	b9 3e 00 00 00       	mov    $0x3e,%ecx
  40b0a6:	e8 95 13 00 00       	call   40c440 <__libirc_set_cpu_feature>
  40b0ab:	85 c0                	test   %eax,%eax
  40b0ad:	0f 85 5f 01 00 00    	jne    40b212 <__intel_cpu_features_init_body+0x432>
  40b0b3:	40 84 ff             	test   %dil,%dil
  40b0b6:	79 15                	jns    40b0cd <__intel_cpu_features_init_body+0x2ed>
  40b0b8:	48 89 e0             	mov    %rsp,%rax
  40b0bb:	b9 35 00 00 00       	mov    $0x35,%ecx
  40b0c0:	e8 7b 13 00 00       	call   40c440 <__libirc_set_cpu_feature>
  40b0c5:	85 c0                	test   %eax,%eax
  40b0c7:	0f 85 45 01 00 00    	jne    40b212 <__intel_cpu_features_init_body+0x432>
  40b0cd:	f7 c7 00 01 00 00    	test   $0x100,%edi
  40b0d3:	74 15                	je     40b0ea <__intel_cpu_features_init_body+0x30a>
  40b0d5:	48 89 e0             	mov    %rsp,%rax
  40b0d8:	b9 2e 00 00 00       	mov    $0x2e,%ecx
  40b0dd:	e8 5e 13 00 00       	call   40c440 <__libirc_set_cpu_feature>
  40b0e2:	85 c0                	test   %eax,%eax
  40b0e4:	0f 85 28 01 00 00    	jne    40b212 <__intel_cpu_features_init_body+0x432>
  40b0ea:	f7 c7 00 00 40 00    	test   $0x400000,%edi
  40b0f0:	74 15                	je     40b107 <__intel_cpu_features_init_body+0x327>
  40b0f2:	48 89 e0             	mov    %rsp,%rax
  40b0f5:	b9 33 00 00 00       	mov    $0x33,%ecx
  40b0fa:	e8 41 13 00 00       	call   40c440 <__libirc_set_cpu_feature>
  40b0ff:	85 c0                	test   %eax,%eax
  40b101:	0f 85 0b 01 00 00    	jne    40b212 <__intel_cpu_features_init_body+0x432>
  40b107:	f7 c7 00 00 00 01    	test   $0x1000000,%edi
  40b10d:	74 15                	je     40b124 <__intel_cpu_features_init_body+0x344>
  40b10f:	48 89 e0             	mov    %rsp,%rax
  40b112:	b9 3b 00 00 00       	mov    $0x3b,%ecx
  40b117:	e8 24 13 00 00       	call   40c440 <__libirc_set_cpu_feature>
  40b11c:	85 c0                	test   %eax,%eax
  40b11e:	0f 85 ee 00 00 00    	jne    40b212 <__intel_cpu_features_init_body+0x432>
  40b124:	f7 c7 00 00 00 08    	test   $0x8000000,%edi
  40b12a:	74 15                	je     40b141 <__intel_cpu_features_init_body+0x361>
  40b12c:	48 89 e0             	mov    %rsp,%rax
  40b12f:	b9 3c 00 00 00       	mov    $0x3c,%ecx
  40b134:	e8 07 13 00 00       	call   40c440 <__libirc_set_cpu_feature>
  40b139:	85 c0                	test   %eax,%eax
  40b13b:	0f 85 d1 00 00 00    	jne    40b212 <__intel_cpu_features_init_body+0x432>
  40b141:	f7 c7 00 00 00 10    	test   $0x10000000,%edi
  40b147:	74 15                	je     40b15e <__intel_cpu_features_init_body+0x37e>
  40b149:	48 89 e0             	mov    %rsp,%rax
  40b14c:	b9 3d 00 00 00       	mov    $0x3d,%ecx
  40b151:	e8 ea 12 00 00       	call   40c440 <__libirc_set_cpu_feature>
  40b156:	85 c0                	test   %eax,%eax
  40b158:	0f 85 b4 00 00 00    	jne    40b212 <__intel_cpu_features_init_body+0x432>
  40b15e:	f7 c7 00 00 00 20    	test   $0x20000000,%edi
  40b164:	74 15                	je     40b17b <__intel_cpu_features_init_body+0x39b>
  40b166:	48 89 e0             	mov    %rsp,%rax
  40b169:	b9 40 00 00 00       	mov    $0x40,%ecx
  40b16e:	e8 cd 12 00 00       	call   40c440 <__libirc_set_cpu_feature>
  40b173:	85 c0                	test   %eax,%eax
  40b175:	0f 85 97 00 00 00    	jne    40b212 <__intel_cpu_features_init_body+0x432>
  40b17b:	f7 c6 00 00 10 00    	test   $0x100000,%esi
  40b181:	74 11                	je     40b194 <__intel_cpu_features_init_body+0x3b4>
  40b183:	48 89 e0             	mov    %rsp,%rax
  40b186:	b9 34 00 00 00       	mov    $0x34,%ecx
  40b18b:	e8 b0 12 00 00       	call   40c440 <__libirc_set_cpu_feature>
  40b190:	85 c0                	test   %eax,%eax
  40b192:	75 7e                	jne    40b212 <__intel_cpu_features_init_body+0x432>
  40b194:	f7 c6 00 00 04 00    	test   $0x40000,%esi
  40b19a:	74 11                	je     40b1ad <__intel_cpu_features_init_body+0x3cd>
  40b19c:	48 89 e0             	mov    %rsp,%rax
  40b19f:	b9 38 00 00 00       	mov    $0x38,%ecx
  40b1a4:	e8 97 12 00 00       	call   40c440 <__libirc_set_cpu_feature>
  40b1a9:	85 c0                	test   %eax,%eax
  40b1ab:	75 65                	jne    40b212 <__intel_cpu_features_init_body+0x432>
  40b1ad:	b8 14 00 00 00       	mov    $0x14,%eax
  40b1b2:	31 c9                	xor    %ecx,%ecx
  40b1b4:	0f a2                	cpuid
  40b1b6:	f6 c3 10             	test   $0x10,%bl
  40b1b9:	74 11                	je     40b1cc <__intel_cpu_features_init_body+0x3ec>
  40b1bb:	48 89 e0             	mov    %rsp,%rax
  40b1be:	b9 1b 00 00 00       	mov    $0x1b,%ecx
  40b1c3:	e8 78 12 00 00       	call   40c440 <__libirc_set_cpu_feature>
  40b1c8:	85 c0                	test   %eax,%eax
  40b1ca:	75 46                	jne    40b212 <__intel_cpu_features_init_body+0x432>
  40b1cc:	f7 c7 00 00 80 00    	test   $0x800000,%edi
  40b1d2:	0f 85 3a 02 00 00    	jne    40b412 <__intel_cpu_features_init_body+0x632>
  40b1d8:	41 f7 c0 00 00 00 08 	test   $0x8000000,%r8d
  40b1df:	0f 85 88 02 00 00    	jne    40b46d <__intel_cpu_features_init_body+0x68d>
  40b1e5:	48 8d 7c 24 20       	lea    0x20(%rsp),%rdi
  40b1ea:	e8 b1 12 00 00       	call   40c4a0 <__libirc_handle_intel_isa_disable>
  40b1ef:	85 c0                	test   %eax,%eax
  40b1f1:	0f 8e 09 06 00 00    	jle    40b800 <__intel_cpu_features_init_body+0xa20>
  40b1f7:	0f 28 44 24 20       	movaps 0x20(%rsp),%xmm0
  40b1fc:	0f 55 04 24          	andnps (%rsp),%xmm0
  40b200:	e9 ff 05 00 00       	jmp    40b804 <__intel_cpu_features_init_body+0xa24>
  40b205:	0f 28 04 24          	movaps (%rsp),%xmm0
  40b209:	0f 29 05 80 6f 00 00 	movaps %xmm0,0x6f80(%rip)        # 412190 <__intel_cpu_feature_indicator>
  40b210:	31 c0                	xor    %eax,%eax
  40b212:	0f 28 44 24 30       	movaps 0x30(%rsp),%xmm0
  40b217:	0f 28 4c 24 40       	movaps 0x40(%rsp),%xmm1
  40b21c:	0f 28 54 24 50       	movaps 0x50(%rsp),%xmm2
  40b221:	0f 28 5c 24 60       	movaps 0x60(%rsp),%xmm3
  40b226:	0f 28 64 24 70       	movaps 0x70(%rsp),%xmm4
  40b22b:	0f 28 ac 24 80 00 00 	movaps 0x80(%rsp),%xmm5
  40b232:	00 
  40b233:	0f 28 b4 24 90 00 00 	movaps 0x90(%rsp),%xmm6
  40b23a:	00 
  40b23b:	0f 28 bc 24 a0 00 00 	movaps 0xa0(%rsp),%xmm7
  40b242:	00 
  40b243:	44 0f 28 84 24 b0 00 	movaps 0xb0(%rsp),%xmm8
  40b24a:	00 00 
  40b24c:	44 0f 28 8c 24 c0 00 	movaps 0xc0(%rsp),%xmm9
  40b253:	00 00 
  40b255:	44 0f 28 94 24 d0 00 	movaps 0xd0(%rsp),%xmm10
  40b25c:	00 00 
  40b25e:	44 0f 28 9c 24 e0 00 	movaps 0xe0(%rsp),%xmm11
  40b265:	00 00 
  40b267:	44 0f 28 a4 24 f0 00 	movaps 0xf0(%rsp),%xmm12
  40b26e:	00 00 
  40b270:	44 0f 28 ac 24 00 01 	movaps 0x100(%rsp),%xmm13
  40b277:	00 00 
  40b279:	44 0f 28 b4 24 10 01 	movaps 0x110(%rsp),%xmm14
  40b280:	00 00 
  40b282:	44 0f 28 bc 24 20 01 	movaps 0x120(%rsp),%xmm15
  40b289:	00 00 
  40b28b:	48 81 c4 38 01 00 00 	add    $0x138,%rsp
  40b292:	5b                   	pop    %rbx
  40b293:	5d                   	pop    %rbp
  40b294:	5f                   	pop    %rdi
  40b295:	5e                   	pop    %rsi
  40b296:	59                   	pop    %rcx
  40b297:	5a                   	pop    %rdx
  40b298:	41 58                	pop    %r8
  40b29a:	41 59                	pop    %r9
  40b29c:	41 5a                	pop    %r10
  40b29e:	41 5b                	pop    %r11
  40b2a0:	c3                   	ret
  40b2a1:	48 89 e0             	mov    %rsp,%rax
  40b2a4:	b9 05 00 00 00       	mov    $0x5,%ecx
  40b2a9:	e8 92 11 00 00       	call   40c440 <__libirc_set_cpu_feature>
  40b2ae:	85 c0                	test   %eax,%eax
  40b2b0:	0f 85 5c ff ff ff    	jne    40b212 <__intel_cpu_features_init_body+0x432>
  40b2b6:	41 f7 c2 00 00 00 02 	test   $0x2000000,%r10d
  40b2bd:	74 15                	je     40b2d4 <__intel_cpu_features_init_body+0x4f4>
  40b2bf:	48 89 e0             	mov    %rsp,%rax
  40b2c2:	b9 06 00 00 00       	mov    $0x6,%ecx
  40b2c7:	e8 74 11 00 00       	call   40c440 <__libirc_set_cpu_feature>
  40b2cc:	85 c0                	test   %eax,%eax
  40b2ce:	0f 85 3e ff ff ff    	jne    40b212 <__intel_cpu_features_init_body+0x432>
  40b2d4:	41 f7 c2 00 00 00 04 	test   $0x4000000,%r10d
  40b2db:	74 15                	je     40b2f2 <__intel_cpu_features_init_body+0x512>
  40b2dd:	48 89 e0             	mov    %rsp,%rax
  40b2e0:	b9 07 00 00 00       	mov    $0x7,%ecx
  40b2e5:	e8 56 11 00 00       	call   40c440 <__libirc_set_cpu_feature>
  40b2ea:	85 c0                	test   %eax,%eax
  40b2ec:	0f 85 20 ff ff ff    	jne    40b212 <__intel_cpu_features_init_body+0x432>
  40b2f2:	41 f6 c0 01          	test   $0x1,%r8b
  40b2f6:	74 15                	je     40b30d <__intel_cpu_features_init_body+0x52d>
  40b2f8:	48 89 e0             	mov    %rsp,%rax
  40b2fb:	b9 08 00 00 00       	mov    $0x8,%ecx
  40b300:	e8 3b 11 00 00       	call   40c440 <__libirc_set_cpu_feature>
  40b305:	85 c0                	test   %eax,%eax
  40b307:	0f 85 05 ff ff ff    	jne    40b212 <__intel_cpu_features_init_body+0x432>
  40b30d:	41 f7 c0 00 02 00 00 	test   $0x200,%r8d
  40b314:	74 15                	je     40b32b <__intel_cpu_features_init_body+0x54b>
  40b316:	48 89 e0             	mov    %rsp,%rax
  40b319:	b9 09 00 00 00       	mov    $0x9,%ecx
  40b31e:	e8 1d 11 00 00       	call   40c440 <__libirc_set_cpu_feature>
  40b323:	85 c0                	test   %eax,%eax
  40b325:	0f 85 e7 fe ff ff    	jne    40b212 <__intel_cpu_features_init_body+0x432>
  40b32b:	41 f7 c0 00 00 40 00 	test   $0x400000,%r8d
  40b332:	74 15                	je     40b349 <__intel_cpu_features_init_body+0x569>
  40b334:	48 89 e0             	mov    %rsp,%rax
  40b337:	b9 0c 00 00 00       	mov    $0xc,%ecx
  40b33c:	e8 ff 10 00 00       	call   40c440 <__libirc_set_cpu_feature>
  40b341:	85 c0                	test   %eax,%eax
  40b343:	0f 85 c9 fe ff ff    	jne    40b212 <__intel_cpu_features_init_body+0x432>
  40b349:	41 f7 c0 00 00 08 00 	test   $0x80000,%r8d
  40b350:	74 15                	je     40b367 <__intel_cpu_features_init_body+0x587>
  40b352:	48 89 e0             	mov    %rsp,%rax
  40b355:	b9 0a 00 00 00       	mov    $0xa,%ecx
  40b35a:	e8 e1 10 00 00       	call   40c440 <__libirc_set_cpu_feature>
  40b35f:	85 c0                	test   %eax,%eax
  40b361:	0f 85 ab fe ff ff    	jne    40b212 <__intel_cpu_features_init_body+0x432>
  40b367:	41 f7 c0 00 00 10 00 	test   $0x100000,%r8d
  40b36e:	74 15                	je     40b385 <__intel_cpu_features_init_body+0x5a5>
  40b370:	48 89 e0             	mov    %rsp,%rax
  40b373:	b9 0b 00 00 00       	mov    $0xb,%ecx
  40b378:	e8 c3 10 00 00       	call   40c440 <__libirc_set_cpu_feature>
  40b37d:	85 c0                	test   %eax,%eax
  40b37f:	0f 85 8d fe ff ff    	jne    40b212 <__intel_cpu_features_init_body+0x432>
  40b385:	41 f7 c0 00 00 80 00 	test   $0x800000,%r8d
  40b38c:	74 15                	je     40b3a3 <__intel_cpu_features_init_body+0x5c3>
  40b38e:	48 89 e0             	mov    %rsp,%rax
  40b391:	b9 0d 00 00 00       	mov    $0xd,%ecx
  40b396:	e8 a5 10 00 00       	call   40c440 <__libirc_set_cpu_feature>
  40b39b:	85 c0                	test   %eax,%eax
  40b39d:	0f 85 6f fe ff ff    	jne    40b212 <__intel_cpu_features_init_body+0x432>
  40b3a3:	41 f6 c0 02          	test   $0x2,%r8b
  40b3a7:	74 15                	je     40b3be <__intel_cpu_features_init_body+0x5de>
  40b3a9:	48 89 e0             	mov    %rsp,%rax
  40b3ac:	b9 0e 00 00 00       	mov    $0xe,%ecx
  40b3b1:	e8 8a 10 00 00       	call   40c440 <__libirc_set_cpu_feature>
  40b3b6:	85 c0                	test   %eax,%eax
  40b3b8:	0f 85 54 fe ff ff    	jne    40b212 <__intel_cpu_features_init_body+0x432>
  40b3be:	41 f7 c0 00 00 00 02 	test   $0x2000000,%r8d
  40b3c5:	74 15                	je     40b3dc <__intel_cpu_features_init_body+0x5fc>
  40b3c7:	48 89 e0             	mov    %rsp,%rax
  40b3ca:	b9 0f 00 00 00       	mov    $0xf,%ecx
  40b3cf:	e8 6c 10 00 00       	call   40c440 <__libirc_set_cpu_feature>
  40b3d4:	85 c0                	test   %eax,%eax
  40b3d6:	0f 85 36 fe ff ff    	jne    40b212 <__intel_cpu_features_init_body+0x432>
  40b3dc:	b8 07 00 00 00       	mov    $0x7,%eax
  40b3e1:	31 c9                	xor    %ecx,%ecx
  40b3e3:	0f a2                	cpuid
  40b3e5:	89 cf                	mov    %ecx,%edi
  40b3e7:	89 d6                	mov    %edx,%esi
  40b3e9:	41 89 d9             	mov    %ebx,%r9d
  40b3ec:	f7 c3 00 00 00 20    	test   $0x20000000,%ebx
  40b3f2:	0f 84 55 fb ff ff    	je     40af4d <__intel_cpu_features_init_body+0x16d>
  40b3f8:	48 89 e0             	mov    %rsp,%rax
  40b3fb:	b9 24 00 00 00       	mov    $0x24,%ecx
  40b400:	e8 3b 10 00 00       	call   40c440 <__libirc_set_cpu_feature>
  40b405:	85 c0                	test   %eax,%eax
  40b407:	0f 85 05 fe ff ff    	jne    40b212 <__intel_cpu_features_init_body+0x432>
  40b40d:	e9 3b fb ff ff       	jmp    40af4d <__intel_cpu_features_init_body+0x16d>
  40b412:	48 89 e0             	mov    %rsp,%rax
  40b415:	b9 01 00 00 00       	mov    $0x1,%ecx
  40b41a:	e8 21 10 00 00       	call   40c440 <__libirc_set_cpu_feature>
  40b41f:	85 c0                	test   %eax,%eax
  40b421:	0f 85 eb fd ff ff    	jne    40b212 <__intel_cpu_features_init_body+0x432>
  40b427:	b8 19 00 00 00       	mov    $0x19,%eax
  40b42c:	31 c9                	xor    %ecx,%ecx
  40b42e:	0f a2                	cpuid
  40b430:	f6 c3 01             	test   $0x1,%bl
  40b433:	74 15                	je     40b44a <__intel_cpu_features_init_body+0x66a>
  40b435:	48 89 e0             	mov    %rsp,%rax
  40b438:	b9 45 00 00 00       	mov    $0x45,%ecx
  40b43d:	e8 fe 0f 00 00       	call   40c440 <__libirc_set_cpu_feature>
  40b442:	85 c0                	test   %eax,%eax
  40b444:	0f 85 c8 fd ff ff    	jne    40b212 <__intel_cpu_features_init_body+0x432>
  40b44a:	f6 c3 04             	test   $0x4,%bl
  40b44d:	0f 84 85 fd ff ff    	je     40b1d8 <__intel_cpu_features_init_body+0x3f8>
  40b453:	48 89 e0             	mov    %rsp,%rax
  40b456:	b9 46 00 00 00       	mov    $0x46,%ecx
  40b45b:	e8 e0 0f 00 00       	call   40c440 <__libirc_set_cpu_feature>
  40b460:	85 c0                	test   %eax,%eax
  40b462:	0f 85 aa fd ff ff    	jne    40b212 <__intel_cpu_features_init_body+0x432>
  40b468:	e9 6b fd ff ff       	jmp    40b1d8 <__intel_cpu_features_init_body+0x3f8>
  40b46d:	48 89 e0             	mov    %rsp,%rax
  40b470:	b9 01 00 00 00       	mov    $0x1,%ecx
  40b475:	e8 c6 0f 00 00       	call   40c440 <__libirc_set_cpu_feature>
  40b47a:	85 c0                	test   %eax,%eax
  40b47c:	0f 85 90 fd ff ff    	jne    40b212 <__intel_cpu_features_init_body+0x432>
  40b482:	31 c9                	xor    %ecx,%ecx
  40b484:	0f 01 d0             	xgetbv
  40b487:	41 89 c2             	mov    %eax,%r10d
  40b48a:	41 f7 d2             	not    %r10d
  40b48d:	41 f7 c2 00 00 06 00 	test   $0x60000,%r10d
  40b494:	75 6c                	jne    40b502 <__intel_cpu_features_init_body+0x722>
  40b496:	48 89 e0             	mov    %rsp,%rax
  40b499:	b9 01 00 00 00       	mov    $0x1,%ecx
  40b49e:	e8 9d 0f 00 00       	call   40c440 <__libirc_set_cpu_feature>
  40b4a3:	85 c0                	test   %eax,%eax
  40b4a5:	0f 85 67 fd ff ff    	jne    40b212 <__intel_cpu_features_init_body+0x432>
  40b4ab:	f7 c6 00 00 00 01    	test   $0x1000000,%esi
  40b4b1:	74 15                	je     40b4c8 <__intel_cpu_features_init_body+0x6e8>
  40b4b3:	48 89 e0             	mov    %rsp,%rax
  40b4b6:	b9 42 00 00 00       	mov    $0x42,%ecx
  40b4bb:	e8 80 0f 00 00       	call   40c440 <__libirc_set_cpu_feature>
  40b4c0:	85 c0                	test   %eax,%eax
  40b4c2:	0f 85 4a fd ff ff    	jne    40b212 <__intel_cpu_features_init_body+0x432>
  40b4c8:	f7 c6 00 00 00 02    	test   $0x2000000,%esi
  40b4ce:	74 15                	je     40b4e5 <__intel_cpu_features_init_body+0x705>
  40b4d0:	48 89 e0             	mov    %rsp,%rax
  40b4d3:	b9 43 00 00 00       	mov    $0x43,%ecx
  40b4d8:	e8 63 0f 00 00       	call   40c440 <__libirc_set_cpu_feature>
  40b4dd:	85 c0                	test   %eax,%eax
  40b4df:	0f 85 2d fd ff ff    	jne    40b212 <__intel_cpu_features_init_body+0x432>
  40b4e5:	f7 c6 00 00 40 00    	test   $0x400000,%esi
  40b4eb:	74 15                	je     40b502 <__intel_cpu_features_init_body+0x722>
  40b4ed:	48 89 e0             	mov    %rsp,%rax
  40b4f0:	b9 44 00 00 00       	mov    $0x44,%ecx
  40b4f5:	e8 46 0f 00 00       	call   40c440 <__libirc_set_cpu_feature>
  40b4fa:	85 c0                	test   %eax,%eax
  40b4fc:	0f 85 10 fd ff ff    	jne    40b212 <__intel_cpu_features_init_body+0x432>
  40b502:	41 f6 c2 06          	test   $0x6,%r10b
  40b506:	0f 85 d9 fc ff ff    	jne    40b1e5 <__intel_cpu_features_init_body+0x405>
  40b50c:	48 89 e0             	mov    %rsp,%rax
  40b50f:	b9 01 00 00 00       	mov    $0x1,%ecx
  40b514:	e8 27 0f 00 00       	call   40c440 <__libirc_set_cpu_feature>
  40b519:	85 c0                	test   %eax,%eax
  40b51b:	0f 85 f1 fc ff ff    	jne    40b212 <__intel_cpu_features_init_body+0x432>
  40b521:	41 f7 c0 00 00 00 10 	test   $0x10000000,%r8d
  40b528:	0f 85 f1 02 00 00    	jne    40b81f <__intel_cpu_features_init_body+0xa3f>
  40b52e:	41 f7 c0 00 00 00 20 	test   $0x20000000,%r8d
  40b535:	74 15                	je     40b54c <__intel_cpu_features_init_body+0x76c>
  40b537:	48 89 e0             	mov    %rsp,%rax
  40b53a:	b9 11 00 00 00       	mov    $0x11,%ecx
  40b53f:	e8 fc 0e 00 00       	call   40c440 <__libirc_set_cpu_feature>
  40b544:	85 c0                	test   %eax,%eax
  40b546:	0f 85 c6 fc ff ff    	jne    40b212 <__intel_cpu_features_init_body+0x432>
  40b54c:	41 f6 c1 20          	test   $0x20,%r9b
  40b550:	74 15                	je     40b567 <__intel_cpu_features_init_body+0x787>
  40b552:	48 89 e0             	mov    %rsp,%rax
  40b555:	b9 18 00 00 00       	mov    $0x18,%ecx
  40b55a:	e8 e1 0e 00 00       	call   40c440 <__libirc_set_cpu_feature>
  40b55f:	85 c0                	test   %eax,%eax
  40b561:	0f 85 ab fc ff ff    	jne    40b212 <__intel_cpu_features_init_body+0x432>
  40b567:	41 f7 c0 00 10 00 00 	test   $0x1000,%r8d
  40b56e:	74 15                	je     40b585 <__intel_cpu_features_init_body+0x7a5>
  40b570:	48 89 e0             	mov    %rsp,%rax
  40b573:	b9 13 00 00 00       	mov    $0x13,%ecx
  40b578:	e8 c3 0e 00 00       	call   40c440 <__libirc_set_cpu_feature>
  40b57d:	85 c0                	test   %eax,%eax
  40b57f:	0f 85 8d fc ff ff    	jne    40b212 <__intel_cpu_features_init_body+0x432>
  40b585:	41 f6 c2 18          	test   $0x18,%r10b
  40b589:	75 33                	jne    40b5be <__intel_cpu_features_init_body+0x7de>
  40b58b:	48 89 e0             	mov    %rsp,%rax
  40b58e:	b9 01 00 00 00       	mov    $0x1,%ecx
  40b593:	e8 a8 0e 00 00       	call   40c440 <__libirc_set_cpu_feature>
  40b598:	85 c0                	test   %eax,%eax
  40b59a:	0f 85 72 fc ff ff    	jne    40b212 <__intel_cpu_features_init_body+0x432>
  40b5a0:	41 f7 c1 00 40 00 00 	test   $0x4000,%r9d
  40b5a7:	74 15                	je     40b5be <__intel_cpu_features_init_body+0x7de>
  40b5a9:	48 89 e0             	mov    %rsp,%rax
  40b5ac:	b9 25 00 00 00       	mov    $0x25,%ecx
  40b5b1:	e8 8a 0e 00 00       	call   40c440 <__libirc_set_cpu_feature>
  40b5b6:	85 c0                	test   %eax,%eax
  40b5b8:	0f 85 54 fc ff ff    	jne    40b212 <__intel_cpu_features_init_body+0x432>
  40b5be:	b8 07 00 00 00       	mov    $0x7,%eax
  40b5c3:	b9 01 00 00 00       	mov    $0x1,%ecx
  40b5c8:	0f a2                	cpuid
  40b5ca:	89 c2                	mov    %eax,%edx
  40b5cc:	f6 c2 10             	test   $0x10,%dl
  40b5cf:	74 15                	je     40b5e6 <__intel_cpu_features_init_body+0x806>
  40b5d1:	48 89 e0             	mov    %rsp,%rax
  40b5d4:	b9 41 00 00 00       	mov    $0x41,%ecx
  40b5d9:	e8 62 0e 00 00       	call   40c440 <__libirc_set_cpu_feature>
  40b5de:	85 c0                	test   %eax,%eax
  40b5e0:	0f 85 2c fc ff ff    	jne    40b212 <__intel_cpu_features_init_body+0x432>
  40b5e6:	41 f6 c2 e0          	test   $0xe0,%r10b
  40b5ea:	0f 85 f5 fb ff ff    	jne    40b1e5 <__intel_cpu_features_init_body+0x405>
  40b5f0:	48 89 e0             	mov    %rsp,%rax
  40b5f3:	b9 01 00 00 00       	mov    $0x1,%ecx
  40b5f8:	e8 43 0e 00 00       	call   40c440 <__libirc_set_cpu_feature>
  40b5fd:	85 c0                	test   %eax,%eax
  40b5ff:	0f 85 0d fc ff ff    	jne    40b212 <__intel_cpu_features_init_body+0x432>
  40b605:	41 f7 c1 00 00 01 00 	test   $0x10000,%r9d
  40b60c:	74 15                	je     40b623 <__intel_cpu_features_init_body+0x843>
  40b60e:	48 89 e0             	mov    %rsp,%rax
  40b611:	b9 19 00 00 00       	mov    $0x19,%ecx
  40b616:	e8 25 0e 00 00       	call   40c440 <__libirc_set_cpu_feature>
  40b61b:	85 c0                	test   %eax,%eax
  40b61d:	0f 85 ef fb ff ff    	jne    40b212 <__intel_cpu_features_init_body+0x432>
  40b623:	41 f7 c1 00 00 00 10 	test   $0x10000000,%r9d
  40b62a:	74 15                	je     40b641 <__intel_cpu_features_init_body+0x861>
  40b62c:	48 89 e0             	mov    %rsp,%rax
  40b62f:	b9 23 00 00 00       	mov    $0x23,%ecx
  40b634:	e8 07 0e 00 00       	call   40c440 <__libirc_set_cpu_feature>
  40b639:	85 c0                	test   %eax,%eax
  40b63b:	0f 85 d1 fb ff ff    	jne    40b212 <__intel_cpu_features_init_body+0x432>
  40b641:	41 f7 c1 00 00 00 08 	test   $0x8000000,%r9d
  40b648:	74 15                	je     40b65f <__intel_cpu_features_init_body+0x87f>
  40b64a:	48 89 e0             	mov    %rsp,%rax
  40b64d:	b9 21 00 00 00       	mov    $0x21,%ecx
  40b652:	e8 e9 0d 00 00       	call   40c440 <__libirc_set_cpu_feature>
  40b657:	85 c0                	test   %eax,%eax
  40b659:	0f 85 b3 fb ff ff    	jne    40b212 <__intel_cpu_features_init_body+0x432>
  40b65f:	41 f7 c1 00 00 00 04 	test   $0x4000000,%r9d
  40b666:	74 15                	je     40b67d <__intel_cpu_features_init_body+0x89d>
  40b668:	48 89 e0             	mov    %rsp,%rax
  40b66b:	b9 22 00 00 00       	mov    $0x22,%ecx
  40b670:	e8 cb 0d 00 00       	call   40c440 <__libirc_set_cpu_feature>
  40b675:	85 c0                	test   %eax,%eax
  40b677:	0f 85 95 fb ff ff    	jne    40b212 <__intel_cpu_features_init_body+0x432>
  40b67d:	41 f7 c1 00 00 02 00 	test   $0x20000,%r9d
  40b684:	74 15                	je     40b69b <__intel_cpu_features_init_body+0x8bb>
  40b686:	48 89 e0             	mov    %rsp,%rax
  40b689:	b9 1a 00 00 00       	mov    $0x1a,%ecx
  40b68e:	e8 ad 0d 00 00       	call   40c440 <__libirc_set_cpu_feature>
  40b693:	85 c0                	test   %eax,%eax
  40b695:	0f 85 77 fb ff ff    	jne    40b212 <__intel_cpu_features_init_body+0x432>
  40b69b:	41 f7 c1 00 00 00 40 	test   $0x40000000,%r9d
  40b6a2:	74 15                	je     40b6b9 <__intel_cpu_features_init_body+0x8d9>
  40b6a4:	48 89 e0             	mov    %rsp,%rax
  40b6a7:	b9 26 00 00 00       	mov    $0x26,%ecx
  40b6ac:	e8 8f 0d 00 00       	call   40c440 <__libirc_set_cpu_feature>
  40b6b1:	85 c0                	test   %eax,%eax
  40b6b3:	0f 85 59 fb ff ff    	jne    40b212 <__intel_cpu_features_init_body+0x432>
  40b6b9:	45 85 c9             	test   %r9d,%r9d
  40b6bc:	0f 88 b5 01 00 00    	js     40b877 <__intel_cpu_features_init_body+0xa97>
  40b6c2:	41 f7 c1 00 00 20 00 	test   $0x200000,%r9d
  40b6c9:	74 15                	je     40b6e0 <__intel_cpu_features_init_body+0x900>
  40b6cb:	48 89 e0             	mov    %rsp,%rax
  40b6ce:	b9 1f 00 00 00       	mov    $0x1f,%ecx
  40b6d3:	e8 68 0d 00 00       	call   40c440 <__libirc_set_cpu_feature>
  40b6d8:	85 c0                	test   %eax,%eax
  40b6da:	0f 85 32 fb ff ff    	jne    40b212 <__intel_cpu_features_init_body+0x432>
  40b6e0:	40 f6 c7 02          	test   $0x2,%dil
  40b6e4:	74 15                	je     40b6fb <__intel_cpu_features_init_body+0x91b>
  40b6e6:	48 89 e0             	mov    %rsp,%rax
  40b6e9:	b9 28 00 00 00       	mov    $0x28,%ecx
  40b6ee:	e8 4d 0d 00 00       	call   40c440 <__libirc_set_cpu_feature>
  40b6f3:	85 c0                	test   %eax,%eax
  40b6f5:	0f 85 17 fb ff ff    	jne    40b212 <__intel_cpu_features_init_body+0x432>
  40b6fb:	f7 c7 00 40 00 00    	test   $0x4000,%edi
  40b701:	74 15                	je     40b718 <__intel_cpu_features_init_body+0x938>
  40b703:	48 89 e0             	mov    %rsp,%rax
  40b706:	b9 2b 00 00 00       	mov    $0x2b,%ecx
  40b70b:	e8 30 0d 00 00       	call   40c440 <__libirc_set_cpu_feature>
  40b710:	85 c0                	test   %eax,%eax
  40b712:	0f 85 fa fa ff ff    	jne    40b212 <__intel_cpu_features_init_body+0x432>
  40b718:	40 f6 c6 04          	test   $0x4,%sil
  40b71c:	74 15                	je     40b733 <__intel_cpu_features_init_body+0x953>
  40b71e:	48 89 e0             	mov    %rsp,%rax
  40b721:	b9 2a 00 00 00       	mov    $0x2a,%ecx
  40b726:	e8 15 0d 00 00       	call   40c440 <__libirc_set_cpu_feature>
  40b72b:	85 c0                	test   %eax,%eax
  40b72d:	0f 85 df fa ff ff    	jne    40b212 <__intel_cpu_features_init_body+0x432>
  40b733:	40 f6 c6 08          	test   $0x8,%sil
  40b737:	74 15                	je     40b74e <__intel_cpu_features_init_body+0x96e>
  40b739:	48 89 e0             	mov    %rsp,%rax
  40b73c:	b9 29 00 00 00       	mov    $0x29,%ecx
  40b741:	e8 fa 0c 00 00       	call   40c440 <__libirc_set_cpu_feature>
  40b746:	85 c0                	test   %eax,%eax
  40b748:	0f 85 c4 fa ff ff    	jne    40b212 <__intel_cpu_features_init_body+0x432>
  40b74e:	f7 c7 00 10 00 00    	test   $0x1000,%edi
  40b754:	74 15                	je     40b76b <__intel_cpu_features_init_body+0x98b>
  40b756:	48 89 e0             	mov    %rsp,%rax
  40b759:	b9 2c 00 00 00       	mov    $0x2c,%ecx
  40b75e:	e8 dd 0c 00 00       	call   40c440 <__libirc_set_cpu_feature>
  40b763:	85 c0                	test   %eax,%eax
  40b765:	0f 85 a7 fa ff ff    	jne    40b212 <__intel_cpu_features_init_body+0x432>
  40b76b:	40 f6 c7 40          	test   $0x40,%dil
  40b76f:	74 15                	je     40b786 <__intel_cpu_features_init_body+0x9a6>
  40b771:	48 89 e0             	mov    %rsp,%rax
  40b774:	b9 2d 00 00 00       	mov    $0x2d,%ecx
  40b779:	e8 c2 0c 00 00       	call   40c440 <__libirc_set_cpu_feature>
  40b77e:	85 c0                	test   %eax,%eax
  40b780:	0f 85 8c fa ff ff    	jne    40b212 <__intel_cpu_features_init_body+0x432>
  40b786:	f7 c7 00 08 00 00    	test   $0x800,%edi
  40b78c:	74 15                	je     40b7a3 <__intel_cpu_features_init_body+0x9c3>
  40b78e:	48 89 e0             	mov    %rsp,%rax
  40b791:	b9 31 00 00 00       	mov    $0x31,%ecx
  40b796:	e8 a5 0c 00 00       	call   40c440 <__libirc_set_cpu_feature>
  40b79b:	85 c0                	test   %eax,%eax
  40b79d:	0f 85 6f fa ff ff    	jne    40b212 <__intel_cpu_features_init_body+0x432>
  40b7a3:	f6 c2 20             	test   $0x20,%dl
  40b7a6:	74 15                	je     40b7bd <__intel_cpu_features_init_body+0x9dd>
  40b7a8:	48 89 e0             	mov    %rsp,%rax
  40b7ab:	b9 3f 00 00 00       	mov    $0x3f,%ecx
  40b7b0:	e8 8b 0c 00 00       	call   40c440 <__libirc_set_cpu_feature>
  40b7b5:	85 c0                	test   %eax,%eax
  40b7b7:	0f 85 55 fa ff ff    	jne    40b212 <__intel_cpu_features_init_body+0x432>
  40b7bd:	f7 c6 00 00 80 00    	test   $0x800000,%esi
  40b7c3:	74 15                	je     40b7da <__intel_cpu_features_init_body+0x9fa>
  40b7c5:	48 89 e0             	mov    %rsp,%rax
  40b7c8:	b9 3a 00 00 00       	mov    $0x3a,%ecx
  40b7cd:	e8 6e 0c 00 00       	call   40c440 <__libirc_set_cpu_feature>
  40b7d2:	85 c0                	test   %eax,%eax
  40b7d4:	0f 85 38 fa ff ff    	jne    40b212 <__intel_cpu_features_init_body+0x432>
  40b7da:	f7 c6 00 01 00 00    	test   $0x100,%esi
  40b7e0:	0f 84 ff f9 ff ff    	je     40b1e5 <__intel_cpu_features_init_body+0x405>
  40b7e6:	48 89 e0             	mov    %rsp,%rax
  40b7e9:	b9 39 00 00 00       	mov    $0x39,%ecx
  40b7ee:	e8 4d 0c 00 00       	call   40c440 <__libirc_set_cpu_feature>
  40b7f3:	85 c0                	test   %eax,%eax
  40b7f5:	0f 85 17 fa ff ff    	jne    40b212 <__intel_cpu_features_init_body+0x432>
  40b7fb:	e9 e5 f9 ff ff       	jmp    40b1e5 <__intel_cpu_features_init_body+0x405>
  40b800:	0f 28 04 24          	movaps (%rsp),%xmm0
  40b804:	83 fd 01             	cmp    $0x1,%ebp
  40b807:	75 07                	jne    40b810 <__intel_cpu_features_init_body+0xa30>
  40b809:	0f 29 05 80 69 00 00 	movaps %xmm0,0x6980(%rip)        # 412190 <__intel_cpu_feature_indicator>
  40b810:	48 c7 c0 a0 21 41 00 	mov    $0x4121a0,%rax
  40b817:	0f 29 00             	movaps %xmm0,(%rax)
  40b81a:	e9 f1 f9 ff ff       	jmp    40b210 <__intel_cpu_features_init_body+0x430>
  40b81f:	48 89 e0             	mov    %rsp,%rax
  40b822:	b9 10 00 00 00       	mov    $0x10,%ecx
  40b827:	e8 14 0c 00 00       	call   40c440 <__libirc_set_cpu_feature>
  40b82c:	85 c0                	test   %eax,%eax
  40b82e:	0f 85 de f9 ff ff    	jne    40b212 <__intel_cpu_features_init_body+0x432>
  40b834:	f7 c7 00 02 00 00    	test   $0x200,%edi
  40b83a:	74 15                	je     40b851 <__intel_cpu_features_init_body+0xa71>
  40b83c:	48 89 e0             	mov    %rsp,%rax
  40b83f:	b9 2f 00 00 00       	mov    $0x2f,%ecx
  40b844:	e8 f7 0b 00 00       	call   40c440 <__libirc_set_cpu_feature>
  40b849:	85 c0                	test   %eax,%eax
  40b84b:	0f 85 c1 f9 ff ff    	jne    40b212 <__intel_cpu_features_init_body+0x432>
  40b851:	f7 c7 00 04 00 00    	test   $0x400,%edi
  40b857:	0f 84 d1 fc ff ff    	je     40b52e <__intel_cpu_features_init_body+0x74e>
  40b85d:	48 89 e0             	mov    %rsp,%rax
  40b860:	b9 30 00 00 00       	mov    $0x30,%ecx
  40b865:	e8 d6 0b 00 00       	call   40c440 <__libirc_set_cpu_feature>
  40b86a:	85 c0                	test   %eax,%eax
  40b86c:	0f 85 a0 f9 ff ff    	jne    40b212 <__intel_cpu_features_init_body+0x432>
  40b872:	e9 b7 fc ff ff       	jmp    40b52e <__intel_cpu_features_init_body+0x74e>
  40b877:	48 89 e0             	mov    %rsp,%rax
  40b87a:	b9 27 00 00 00       	mov    $0x27,%ecx
  40b87f:	e8 bc 0b 00 00       	call   40c440 <__libirc_set_cpu_feature>
  40b884:	85 c0                	test   %eax,%eax
  40b886:	0f 85 86 f9 ff ff    	jne    40b212 <__intel_cpu_features_init_body+0x432>
  40b88c:	e9 31 fe ff ff       	jmp    40b6c2 <__intel_cpu_features_init_body+0x8e2>
  40b891:	66 2e 0f 1f 84 00 00 	cs nopw 0x0(%rax,%rax,1)
  40b898:	00 00 00 
  40b89b:	0f 1f 44 00 00       	nopl   0x0(%rax,%rax,1)

000000000040b8a0 <__intel_cpu_features_init_x>:
  40b8a0:	f3 0f 1e fa          	endbr64
  40b8a4:	50                   	push   %rax
  40b8a5:	31 c0                	xor    %eax,%eax
  40b8a7:	e8 34 f5 ff ff       	call   40ade0 <__intel_cpu_features_init_body>
  40b8ac:	48 83 c4 08          	add    $0x8,%rsp
  40b8b0:	c3                   	ret
  40b8b1:	66 2e 0f 1f 84 00 00 	cs nopw 0x0(%rax,%rax,1)
  40b8b8:	00 00 00 
  40b8bb:	0f 1f 44 00 00       	nopl   0x0(%rax,%rax,1)

000000000040b8c0 <__libirc_get_feature_name>:
  40b8c0:	f3 0f 1e fa          	endbr64
  40b8c4:	50                   	push   %rax
  40b8c5:	80 3d e4 68 00 00 00 	cmpb   $0x0,0x68e4(%rip)        # 4121b0 <__libirc_isa_info_initialized>
  40b8cc:	75 05                	jne    40b8d3 <__libirc_get_feature_name+0x13>
  40b8ce:	e8 1d 00 00 00       	call   40b8f0 <__libirc_isa_init_once>
  40b8d3:	89 f8                	mov    %edi,%eax
  40b8d5:	48 8d 04 40          	lea    (%rax,%rax,2),%rax
  40b8d9:	48 8d 0d e0 68 00 00 	lea    0x68e0(%rip),%rcx        # 4121c0 <proc_info_features>
  40b8e0:	48 8b 04 c1          	mov    (%rcx,%rax,8),%rax
  40b8e4:	59                   	pop    %rcx
  40b8e5:	c3                   	ret
  40b8e6:	66 2e 0f 1f 84 00 00 	cs nopw 0x0(%rax,%rax,1)
  40b8ed:	00 00 00 

000000000040b8f0 <__libirc_isa_init_once>:
  40b8f0:	51                   	push   %rcx
  40b8f1:	80 3d b8 68 00 00 00 	cmpb   $0x0,0x68b8(%rip)        # 4121b0 <__libirc_isa_info_initialized>
  40b8f8:	0f 85 aa 0a 00 00    	jne    40c3a8 <__libirc_isa_init_once+0xab8>
  40b8fe:	b8 c8 00 00 00       	mov    $0xc8,%eax
  40b903:	48 8d 0d b6 68 00 00 	lea    0x68b6(%rip),%rcx        # 4121c0 <proc_info_features>
  40b90a:	66 0f 1f 44 00 00    	nopw   0x0(%rax,%rax,1)
  40b910:	c7 84 08 58 ff ff ff 	movl   $0xffffffff,-0xa8(%rax,%rcx,1)
  40b917:	ff ff ff ff 
  40b91b:	c7 84 08 70 ff ff ff 	movl   $0xffffffff,-0x90(%rax,%rcx,1)
  40b922:	ff ff ff ff 
  40b926:	c7 44 08 88 ff ff ff 	movl   $0xffffffff,-0x78(%rax,%rcx,1)
  40b92d:	ff 
  40b92e:	c7 44 08 a0 ff ff ff 	movl   $0xffffffff,-0x60(%rax,%rcx,1)
  40b935:	ff 
  40b936:	c7 44 08 b8 ff ff ff 	movl   $0xffffffff,-0x48(%rax,%rcx,1)
  40b93d:	ff 
  40b93e:	c7 44 08 d0 ff ff ff 	movl   $0xffffffff,-0x30(%rax,%rcx,1)
  40b945:	ff 
  40b946:	c7 44 08 e8 ff ff ff 	movl   $0xffffffff,-0x18(%rax,%rcx,1)
  40b94d:	ff 
  40b94e:	c7 04 08 ff ff ff ff 	movl   $0xffffffff,(%rax,%rcx,1)
  40b955:	48 05 c0 00 00 00    	add    $0xc0,%rax
  40b95b:	48 3d c8 06 00 00    	cmp    $0x6c8,%rax
  40b961:	75 ad                	jne    40b910 <__libirc_isa_init_once+0x20>
  40b963:	c7 05 73 6e 00 00 ff 	movl   $0xffffffff,0x6e73(%rip)        # 4127e0 <proc_info_features+0x620>
  40b96a:	ff ff ff 
  40b96d:	c7 05 81 6e 00 00 ff 	movl   $0xffffffff,0x6e81(%rip)        # 4127f8 <proc_info_features+0x638>
  40b974:	ff ff ff 
  40b977:	c7 05 8f 6e 00 00 ff 	movl   $0xffffffff,0x6e8f(%rip)        # 412810 <proc_info_features+0x650>
  40b97e:	ff ff ff 
  40b981:	c7 05 9d 6e 00 00 ff 	movl   $0xffffffff,0x6e9d(%rip)        # 412828 <proc_info_features+0x668>
  40b988:	ff ff ff 
  40b98b:	c7 05 ab 6e 00 00 ff 	movl   $0xffffffff,0x6eab(%rip)        # 412840 <proc_info_features+0x680>
  40b992:	ff ff ff 
  40b995:	c7 05 b9 6e 00 00 ff 	movl   $0xffffffff,0x6eb9(%rip)        # 412858 <proc_info_features+0x698>
  40b99c:	ff ff ff 
  40b99f:	48 8d 05 50 28 00 00 	lea    0x2850(%rip),%rax        # 40e1f6 <_IO_stdin_used+0x1f6>
  40b9a6:	48 89 05 2b 68 00 00 	mov    %rax,0x682b(%rip)        # 4121d8 <proc_info_features+0x18>
  40b9ad:	c7 05 29 68 00 00 00 	movl   $0x0,0x6829(%rip)        # 4121e0 <proc_info_features+0x20>
  40b9b4:	00 00 00 
  40b9b7:	48 8d 05 45 28 00 00 	lea    0x2845(%rip),%rax        # 40e203 <_IO_stdin_used+0x203>
  40b9be:	48 89 05 2b 68 00 00 	mov    %rax,0x682b(%rip)        # 4121f0 <proc_info_features+0x30>
  40b9c5:	c7 05 29 68 00 00 01 	movl   $0x1,0x6829(%rip)        # 4121f8 <proc_info_features+0x38>
  40b9cc:	00 00 00 
  40b9cf:	48 8d 05 31 28 00 00 	lea    0x2831(%rip),%rax        # 40e207 <_IO_stdin_used+0x207>
  40b9d6:	48 89 05 2b 68 00 00 	mov    %rax,0x682b(%rip)        # 412208 <proc_info_features+0x48>
  40b9dd:	c7 05 29 68 00 00 02 	movl   $0x2,0x6829(%rip)        # 412210 <proc_info_features+0x50>
  40b9e4:	00 00 00 
  40b9e7:	c7 05 37 68 00 00 03 	movl   $0x3,0x6837(%rip)        # 412228 <proc_info_features+0x68>
  40b9ee:	00 00 00 
  40b9f1:	48 8d 05 14 28 00 00 	lea    0x2814(%rip),%rax        # 40e20c <_IO_stdin_used+0x20c>
  40b9f8:	48 89 05 31 68 00 00 	mov    %rax,0x6831(%rip)        # 412230 <proc_info_features+0x70>
  40b9ff:	48 8d 05 0a 28 00 00 	lea    0x280a(%rip),%rax        # 40e210 <_IO_stdin_used+0x210>
  40ba06:	48 89 05 13 68 00 00 	mov    %rax,0x6813(%rip)        # 412220 <proc_info_features+0x60>
  40ba0d:	48 8d 05 00 28 00 00 	lea    0x2800(%rip),%rax        # 40e214 <_IO_stdin_used+0x214>
  40ba14:	48 89 05 1d 68 00 00 	mov    %rax,0x681d(%rip)        # 412238 <proc_info_features+0x78>
  40ba1b:	c7 05 1b 68 00 00 04 	movl   $0x4,0x681b(%rip)        # 412240 <proc_info_features+0x80>
  40ba22:	00 00 00 
  40ba25:	c7 05 29 68 00 00 05 	movl   $0x5,0x6829(%rip)        # 412258 <proc_info_features+0x98>
  40ba2c:	00 00 00 
  40ba2f:	48 8d 05 e5 27 00 00 	lea    0x27e5(%rip),%rax        # 40e21b <_IO_stdin_used+0x21b>
  40ba36:	48 89 05 23 68 00 00 	mov    %rax,0x6823(%rip)        # 412260 <proc_info_features+0xa0>
  40ba3d:	48 8d 05 db 27 00 00 	lea    0x27db(%rip),%rax        # 40e21f <_IO_stdin_used+0x21f>
  40ba44:	48 89 05 05 68 00 00 	mov    %rax,0x6805(%rip)        # 412250 <proc_info_features+0x90>
  40ba4b:	c7 05 1b 68 00 00 06 	movl   $0x6,0x681b(%rip)        # 412270 <proc_info_features+0xb0>
  40ba52:	00 00 00 
  40ba55:	48 8d 05 c7 27 00 00 	lea    0x27c7(%rip),%rax        # 40e223 <_IO_stdin_used+0x223>
  40ba5c:	48 89 05 15 68 00 00 	mov    %rax,0x6815(%rip)        # 412278 <proc_info_features+0xb8>
  40ba63:	48 8d 05 be 27 00 00 	lea    0x27be(%rip),%rax        # 40e228 <_IO_stdin_used+0x228>
  40ba6a:	48 89 05 f7 67 00 00 	mov    %rax,0x67f7(%rip)        # 412268 <proc_info_features+0xa8>
  40ba71:	c7 05 0d 68 00 00 07 	movl   $0x7,0x680d(%rip)        # 412288 <proc_info_features+0xc8>
  40ba78:	00 00 00 
  40ba7b:	48 8d 05 ac 27 00 00 	lea    0x27ac(%rip),%rax        # 40e22e <_IO_stdin_used+0x22e>
  40ba82:	48 89 05 07 68 00 00 	mov    %rax,0x6807(%rip)        # 412290 <proc_info_features+0xd0>
  40ba89:	48 8d 05 a4 27 00 00 	lea    0x27a4(%rip),%rax        # 40e234 <_IO_stdin_used+0x234>
  40ba90:	48 89 05 e9 67 00 00 	mov    %rax,0x67e9(%rip)        # 412280 <proc_info_features+0xc0>
  40ba97:	c7 05 ff 67 00 00 08 	movl   $0x8,0x67ff(%rip)        # 4122a0 <proc_info_features+0xe0>
  40ba9e:	00 00 00 
  40baa1:	48 8d 05 85 27 00 00 	lea    0x2785(%rip),%rax        # 40e22d <_IO_stdin_used+0x22d>
  40baa8:	48 89 05 f9 67 00 00 	mov    %rax,0x67f9(%rip)        # 4122a8 <proc_info_features+0xe8>
  40baaf:	48 8d 05 7d 27 00 00 	lea    0x277d(%rip),%rax        # 40e233 <_IO_stdin_used+0x233>
  40bab6:	48 89 05 db 67 00 00 	mov    %rax,0x67db(%rip)        # 412298 <proc_info_features+0xd8>
  40babd:	c7 05 f1 67 00 00 09 	movl   $0x9,0x67f1(%rip)        # 4122b8 <proc_info_features+0xf8>
  40bac4:	00 00 00 
  40bac7:	48 8d 05 6b 27 00 00 	lea    0x276b(%rip),%rax        # 40e239 <_IO_stdin_used+0x239>
  40bace:	48 89 05 eb 67 00 00 	mov    %rax,0x67eb(%rip)        # 4122c0 <proc_info_features+0x100>
  40bad5:	48 8d 05 64 27 00 00 	lea    0x2764(%rip),%rax        # 40e240 <_IO_stdin_used+0x240>
  40badc:	48 89 05 cd 67 00 00 	mov    %rax,0x67cd(%rip)        # 4122b0 <proc_info_features+0xf0>
  40bae3:	c7 05 e3 67 00 00 0a 	movl   $0xa,0x67e3(%rip)        # 4122d0 <proc_info_features+0x110>
  40baea:	00 00 00 
  40baed:	48 8d 05 53 27 00 00 	lea    0x2753(%rip),%rax        # 40e247 <_IO_stdin_used+0x247>
  40baf4:	48 89 05 dd 67 00 00 	mov    %rax,0x67dd(%rip)        # 4122d8 <proc_info_features+0x118>
  40bafb:	48 8d 05 4a 27 00 00 	lea    0x274a(%rip),%rax        # 40e24c <_IO_stdin_used+0x24c>
  40bb02:	48 89 05 bf 67 00 00 	mov    %rax,0x67bf(%rip)        # 4122c8 <proc_info_features+0x108>
  40bb09:	c7 05 d5 67 00 00 0b 	movl   $0xb,0x67d5(%rip)        # 4122e8 <proc_info_features+0x128>
  40bb10:	00 00 00 
  40bb13:	48 8d 05 39 27 00 00 	lea    0x2739(%rip),%rax        # 40e253 <_IO_stdin_used+0x253>
  40bb1a:	48 89 05 cf 67 00 00 	mov    %rax,0x67cf(%rip)        # 4122f0 <proc_info_features+0x130>
  40bb21:	48 8d 05 31 27 00 00 	lea    0x2731(%rip),%rax        # 40e259 <_IO_stdin_used+0x259>
  40bb28:	48 89 05 b1 67 00 00 	mov    %rax,0x67b1(%rip)        # 4122e0 <proc_info_features+0x120>
  40bb2f:	c7 05 c7 67 00 00 0c 	movl   $0xc,0x67c7(%rip)        # 412300 <proc_info_features+0x140>
  40bb36:	00 00 00 
  40bb39:	48 8d 05 1f 27 00 00 	lea    0x271f(%rip),%rax        # 40e25f <_IO_stdin_used+0x25f>
  40bb40:	48 89 05 c1 67 00 00 	mov    %rax,0x67c1(%rip)        # 412308 <proc_info_features+0x148>
  40bb47:	48 8d 05 18 27 00 00 	lea    0x2718(%rip),%rax        # 40e266 <_IO_stdin_used+0x266>
  40bb4e:	48 89 05 a3 67 00 00 	mov    %rax,0x67a3(%rip)        # 4122f8 <proc_info_features+0x138>
  40bb55:	c7 05 b9 67 00 00 0d 	movl   $0xd,0x67b9(%rip)        # 412318 <proc_info_features+0x158>
  40bb5c:	00 00 00 
  40bb5f:	48 8d 05 07 27 00 00 	lea    0x2707(%rip),%rax        # 40e26d <_IO_stdin_used+0x26d>
  40bb66:	48 89 05 b3 67 00 00 	mov    %rax,0x67b3(%rip)        # 412320 <proc_info_features+0x160>
  40bb6d:	48 8d 05 d9 28 00 00 	lea    0x28d9(%rip),%rax        # 40e44d <_IO_stdin_used+0x44d>
  40bb74:	48 89 05 95 67 00 00 	mov    %rax,0x6795(%rip)        # 412310 <proc_info_features+0x150>
  40bb7b:	c7 05 ab 67 00 00 0e 	movl   $0xe,0x67ab(%rip)        # 412330 <proc_info_features+0x170>
  40bb82:	00 00 00 
  40bb85:	48 8d 05 ac 28 00 00 	lea    0x28ac(%rip),%rax        # 40e438 <_IO_stdin_used+0x438>
  40bb8c:	48 89 05 a5 67 00 00 	mov    %rax,0x67a5(%rip)        # 412338 <proc_info_features+0x178>
  40bb93:	48 8d 05 a3 28 00 00 	lea    0x28a3(%rip),%rax        # 40e43d <_IO_stdin_used+0x43d>
  40bb9a:	48 89 05 87 67 00 00 	mov    %rax,0x6787(%rip)        # 412328 <proc_info_features+0x168>
  40bba1:	c7 05 9d 67 00 00 10 	movl   $0x10,0x679d(%rip)        # 412348 <proc_info_features+0x188>
  40bba8:	00 00 00 
  40bbab:	48 8d 05 c2 26 00 00 	lea    0x26c2(%rip),%rax        # 40e274 <_IO_stdin_used+0x274>
  40bbb2:	48 89 05 97 67 00 00 	mov    %rax,0x6797(%rip)        # 412350 <proc_info_features+0x190>
  40bbb9:	48 8d 05 b8 26 00 00 	lea    0x26b8(%rip),%rax        # 40e278 <_IO_stdin_used+0x278>
  40bbc0:	48 89 05 79 67 00 00 	mov    %rax,0x6779(%rip)        # 412340 <proc_info_features+0x180>
  40bbc7:	c7 05 8f 67 00 00 0f 	movl   $0xf,0x678f(%rip)        # 412360 <proc_info_features+0x1a0>
  40bbce:	00 00 00 
  40bbd1:	48 8d 05 a4 26 00 00 	lea    0x26a4(%rip),%rax        # 40e27c <_IO_stdin_used+0x27c>
  40bbd8:	48 89 05 89 67 00 00 	mov    %rax,0x6789(%rip)        # 412368 <proc_info_features+0x1a8>
  40bbdf:	48 8d 05 9b 26 00 00 	lea    0x269b(%rip),%rax        # 40e281 <_IO_stdin_used+0x281>
  40bbe6:	48 89 05 6b 67 00 00 	mov    %rax,0x676b(%rip)        # 412358 <proc_info_features+0x198>
  40bbed:	c7 05 81 67 00 00 11 	movl   $0x11,0x6781(%rip)        # 412378 <proc_info_features+0x1b8>
  40bbf4:	00 00 00 
  40bbf7:	48 8d 05 88 26 00 00 	lea    0x2688(%rip),%rax        # 40e286 <_IO_stdin_used+0x286>
  40bbfe:	48 89 05 7b 67 00 00 	mov    %rax,0x677b(%rip)        # 412380 <proc_info_features+0x1c0>
  40bc05:	48 8d 05 80 26 00 00 	lea    0x2680(%rip),%rax        # 40e28c <_IO_stdin_used+0x28c>
  40bc0c:	48 89 05 5d 67 00 00 	mov    %rax,0x675d(%rip)        # 412370 <proc_info_features+0x1b0>
  40bc13:	c7 05 73 67 00 00 12 	movl   $0x12,0x6773(%rip)        # 412390 <proc_info_features+0x1d0>
  40bc1a:	00 00 00 
  40bc1d:	48 8d 05 ed 26 00 00 	lea    0x26ed(%rip),%rax        # 40e311 <_IO_stdin_used+0x311>
  40bc24:	48 89 05 6d 67 00 00 	mov    %rax,0x676d(%rip)        # 412398 <proc_info_features+0x1d8>
  40bc2b:	48 8d 05 60 26 00 00 	lea    0x2660(%rip),%rax        # 40e292 <_IO_stdin_used+0x292>
  40bc32:	48 89 05 4f 67 00 00 	mov    %rax,0x674f(%rip)        # 412388 <proc_info_features+0x1c8>
  40bc39:	c7 05 65 67 00 00 13 	movl   $0x13,0x6765(%rip)        # 4123a8 <proc_info_features+0x1e8>
  40bc40:	00 00 00 
  40bc43:	48 8d 05 49 27 00 00 	lea    0x2749(%rip),%rax        # 40e393 <_IO_stdin_used+0x393>
  40bc4a:	48 89 05 5f 67 00 00 	mov    %rax,0x675f(%rip)        # 4123b0 <proc_info_features+0x1f0>
  40bc51:	48 8d 05 46 27 00 00 	lea    0x2746(%rip),%rax        # 40e39e <_IO_stdin_used+0x39e>
  40bc58:	48 89 05 41 67 00 00 	mov    %rax,0x6741(%rip)        # 4123a0 <proc_info_features+0x1e0>
  40bc5f:	c7 05 57 67 00 00 14 	movl   $0x14,0x6757(%rip)        # 4123c0 <proc_info_features+0x200>
  40bc66:	00 00 00 
  40bc69:	48 8d 05 26 26 00 00 	lea    0x2626(%rip),%rax        # 40e296 <_IO_stdin_used+0x296>
  40bc70:	48 89 05 51 67 00 00 	mov    %rax,0x6751(%rip)        # 4123c8 <proc_info_features+0x208>
  40bc77:	48 8d 05 1e 26 00 00 	lea    0x261e(%rip),%rax        # 40e29c <_IO_stdin_used+0x29c>
  40bc7e:	48 89 05 33 67 00 00 	mov    %rax,0x6733(%rip)        # 4123b8 <proc_info_features+0x1f8>
  40bc85:	c7 05 49 67 00 00 15 	movl   $0x15,0x6749(%rip)        # 4123d8 <proc_info_features+0x218>
  40bc8c:	00 00 00 
  40bc8f:	48 8d 05 0c 26 00 00 	lea    0x260c(%rip),%rax        # 40e2a2 <_IO_stdin_used+0x2a2>
  40bc96:	48 89 05 43 67 00 00 	mov    %rax,0x6743(%rip)        # 4123e0 <proc_info_features+0x220>
  40bc9d:	48 8d 05 02 26 00 00 	lea    0x2602(%rip),%rax        # 40e2a6 <_IO_stdin_used+0x2a6>
  40bca4:	48 89 05 25 67 00 00 	mov    %rax,0x6725(%rip)        # 4123d0 <proc_info_features+0x210>
  40bcab:	c7 05 3b 67 00 00 16 	movl   $0x16,0x673b(%rip)        # 4123f0 <proc_info_features+0x230>
  40bcb2:	00 00 00 
  40bcb5:	48 8d 05 ee 25 00 00 	lea    0x25ee(%rip),%rax        # 40e2aa <_IO_stdin_used+0x2aa>
  40bcbc:	48 89 05 35 67 00 00 	mov    %rax,0x6735(%rip)        # 4123f8 <proc_info_features+0x238>
  40bcc3:	48 8d 05 e4 25 00 00 	lea    0x25e4(%rip),%rax        # 40e2ae <_IO_stdin_used+0x2ae>
  40bcca:	48 89 05 17 67 00 00 	mov    %rax,0x6717(%rip)        # 4123e8 <proc_info_features+0x228>
  40bcd1:	c7 05 2d 67 00 00 17 	movl   $0x17,0x672d(%rip)        # 412408 <proc_info_features+0x248>
  40bcd8:	00 00 00 
  40bcdb:	48 8d 05 d0 25 00 00 	lea    0x25d0(%rip),%rax        # 40e2b2 <_IO_stdin_used+0x2b2>
  40bce2:	48 89 05 27 67 00 00 	mov    %rax,0x6727(%rip)        # 412410 <proc_info_features+0x250>
  40bce9:	48 8d 05 c7 25 00 00 	lea    0x25c7(%rip),%rax        # 40e2b7 <_IO_stdin_used+0x2b7>
  40bcf0:	48 89 05 09 67 00 00 	mov    %rax,0x6709(%rip)        # 412400 <proc_info_features+0x240>
  40bcf7:	c7 05 1f 67 00 00 1b 	movl   $0x1b,0x671f(%rip)        # 412420 <proc_info_features+0x260>
  40bcfe:	00 00 00 
  40bd01:	48 8d 05 b4 25 00 00 	lea    0x25b4(%rip),%rax        # 40e2bc <_IO_stdin_used+0x2bc>
  40bd08:	48 89 05 19 67 00 00 	mov    %rax,0x6719(%rip)        # 412428 <proc_info_features+0x268>
  40bd0f:	48 8d 05 ae 25 00 00 	lea    0x25ae(%rip),%rax        # 40e2c4 <_IO_stdin_used+0x2c4>
  40bd16:	48 89 05 fb 66 00 00 	mov    %rax,0x66fb(%rip)        # 412418 <proc_info_features+0x258>
  40bd1d:	c7 05 11 67 00 00 18 	movl   $0x18,0x6711(%rip)        # 412438 <proc_info_features+0x278>
  40bd24:	00 00 00 
  40bd27:	48 8d 05 9e 25 00 00 	lea    0x259e(%rip),%rax        # 40e2cc <_IO_stdin_used+0x2cc>
  40bd2e:	48 89 05 0b 67 00 00 	mov    %rax,0x670b(%rip)        # 412440 <proc_info_features+0x280>
  40bd35:	48 8d 05 99 25 00 00 	lea    0x2599(%rip),%rax        # 40e2d5 <_IO_stdin_used+0x2d5>
  40bd3c:	48 89 05 ed 66 00 00 	mov    %rax,0x66ed(%rip)        # 412430 <proc_info_features+0x270>
  40bd43:	c7 05 03 67 00 00 19 	movl   $0x19,0x6703(%rip)        # 412450 <proc_info_features+0x290>
  40bd4a:	00 00 00 
  40bd4d:	48 8d 05 8a 25 00 00 	lea    0x258a(%rip),%rax        # 40e2de <_IO_stdin_used+0x2de>
  40bd54:	48 89 05 fd 66 00 00 	mov    %rax,0x66fd(%rip)        # 412458 <proc_info_features+0x298>
  40bd5b:	48 8d 05 84 25 00 00 	lea    0x2584(%rip),%rax        # 40e2e6 <_IO_stdin_used+0x2e6>
  40bd62:	48 89 05 df 66 00 00 	mov    %rax,0x66df(%rip)        # 412448 <proc_info_features+0x288>
  40bd69:	48 8d 05 7e 25 00 00 	lea    0x257e(%rip),%rax        # 40e2ee <_IO_stdin_used+0x2ee>
  40bd70:	48 89 05 e9 66 00 00 	mov    %rax,0x66e9(%rip)        # 412460 <proc_info_features+0x2a0>
  40bd77:	c7 05 e7 66 00 00 1a 	movl   $0x1a,0x66e7(%rip)        # 412468 <proc_info_features+0x2a8>
  40bd7e:	00 00 00 
  40bd81:	c7 05 f5 66 00 00 1c 	movl   $0x1c,0x66f5(%rip)        # 412480 <proc_info_features+0x2c0>
  40bd88:	00 00 00 
  40bd8b:	48 8d 05 62 25 00 00 	lea    0x2562(%rip),%rax        # 40e2f4 <_IO_stdin_used+0x2f4>
  40bd92:	48 89 05 ef 66 00 00 	mov    %rax,0x66ef(%rip)        # 412488 <proc_info_features+0x2c8>
  40bd99:	48 8d 05 58 25 00 00 	lea    0x2558(%rip),%rax        # 40e2f8 <_IO_stdin_used+0x2f8>
  40bda0:	48 89 05 d1 66 00 00 	mov    %rax,0x66d1(%rip)        # 412478 <proc_info_features+0x2b8>
  40bda7:	c7 05 e7 66 00 00 1d 	movl   $0x1d,0x66e7(%rip)        # 412498 <proc_info_features+0x2d8>
  40bdae:	00 00 00 
  40bdb1:	48 8d 05 44 25 00 00 	lea    0x2544(%rip),%rax        # 40e2fc <_IO_stdin_used+0x2fc>
  40bdb8:	48 89 05 e1 66 00 00 	mov    %rax,0x66e1(%rip)        # 4124a0 <proc_info_features+0x2e0>
  40bdbf:	48 8d 05 3d 25 00 00 	lea    0x253d(%rip),%rax        # 40e303 <_IO_stdin_used+0x303>
  40bdc6:	48 89 05 c3 66 00 00 	mov    %rax,0x66c3(%rip)        # 412490 <proc_info_features+0x2d0>
  40bdcd:	c7 05 d9 66 00 00 1e 	movl   $0x1e,0x66d9(%rip)        # 4124b0 <proc_info_features+0x2f0>
  40bdd4:	00 00 00 
  40bdd7:	48 8d 05 2c 25 00 00 	lea    0x252c(%rip),%rax        # 40e30a <_IO_stdin_used+0x30a>
  40bdde:	48 89 05 d3 66 00 00 	mov    %rax,0x66d3(%rip)        # 4124b8 <proc_info_features+0x2f8>
  40bde5:	48 8d 05 29 25 00 00 	lea    0x2529(%rip),%rax        # 40e315 <_IO_stdin_used+0x315>
  40bdec:	48 89 05 b5 66 00 00 	mov    %rax,0x66b5(%rip)        # 4124a8 <proc_info_features+0x2e8>
  40bdf3:	c7 05 cb 66 00 00 ff 	movl   $0xffffffff,0x66cb(%rip)        # 4124c8 <proc_info_features+0x308>
  40bdfa:	ff ff ff 
  40bdfd:	c7 05 d9 66 00 00 20 	movl   $0x20,0x66d9(%rip)        # 4124e0 <proc_info_features+0x320>
  40be04:	00 00 00 
  40be07:	48 8d 05 14 25 00 00 	lea    0x2514(%rip),%rax        # 40e322 <_IO_stdin_used+0x322>
  40be0e:	48 89 05 d3 66 00 00 	mov    %rax,0x66d3(%rip)        # 4124e8 <proc_info_features+0x328>
  40be15:	48 8d 05 0f 25 00 00 	lea    0x250f(%rip),%rax        # 40e32b <_IO_stdin_used+0x32b>
  40be1c:	48 89 05 b5 66 00 00 	mov    %rax,0x66b5(%rip)        # 4124d8 <proc_info_features+0x318>
  40be23:	c7 05 cb 66 00 00 21 	movl   $0x21,0x66cb(%rip)        # 4124f8 <proc_info_features+0x338>
  40be2a:	00 00 00 
  40be2d:	48 8d 05 00 25 00 00 	lea    0x2500(%rip),%rax        # 40e334 <_IO_stdin_used+0x334>
  40be34:	48 89 05 c5 66 00 00 	mov    %rax,0x66c5(%rip)        # 412500 <proc_info_features+0x340>
  40be3b:	48 8d 05 fb 24 00 00 	lea    0x24fb(%rip),%rax        # 40e33d <_IO_stdin_used+0x33d>
  40be42:	48 89 05 a7 66 00 00 	mov    %rax,0x66a7(%rip)        # 4124f0 <proc_info_features+0x330>
  40be49:	c7 05 bd 66 00 00 22 	movl   $0x22,0x66bd(%rip)        # 412510 <proc_info_features+0x350>
  40be50:	00 00 00 
  40be53:	48 8d 05 ec 24 00 00 	lea    0x24ec(%rip),%rax        # 40e346 <_IO_stdin_used+0x346>
  40be5a:	48 89 05 b7 66 00 00 	mov    %rax,0x66b7(%rip)        # 412518 <proc_info_features+0x358>
  40be61:	48 8d 05 e7 24 00 00 	lea    0x24e7(%rip),%rax        # 40e34f <_IO_stdin_used+0x34f>
  40be68:	48 89 05 99 66 00 00 	mov    %rax,0x6699(%rip)        # 412508 <proc_info_features+0x348>
  40be6f:	c7 05 af 66 00 00 23 	movl   $0x23,0x66af(%rip)        # 412528 <proc_info_features+0x368>
  40be76:	00 00 00 
  40be79:	48 8d 05 d8 24 00 00 	lea    0x24d8(%rip),%rax        # 40e358 <_IO_stdin_used+0x358>
  40be80:	48 89 05 a9 66 00 00 	mov    %rax,0x66a9(%rip)        # 412530 <proc_info_features+0x370>
  40be87:	48 8d 05 ce 24 00 00 	lea    0x24ce(%rip),%rax        # 40e35c <_IO_stdin_used+0x35c>
  40be8e:	48 89 05 8b 66 00 00 	mov    %rax,0x668b(%rip)        # 412520 <proc_info_features+0x360>
  40be95:	c7 05 a1 66 00 00 24 	movl   $0x24,0x66a1(%rip)        # 412540 <proc_info_features+0x380>
  40be9c:	00 00 00 
  40be9f:	48 8d 05 ba 24 00 00 	lea    0x24ba(%rip),%rax        # 40e360 <_IO_stdin_used+0x360>
  40bea6:	48 89 05 9b 66 00 00 	mov    %rax,0x669b(%rip)        # 412548 <proc_info_features+0x388>
  40bead:	48 8d 05 b0 24 00 00 	lea    0x24b0(%rip),%rax        # 40e364 <_IO_stdin_used+0x364>
  40beb4:	48 89 05 7d 66 00 00 	mov    %rax,0x667d(%rip)        # 412538 <proc_info_features+0x378>
  40bebb:	c7 05 93 66 00 00 25 	movl   $0x25,0x6693(%rip)        # 412558 <proc_info_features+0x398>
  40bec2:	00 00 00 
  40bec5:	48 8d 05 9c 24 00 00 	lea    0x249c(%rip),%rax        # 40e368 <_IO_stdin_used+0x368>
  40becc:	48 89 05 8d 66 00 00 	mov    %rax,0x668d(%rip)        # 412560 <proc_info_features+0x3a0>
  40bed3:	48 8d 05 97 24 00 00 	lea    0x2497(%rip),%rax        # 40e371 <_IO_stdin_used+0x371>
  40beda:	48 89 05 6f 66 00 00 	mov    %rax,0x666f(%rip)        # 412550 <proc_info_features+0x390>
  40bee1:	c7 05 85 66 00 00 26 	movl   $0x26,0x6685(%rip)        # 412570 <proc_info_features+0x3b0>
  40bee8:	00 00 00 
  40beeb:	48 8d 05 88 24 00 00 	lea    0x2488(%rip),%rax        # 40e37a <_IO_stdin_used+0x37a>
  40bef2:	48 89 05 7f 66 00 00 	mov    %rax,0x667f(%rip)        # 412578 <proc_info_features+0x3b8>
  40bef9:	48 8d 05 83 24 00 00 	lea    0x2483(%rip),%rax        # 40e383 <_IO_stdin_used+0x383>
  40bf00:	48 89 05 61 66 00 00 	mov    %rax,0x6661(%rip)        # 412568 <proc_info_features+0x3a8>
  40bf07:	c7 05 77 66 00 00 27 	movl   $0x27,0x6677(%rip)        # 412588 <proc_info_features+0x3c8>
  40bf0e:	00 00 00 
  40bf11:	48 8d 05 74 24 00 00 	lea    0x2474(%rip),%rax        # 40e38c <_IO_stdin_used+0x38c>
  40bf18:	48 89 05 71 66 00 00 	mov    %rax,0x6671(%rip)        # 412590 <proc_info_features+0x3d0>
  40bf1f:	48 8d 05 71 24 00 00 	lea    0x2471(%rip),%rax        # 40e397 <_IO_stdin_used+0x397>
  40bf26:	48 89 05 53 66 00 00 	mov    %rax,0x6653(%rip)        # 412580 <proc_info_features+0x3c0>
  40bf2d:	c7 05 69 66 00 00 28 	movl   $0x28,0x6669(%rip)        # 4125a0 <proc_info_features+0x3e0>
  40bf34:	00 00 00 
  40bf37:	48 8d 05 64 24 00 00 	lea    0x2464(%rip),%rax        # 40e3a2 <_IO_stdin_used+0x3a2>
  40bf3e:	48 89 05 63 66 00 00 	mov    %rax,0x6663(%rip)        # 4125a8 <proc_info_features+0x3e8>
  40bf45:	48 8d 05 63 24 00 00 	lea    0x2463(%rip),%rax        # 40e3af <_IO_stdin_used+0x3af>
  40bf4c:	48 89 05 45 66 00 00 	mov    %rax,0x6645(%rip)        # 412598 <proc_info_features+0x3d8>
  40bf53:	c7 05 5b 66 00 00 29 	movl   $0x29,0x665b(%rip)        # 4125b8 <proc_info_features+0x3f8>
  40bf5a:	00 00 00 
  40bf5d:	48 8d 05 59 24 00 00 	lea    0x2459(%rip),%rax        # 40e3bd <_IO_stdin_used+0x3bd>
  40bf64:	48 89 05 55 66 00 00 	mov    %rax,0x6655(%rip)        # 4125c0 <proc_info_features+0x400>
  40bf6b:	48 8d 05 58 24 00 00 	lea    0x2458(%rip),%rax        # 40e3ca <_IO_stdin_used+0x3ca>
  40bf72:	48 89 05 37 66 00 00 	mov    %rax,0x6637(%rip)        # 4125b0 <proc_info_features+0x3f0>
  40bf79:	c7 05 4d 66 00 00 2a 	movl   $0x2a,0x664d(%rip)        # 4125d0 <proc_info_features+0x410>
  40bf80:	00 00 00 
  40bf83:	48 8d 05 4e 24 00 00 	lea    0x244e(%rip),%rax        # 40e3d8 <_IO_stdin_used+0x3d8>
  40bf8a:	48 89 05 47 66 00 00 	mov    %rax,0x6647(%rip)        # 4125d8 <proc_info_features+0x418>
  40bf91:	48 8d 05 50 24 00 00 	lea    0x2450(%rip),%rax        # 40e3e8 <_IO_stdin_used+0x3e8>
  40bf98:	48 89 05 29 66 00 00 	mov    %rax,0x6629(%rip)        # 4125c8 <proc_info_features+0x408>
  40bf9f:	c7 05 3f 66 00 00 2b 	movl   $0x2b,0x663f(%rip)        # 4125e8 <proc_info_features+0x428>
  40bfa6:	00 00 00 
  40bfa9:	48 8d 05 49 24 00 00 	lea    0x2449(%rip),%rax        # 40e3f9 <_IO_stdin_used+0x3f9>
  40bfb0:	48 89 05 39 66 00 00 	mov    %rax,0x6639(%rip)        # 4125f0 <proc_info_features+0x430>
  40bfb7:	48 8d 05 48 24 00 00 	lea    0x2448(%rip),%rax        # 40e406 <_IO_stdin_used+0x406>
  40bfbe:	48 89 05 1b 66 00 00 	mov    %rax,0x661b(%rip)        # 4125e0 <proc_info_features+0x420>
  40bfc5:	c7 05 31 66 00 00 2c 	movl   $0x2c,0x6631(%rip)        # 412600 <proc_info_features+0x440>
  40bfcc:	00 00 00 
  40bfcf:	48 8d 05 3e 24 00 00 	lea    0x243e(%rip),%rax        # 40e414 <_IO_stdin_used+0x414>
  40bfd6:	48 89 05 2b 66 00 00 	mov    %rax,0x662b(%rip)        # 412608 <proc_info_features+0x448>
  40bfdd:	48 8d 05 3c 24 00 00 	lea    0x243c(%rip),%rax        # 40e420 <_IO_stdin_used+0x420>
  40bfe4:	48 89 05 0d 66 00 00 	mov    %rax,0x660d(%rip)        # 4125f8 <proc_info_features+0x438>
  40bfeb:	c7 05 23 66 00 00 2d 	movl   $0x2d,0x6623(%rip)        # 412618 <proc_info_features+0x458>
  40bff2:	00 00 00 
  40bff5:	48 8d 05 31 24 00 00 	lea    0x2431(%rip),%rax        # 40e42d <_IO_stdin_used+0x42d>
  40bffc:	48 89 05 1d 66 00 00 	mov    %rax,0x661d(%rip)        # 412620 <proc_info_features+0x460>
  40c003:	48 8d 05 28 24 00 00 	lea    0x2428(%rip),%rax        # 40e432 <_IO_stdin_used+0x432>
  40c00a:	48 89 05 ff 65 00 00 	mov    %rax,0x65ff(%rip)        # 412610 <proc_info_features+0x450>
  40c011:	c7 05 15 66 00 00 2e 	movl   $0x2e,0x6615(%rip)        # 412630 <proc_info_features+0x470>
  40c018:	00 00 00 
  40c01b:	48 8d 05 15 24 00 00 	lea    0x2415(%rip),%rax        # 40e437 <_IO_stdin_used+0x437>
  40c022:	48 89 05 0f 66 00 00 	mov    %rax,0x660f(%rip)        # 412638 <proc_info_features+0x478>
  40c029:	48 8d 05 0c 24 00 00 	lea    0x240c(%rip),%rax        # 40e43c <_IO_stdin_used+0x43c>
  40c030:	48 89 05 f1 65 00 00 	mov    %rax,0x65f1(%rip)        # 412628 <proc_info_features+0x468>
  40c037:	c7 05 07 66 00 00 2f 	movl   $0x2f,0x6607(%rip)        # 412648 <proc_info_features+0x488>
  40c03e:	00 00 00 
  40c041:	48 8d 05 f9 23 00 00 	lea    0x23f9(%rip),%rax        # 40e441 <_IO_stdin_used+0x441>
  40c048:	48 89 05 01 66 00 00 	mov    %rax,0x6601(%rip)        # 412650 <proc_info_features+0x490>
  40c04f:	48 8d 05 f6 23 00 00 	lea    0x23f6(%rip),%rax        # 40e44c <_IO_stdin_used+0x44c>
  40c056:	48 89 05 e3 65 00 00 	mov    %rax,0x65e3(%rip)        # 412640 <proc_info_features+0x480>
  40c05d:	c7 05 f9 65 00 00 30 	movl   $0x30,0x65f9(%rip)        # 412660 <proc_info_features+0x4a0>
  40c064:	00 00 00 
  40c067:	48 8d 05 e9 23 00 00 	lea    0x23e9(%rip),%rax        # 40e457 <_IO_stdin_used+0x457>
  40c06e:	48 89 05 f3 65 00 00 	mov    %rax,0x65f3(%rip)        # 412668 <proc_info_features+0x4a8>
  40c075:	48 8d 05 e6 23 00 00 	lea    0x23e6(%rip),%rax        # 40e462 <_IO_stdin_used+0x462>
  40c07c:	48 89 05 d5 65 00 00 	mov    %rax,0x65d5(%rip)        # 412658 <proc_info_features+0x498>
  40c083:	c7 05 eb 65 00 00 31 	movl   $0x31,0x65eb(%rip)        # 412678 <proc_info_features+0x4b8>
  40c08a:	00 00 00 
  40c08d:	48 8d 05 da 23 00 00 	lea    0x23da(%rip),%rax        # 40e46e <_IO_stdin_used+0x46e>
  40c094:	48 89 05 e5 65 00 00 	mov    %rax,0x65e5(%rip)        # 412680 <proc_info_features+0x4c0>
  40c09b:	48 8d 05 d1 23 00 00 	lea    0x23d1(%rip),%rax        # 40e473 <_IO_stdin_used+0x473>
  40c0a2:	48 89 05 c7 65 00 00 	mov    %rax,0x65c7(%rip)        # 412670 <proc_info_features+0x4b0>
  40c0a9:	c7 05 dd 65 00 00 32 	movl   $0x32,0x65dd(%rip)        # 412690 <proc_info_features+0x4d0>
  40c0b0:	00 00 00 
  40c0b3:	48 8d 05 be 23 00 00 	lea    0x23be(%rip),%rax        # 40e478 <_IO_stdin_used+0x478>
  40c0ba:	48 89 05 d7 65 00 00 	mov    %rax,0x65d7(%rip)        # 412698 <proc_info_features+0x4d8>
  40c0c1:	48 8d 05 b6 23 00 00 	lea    0x23b6(%rip),%rax        # 40e47e <_IO_stdin_used+0x47e>
  40c0c8:	48 89 05 b9 65 00 00 	mov    %rax,0x65b9(%rip)        # 412688 <proc_info_features+0x4c8>
  40c0cf:	c7 05 cf 65 00 00 33 	movl   $0x33,0x65cf(%rip)        # 4126a8 <proc_info_features+0x4e8>
  40c0d6:	00 00 00 
  40c0d9:	48 8d 05 a4 23 00 00 	lea    0x23a4(%rip),%rax        # 40e484 <_IO_stdin_used+0x484>
  40c0e0:	48 89 05 c9 65 00 00 	mov    %rax,0x65c9(%rip)        # 4126b0 <proc_info_features+0x4f0>
  40c0e7:	48 8d 05 9a 23 00 00 	lea    0x239a(%rip),%rax        # 40e488 <_IO_stdin_used+0x488>
  40c0ee:	48 89 05 ab 65 00 00 	mov    %rax,0x65ab(%rip)        # 4126a0 <proc_info_features+0x4e0>
  40c0f5:	c7 05 c1 65 00 00 34 	movl   $0x34,0x65c1(%rip)        # 4126c0 <proc_info_features+0x500>
  40c0fc:	00 00 00 
  40c0ff:	48 8d 05 86 23 00 00 	lea    0x2386(%rip),%rax        # 40e48c <_IO_stdin_used+0x48c>
  40c106:	48 89 05 bb 65 00 00 	mov    %rax,0x65bb(%rip)        # 4126c8 <proc_info_features+0x508>
  40c10d:	48 8d 05 7e 23 00 00 	lea    0x237e(%rip),%rax        # 40e492 <_IO_stdin_used+0x492>
  40c114:	48 89 05 9d 65 00 00 	mov    %rax,0x659d(%rip)        # 4126b8 <proc_info_features+0x4f8>
  40c11b:	c7 05 b3 65 00 00 35 	movl   $0x35,0x65b3(%rip)        # 4126d8 <proc_info_features+0x518>
  40c122:	00 00 00 
  40c125:	48 8d 05 6c 23 00 00 	lea    0x236c(%rip),%rax        # 40e498 <_IO_stdin_used+0x498>
  40c12c:	48 89 05 ad 65 00 00 	mov    %rax,0x65ad(%rip)        # 4126e0 <proc_info_features+0x520>
  40c133:	48 8d 05 62 23 00 00 	lea    0x2362(%rip),%rax        # 40e49c <_IO_stdin_used+0x49c>
  40c13a:	48 89 05 8f 65 00 00 	mov    %rax,0x658f(%rip)        # 4126d0 <proc_info_features+0x510>
  40c141:	c7 05 a5 65 00 00 36 	movl   $0x36,0x65a5(%rip)        # 4126f0 <proc_info_features+0x530>
  40c148:	00 00 00 
  40c14b:	48 8d 05 4e 23 00 00 	lea    0x234e(%rip),%rax        # 40e4a0 <_IO_stdin_used+0x4a0>
  40c152:	48 89 05 9f 65 00 00 	mov    %rax,0x659f(%rip)        # 4126f8 <proc_info_features+0x538>
  40c159:	48 8d 05 49 23 00 00 	lea    0x2349(%rip),%rax        # 40e4a9 <_IO_stdin_used+0x4a9>
  40c160:	48 89 05 81 65 00 00 	mov    %rax,0x6581(%rip)        # 4126e8 <proc_info_features+0x528>
  40c167:	c7 05 97 65 00 00 37 	movl   $0x37,0x6597(%rip)        # 412708 <proc_info_features+0x548>
  40c16e:	00 00 00 
  40c171:	48 8d 05 3a 23 00 00 	lea    0x233a(%rip),%rax        # 40e4b2 <_IO_stdin_used+0x4b2>
  40c178:	48 89 05 91 65 00 00 	mov    %rax,0x6591(%rip)        # 412710 <proc_info_features+0x550>
  40c17f:	48 8d 05 34 23 00 00 	lea    0x2334(%rip),%rax        # 40e4ba <_IO_stdin_used+0x4ba>
  40c186:	48 89 05 73 65 00 00 	mov    %rax,0x6573(%rip)        # 412700 <proc_info_features+0x540>
  40c18d:	c7 05 89 65 00 00 38 	movl   $0x38,0x6589(%rip)        # 412720 <proc_info_features+0x560>
  40c194:	00 00 00 
  40c197:	48 8d 05 24 23 00 00 	lea    0x2324(%rip),%rax        # 40e4c2 <_IO_stdin_used+0x4c2>
  40c19e:	48 89 05 83 65 00 00 	mov    %rax,0x6583(%rip)        # 412728 <proc_info_features+0x568>
  40c1a5:	48 8d 05 29 23 00 00 	lea    0x2329(%rip),%rax        # 40e4d5 <_IO_stdin_used+0x4d5>
  40c1ac:	48 89 05 65 65 00 00 	mov    %rax,0x6565(%rip)        # 412718 <proc_info_features+0x558>
  40c1b3:	c7 05 7b 65 00 00 3c 	movl   $0x3c,0x657b(%rip)        # 412738 <proc_info_features+0x578>
  40c1ba:	00 00 00 
  40c1bd:	48 8d 05 25 23 00 00 	lea    0x2325(%rip),%rax        # 40e4e9 <_IO_stdin_used+0x4e9>
  40c1c4:	48 89 05 75 65 00 00 	mov    %rax,0x6575(%rip)        # 412740 <proc_info_features+0x580>
  40c1cb:	48 8d 05 22 23 00 00 	lea    0x2322(%rip),%rax        # 40e4f4 <_IO_stdin_used+0x4f4>
  40c1d2:	48 89 05 57 65 00 00 	mov    %rax,0x6557(%rip)        # 412730 <proc_info_features+0x570>
  40c1d9:	c7 05 6d 65 00 00 40 	movl   $0x40,0x656d(%rip)        # 412750 <proc_info_features+0x590>
  40c1e0:	00 00 00 
  40c1e3:	48 8d 05 16 23 00 00 	lea    0x2316(%rip),%rax        # 40e500 <_IO_stdin_used+0x500>
  40c1ea:	48 89 05 67 65 00 00 	mov    %rax,0x6567(%rip)        # 412758 <proc_info_features+0x598>
  40c1f1:	48 8d 05 11 23 00 00 	lea    0x2311(%rip),%rax        # 40e509 <_IO_stdin_used+0x509>
  40c1f8:	48 89 05 49 65 00 00 	mov    %rax,0x6549(%rip)        # 412748 <proc_info_features+0x588>
  40c1ff:	c7 05 5f 65 00 00 41 	movl   $0x41,0x655f(%rip)        # 412768 <proc_info_features+0x5a8>
  40c206:	00 00 00 
  40c209:	48 8d 05 02 23 00 00 	lea    0x2302(%rip),%rax        # 40e512 <_IO_stdin_used+0x512>
  40c210:	48 89 05 59 65 00 00 	mov    %rax,0x6559(%rip)        # 412770 <proc_info_features+0x5b0>
  40c217:	48 8d 05 fc 22 00 00 	lea    0x22fc(%rip),%rax        # 40e51a <_IO_stdin_used+0x51a>
  40c21e:	48 89 05 3b 65 00 00 	mov    %rax,0x653b(%rip)        # 412760 <proc_info_features+0x5a0>
  40c225:	c7 05 51 65 00 00 42 	movl   $0x42,0x6551(%rip)        # 412780 <proc_info_features+0x5c0>
  40c22c:	00 00 00 
  40c22f:	48 8d 05 ec 22 00 00 	lea    0x22ec(%rip),%rax        # 40e522 <_IO_stdin_used+0x522>
  40c236:	48 89 05 4b 65 00 00 	mov    %rax,0x654b(%rip)        # 412788 <proc_info_features+0x5c8>
  40c23d:	48 8d 05 e8 22 00 00 	lea    0x22e8(%rip),%rax        # 40e52c <_IO_stdin_used+0x52c>
  40c244:	48 89 05 2d 65 00 00 	mov    %rax,0x652d(%rip)        # 412778 <proc_info_features+0x5b8>
  40c24b:	c7 05 43 65 00 00 43 	movl   $0x43,0x6543(%rip)        # 412798 <proc_info_features+0x5d8>
  40c252:	00 00 00 
  40c255:	48 8d 05 da 22 00 00 	lea    0x22da(%rip),%rax        # 40e536 <_IO_stdin_used+0x536>
  40c25c:	48 89 05 3d 65 00 00 	mov    %rax,0x653d(%rip)        # 4127a0 <proc_info_features+0x5e0>
  40c263:	48 8d 05 d4 22 00 00 	lea    0x22d4(%rip),%rax        # 40e53e <_IO_stdin_used+0x53e>
  40c26a:	48 89 05 1f 65 00 00 	mov    %rax,0x651f(%rip)        # 412790 <proc_info_features+0x5d0>
  40c271:	c7 05 35 65 00 00 44 	movl   $0x44,0x6535(%rip)        # 4127b0 <proc_info_features+0x5f0>
  40c278:	00 00 00 
  40c27b:	48 8d 05 c4 22 00 00 	lea    0x22c4(%rip),%rax        # 40e546 <_IO_stdin_used+0x546>
  40c282:	48 89 05 2f 65 00 00 	mov    %rax,0x652f(%rip)        # 4127b8 <proc_info_features+0x5f8>
  40c289:	48 8d 05 c1 22 00 00 	lea    0x22c1(%rip),%rax        # 40e551 <_IO_stdin_used+0x551>
  40c290:	48 89 05 11 65 00 00 	mov    %rax,0x6511(%rip)        # 4127a8 <proc_info_features+0x5e8>
  40c297:	c7 05 27 65 00 00 45 	movl   $0x45,0x6527(%rip)        # 4127c8 <proc_info_features+0x608>
  40c29e:	00 00 00 
  40c2a1:	48 8d 05 b5 22 00 00 	lea    0x22b5(%rip),%rax        # 40e55d <_IO_stdin_used+0x55d>
  40c2a8:	48 89 05 21 65 00 00 	mov    %rax,0x6521(%rip)        # 4127d0 <proc_info_features+0x610>
  40c2af:	48 8d 05 ae 22 00 00 	lea    0x22ae(%rip),%rax        # 40e564 <_IO_stdin_used+0x564>
  40c2b6:	48 89 05 03 65 00 00 	mov    %rax,0x6503(%rip)        # 4127c0 <proc_info_features+0x600>
  40c2bd:	c7 05 19 65 00 00 46 	movl   $0x46,0x6519(%rip)        # 4127e0 <proc_info_features+0x620>
  40c2c4:	00 00 00 
  40c2c7:	48 8d 05 9d 22 00 00 	lea    0x229d(%rip),%rax        # 40e56b <_IO_stdin_used+0x56b>
  40c2ce:	48 89 05 13 65 00 00 	mov    %rax,0x6513(%rip)        # 4127e8 <proc_info_features+0x628>
  40c2d5:	48 8d 05 97 22 00 00 	lea    0x2297(%rip),%rax        # 40e573 <_IO_stdin_used+0x573>
  40c2dc:	48 89 05 f5 64 00 00 	mov    %rax,0x64f5(%rip)        # 4127d8 <proc_info_features+0x618>
  40c2e3:	c7 05 0b 65 00 00 47 	movl   $0x47,0x650b(%rip)        # 4127f8 <proc_info_features+0x638>
  40c2ea:	00 00 00 
  40c2ed:	48 8d 05 88 22 00 00 	lea    0x2288(%rip),%rax        # 40e57c <_IO_stdin_used+0x57c>
  40c2f4:	48 89 05 05 65 00 00 	mov    %rax,0x6505(%rip)        # 412800 <proc_info_features+0x640>
  40c2fb:	48 8d 05 83 22 00 00 	lea    0x2283(%rip),%rax        # 40e585 <_IO_stdin_used+0x585>
  40c302:	48 89 05 e7 64 00 00 	mov    %rax,0x64e7(%rip)        # 4127f0 <proc_info_features+0x630>
  40c309:	c7 05 fd 64 00 00 48 	movl   $0x48,0x64fd(%rip)        # 412810 <proc_info_features+0x650>
  40c310:	00 00 00 
  40c313:	48 8d 05 74 22 00 00 	lea    0x2274(%rip),%rax        # 40e58e <_IO_stdin_used+0x58e>
  40c31a:	48 89 05 f7 64 00 00 	mov    %rax,0x64f7(%rip)        # 412818 <proc_info_features+0x658>
  40c321:	48 8d 05 6f 22 00 00 	lea    0x226f(%rip),%rax        # 40e597 <_IO_stdin_used+0x597>
  40c328:	48 89 05 d9 64 00 00 	mov    %rax,0x64d9(%rip)        # 412808 <proc_info_features+0x648>
  40c32f:	c7 05 ef 64 00 00 49 	movl   $0x49,0x64ef(%rip)        # 412828 <proc_info_features+0x668>
  40c336:	00 00 00 
  40c339:	48 8d 05 60 22 00 00 	lea    0x2260(%rip),%rax        # 40e5a0 <_IO_stdin_used+0x5a0>
  40c340:	48 89 05 e9 64 00 00 	mov    %rax,0x64e9(%rip)        # 412830 <proc_info_features+0x670>
  40c347:	48 8d 05 5b 22 00 00 	lea    0x225b(%rip),%rax        # 40e5a9 <_IO_stdin_used+0x5a9>
  40c34e:	48 89 05 cb 64 00 00 	mov    %rax,0x64cb(%rip)        # 412820 <proc_info_features+0x660>
  40c355:	c7 05 e1 64 00 00 4a 	movl   $0x4a,0x64e1(%rip)        # 412840 <proc_info_features+0x680>
  40c35c:	00 00 00 
  40c35f:	48 8d 05 51 22 00 00 	lea    0x2251(%rip),%rax        # 40e5b7 <_IO_stdin_used+0x5b7>
  40c366:	48 89 05 db 64 00 00 	mov    %rax,0x64db(%rip)        # 412848 <proc_info_features+0x688>
  40c36d:	48 8d 05 4b 22 00 00 	lea    0x224b(%rip),%rax        # 40e5bf <_IO_stdin_used+0x5bf>
  40c374:	48 89 05 bd 64 00 00 	mov    %rax,0x64bd(%rip)        # 412838 <proc_info_features+0x678>
  40c37b:	c7 05 d3 64 00 00 4b 	movl   $0x4b,0x64d3(%rip)        # 412858 <proc_info_features+0x698>
  40c382:	00 00 00 
  40c385:	48 8d 05 26 22 00 00 	lea    0x2226(%rip),%rax        # 40e5b2 <_IO_stdin_used+0x5b2>
  40c38c:	48 89 05 cd 64 00 00 	mov    %rax,0x64cd(%rip)        # 412860 <proc_info_features+0x6a0>
  40c393:	48 8d 05 20 22 00 00 	lea    0x2220(%rip),%rax        # 40e5ba <_IO_stdin_used+0x5ba>
  40c39a:	48 89 05 af 64 00 00 	mov    %rax,0x64af(%rip)        # 412850 <proc_info_features+0x690>
  40c3a1:	c6 05 08 5e 00 00 01 	movb   $0x1,0x5e08(%rip)        # 4121b0 <__libirc_isa_info_initialized>
  40c3a8:	59                   	pop    %rcx
  40c3a9:	c3                   	ret
  40c3aa:	66 0f 1f 44 00 00    	nopw   0x0(%rax,%rax,1)

000000000040c3b0 <__libirc_get_feature_bitpos>:
  40c3b0:	f3 0f 1e fa          	endbr64
  40c3b4:	51                   	push   %rcx
  40c3b5:	89 c1                	mov    %eax,%ecx
  40c3b7:	80 3d f2 5d 00 00 00 	cmpb   $0x0,0x5df2(%rip)        # 4121b0 <__libirc_isa_info_initialized>
  40c3be:	75 05                	jne    40c3c5 <__libirc_get_feature_bitpos+0x15>
  40c3c0:	e8 2b f5 ff ff       	call   40b8f0 <__libirc_isa_init_once>
  40c3c5:	89 c8                	mov    %ecx,%eax
  40c3c7:	48 8d 04 40          	lea    (%rax,%rax,2),%rax
  40c3cb:	48 8d 0d ee 5d 00 00 	lea    0x5dee(%rip),%rcx        # 4121c0 <proc_info_features>
  40c3d2:	8b 4c c1 08          	mov    0x8(%rcx,%rax,8),%ecx
  40c3d6:	8d 41 80             	lea    -0x80(%rcx),%eax
  40c3d9:	3d 7f ff ff ff       	cmp    $0xffffff7f,%eax
  40c3de:	b8 fd ff ff ff       	mov    $0xfffffffd,%eax
  40c3e3:	0f 43 c1             	cmovae %ecx,%eax
  40c3e6:	59                   	pop    %rcx
  40c3e7:	c3                   	ret
  40c3e8:	0f 1f 84 00 00 00 00 	nopl   0x0(%rax,%rax,1)
  40c3ef:	00 

000000000040c3f0 <__libirc_get_cpu_feature>:
  40c3f0:	f3 0f 1e fa          	endbr64
  40c3f4:	50                   	push   %rax
  40c3f5:	80 3d b4 5d 00 00 00 	cmpb   $0x0,0x5db4(%rip)        # 4121b0 <__libirc_isa_info_initialized>
  40c3fc:	75 05                	jne    40c403 <__libirc_get_cpu_feature+0x13>
  40c3fe:	e8 ed f4 ff ff       	call   40b8f0 <__libirc_isa_init_once>
  40c403:	89 f0                	mov    %esi,%eax
  40c405:	48 8d 04 40          	lea    (%rax,%rax,2),%rax
  40c409:	48 8d 0d b0 5d 00 00 	lea    0x5db0(%rip),%rcx        # 4121c0 <proc_info_features>
  40c410:	8b 4c c1 08          	mov    0x8(%rcx,%rax,8),%ecx
  40c414:	8d 41 80             	lea    -0x80(%rcx),%eax
  40c417:	3d 7f ff ff ff       	cmp    $0xffffff7f,%eax
  40c41c:	b8 fd ff ff ff       	mov    $0xfffffffd,%eax
  40c421:	0f 43 c1             	cmovae %ecx,%eax
  40c424:	85 c0                	test   %eax,%eax
  40c426:	78 14                	js     40c43c <__libirc_get_cpu_feature+0x4c>
  40c428:	89 c1                	mov    %eax,%ecx
  40c42a:	c1 e9 06             	shr    $0x6,%ecx
  40c42d:	48 8b 0c cf          	mov    (%rdi,%rcx,8),%rcx
  40c431:	31 d2                	xor    %edx,%edx
  40c433:	48 0f a3 c1          	bt     %rax,%rcx
  40c437:	0f 92 c2             	setb   %dl
  40c43a:	89 d0                	mov    %edx,%eax
  40c43c:	59                   	pop    %rcx
  40c43d:	c3                   	ret
  40c43e:	66 90                	xchg   %ax,%ax

000000000040c440 <__libirc_set_cpu_feature>:
  40c440:	52                   	push   %rdx
  40c441:	56                   	push   %rsi
  40c442:	57                   	push   %rdi
  40c443:	48 89 c2             	mov    %rax,%rdx
  40c446:	80 3d 63 5d 00 00 00 	cmpb   $0x0,0x5d63(%rip)        # 4121b0 <__libirc_isa_info_initialized>
  40c44d:	75 05                	jne    40c454 <__libirc_set_cpu_feature+0x14>
  40c44f:	e8 9c f4 ff ff       	call   40b8f0 <__libirc_isa_init_once>
  40c454:	89 c8                	mov    %ecx,%eax
  40c456:	48 8d 04 40          	lea    (%rax,%rax,2),%rax
  40c45a:	48 8d 0d 5f 5d 00 00 	lea    0x5d5f(%rip),%rcx        # 4121c0 <proc_info_features>
  40c461:	8b 4c c1 08          	mov    0x8(%rcx,%rax,8),%ecx
  40c465:	8d 41 80             	lea    -0x80(%rcx),%eax
  40c468:	3d 7f ff ff ff       	cmp    $0xffffff7f,%eax
  40c46d:	b8 fd ff ff ff       	mov    $0xfffffffd,%eax
  40c472:	0f 43 c1             	cmovae %ecx,%eax
  40c475:	85 c0                	test   %eax,%eax
  40c477:	78 18                	js     40c491 <__libirc_set_cpu_feature+0x51>
  40c479:	89 c6                	mov    %eax,%esi
  40c47b:	c1 ee 06             	shr    $0x6,%esi
  40c47e:	83 e0 3f             	and    $0x3f,%eax
  40c481:	bf 01 00 00 00       	mov    $0x1,%edi
  40c486:	89 c1                	mov    %eax,%ecx
  40c488:	48 d3 e7             	shl    %cl,%rdi
  40c48b:	48 09 3c f2          	or     %rdi,(%rdx,%rsi,8)
  40c48f:	31 c0                	xor    %eax,%eax
  40c491:	5f                   	pop    %rdi
  40c492:	5e                   	pop    %rsi
  40c493:	5a                   	pop    %rdx
  40c494:	c3                   	ret
  40c495:	66 2e 0f 1f 84 00 00 	cs nopw 0x0(%rax,%rax,1)
  40c49c:	00 00 00 
  40c49f:	90                   	nop

000000000040c4a0 <__libirc_handle_intel_isa_disable>:
  40c4a0:	55                   	push   %rbp
  40c4a1:	41 57                	push   %r15
  40c4a3:	41 56                	push   %r14
  40c4a5:	41 54                	push   %r12
  40c4a7:	53                   	push   %rbx
  40c4a8:	31 db                	xor    %ebx,%ebx
  40c4aa:	48 85 ff             	test   %rdi,%rdi
  40c4ad:	0f 84 4b 01 00 00    	je     40c5fe <__libirc_handle_intel_isa_disable+0x15e>
  40c4b3:	49 89 fe             	mov    %rdi,%r14
  40c4b6:	48 8d 3d 27 1d 00 00 	lea    0x1d27(%rip),%rdi        # 40e1e4 <_IO_stdin_used+0x1e4>
  40c4bd:	e8 6e 4b ff ff       	call   401030 <getenv@plt>
  40c4c2:	48 85 c0             	test   %rax,%rax
  40c4c5:	0f 84 33 01 00 00    	je     40c5fe <__libirc_handle_intel_isa_disable+0x15e>
  40c4cb:	48 89 c2             	mov    %rax,%rdx
  40c4ce:	0f b6 00             	movzbl (%rax),%eax
  40c4d1:	84 c0                	test   %al,%al
  40c4d3:	0f 84 25 01 00 00    	je     40c5fe <__libirc_handle_intel_isa_disable+0x15e>
  40c4d9:	31 db                	xor    %ebx,%ebx
  40c4db:	48 8d 35 de 5c 00 00 	lea    0x5cde(%rip),%rsi        # 4121c0 <proc_info_features>
  40c4e2:	31 ff                	xor    %edi,%edi
  40c4e4:	4c 8d 42 01          	lea    0x1(%rdx),%r8
  40c4e8:	41 b9 01 00 00 00    	mov    $0x1,%r9d
  40c4ee:	49 29 d1             	sub    %rdx,%r9
  40c4f1:	49 89 d2             	mov    %rdx,%r10
  40c4f4:	3c 2c                	cmp    $0x2c,%al
  40c4f6:	75 1a                	jne    40c512 <__libirc_handle_intel_isa_disable+0x72>
  40c4f8:	0f 1f 84 00 00 00 00 	nopl   0x0(%rax,%rax,1)
  40c4ff:	00 
  40c500:	41 0f b6 42 01       	movzbl 0x1(%r10),%eax
  40c505:	49 ff c2             	inc    %r10
  40c508:	49 ff c0             	inc    %r8
  40c50b:	49 ff c9             	dec    %r9
  40c50e:	3c 2c                	cmp    $0x2c,%al
  40c510:	74 ee                	je     40c500 <__libirc_handle_intel_isa_disable+0x60>
  40c512:	0f b6 c0             	movzbl %al,%eax
  40c515:	85 c0                	test   %eax,%eax
  40c517:	0f 84 e1 00 00 00    	je     40c5fe <__libirc_handle_intel_isa_disable+0x15e>
  40c51d:	4c 89 c2             	mov    %r8,%rdx
  40c520:	48 89 d0             	mov    %rdx,%rax
  40c523:	0f b6 0a             	movzbl (%rdx),%ecx
  40c526:	48 ff c2             	inc    %rdx
  40c529:	83 f9 2c             	cmp    $0x2c,%ecx
  40c52c:	74 12                	je     40c540 <__libirc_handle_intel_isa_disable+0xa0>
  40c52e:	85 c9                	test   %ecx,%ecx
  40c530:	74 0e                	je     40c540 <__libirc_handle_intel_isa_disable+0xa0>
  40c532:	48 89 c7             	mov    %rax,%rdi
  40c535:	eb e9                	jmp    40c520 <__libirc_handle_intel_isa_disable+0x80>
  40c537:	66 0f 1f 84 00 00 00 	nopw   0x0(%rax,%rax,1)
  40c53e:	00 00 
  40c540:	49 89 fb             	mov    %rdi,%r11
  40c543:	4d 29 d3             	sub    %r10,%r11
  40c546:	48 ff ca             	dec    %rdx
  40c549:	49 ff c3             	inc    %r11
  40c54c:	75 0c                	jne    40c55a <__libirc_handle_intel_isa_disable+0xba>
  40c54e:	0f b6 02             	movzbl (%rdx),%eax
  40c551:	84 c0                	test   %al,%al
  40c553:	75 8f                	jne    40c4e4 <__libirc_handle_intel_isa_disable+0x44>
  40c555:	e9 a4 00 00 00       	jmp    40c5fe <__libirc_handle_intel_isa_disable+0x15e>
  40c55a:	80 3d 4f 5c 00 00 00 	cmpb   $0x0,0x5c4f(%rip)        # 4121b0 <__libirc_isa_info_initialized>
  40c561:	75 05                	jne    40c568 <__libirc_handle_intel_isa_disable+0xc8>
  40c563:	e8 88 f3 ff ff       	call   40b8f0 <__libirc_isa_init_once>
  40c568:	4c 89 d8             	mov    %r11,%rax
  40c56b:	48 83 e0 fe          	and    $0xfffffffffffffffe,%rax
  40c56f:	49 01 f9             	add    %rdi,%r9
  40c572:	49 d1 e9             	shr    $1,%r9
  40c575:	b9 01 00 00 00       	mov    $0x1,%ecx
  40c57a:	eb 14                	jmp    40c590 <__libirc_handle_intel_isa_disable+0xf0>
  40c57c:	0f 1f 40 00          	nopl   0x0(%rax)
  40c580:	43 80 3c 1f 00       	cmpb   $0x0,(%r15,%r11,1)
  40c585:	74 5b                	je     40c5e2 <__libirc_handle_intel_isa_disable+0x142>
  40c587:	48 ff c1             	inc    %rcx
  40c58a:	48 83 f9 47          	cmp    $0x47,%rcx
  40c58e:	74 be                	je     40c54e <__libirc_handle_intel_isa_disable+0xae>
  40c590:	4c 8d 3c 49          	lea    (%rcx,%rcx,2),%r15
  40c594:	4e 8b 7c fe 10       	mov    0x10(%rsi,%r15,8),%r15
  40c599:	4d 85 ff             	test   %r15,%r15
  40c59c:	74 e9                	je     40c587 <__libirc_handle_intel_isa_disable+0xe7>
  40c59e:	49 83 fb 02          	cmp    $0x2,%r11
  40c5a2:	72 2c                	jb     40c5d0 <__libirc_handle_intel_isa_disable+0x130>
  40c5a4:	45 31 e4             	xor    %r12d,%r12d
  40c5a7:	66 0f 1f 84 00 00 00 	nopw   0x0(%rax,%rax,1)
  40c5ae:	00 00 
  40c5b0:	43 0f b6 6c 60 ff    	movzbl -0x1(%r8,%r12,2),%ebp
  40c5b6:	43 3a 2c 67          	cmp    (%r15,%r12,2),%bpl
  40c5ba:	75 cb                	jne    40c587 <__libirc_handle_intel_isa_disable+0xe7>
  40c5bc:	43 0f b6 2c 60       	movzbl (%r8,%r12,2),%ebp
  40c5c1:	43 3a 6c 67 01       	cmp    0x1(%r15,%r12,2),%bpl
  40c5c6:	75 bf                	jne    40c587 <__libirc_handle_intel_isa_disable+0xe7>
  40c5c8:	49 ff c4             	inc    %r12
  40c5cb:	4d 39 e1             	cmp    %r12,%r9
  40c5ce:	75 e0                	jne    40c5b0 <__libirc_handle_intel_isa_disable+0x110>
  40c5d0:	4c 39 d8             	cmp    %r11,%rax
  40c5d3:	73 ab                	jae    40c580 <__libirc_handle_intel_isa_disable+0xe0>
  40c5d5:	41 0f b6 2c 02       	movzbl (%r10,%rax,1),%ebp
  40c5da:	41 3a 2c 07          	cmp    (%r15,%rax,1),%bpl
  40c5de:	74 a0                	je     40c580 <__libirc_handle_intel_isa_disable+0xe0>
  40c5e0:	eb a5                	jmp    40c587 <__libirc_handle_intel_isa_disable+0xe7>
  40c5e2:	83 f9 02             	cmp    $0x2,%ecx
  40c5e5:	0f 82 63 ff ff ff    	jb     40c54e <__libirc_handle_intel_isa_disable+0xae>
  40c5eb:	4c 89 f0             	mov    %r14,%rax
  40c5ee:	e8 4d fe ff ff       	call   40c440 <__libirc_set_cpu_feature>
  40c5f3:	83 f8 01             	cmp    $0x1,%eax
  40c5f6:	83 d3 00             	adc    $0x0,%ebx
  40c5f9:	e9 50 ff ff ff       	jmp    40c54e <__libirc_handle_intel_isa_disable+0xae>
  40c5fe:	89 d8                	mov    %ebx,%eax
  40c600:	5b                   	pop    %rbx
  40c601:	41 5c                	pop    %r12
  40c603:	41 5e                	pop    %r14
  40c605:	41 5f                	pop    %r15
  40c607:	5d                   	pop    %rbp
  40c608:	c3                   	ret
  40c609:	0f 1f 00             	nopl   (%rax)
  40c60c:	0f 1f 40 00          	nopl   0x0(%rax)

000000000040c610 <__cacheSize>:
  40c610:	f3 0f 1e fa          	endbr64
  40c614:	53                   	push   %rbx
  40c615:	89 fb                	mov    %edi,%ebx
  40c617:	8d 4b fc             	lea    -0x4(%rbx),%ecx
  40c61a:	31 c0                	xor    %eax,%eax
  40c61c:	83 f9 fd             	cmp    $0xfffffffd,%ecx
  40c61f:	72 1b                	jb     40c63c <__cacheSize+0x2c>
  40c621:	83 3d 54 62 00 00 00 	cmpl   $0x0,0x6254(%rip)        # 41287c <_ZL18__libirc_cache_tbl+0xc>
  40c628:	75 05                	jne    40c62f <__cacheSize+0x1f>
  40c62a:	e8 11 00 00 00       	call   40c640 <_ZL23__libirc_init_cache_tblv>
  40c62f:	c1 e3 02             	shl    $0x2,%ebx
  40c632:	48 8d 05 37 62 00 00 	lea    0x6237(%rip),%rax        # 412870 <_ZL18__libirc_cache_tbl>
  40c639:	8b 04 98             	mov    (%rax,%rbx,4),%eax
  40c63c:	5b                   	pop    %rbx
  40c63d:	c3                   	ret
  40c63e:	66 90                	xchg   %ax,%ax

000000000040c640 <_ZL23__libirc_init_cache_tblv>:
  40c640:	55                   	push   %rbp
  40c641:	48 89 e5             	mov    %rsp,%rbp
  40c644:	41 57                	push   %r15
  40c646:	41 56                	push   %r14
  40c648:	53                   	push   %rbx
  40c649:	48 81 ec b8 00 00 00 	sub    $0xb8,%rsp
  40c650:	64 48 8b 04 25 28 00 	mov    %fs:0x28,%rax
  40c657:	00 00 
  40c659:	48 89 45 e0          	mov    %rax,-0x20(%rbp)
  40c65d:	c7 85 60 ff ff ff 00 	movl   $0x0,-0xa0(%rbp)
  40c664:	00 00 00 
  40c667:	50                   	push   %rax
  40c668:	51                   	push   %rcx
  40c669:	9c                   	pushf
  40c66a:	58                   	pop    %rax
  40c66b:	89 c1                	mov    %eax,%ecx
  40c66d:	35 00 00 20 00       	xor    $0x200000,%eax
  40c672:	50                   	push   %rax
  40c673:	9d                   	popf
  40c674:	9c                   	pushf
  40c675:	58                   	pop    %rax
  40c676:	39 c8                	cmp    %ecx,%eax
  40c678:	74 0b                	je     40c685 <_ZL23__libirc_init_cache_tblv+0x45>
  40c67a:	c7 85 60 ff ff ff 01 	movl   $0x1,-0xa0(%rbp)
  40c681:	00 00 00 
  40c684:	51                   	push   %rcx
  40c685:	9d                   	popf
  40c686:	59                   	pop    %rcx
  40c687:	58                   	pop    %rax
  40c688:	83 bd 60 ff ff ff 00 	cmpl   $0x0,-0xa0(%rbp)
  40c68f:	0f 84 62 06 00 00    	je     40ccf7 <_ZL23__libirc_init_cache_tblv+0x6b7>
  40c695:	48 8d 85 4c ff ff ff 	lea    -0xb4(%rbp),%rax
  40c69c:	48 89 85 30 ff ff ff 	mov    %rax,-0xd0(%rbp)
  40c6a3:	0f 28 05 66 2a 00 00 	movaps 0x2a66(%rip),%xmm0        # 40f110 <_IO_stdin_used+0x1110>
  40c6aa:	0f 29 85 60 ff ff ff 	movaps %xmm0,-0xa0(%rbp)
  40c6b1:	c7 85 50 ff ff ff 00 	movl   $0x0,-0xb0(%rbp)
  40c6b8:	00 00 00 
  40c6bb:	c7 85 4c ff ff ff 00 	movl   $0x0,-0xb4(%rbp)
  40c6c2:	00 00 00 
  40c6c5:	50                   	push   %rax
  40c6c6:	53                   	push   %rbx
  40c6c7:	51                   	push   %rcx
  40c6c8:	52                   	push   %rdx
  40c6c9:	b8 00 00 00 00       	mov    $0x0,%eax
  40c6ce:	0f a2                	cpuid
  40c6d0:	39 9d 60 ff ff ff    	cmp    %ebx,-0xa0(%rbp)
  40c6d6:	75 23                	jne    40c6fb <_ZL23__libirc_init_cache_tblv+0xbb>
  40c6d8:	39 95 64 ff ff ff    	cmp    %edx,-0x9c(%rbp)
  40c6de:	75 1b                	jne    40c6fb <_ZL23__libirc_init_cache_tblv+0xbb>
  40c6e0:	39 8d 68 ff ff ff    	cmp    %ecx,-0x98(%rbp)
  40c6e6:	75 13                	jne    40c6fb <_ZL23__libirc_init_cache_tblv+0xbb>
  40c6e8:	c7 85 50 ff ff ff 01 	movl   $0x1,-0xb0(%rbp)
  40c6ef:	00 00 00 
  40c6f2:	48 8b 95 30 ff ff ff 	mov    -0xd0(%rbp),%rdx
  40c6f9:	89 02                	mov    %eax,(%rdx)
  40c6fb:	5a                   	pop    %rdx
  40c6fc:	59                   	pop    %rcx
  40c6fd:	5b                   	pop    %rbx
  40c6fe:	58                   	pop    %rax
  40c6ff:	8b 85 50 ff ff ff    	mov    -0xb0(%rbp),%eax
  40c705:	89 05 65 61 00 00    	mov    %eax,0x6165(%rip)        # 412870 <_ZL18__libirc_cache_tbl>
  40c70b:	8b 85 4c ff ff ff    	mov    -0xb4(%rbp),%eax
  40c711:	89 05 5d 61 00 00    	mov    %eax,0x615d(%rip)        # 412874 <_ZL18__libirc_cache_tbl+0x4>
  40c717:	83 f8 04             	cmp    $0x4,%eax
  40c71a:	0f 8c 15 01 00 00    	jl     40c835 <_ZL23__libirc_init_cache_tblv+0x1f5>
  40c720:	48 8d 85 60 ff ff ff 	lea    -0xa0(%rbp),%rax
  40c727:	48 89 85 30 ff ff ff 	mov    %rax,-0xd0(%rbp)
  40c72e:	c7 85 50 ff ff ff 00 	movl   $0x0,-0xb0(%rbp)
  40c735:	00 00 00 
  40c738:	50                   	push   %rax
  40c739:	53                   	push   %rbx
  40c73a:	51                   	push   %rcx
  40c73b:	52                   	push   %rdx
  40c73c:	57                   	push   %rdi
  40c73d:	4c 8b 85 30 ff ff ff 	mov    -0xd0(%rbp),%r8
  40c744:	bf 00 00 00 00       	mov    $0x0,%edi
  40c749:	89 f9                	mov    %edi,%ecx
  40c74b:	b8 04 00 00 00       	mov    $0x4,%eax
  40c750:	0f a2                	cpuid
  40c752:	a9 1f 00 00 00       	test   $0x1f,%eax
  40c757:	74 1d                	je     40c776 <_ZL23__libirc_init_cache_tblv+0x136>
  40c759:	41 89 00             	mov    %eax,(%r8)
  40c75c:	41 89 58 04          	mov    %ebx,0x4(%r8)
  40c760:	41 89 48 08          	mov    %ecx,0x8(%r8)
  40c764:	41 89 50 0c          	mov    %edx,0xc(%r8)
  40c768:	83 c7 01             	add    $0x1,%edi
  40c76b:	83 ff 08             	cmp    $0x8,%edi
  40c76e:	7d 06                	jge    40c776 <_ZL23__libirc_init_cache_tblv+0x136>
  40c770:	49 83 c0 10          	add    $0x10,%r8
  40c774:	eb d3                	jmp    40c749 <_ZL23__libirc_init_cache_tblv+0x109>
  40c776:	89 bd 50 ff ff ff    	mov    %edi,-0xb0(%rbp)
  40c77c:	5f                   	pop    %rdi
  40c77d:	5a                   	pop    %rdx
  40c77e:	59                   	pop    %rcx
  40c77f:	5b                   	pop    %rbx
  40c780:	58                   	pop    %rax
  40c781:	8b 85 50 ff ff ff    	mov    -0xb0(%rbp),%eax
  40c787:	85 c0                	test   %eax,%eax
  40c789:	0f 8e a0 00 00 00    	jle    40c82f <_ZL23__libirc_init_cache_tblv+0x1ef>
  40c78f:	48 c1 e0 04          	shl    $0x4,%rax
  40c793:	31 c9                	xor    %ecx,%ecx
  40c795:	48 8d 15 d4 60 00 00 	lea    0x60d4(%rip),%rdx        # 412870 <_ZL18__libirc_cache_tbl>
  40c79c:	eb 0f                	jmp    40c7ad <_ZL23__libirc_init_cache_tblv+0x16d>
  40c79e:	66 90                	xchg   %ax,%ax
  40c7a0:	48 83 c1 10          	add    $0x10,%rcx
  40c7a4:	48 39 c8             	cmp    %rcx,%rax
  40c7a7:	0f 84 82 00 00 00    	je     40c82f <_ZL23__libirc_init_cache_tblv+0x1ef>
  40c7ad:	48 8b b4 0d 60 ff ff 	mov    -0xa0(%rbp,%rcx,1),%rsi
  40c7b4:	ff 
  40c7b5:	89 f7                	mov    %esi,%edi
  40c7b7:	83 cf 02             	or     $0x2,%edi
  40c7ba:	83 e7 1f             	and    $0x1f,%edi
  40c7bd:	83 ff 03             	cmp    $0x3,%edi
  40c7c0:	75 de                	jne    40c7a0 <_ZL23__libirc_init_cache_tblv+0x160>
  40c7c2:	48 89 f7             	mov    %rsi,%rdi
  40c7c5:	48 c1 ef 20          	shr    $0x20,%rdi
  40c7c9:	81 e7 ff 0f 00 00    	and    $0xfff,%edi
  40c7cf:	ff c7                	inc    %edi
  40c7d1:	41 89 f0             	mov    %esi,%r8d
  40c7d4:	41 c1 e8 03          	shr    $0x3,%r8d
  40c7d8:	41 83 e0 1c          	and    $0x1c,%r8d
  40c7dc:	45 8d 48 01          	lea    0x1(%r8),%r9d
  40c7e0:	42 89 3c 8a          	mov    %edi,(%rdx,%r9,4)
  40c7e4:	49 89 f1             	mov    %rsi,%r9
  40c7e7:	49 c1 e9 2c          	shr    $0x2c,%r9
  40c7eb:	41 81 e1 ff 03 00 00 	and    $0x3ff,%r9d
  40c7f2:	41 ff c1             	inc    %r9d
  40c7f5:	45 8d 50 02          	lea    0x2(%r8),%r10d
  40c7f9:	46 89 0c 92          	mov    %r9d,(%rdx,%r10,4)
  40c7fd:	48 c1 ee 36          	shr    $0x36,%rsi
  40c801:	ff c6                	inc    %esi
  40c803:	45 8d 50 03          	lea    0x3(%r8),%r10d
  40c807:	42 89 34 92          	mov    %esi,(%rdx,%r10,4)
  40c80b:	44 8b 94 0d 68 ff ff 	mov    -0x98(%rbp,%rcx,1),%r10d
  40c812:	ff 
  40c813:	41 ff c2             	inc    %r10d
  40c816:	41 0f af f1          	imul   %r9d,%esi
  40c81a:	44 0f af d7          	imul   %edi,%r10d
  40c81e:	44 0f af d6          	imul   %esi,%r10d
  40c822:	41 c1 ea 0a          	shr    $0xa,%r10d
  40c826:	46 89 14 82          	mov    %r10d,(%rdx,%r8,4)
  40c82a:	e9 71 ff ff ff       	jmp    40c7a0 <_ZL23__libirc_init_cache_tblv+0x160>
  40c82f:	8b 85 4c ff ff ff    	mov    -0xb4(%rbp),%eax
  40c835:	83 3d 44 60 00 00 00 	cmpl   $0x0,0x6044(%rip)        # 412880 <_ZL18__libirc_cache_tbl+0x10>
  40c83c:	0f 85 b5 04 00 00    	jne    40ccf7 <_ZL23__libirc_init_cache_tblv+0x6b7>
  40c842:	83 f8 02             	cmp    $0x2,%eax
  40c845:	0f 8c ac 04 00 00    	jl     40ccf7 <_ZL23__libirc_init_cache_tblv+0x6b7>
  40c84b:	48 8d 85 60 ff ff ff 	lea    -0xa0(%rbp),%rax
  40c852:	48 89 85 30 ff ff ff 	mov    %rax,-0xd0(%rbp)
  40c859:	50                   	push   %rax
  40c85a:	53                   	push   %rbx
  40c85b:	51                   	push   %rcx
  40c85c:	52                   	push   %rdx
  40c85d:	4c 8b 85 30 ff ff ff 	mov    -0xd0(%rbp),%r8
  40c864:	b8 02 00 00 00       	mov    $0x2,%eax
  40c869:	0f a2                	cpuid
  40c86b:	41 89 00             	mov    %eax,(%r8)
  40c86e:	41 89 58 04          	mov    %ebx,0x4(%r8)
  40c872:	41 89 48 08          	mov    %ecx,0x8(%r8)
  40c876:	41 89 50 0c          	mov    %edx,0xc(%r8)
  40c87a:	3c 01                	cmp    $0x1,%al
  40c87c:	7e 4d                	jle    40c8cb <_ZL23__libirc_init_cache_tblv+0x28b>
  40c87e:	3c 02                	cmp    $0x2,%al
  40c880:	7e 32                	jle    40c8b4 <_ZL23__libirc_init_cache_tblv+0x274>
  40c882:	3c 03                	cmp    $0x3,%al
  40c884:	7e 17                	jle    40c89d <_ZL23__libirc_init_cache_tblv+0x25d>
  40c886:	b8 02 00 00 00       	mov    $0x2,%eax
  40c88b:	0f a2                	cpuid
  40c88d:	41 89 40 30          	mov    %eax,0x30(%r8)
  40c891:	41 89 58 34          	mov    %ebx,0x34(%r8)
  40c895:	41 89 48 38          	mov    %ecx,0x38(%r8)
  40c899:	41 89 50 3c          	mov    %edx,0x3c(%r8)
  40c89d:	b8 02 00 00 00       	mov    $0x2,%eax
  40c8a2:	0f a2                	cpuid
  40c8a4:	41 89 40 20          	mov    %eax,0x20(%r8)
  40c8a8:	41 89 58 24          	mov    %ebx,0x24(%r8)
  40c8ac:	41 89 48 28          	mov    %ecx,0x28(%r8)
  40c8b0:	41 89 50 2c          	mov    %edx,0x2c(%r8)
  40c8b4:	b8 02 00 00 00       	mov    $0x2,%eax
  40c8b9:	0f a2                	cpuid
  40c8bb:	41 89 40 10          	mov    %eax,0x10(%r8)
  40c8bf:	41 89 58 14          	mov    %ebx,0x14(%r8)
  40c8c3:	41 89 48 18          	mov    %ecx,0x18(%r8)
  40c8c7:	41 89 50 1c          	mov    %edx,0x1c(%r8)
  40c8cb:	5a                   	pop    %rdx
  40c8cc:	59                   	pop    %rcx
  40c8cd:	5b                   	pop    %rbx
  40c8ce:	58                   	pop    %rax
  40c8cf:	0f b6 85 60 ff ff ff 	movzbl -0xa0(%rbp),%eax
  40c8d6:	8d 0c 85 00 00 00 00 	lea    0x0(,%rax,4),%ecx
  40c8dd:	83 f8 05             	cmp    $0x5,%eax
  40c8e0:	b8 10 00 00 00       	mov    $0x10,%eax
  40c8e5:	0f 42 c1             	cmovb  %ecx,%eax
  40c8e8:	85 c0                	test   %eax,%eax
  40c8ea:	0f 84 07 04 00 00    	je     40ccf7 <_ZL23__libirc_init_cache_tblv+0x6b7>
  40c8f0:	89 c6                	mov    %eax,%esi
  40c8f2:	31 ff                	xor    %edi,%edi
  40c8f4:	4c 8d 0d 25 28 00 00 	lea    0x2825(%rip),%r9        # 40f120 <_ZL16cpuid2_cache_tbl>
  40c8fb:	4c 8d 95 30 ff ff ff 	lea    -0xd0(%rbp),%r10
  40c902:	4c 8d 1d 67 5f 00 00 	lea    0x5f67(%rip),%r11        # 412870 <_ZL18__libirc_cache_tbl>
  40c909:	eb 5b                	jmp    40c966 <_ZL23__libirc_init_cache_tblv+0x326>
  40c90b:	0f 1f 44 00 00       	nopl   0x0(%rax,%rax,1)
  40c910:	44 89 f9             	mov    %r15d,%ecx
  40c913:	c1 e9 03             	shr    $0x3,%ecx
  40c916:	81 e1 ff 0f 00 00    	and    $0xfff,%ecx
  40c91c:	89 c2                	mov    %eax,%edx
  40c91e:	c1 e2 02             	shl    $0x2,%edx
  40c921:	44 8d 04 85 01 00 00 	lea    0x1(,%rax,4),%r8d
  40c928:	00 
  40c929:	43 89 0c 83          	mov    %ecx,(%r11,%r8,4)
  40c92d:	44 89 f9             	mov    %r15d,%ecx
  40c930:	c1 e9 0f             	shr    $0xf,%ecx
  40c933:	83 e1 7f             	and    $0x7f,%ecx
  40c936:	44 8d 04 85 02 00 00 	lea    0x2(,%rax,4),%r8d
  40c93d:	00 
  40c93e:	43 89 0c 83          	mov    %ecx,(%r11,%r8,4)
  40c942:	41 c1 ef 16          	shr    $0x16,%r15d
  40c946:	8d 04 85 03 00 00 00 	lea    0x3(,%rax,4),%eax
  40c94d:	45 89 3c 83          	mov    %r15d,(%r11,%rax,4)
  40c951:	43 8b 44 f1 04       	mov    0x4(%r9,%r14,8),%eax
  40c956:	41 89 04 93          	mov    %eax,(%r11,%rdx,4)
  40c95a:	48 ff c7             	inc    %rdi
  40c95d:	48 39 fe             	cmp    %rdi,%rsi
  40c960:	0f 84 91 03 00 00    	je     40ccf7 <_ZL23__libirc_init_cache_tblv+0x6b7>
  40c966:	80 bc bd 63 ff ff ff 	cmpb   $0x0,-0x9d(%rbp,%rdi,4)
  40c96d:	00 
  40c96e:	78 ea                	js     40c95a <_ZL23__libirc_init_cache_tblv+0x31a>
  40c970:	44 0f b6 b4 bd 60 ff 	movzbl -0xa0(%rbp,%rdi,4),%r14d
  40c977:	ff ff 
  40c979:	49 81 fe ff 00 00 00 	cmp    $0xff,%r14
  40c980:	0f 84 59 03 00 00    	je     40ccdf <_ZL23__libirc_init_cache_tblv+0x69f>
  40c986:	47 8b 3c f1          	mov    (%r9,%r14,8),%r15d
  40c98a:	44 89 f8             	mov    %r15d,%eax
  40c98d:	83 e0 07             	and    $0x7,%eax
  40c990:	0f 84 c4 00 00 00    	je     40ca5a <_ZL23__libirc_init_cache_tblv+0x41a>
  40c996:	83 f8 02             	cmp    $0x2,%eax
  40c999:	75 75                	jne    40ca10 <_ZL23__libirc_init_cache_tblv+0x3d0>
  40c99b:	41 80 fe 49          	cmp    $0x49,%r14b
  40c99f:	75 6f                	jne    40ca10 <_ZL23__libirc_init_cache_tblv+0x3d0>
  40c9a1:	c7 85 5c ff ff ff 01 	movl   $0x1,-0xa4(%rbp)
  40c9a8:	00 00 00 
  40c9ab:	4c 89 95 50 ff ff ff 	mov    %r10,-0xb0(%rbp)
  40c9b2:	50                   	push   %rax
  40c9b3:	53                   	push   %rbx
  40c9b4:	51                   	push   %rcx
  40c9b5:	52                   	push   %rdx
  40c9b6:	4c 8b 85 50 ff ff ff 	mov    -0xb0(%rbp),%r8
  40c9bd:	8b 85 5c ff ff ff    	mov    -0xa4(%rbp),%eax
  40c9c3:	0f a2                	cpuid
  40c9c5:	41 89 00             	mov    %eax,(%r8)
  40c9c8:	41 89 58 04          	mov    %ebx,0x4(%r8)
  40c9cc:	41 89 48 08          	mov    %ecx,0x8(%r8)
  40c9d0:	41 89 50 0c          	mov    %edx,0xc(%r8)
  40c9d4:	5a                   	pop    %rdx
  40c9d5:	59                   	pop    %rcx
  40c9d6:	5b                   	pop    %rbx
  40c9d7:	58                   	pop    %rax
  40c9d8:	8b 8d 30 ff ff ff    	mov    -0xd0(%rbp),%ecx
  40c9de:	89 ca                	mov    %ecx,%edx
  40c9e0:	81 e2 00 0f 00 0f    	and    $0xf000f00,%edx
  40c9e6:	b8 02 00 00 00       	mov    $0x2,%eax
  40c9eb:	81 fa 00 0f 00 00    	cmp    $0xf00,%edx
  40c9f1:	75 1d                	jne    40ca10 <_ZL23__libirc_init_cache_tblv+0x3d0>
  40c9f3:	89 c8                	mov    %ecx,%eax
  40c9f5:	c1 e8 0c             	shr    $0xc,%eax
  40c9f8:	25 f0 00 00 00       	and    $0xf0,%eax
  40c9fd:	c1 e9 04             	shr    $0x4,%ecx
  40ca00:	83 e1 0f             	and    $0xf,%ecx
  40ca03:	09 c1                	or     %eax,%ecx
  40ca05:	31 c0                	xor    %eax,%eax
  40ca07:	83 f9 06             	cmp    $0x6,%ecx
  40ca0a:	0f 94 c0             	sete   %al
  40ca0d:	83 c8 02             	or     $0x2,%eax
  40ca10:	44 89 f9             	mov    %r15d,%ecx
  40ca13:	c1 e9 03             	shr    $0x3,%ecx
  40ca16:	81 e1 ff 0f 00 00    	and    $0xfff,%ecx
  40ca1c:	89 c2                	mov    %eax,%edx
  40ca1e:	c1 e2 02             	shl    $0x2,%edx
  40ca21:	44 8d 04 85 01 00 00 	lea    0x1(,%rax,4),%r8d
  40ca28:	00 
  40ca29:	43 89 0c 83          	mov    %ecx,(%r11,%r8,4)
  40ca2d:	44 89 f9             	mov    %r15d,%ecx
  40ca30:	c1 e9 0f             	shr    $0xf,%ecx
  40ca33:	83 e1 7f             	and    $0x7f,%ecx
  40ca36:	44 8d 04 85 02 00 00 	lea    0x2(,%rax,4),%r8d
  40ca3d:	00 
  40ca3e:	43 89 0c 83          	mov    %ecx,(%r11,%r8,4)
  40ca42:	41 c1 ef 16          	shr    $0x16,%r15d
  40ca46:	8d 04 85 03 00 00 00 	lea    0x3(,%rax,4),%eax
  40ca4d:	45 89 3c 83          	mov    %r15d,(%r11,%rax,4)
  40ca51:	43 8b 44 f1 04       	mov    0x4(%r9,%r14,8),%eax
  40ca56:	41 89 04 93          	mov    %eax,(%r11,%rdx,4)
  40ca5a:	44 0f b6 b4 bd 61 ff 	movzbl -0x9f(%rbp,%rdi,4),%r14d
  40ca61:	ff ff 
  40ca63:	49 81 fe ff 00 00 00 	cmp    $0xff,%r14
  40ca6a:	0f 84 6f 02 00 00    	je     40ccdf <_ZL23__libirc_init_cache_tblv+0x69f>
  40ca70:	47 8b 3c f1          	mov    (%r9,%r14,8),%r15d
  40ca74:	44 89 f8             	mov    %r15d,%eax
  40ca77:	83 e0 07             	and    $0x7,%eax
  40ca7a:	0f 84 c4 00 00 00    	je     40cb44 <_ZL23__libirc_init_cache_tblv+0x504>
  40ca80:	83 f8 02             	cmp    $0x2,%eax
  40ca83:	75 75                	jne    40cafa <_ZL23__libirc_init_cache_tblv+0x4ba>
  40ca85:	41 80 fe 49          	cmp    $0x49,%r14b
  40ca89:	75 6f                	jne    40cafa <_ZL23__libirc_init_cache_tblv+0x4ba>
  40ca8b:	c7 85 5c ff ff ff 01 	movl   $0x1,-0xa4(%rbp)
  40ca92:	00 00 00 
  40ca95:	4c 89 95 50 ff ff ff 	mov    %r10,-0xb0(%rbp)
  40ca9c:	50                   	push   %rax
  40ca9d:	53                   	push   %rbx
  40ca9e:	51                   	push   %rcx
  40ca9f:	52                   	push   %rdx
  40caa0:	4c 8b 85 50 ff ff ff 	mov    -0xb0(%rbp),%r8
  40caa7:	8b 85 5c ff ff ff    	mov    -0xa4(%rbp),%eax
  40caad:	0f a2                	cpuid
  40caaf:	41 89 00             	mov    %eax,(%r8)
  40cab2:	41 89 58 04          	mov    %ebx,0x4(%r8)
  40cab6:	41 89 48 08          	mov    %ecx,0x8(%r8)
  40caba:	41 89 50 0c          	mov    %edx,0xc(%r8)
  40cabe:	5a                   	pop    %rdx
  40cabf:	59                   	pop    %rcx
  40cac0:	5b                   	pop    %rbx
  40cac1:	58                   	pop    %rax
  40cac2:	8b 8d 30 ff ff ff    	mov    -0xd0(%rbp),%ecx
  40cac8:	89 ca                	mov    %ecx,%edx
  40caca:	81 e2 00 0f 00 0f    	and    $0xf000f00,%edx
  40cad0:	b8 02 00 00 00       	mov    $0x2,%eax
  40cad5:	81 fa 00 0f 00 00    	cmp    $0xf00,%edx
  40cadb:	75 1d                	jne    40cafa <_ZL23__libirc_init_cache_tblv+0x4ba>
  40cadd:	89 c8                	mov    %ecx,%eax
  40cadf:	c1 e8 0c             	shr    $0xc,%eax
  40cae2:	25 f0 00 00 00       	and    $0xf0,%eax
  40cae7:	c1 e9 04             	shr    $0x4,%ecx
  40caea:	83 e1 0f             	and    $0xf,%ecx
  40caed:	09 c1                	or     %eax,%ecx
  40caef:	31 c0                	xor    %eax,%eax
  40caf1:	83 f9 06             	cmp    $0x6,%ecx
  40caf4:	0f 94 c0             	sete   %al
  40caf7:	83 c8 02             	or     $0x2,%eax
  40cafa:	44 89 f9             	mov    %r15d,%ecx
  40cafd:	c1 e9 03             	shr    $0x3,%ecx
  40cb00:	81 e1 ff 0f 00 00    	and    $0xfff,%ecx
  40cb06:	89 c2                	mov    %eax,%edx
  40cb08:	c1 e2 02             	shl    $0x2,%edx
  40cb0b:	44 8d 04 85 01 00 00 	lea    0x1(,%rax,4),%r8d
  40cb12:	00 
  40cb13:	43 89 0c 83          	mov    %ecx,(%r11,%r8,4)
  40cb17:	44 89 f9             	mov    %r15d,%ecx
  40cb1a:	c1 e9 0f             	shr    $0xf,%ecx
  40cb1d:	83 e1 7f             	and    $0x7f,%ecx
  40cb20:	44 8d 04 85 02 00 00 	lea    0x2(,%rax,4),%r8d
  40cb27:	00 
  40cb28:	43 89 0c 83          	mov    %ecx,(%r11,%r8,4)
  40cb2c:	41 c1 ef 16          	shr    $0x16,%r15d
  40cb30:	8d 04 85 03 00 00 00 	lea    0x3(,%rax,4),%eax
  40cb37:	45 89 3c 83          	mov    %r15d,(%r11,%rax,4)
  40cb3b:	43 8b 44 f1 04       	mov    0x4(%r9,%r14,8),%eax
  40cb40:	41 89 04 93          	mov    %eax,(%r11,%rdx,4)
  40cb44:	44 0f b6 b4 bd 62 ff 	movzbl -0x9e(%rbp,%rdi,4),%r14d
  40cb4b:	ff ff 
  40cb4d:	49 81 fe ff 00 00 00 	cmp    $0xff,%r14
  40cb54:	0f 84 85 01 00 00    	je     40ccdf <_ZL23__libirc_init_cache_tblv+0x69f>
  40cb5a:	47 8b 3c f1          	mov    (%r9,%r14,8),%r15d
  40cb5e:	44 89 f8             	mov    %r15d,%eax
  40cb61:	83 e0 07             	and    $0x7,%eax
  40cb64:	0f 84 c4 00 00 00    	je     40cc2e <_ZL23__libirc_init_cache_tblv+0x5ee>
  40cb6a:	83 f8 02             	cmp    $0x2,%eax
  40cb6d:	75 75                	jne    40cbe4 <_ZL23__libirc_init_cache_tblv+0x5a4>
  40cb6f:	41 80 fe 49          	cmp    $0x49,%r14b
  40cb73:	75 6f                	jne    40cbe4 <_ZL23__libirc_init_cache_tblv+0x5a4>
  40cb75:	c7 85 5c ff ff ff 01 	movl   $0x1,-0xa4(%rbp)
  40cb7c:	00 00 00 
  40cb7f:	4c 89 95 50 ff ff ff 	mov    %r10,-0xb0(%rbp)
  40cb86:	50                   	push   %rax
  40cb87:	53                   	push   %rbx
  40cb88:	51                   	push   %rcx
  40cb89:	52                   	push   %rdx
  40cb8a:	4c 8b 85 50 ff ff ff 	mov    -0xb0(%rbp),%r8
  40cb91:	8b 85 5c ff ff ff    	mov    -0xa4(%rbp),%eax
  40cb97:	0f a2                	cpuid
  40cb99:	41 89 00             	mov    %eax,(%r8)
  40cb9c:	41 89 58 04          	mov    %ebx,0x4(%r8)
  40cba0:	41 89 48 08          	mov    %ecx,0x8(%r8)
  40cba4:	41 89 50 0c          	mov    %edx,0xc(%r8)
  40cba8:	5a                   	pop    %rdx
  40cba9:	59                   	pop    %rcx
  40cbaa:	5b                   	pop    %rbx
  40cbab:	58                   	pop    %rax
  40cbac:	8b 8d 30 ff ff ff    	mov    -0xd0(%rbp),%ecx
  40cbb2:	89 ca                	mov    %ecx,%edx
  40cbb4:	81 e2 00 0f 00 0f    	and    $0xf000f00,%edx
  40cbba:	b8 02 00 00 00       	mov    $0x2,%eax
  40cbbf:	81 fa 00 0f 00 00    	cmp    $0xf00,%edx
  40cbc5:	75 1d                	jne    40cbe4 <_ZL23__libirc_init_cache_tblv+0x5a4>
  40cbc7:	89 c8                	mov    %ecx,%eax
  40cbc9:	c1 e8 0c             	shr    $0xc,%eax
  40cbcc:	25 f0 00 00 00       	and    $0xf0,%eax
  40cbd1:	c1 e9 04             	shr    $0x4,%ecx
  40cbd4:	83 e1 0f             	and    $0xf,%ecx
  40cbd7:	09 c1                	or     %eax,%ecx
  40cbd9:	31 c0                	xor    %eax,%eax
  40cbdb:	83 f9 06             	cmp    $0x6,%ecx
  40cbde:	0f 94 c0             	sete   %al
  40cbe1:	83 c8 02             	or     $0x2,%eax
  40cbe4:	44 89 f9             	mov    %r15d,%ecx
  40cbe7:	c1 e9 03             	shr    $0x3,%ecx
  40cbea:	81 e1 ff 0f 00 00    	and    $0xfff,%ecx
  40cbf0:	89 c2                	mov    %eax,%edx
  40cbf2:	c1 e2 02             	shl    $0x2,%edx
  40cbf5:	44 8d 04 85 01 00 00 	lea    0x1(,%rax,4),%r8d
  40cbfc:	00 
  40cbfd:	43 89 0c 83          	mov    %ecx,(%r11,%r8,4)
  40cc01:	44 89 f9             	mov    %r15d,%ecx
  40cc04:	c1 e9 0f             	shr    $0xf,%ecx
  40cc07:	83 e1 7f             	and    $0x7f,%ecx
  40cc0a:	44 8d 04 85 02 00 00 	lea    0x2(,%rax,4),%r8d
  40cc11:	00 
  40cc12:	43 89 0c 83          	mov    %ecx,(%r11,%r8,4)
  40cc16:	41 c1 ef 16          	shr    $0x16,%r15d
  40cc1a:	8d 04 85 03 00 00 00 	lea    0x3(,%rax,4),%eax
  40cc21:	45 89 3c 83          	mov    %r15d,(%r11,%rax,4)
  40cc25:	43 8b 44 f1 04       	mov    0x4(%r9,%r14,8),%eax
  40cc2a:	41 89 04 93          	mov    %eax,(%r11,%rdx,4)
  40cc2e:	44 0f b6 b4 bd 63 ff 	movzbl -0x9d(%rbp,%rdi,4),%r14d
  40cc35:	ff ff 
  40cc37:	49 81 fe ff 00 00 00 	cmp    $0xff,%r14
  40cc3e:	0f 84 9b 00 00 00    	je     40ccdf <_ZL23__libirc_init_cache_tblv+0x69f>
  40cc44:	47 8b 3c f1          	mov    (%r9,%r14,8),%r15d
  40cc48:	44 89 f8             	mov    %r15d,%eax
  40cc4b:	83 e0 07             	and    $0x7,%eax
  40cc4e:	0f 84 06 fd ff ff    	je     40c95a <_ZL23__libirc_init_cache_tblv+0x31a>
  40cc54:	83 f8 02             	cmp    $0x2,%eax
  40cc57:	0f 85 b3 fc ff ff    	jne    40c910 <_ZL23__libirc_init_cache_tblv+0x2d0>
  40cc5d:	41 80 fe 49          	cmp    $0x49,%r14b
  40cc61:	0f 85 a9 fc ff ff    	jne    40c910 <_ZL23__libirc_init_cache_tblv+0x2d0>
  40cc67:	c7 85 5c ff ff ff 01 	movl   $0x1,-0xa4(%rbp)
  40cc6e:	00 00 00 
  40cc71:	4c 89 95 50 ff ff ff 	mov    %r10,-0xb0(%rbp)
  40cc78:	50                   	push   %rax
  40cc79:	53                   	push   %rbx
  40cc7a:	51                   	push   %rcx
  40cc7b:	52                   	push   %rdx
  40cc7c:	4c 8b 85 50 ff ff ff 	mov    -0xb0(%rbp),%r8
  40cc83:	8b 85 5c ff ff ff    	mov    -0xa4(%rbp),%eax
  40cc89:	0f a2                	cpuid
  40cc8b:	41 89 00             	mov    %eax,(%r8)
  40cc8e:	41 89 58 04          	mov    %ebx,0x4(%r8)
  40cc92:	41 89 48 08          	mov    %ecx,0x8(%r8)
  40cc96:	41 89 50 0c          	mov    %edx,0xc(%r8)
  40cc9a:	5a                   	pop    %rdx
  40cc9b:	59                   	pop    %rcx
  40cc9c:	5b                   	pop    %rbx
  40cc9d:	58                   	pop    %rax
  40cc9e:	8b 8d 30 ff ff ff    	mov    -0xd0(%rbp),%ecx
  40cca4:	89 ca                	mov    %ecx,%edx
  40cca6:	81 e2 00 0f 00 0f    	and    $0xf000f00,%edx
  40ccac:	b8 02 00 00 00       	mov    $0x2,%eax
  40ccb1:	81 fa 00 0f 00 00    	cmp    $0xf00,%edx
  40ccb7:	0f 85 53 fc ff ff    	jne    40c910 <_ZL23__libirc_init_cache_tblv+0x2d0>
  40ccbd:	89 c8                	mov    %ecx,%eax
  40ccbf:	c1 e8 0c             	shr    $0xc,%eax
  40ccc2:	25 f0 00 00 00       	and    $0xf0,%eax
  40ccc7:	c1 e9 04             	shr    $0x4,%ecx
  40ccca:	83 e1 0f             	and    $0xf,%ecx
  40cccd:	09 c1                	or     %eax,%ecx
  40cccf:	31 c0                	xor    %eax,%eax
  40ccd1:	83 f9 06             	cmp    $0x6,%ecx
  40ccd4:	0f 94 c0             	sete   %al
  40ccd7:	83 c8 02             	or     $0x2,%eax
  40ccda:	e9 31 fc ff ff       	jmp    40c910 <_ZL23__libirc_init_cache_tblv+0x2d0>
  40ccdf:	0f 57 c0             	xorps  %xmm0,%xmm0
  40cce2:	0f 29 05 97 5b 00 00 	movaps %xmm0,0x5b97(%rip)        # 412880 <_ZL18__libirc_cache_tbl+0x10>
  40cce9:	0f 29 05 a0 5b 00 00 	movaps %xmm0,0x5ba0(%rip)        # 412890 <_ZL18__libirc_cache_tbl+0x20>
  40ccf0:	0f 29 05 a9 5b 00 00 	movaps %xmm0,0x5ba9(%rip)        # 4128a0 <_ZL18__libirc_cache_tbl+0x30>
  40ccf7:	c7 05 7b 5b 00 00 01 	movl   $0x1,0x5b7b(%rip)        # 41287c <_ZL18__libirc_cache_tbl+0xc>
  40ccfe:	00 00 00 
  40cd01:	64 48 8b 04 25 28 00 	mov    %fs:0x28,%rax
  40cd08:	00 00 
  40cd0a:	48 3b 45 e0          	cmp    -0x20(%rbp),%rax
  40cd0e:	75 0e                	jne    40cd1e <_ZL23__libirc_init_cache_tblv+0x6de>
  40cd10:	48 81 c4 b8 00 00 00 	add    $0xb8,%rsp
  40cd17:	5b                   	pop    %rbx
  40cd18:	41 5e                	pop    %r14
  40cd1a:	41 5f                	pop    %r15
  40cd1c:	5d                   	pop    %rbp
  40cd1d:	c3                   	ret
  40cd1e:	e8 5d 43 ff ff       	call   401080 <__stack_chk_fail@plt>
  40cd23:	90                   	nop
  40cd24:	66 2e 0f 1f 84 00 00 	cs nopw 0x0(%rax,%rax,1)
  40cd2b:	00 00 00 
  40cd2e:	66 90                	xchg   %ax,%ax

000000000040cd30 <__libirc_get_msg>:
  40cd30:	f3 0f 1e fa          	endbr64
  40cd34:	53                   	push   %rbx
  40cd35:	48 81 ec d0 00 00 00 	sub    $0xd0,%rsp
  40cd3c:	89 f3                	mov    %esi,%ebx
  40cd3e:	48 89 54 24 30       	mov    %rdx,0x30(%rsp)
  40cd43:	48 89 4c 24 38       	mov    %rcx,0x38(%rsp)
  40cd48:	4c 89 44 24 40       	mov    %r8,0x40(%rsp)
  40cd4d:	4c 89 4c 24 48       	mov    %r9,0x48(%rsp)
  40cd52:	84 c0                	test   %al,%al
  40cd54:	74 37                	je     40cd8d <__libirc_get_msg+0x5d>
  40cd56:	0f 29 44 24 50       	movaps %xmm0,0x50(%rsp)
  40cd5b:	0f 29 4c 24 60       	movaps %xmm1,0x60(%rsp)
  40cd60:	0f 29 54 24 70       	movaps %xmm2,0x70(%rsp)
  40cd65:	0f 29 9c 24 80 00 00 	movaps %xmm3,0x80(%rsp)
  40cd6c:	00 
  40cd6d:	0f 29 a4 24 90 00 00 	movaps %xmm4,0x90(%rsp)
  40cd74:	00 
  40cd75:	0f 29 ac 24 a0 00 00 	movaps %xmm5,0xa0(%rsp)
  40cd7c:	00 
  40cd7d:	0f 29 b4 24 b0 00 00 	movaps %xmm6,0xb0(%rsp)
  40cd84:	00 
  40cd85:	0f 29 bc 24 c0 00 00 	movaps %xmm7,0xc0(%rsp)
  40cd8c:	00 
  40cd8d:	e8 5e 00 00 00       	call   40cdf0 <irc_ptr_msg>
  40cd92:	85 db                	test   %ebx,%ebx
  40cd94:	7e 4c                	jle    40cde2 <__libirc_get_msg+0xb2>
  40cd96:	48 8d 4c 24 20       	lea    0x20(%rsp),%rcx
  40cd9b:	48 89 4c 24 10       	mov    %rcx,0x10(%rsp)
  40cda0:	48 8d 8c 24 e0 00 00 	lea    0xe0(%rsp),%rcx
  40cda7:	00 
  40cda8:	48 89 4c 24 08       	mov    %rcx,0x8(%rsp)
  40cdad:	48 b9 10 00 00 00 30 	movabs $0x3000000010,%rcx
  40cdb4:	00 00 00 
  40cdb7:	48 89 0c 24          	mov    %rcx,(%rsp)
  40cdbb:	48 8d 1d 0e 5b 00 00 	lea    0x5b0e(%rip),%rbx        # 4128d0 <get_msg_buf>
  40cdc2:	49 89 e1             	mov    %rsp,%r9
  40cdc5:	be 00 02 00 00       	mov    $0x200,%esi
  40cdca:	b9 00 02 00 00       	mov    $0x200,%ecx
  40cdcf:	48 89 df             	mov    %rbx,%rdi
  40cdd2:	ba 01 00 00 00       	mov    $0x1,%edx
  40cdd7:	49 89 c0             	mov    %rax,%r8
  40cdda:	e8 11 43 ff ff       	call   4010f0 <__vsnprintf_chk@plt>
  40cddf:	48 89 d8             	mov    %rbx,%rax
  40cde2:	48 81 c4 d0 00 00 00 	add    $0xd0,%rsp
  40cde9:	5b                   	pop    %rbx
  40cdea:	c3                   	ret
  40cdeb:	0f 1f 44 00 00       	nopl   0x0(%rax,%rax,1)

000000000040cdf0 <irc_ptr_msg>:
  40cdf0:	41 57                	push   %r15
  40cdf2:	41 56                	push   %r14
  40cdf4:	41 54                	push   %r12
  40cdf6:	53                   	push   %rbx
  40cdf7:	48 81 ec 88 00 00 00 	sub    $0x88,%rsp
  40cdfe:	64 48 8b 04 25 28 00 	mov    %fs:0x28,%rax
  40ce05:	00 00 
  40ce07:	48 89 84 24 80 00 00 	mov    %rax,0x80(%rsp)
  40ce0e:	00 
  40ce0f:	85 ff                	test   %edi,%edi
  40ce11:	74 37                	je     40ce4a <irc_ptr_msg+0x5a>
  40ce13:	89 fb                	mov    %edi,%ebx
  40ce15:	80 3d b4 5e 00 00 00 	cmpb   $0x0,0x5eb4(%rip)        # 412cd0 <first_msg>
  40ce1c:	74 38                	je     40ce56 <irc_ptr_msg+0x66>
  40ce1e:	48 63 c3             	movslq %ebx,%rax
  40ce21:	48 c1 e0 04          	shl    $0x4,%rax
  40ce25:	48 8d 0d c4 4b 00 00 	lea    0x4bc4(%rip),%rcx        # 4119f0 <irc_msgtab>
  40ce2c:	48 8b 44 08 08       	mov    0x8(%rax,%rcx,1),%rax
  40ce31:	80 3d 9c 5e 00 00 01 	cmpb   $0x1,0x5e9c(%rip)        # 412cd4 <use_internal_msg>
  40ce38:	0f 85 04 01 00 00    	jne    40cf42 <irc_ptr_msg+0x152>
  40ce3e:	48 8b 3d 93 5e 00 00 	mov    0x5e93(%rip),%rdi        # 412cd8 <message_catalog>
  40ce45:	e9 e9 00 00 00       	jmp    40cf33 <irc_ptr_msg+0x143>
  40ce4a:	48 8d 05 36 12 00 00 	lea    0x1236(%rip),%rax        # 40e087 <_IO_stdin_used+0x87>
  40ce51:	e9 ec 00 00 00       	jmp    40cf42 <irc_ptr_msg+0x152>
  40ce56:	c6 05 73 5e 00 00 01 	movb   $0x1,0x5e73(%rip)        # 412cd0 <first_msg>
  40ce5d:	48 8d 3d 77 17 00 00 	lea    0x1777(%rip),%rdi        # 40e5db <_IO_stdin_used+0x5db>
  40ce64:	31 f6                	xor    %esi,%esi
  40ce66:	e8 75 42 ff ff       	call   4010e0 <catopen@plt>
  40ce6b:	48 89 c7             	mov    %rax,%rdi
  40ce6e:	48 89 05 63 5e 00 00 	mov    %rax,0x5e63(%rip)        # 412cd8 <message_catalog>
  40ce75:	48 83 f8 ff          	cmp    $0xffffffffffffffff,%rax
  40ce79:	0f 85 9a 00 00 00    	jne    40cf19 <irc_ptr_msg+0x129>
  40ce7f:	48 8d 3d 61 17 00 00 	lea    0x1761(%rip),%rdi        # 40e5e7 <_IO_stdin_used+0x5e7>
  40ce86:	e8 a5 41 ff ff       	call   401030 <getenv@plt>
  40ce8b:	48 85 c0             	test   %rax,%rax
  40ce8e:	74 78                	je     40cf08 <irc_ptr_msg+0x118>
  40ce90:	49 89 e6             	mov    %rsp,%r14
  40ce93:	ba 80 00 00 00       	mov    $0x80,%edx
  40ce98:	b9 80 00 00 00       	mov    $0x80,%ecx
  40ce9d:	4c 89 f7             	mov    %r14,%rdi
  40cea0:	48 89 c6             	mov    %rax,%rsi
  40cea3:	e8 58 42 ff ff       	call   401100 <__strncpy_chk@plt>
  40cea8:	c6 44 24 7f 00       	movb   $0x0,0x7f(%rsp)
  40cead:	4c 89 f7             	mov    %r14,%rdi
  40ceb0:	be 2e 00 00 00       	mov    $0x2e,%esi
  40ceb5:	e8 d6 41 ff ff       	call   401090 <strchr@plt>
  40ceba:	48 85 c0             	test   %rax,%rax
  40cebd:	74 49                	je     40cf08 <irc_ptr_msg+0x118>
  40cebf:	49 89 c6             	mov    %rax,%r14
  40cec2:	c6 00 00             	movb   $0x0,(%rax)
  40cec5:	4c 8d 3d 1b 17 00 00 	lea    0x171b(%rip),%r15        # 40e5e7 <_IO_stdin_used+0x5e7>
  40cecc:	49 89 e4             	mov    %rsp,%r12
  40cecf:	4c 89 ff             	mov    %r15,%rdi
  40ced2:	4c 89 e6             	mov    %r12,%rsi
  40ced5:	ba 01 00 00 00       	mov    $0x1,%edx
  40ceda:	e8 91 41 ff ff       	call   401070 <setenv@plt>
  40cedf:	48 8d 3d f5 16 00 00 	lea    0x16f5(%rip),%rdi        # 40e5db <_IO_stdin_used+0x5db>
  40cee6:	31 f6                	xor    %esi,%esi
  40cee8:	e8 f3 41 ff ff       	call   4010e0 <catopen@plt>
  40ceed:	48 89 05 e4 5d 00 00 	mov    %rax,0x5de4(%rip)        # 412cd8 <message_catalog>
  40cef4:	41 c6 06 2e          	movb   $0x2e,(%r14)
  40cef8:	4c 89 ff             	mov    %r15,%rdi
  40cefb:	4c 89 e6             	mov    %r12,%rsi
  40cefe:	ba 01 00 00 00       	mov    $0x1,%edx
  40cf03:	e8 68 41 ff ff       	call   401070 <setenv@plt>
  40cf08:	48 8b 3d c9 5d 00 00 	mov    0x5dc9(%rip),%rdi        # 412cd8 <message_catalog>
  40cf0f:	48 83 ff ff          	cmp    $0xffffffffffffffff,%rdi
  40cf13:	0f 84 05 ff ff ff    	je     40ce1e <irc_ptr_msg+0x2e>
  40cf19:	c6 05 b4 5d 00 00 01 	movb   $0x1,0x5db4(%rip)        # 412cd4 <use_internal_msg>
  40cf20:	48 63 c3             	movslq %ebx,%rax
  40cf23:	48 c1 e0 04          	shl    $0x4,%rax
  40cf27:	48 8d 0d c2 4a 00 00 	lea    0x4ac2(%rip),%rcx        # 4119f0 <irc_msgtab>
  40cf2e:	48 8b 44 08 08       	mov    0x8(%rax,%rcx,1),%rax
  40cf33:	be 01 00 00 00       	mov    $0x1,%esi
  40cf38:	89 da                	mov    %ebx,%edx
  40cf3a:	48 89 c1             	mov    %rax,%rcx
  40cf3d:	e8 de 41 ff ff       	call   401120 <catgets@plt>
  40cf42:	64 48 8b 0c 25 28 00 	mov    %fs:0x28,%rcx
  40cf49:	00 00 
  40cf4b:	48 3b 8c 24 80 00 00 	cmp    0x80(%rsp),%rcx
  40cf52:	00 
  40cf53:	75 0f                	jne    40cf64 <irc_ptr_msg+0x174>
  40cf55:	48 81 c4 88 00 00 00 	add    $0x88,%rsp
  40cf5c:	5b                   	pop    %rbx
  40cf5d:	41 5c                	pop    %r12
  40cf5f:	41 5e                	pop    %r14
  40cf61:	41 5f                	pop    %r15
  40cf63:	c3                   	ret
  40cf64:	e8 17 41 ff ff       	call   401080 <__stack_chk_fail@plt>
  40cf69:	0f 1f 80 00 00 00 00 	nopl   0x0(%rax)

000000000040cf70 <__libirc_print>:
  40cf70:	f3 0f 1e fa          	endbr64
  40cf74:	55                   	push   %rbp
  40cf75:	41 56                	push   %r14
  40cf77:	53                   	push   %rbx
  40cf78:	48 81 ec d0 00 00 00 	sub    $0xd0,%rsp
  40cf7f:	89 fb                	mov    %edi,%ebx
  40cf81:	48 89 4c 24 38       	mov    %rcx,0x38(%rsp)
  40cf86:	4c 89 44 24 40       	mov    %r8,0x40(%rsp)
  40cf8b:	4c 89 4c 24 48       	mov    %r9,0x48(%rsp)
  40cf90:	84 c0                	test   %al,%al
  40cf92:	74 37                	je     40cfcb <__libirc_print+0x5b>
  40cf94:	0f 29 44 24 50       	movaps %xmm0,0x50(%rsp)
  40cf99:	0f 29 4c 24 60       	movaps %xmm1,0x60(%rsp)
  40cf9e:	0f 29 54 24 70       	movaps %xmm2,0x70(%rsp)
  40cfa3:	0f 29 9c 24 80 00 00 	movaps %xmm3,0x80(%rsp)
  40cfaa:	00 
  40cfab:	0f 29 a4 24 90 00 00 	movaps %xmm4,0x90(%rsp)
  40cfb2:	00 
  40cfb3:	0f 29 ac 24 a0 00 00 	movaps %xmm5,0xa0(%rsp)
  40cfba:	00 
  40cfbb:	0f 29 b4 24 b0 00 00 	movaps %xmm6,0xb0(%rsp)
  40cfc2:	00 
  40cfc3:	0f 29 bc 24 c0 00 00 	movaps %xmm7,0xc0(%rsp)
  40cfca:	00 
  40cfcb:	85 f6                	test   %esi,%esi
  40cfcd:	0f 84 80 00 00 00    	je     40d053 <__libirc_print+0xe3>
  40cfd3:	89 d5                	mov    %edx,%ebp
  40cfd5:	89 f7                	mov    %esi,%edi
  40cfd7:	e8 14 fe ff ff       	call   40cdf0 <irc_ptr_msg>
  40cfdc:	85 ed                	test   %ebp,%ebp
  40cfde:	7e 4c                	jle    40d02c <__libirc_print+0xbc>
  40cfe0:	48 8d 4c 24 20       	lea    0x20(%rsp),%rcx
  40cfe5:	48 89 4c 24 10       	mov    %rcx,0x10(%rsp)
  40cfea:	48 8d 8c 24 f0 00 00 	lea    0xf0(%rsp),%rcx
  40cff1:	00 
  40cff2:	48 89 4c 24 08       	mov    %rcx,0x8(%rsp)
  40cff7:	48 b9 18 00 00 00 30 	movabs $0x3000000018,%rcx
  40cffe:	00 00 00 
  40d001:	48 89 0c 24          	mov    %rcx,(%rsp)
  40d005:	4c 8d 35 c4 5a 00 00 	lea    0x5ac4(%rip),%r14        # 412ad0 <print_buf>
  40d00c:	49 89 e1             	mov    %rsp,%r9
  40d00f:	be 00 02 00 00       	mov    $0x200,%esi
  40d014:	b9 00 02 00 00       	mov    $0x200,%ecx
  40d019:	4c 89 f7             	mov    %r14,%rdi
  40d01c:	ba 01 00 00 00       	mov    $0x1,%edx
  40d021:	49 89 c0             	mov    %rax,%r8
  40d024:	e8 c7 40 ff ff       	call   4010f0 <__vsnprintf_chk@plt>
  40d029:	4c 89 f0             	mov    %r14,%rax
  40d02c:	83 fb 01             	cmp    $0x1,%ebx
  40d02f:	75 4f                	jne    40d080 <__libirc_print+0x110>
  40d031:	48 8b 0d a8 4f 00 00 	mov    0x4fa8(%rip),%rcx        # 411fe0 <stderr@GLIBC_2.2.5-0x120>
  40d038:	48 8b 39             	mov    (%rcx),%rdi
  40d03b:	48 8d 15 95 15 00 00 	lea    0x1595(%rip),%rdx        # 40e5d7 <_IO_stdin_used+0x5d7>
  40d042:	be 01 00 00 00       	mov    $0x1,%esi
  40d047:	48 89 c1             	mov    %rax,%rcx
  40d04a:	31 c0                	xor    %eax,%eax
  40d04c:	e8 ff 40 ff ff       	call   401150 <__fprintf_chk@plt>
  40d051:	eb 43                	jmp    40d096 <__libirc_print+0x126>
  40d053:	83 fb 01             	cmp    $0x1,%ebx
  40d056:	75 4a                	jne    40d0a2 <__libirc_print+0x132>
  40d058:	48 8b 05 81 4f 00 00 	mov    0x4f81(%rip),%rax        # 411fe0 <stderr@GLIBC_2.2.5-0x120>
  40d05f:	48 8b 38             	mov    (%rax),%rdi
  40d062:	48 8d 15 1d 10 00 00 	lea    0x101d(%rip),%rdx        # 40e086 <_IO_stdin_used+0x86>
  40d069:	be 01 00 00 00       	mov    $0x1,%esi
  40d06e:	31 c0                	xor    %eax,%eax
  40d070:	48 81 c4 d0 00 00 00 	add    $0xd0,%rsp
  40d077:	5b                   	pop    %rbx
  40d078:	41 5e                	pop    %r14
  40d07a:	5d                   	pop    %rbp
  40d07b:	e9 d0 40 ff ff       	jmp    401150 <__fprintf_chk@plt>
  40d080:	48 8d 35 50 15 00 00 	lea    0x1550(%rip),%rsi        # 40e5d7 <_IO_stdin_used+0x5d7>
  40d087:	bf 01 00 00 00       	mov    $0x1,%edi
  40d08c:	48 89 c2             	mov    %rax,%rdx
  40d08f:	31 c0                	xor    %eax,%eax
  40d091:	e8 7a 40 ff ff       	call   401110 <__printf_chk@plt>
  40d096:	48 81 c4 d0 00 00 00 	add    $0xd0,%rsp
  40d09d:	5b                   	pop    %rbx
  40d09e:	41 5e                	pop    %r14
  40d0a0:	5d                   	pop    %rbp
  40d0a1:	c3                   	ret
  40d0a2:	48 8d 35 dd 0f 00 00 	lea    0xfdd(%rip),%rsi        # 40e086 <_IO_stdin_used+0x86>
  40d0a9:	bf 01 00 00 00       	mov    $0x1,%edi
  40d0ae:	31 c0                	xor    %eax,%eax
  40d0b0:	48 81 c4 d0 00 00 00 	add    $0xd0,%rsp
  40d0b7:	5b                   	pop    %rbx
  40d0b8:	41 5e                	pop    %r14
  40d0ba:	5d                   	pop    %rbp
  40d0bb:	e9 50 40 ff ff       	jmp    401110 <__printf_chk@plt>

Disassembly of section .fini:

000000000040d0c0 <_fini>:
  40d0c0:	48 83 ec 08          	sub    $0x8,%rsp
  40d0c4:	48 83 c4 08          	add    $0x8,%rsp
  40d0c8:	c3                   	ret
